(dp0
S'Force'
p1
NsS'ExpectedGeneconv'
p2
(dp3
(S'N1'
p4
S'N2'
p5
tp6
F12.70201693354492
s(S'N5'
p7
S'cerevisiae'
p8
tp9
F31.501004951624562
s(g5
S'N3'
p10
tp11
F7.558627670491906
s(S'N4'
p12
g7
tp13
F3.51866822537683
s(g4
S'castellii'
p14
tp15
F63.62102397480148
s(g5
S'bayanus'
p16
tp17
F27.745270683553624
s(S'N0'
p18
g4
tp19
F39.0034871623389
s(g10
S'kudriavzevii'
p20
tp21
F26.477622815335472
s(g7
S'paradoxus'
p22
tp23
F13.261013229239785
s(g18
S'kluyveri'
p24
tp25
F0.0
s(g10
g12
tp26
F7.823530535628069
s(g12
S'mikatae'
p27
tp28
F16.08541290301208
ssS'ExpectedDwellTime'
p29
(dp30
g6
F85.29299304690652
sg9
F73.64850897408817
sg11
F91.6061701450495
sg13
F96.01861219650863
sg15
F83.18305601225715
sg17
F77.79851158171076
sg19
F48.99930911232615
sg21
F88.8985847909676
sg23
F99.92478175566244
sg25
F0.0
sg26
F93.43141612970945
sg28
F99.53596484300299
ssS'newicktree'
p31
S'../PairsAlignemt/YeastTree.newick'
p32
sS'll'
p33
cnumpy.core.multiarray
scalar
p34
(cnumpy
dtype
p35
(S'f8'
p36
I0
I1
tp37
Rp38
(I3
S'<'
p39
NNNI-1
I-1
I0
tp40
bS'\xc7\xf9ZE\xb5[\xa1\xc0'
p41
tp42
Rp43
sS'edge_list'
p44
(lp45
g19
ag25
ag6
ag15
ag11
ag17
ag26
ag21
ag13
ag28
ag9
ag23
asS'edge_to_blen'
p46
(dp47
g19
g34
(g38
S'\xb0\x01\xa8Z]\xd2\xb2?'
p48
tp49
Rp50
sg9
g34
(g38
S'_\x82\xd3\xd8\xaay\x97?'
p51
tp52
Rp53
sg11
g34
(g38
S's\x12I6L\xb3\x80?'
p54
tp55
Rp56
sg13
g34
(g38
S'$\xf92\xd1\x1b-l?'
p57
tp58
Rp59
sg15
g34
(g38
S'\xe3\xcc\x1f\xc8\x90\xe3\xb0?'
p60
tp61
Rp62
sg17
g34
(g38
S'\x91\xd4\xe2\x05\xa1\xbf\x97?'
p63
tp64
Rp65
sg6
g34
(g38
S'\xd5\x83\xfb\x1dN\x13\x8f?'
p66
tp67
Rp68
sg21
g34
(g38
S'\x04z\n\x15$\xa4\x9a?'
p69
tp70
Rp71
sg23
g34
(g38
S'\xce\xedUV\xf1\xf3\x8e?'
p72
tp73
Rp74
sg28
g34
(g38
S'\x0f\xfe\xe1%$\xf9\x91?'
p75
tp76
Rp77
sg26
g34
(g38
S'\x88\x86\xe6\x15\xc1S\x81?'
p78
tp79
Rp80
sg25
g34
(g38
S'\x85:\xaf\x102\x82\xf8>'
p81
tp82
Rp83
ssS'paralog'
p84
(lp85
S'YNL301C'
p86
aS'YOL120C'
p87
asS'alignment_file'
p88
S'../MafftAlignment/YNL301C_YOL120C/YNL301C_YOL120C_input.fasta'
p89
sS'x_clock'
p90
NsS'x'
p91
cnumpy.core.multiarray
_reconstruct
p92
(cnumpy
ndarray
p93
(I0
tp94
S'b'
p95
tp96
Rp97
(I1
(I18
tp98
g38
I00
S'\xee\\8\xf4a\xb7\xe7\xbf\xbdx4\x82\xe0X\xe2\xbfU\x93c`\xd6l\xe9\xbf\x13\xc2\x1a\x82\xf5\x8d\xff?\xec\xb4\xf8\x8a\x97k\xe1?\xb6}\xfaE\\\x9b\x08@\xbek\xc82\x9e\xe1\x04\xc0C*&c\xedS%\xc0\t\xebB\x0f\xb8\xc0\x10\xc0\x04H\x01\xfd\x86\xbf\x05\xc02\x0b\x15\xa0\x9b<\x13\xc0h\x9c7\xf9\x91\x1c\x0e\xc0n.\xe35\xe1\x16\x13\xc0&\xe2\x16*.1\r\xc0\\\x01+\xee\x92\xb0\x16\xc0\xb7Pe\x9c\x9c+\x10\xc0\xcbJ\xcb9F4\x0e\xc0\x9e\xa4H\x8f\xc3\xc4\x10\xc0'
p99
tp100
bsS'Model'
p101
S'HKY'
p102
sS'clock'
p103
I00
s.