(dp0
S'Force'
p1
NsS'ExpectedGeneconv'
p2
(dp3
(S'N1'
p4
S'N2'
p5
tp6
F79.9108608288041
s(S'N5'
p7
S'cerevisiae'
p8
tp9
F41.758519282251164
s(g5
S'N3'
p10
tp11
F21.026220817198862
s(S'N4'
p12
g7
tp13
F16.860927323120364
s(g4
S'castellii'
p14
tp15
F139.17947096452684
s(g5
S'bayanus'
p16
tp17
F41.307018259445016
s(S'N0'
p18
g4
tp19
F5.972376944513882
s(g10
S'kudriavzevii'
p20
tp21
F41.15304835031587
s(g7
S'paradoxus'
p22
tp23
F26.79276311053908
s(g18
S'kluyveri'
p24
tp25
F0.0
s(g10
g12
tp26
F22.49659655296564
s(g12
S'mikatae'
p27
tp28
F54.793387157262714
ssS'ExpectedDwellTime'
p29
(dp30
g6
F803.4432255743022
sg9
F1280.3553829894668
sg11
F1217.506907669197
sg13
F1285.5949922113582
sg15
F868.5755379962859
sg17
F1222.3660730514305
sg19
F181.25194371141765
sg21
F1281.4911234203284
sg23
F1298.0277080033275
sg25
F0.0
sg26
F1262.5318892993514
sg28
F1282.4566128715662
ssS'newicktree'
p31
S'../PairsAlignemt/YeastTree.newick'
p32
sS'll'
p33
cnumpy.core.multiarray
scalar
p34
(cnumpy
dtype
p35
(S'f8'
p36
I0
I1
tp37
Rp38
(I3
S'<'
p39
NNNI-1
I-1
I0
tp40
bS'\x9d\xdc\xcd=aO\xcd\xc0'
p41
tp42
Rp43
sS'edge_list'
p44
(lp45
g19
ag25
ag6
ag15
ag11
ag17
ag26
ag21
ag13
ag28
ag9
ag23
asS'edge_to_blen'
p46
(dp47
g19
g34
(g38
S'RoU@\x00v\xa8?'
p48
tp49
Rp50
sg9
g34
(g38
S'\x0c\x14N\xeeV\x1e\xa4?'
p51
tp52
Rp53
sg11
g34
(g38
S'm\xe9{\xb6!0\x9c?'
p54
tp55
Rp56
sg13
g34
(g38
S'0\xc6\xff\xe0\xa0]\x93?'
p57
tp58
Rp59
sg15
g34
(g38
S'7d t\xe9\x07\xcd?'
p60
tp61
Rp62
sg17
g34
(g38
S'\xc8\xd5V\x07\xbb1\xa8?'
p63
tp64
Rp65
sg6
g34
(g38
S's\x87f\x10+\xad\xc5?'
p66
tp67
Rp68
sg21
g34
(g38
S'\xbe!a\xf5w\x10\xa9?'
p69
tp70
Rp71
sg23
g34
(g38
S'(1p\x10\xd2`\x9e?'
p72
tp73
Rp74
sg28
g34
(g38
S'\xcb\xca\xe7\x0b1,\xad?'
p75
tp76
Rp77
sg26
g34
(g38
S'PK\xa9 e\xb7\x99?'
p78
tp79
Rp80
sg25
g34
(g38
S'\xfeH\x8a<De\xba?'
p81
tp82
Rp83
ssS'paralog'
p84
(lp85
S'YBR117C'
p86
aS'YPR074C'
p87
asS'alignment_file'
p88
S'../MafftAlignment/YBR117C_YPR074C/YBR117C_YPR074C_input.fasta'
p89
sS'x_clock'
p90
NsS'x'
p91
cnumpy.core.multiarray
_reconstruct
p92
(cnumpy
ndarray
p93
(I0
tp94
S'b'
p95
tp96
Rp97
(I1
(I18
tp98
g38
I00
S'\xb3\xa0\xc9\x98\x04T\xe8\xbf\xedj\\\xbf\xc9?\xe2\xbfM\r\xc7\x97\x80C\xe9\xbf#\xdcW\x9a\xf8\x19\xf6?\xe9\xdbi\xc9y9\xef\xbfZCu?\xd4K1\xbfJ\xeb\x15PyT\x08\xc0\x975#u\x04-\x02\xc0\xcf\xa7h\xdb\xb1i\xfc\xbf*\xcfG\xff\x1b\xbd\xf7\xbf\xe4k\xf0\xed\x97\xbd\x0c\xc0a,\x1c\xa9\xecj\x08\xc02r\xe6\x07\x89y\r\xc0:\xf7\x0bf\x91"\x08\xc0C\xb3&6e\xbe\x0f\xc0\xe2r2[\xb6\xeb\x06\xc06\xdb\xb5\xa7\xba\xe4\t\xc0=\x82d7X$\x0c\xc0'
p99
tp100
bsS'Model'
p101
S'HKY'
p102
sS'clock'
p103
I00
s.