(dp0
S'Force'
p1
NsS'ExpectedGeneconv'
p2
(dp3
(S'N1'
p4
S'N2'
p5
tp6
F24.572689597612353
s(S'N5'
p7
S'cerevisiae'
p8
tp9
F6.266857827090278
s(g5
S'N3'
p10
tp11
F7.571366064391837
s(S'N4'
p12
g7
tp13
F17.610775983925542
s(g4
S'castellii'
p14
tp15
F52.301218315906844
s(g5
S'bayanus'
p16
tp17
F31.190687403893463
s(S'N0'
p18
g4
tp19
F52.17815531359131
s(g10
S'kudriavzevii'
p20
tp21
F19.32338085686345
s(g7
S'paradoxus'
p22
tp23
F6.290304174150826
s(g18
S'kluyveri'
p24
tp25
F0.0
s(g10
g12
tp26
F9.045453936343273
s(g12
S'mikatae'
p27
tp28
F9.467871113061967
ssS'ExpectedDwellTime'
p29
(dp30
g6
F78.79700406379813
sg9
F28.10486302552561
sg11
F76.27993802641093
sg13
F47.79946068364481
sg15
F78.76527320312616
sg17
F66.23659785876282
sg19
F48.88919658518586
sg21
F86.59969362028698
sg23
F34.41599586445233
sg25
F0.0
sg26
F69.1729825694589
sg28
F63.47117572855053
ssS'newicktree'
p31
S'../PairsAlignemt/YeastTree.newick'
p32
sS'll'
p33
cnumpy.core.multiarray
scalar
p34
(cnumpy
dtype
p35
(S'f8'
p36
I0
I1
tp37
Rp38
(I3
S'<'
p39
NNNI-1
I-1
I0
tp40
bS'\xd4\xd7\xb1\xbdR\x88\xa0\xc0'
p41
tp42
Rp43
sS'edge_list'
p44
(lp45
g19
ag25
ag6
ag15
ag11
ag17
ag26
ag21
ag13
ag28
ag9
ag23
asS'edge_to_blen'
p46
(dp47
g19
g34
(g38
S'v\xd8\x85\n\\\x91\xb3?'
p48
tp49
Rp50
sg9
g34
(g38
S'\xef\x0f_,\x88\xadr?'
p51
tp52
Rp53
sg11
g34
(g38
S'\xe8I\xda\xaa\xfb\x96y?'
p54
tp55
Rp56
sg13
g34
(g38
S'.\xee\xaeF%"\x87?'
p57
tp58
Rp59
sg15
g34
(g38
S'\x83\xc4k[\xe2\x1d\xa6?'
p60
tp61
Rp62
sg17
g34
(g38
S'\xce\x8fXug\xac\x98?'
p63
tp64
Rp65
sg6
g34
(g38
S'\xf1\x9c\xc3Z\x0b\x8d\x94?'
p66
tp67
Rp68
sg21
g34
(g38
S'\xf6bQ\xe6|\x03\x97?'
p69
tp70
Rp71
sg23
g34
(g38
S'\xd8\xc8A\xdf\xa4\x0e\x80?'
p72
tp73
Rp74
sg28
g34
(g38
S'q\xab\x19(\r\xd4\x82?'
p75
tp76
Rp77
sg26
g34
(g38
S'$\x04\xe3\n\xb8\x06w?'
p78
tp79
Rp80
sg25
g34
(g38
S'\x9a^\\,^\x80\xb0>'
p81
tp82
Rp83
ssS'paralog'
p84
(lp85
S'YER102W'
p86
aS'YBL072C'
p87
asS'alignment_file'
p88
S'../MafftAlignment/YER102W_YBL072C/YER102W_YBL072C_input.fasta'
p89
sS'x_clock'
p90
NsS'x'
p91
cnumpy.core.multiarray
_reconstruct
p92
(cnumpy
ndarray
p93
(I0
tp94
S'b'
p95
tp96
Rp97
(I1
(I18
tp98
g38
I00
S'\x977\xfdo`\x06\xe7\xbfLK\xfe\x14\x1d\n\xe2\xbf\x07\xccp\xf9\x9b\xa6\xe8\xbf\xc4\x13\x01\x7f\xcfQ\x01@\xa3\xab\xb5jM\xba\x04@\x0b\xe1xq\xf7}\x07@7W\x8fL\x01\x92\x04\xc04a\x18\x07\x07\xaa+\xc0Sy\xe3k\xbdD\x0f\xc0\xc1O\x90\xae\xcb"\t\xc0\xe8\xb1\xff\x0fcM\x14\xc0\xb9C\'\xd0R\xce\r\xc0:\x8b\xee\x87z\xb9\x14\xc0\x17UE\x04\xf3\\\x0e\xc0C\x03\xfbJ\xf1\xee\x11\xc0o6\xd3x\xcc\xc1\x12\xc0K\xc2\xf2/\xcc\x8f\x15\xc0\xe1\xb4*\x13\xd3d\x13\xc0'
p99
tp100
bsS'Model'
p101
S'HKY'
p102
sS'clock'
p103
I00
s.