(dp0
S'Force'
p1
NsS'ExpectedGeneconv'
p2
(dp3
(S'N1'
p4
S'N2'
p5
tp6
F46.445588195136295
s(S'N5'
p7
S'cerevisiae'
p8
tp9
F23.418747500507802
s(g5
S'N3'
p10
tp11
F13.073529548955182
s(S'N4'
p12
g7
tp13
F8.65997121755159
s(g4
S'castellii'
p14
tp15
F86.05287552212492
s(g5
S'bayanus'
p16
tp17
F23.18778141308767
s(S'N0'
p18
g4
tp19
F34.10540354642354
s(g10
S'kudriavzevii'
p20
tp21
F27.180566761922865
s(g7
S'paradoxus'
p22
tp23
F16.31918670801125
s(g18
S'kluyveri'
p24
tp25
F0.0
s(g10
g12
tp26
F10.707885442613097
s(g12
S'mikatae'
p27
tp28
F36.4771776813832
ssS'ExpectedDwellTime'
p29
(dp30
g6
F547.8925269846145
sg9
F650.1184264185712
sg11
F641.6068326210576
sg13
F655.2940322665527
sg15
F582.8339496701285
sg17
F638.4666186296128
sg19
F260.82335345237516
sg21
F660.6743517269757
sg23
F657.893201167288
sg25
F0.0
sg26
F653.509624578983
sg28
F641.940949003627
ssS'newicktree'
p31
S'../PairsAlignemt/YeastTree.newick'
p32
sS'll'
p33
cnumpy.core.multiarray
scalar
p34
(cnumpy
dtype
p35
(S'f8'
p36
I0
I1
tp37
Rp38
(I3
S'<'
p39
NNNI-1
I-1
I0
tp40
bS'D\xef`8\x10\x08\xbd\xc0'
p41
tp42
Rp43
sS'edge_list'
p44
(lp45
g19
ag25
ag6
ag15
ag11
ag17
ag26
ag21
ag13
ag28
ag9
ag23
asS'edge_to_blen'
p46
(dp47
g19
g34
(g38
S't\x84\xdbu;_\xc5?'
p48
tp49
Rp50
sg9
g34
(g38
S'\xf7\xc6n\x08\xbfA\xa4?'
p51
tp52
Rp53
sg11
g34
(g38
S'{\x88\xab\x13.,\x9c?'
p54
tp55
Rp56
sg13
g34
(g38
S'A\x99\xd6\x93#\xce\x94?'
p57
tp58
Rp59
sg15
g34
(g38
S'\x82\x16\x19\x7fR\xea\xc7?'
p60
tp61
Rp62
sg17
g34
(g38
S'B\xda\x9b\xa4\xf3\x99\xa6?'
p63
tp64
Rp65
sg6
g34
(g38
S'\xd0N\x82\x13%$\xbd?'
p66
tp67
Rp68
sg21
g34
(g38
S'\xab=f\xd5\x02\xdf\xac?'
p69
tp70
Rp71
sg23
g34
(g38
S'XV\x1d5\x90\x88\x9f?'
p72
tp73
Rp74
sg28
g34
(g38
S'\x00\xa7\\)M\x0e\xb0?'
p75
tp76
Rp77
sg26
g34
(g38
S'\xf7\x18\x03j\x1as\x95?'
p78
tp79
Rp80
sg25
g34
(g38
S'\x1am|2\xb8\x16\xad?'
p81
tp82
Rp83
ssS'paralog'
p84
(lp85
S'YGR043C'
p86
aS'YLR354C'
p87
asS'alignment_file'
p88
S'../MafftAlignment/YGR043C_YLR354C/YGR043C_YLR354C_input.fasta'
p89
sS'x_clock'
p90
NsS'x'
p91
cnumpy.core.multiarray
_reconstruct
p92
(cnumpy
ndarray
p93
(I0
tp94
S'b'
p95
tp96
Rp97
(I1
(I18
tp98
g38
I00
S"\xbeF\xeaJ\x88\x1d\xe7\xbf \x83\xa7%\xe9>\xe0\xbf\xc9\x10\x14U\x12l\xea\xbfE\xc2_~7\xd7\xf7?\x15\x1c\xdb\x90\x13\x1d\xee\xbf\x11N~\x9f\x16\xae\xc6?\x1cx0\x1a\xa1\xa3\xfc\xbf\x1c\xb2@\xed\x9b\xf1\x06\xc0\x03\xb3\x1c\xd1Zb\x01\xc0\xf0\xcbT\xb9\x15\xd7\xfa\xbf\xc1Zz\x1e\xb7\xbe\x0c\xc0\xe3\x12\xdc%g\xf6\x08\xc0}ud\x17\x16\xed\x0e\xc0+Tb\xd6\xfc\x00\x07\xc0 \x08\xd3<\x8e+\x0f\xc0_\xc9\x84\x9a\x1f'\x06\xc0@\x02j\xb4\xb2\xd6\t\xc0\x0f\x00\xc1\xf6\xe7\xd7\x0b\xc0"
p99
tp100
bsS'Model'
p101
S'HKY'
p102
sS'clock'
p103
I00
s.