(dp0
S'Force'
p1
NsS'ExpectedGeneconv'
p2
(dp3
(S'N1'
p4
S'N2'
p5
tp6
F18.955639534978037
s(S'N5'
p7
S'cerevisiae'
p8
tp9
F12.37654780685436
s(g5
S'N3'
p10
tp11
F9.242899576113033e-06
s(S'N4'
p12
g7
tp13
F3.370386826629811
s(g4
S'castellii'
p14
tp15
F42.3039405848
s(g5
S'bayanus'
p16
tp17
F15.133393290732382
s(S'N0'
p18
g4
tp19
F40.87990020040912
s(g10
S'kudriavzevii'
p20
tp21
F13.802939107740098
s(g7
S'paradoxus'
p22
tp23
F5.6214114714364705
s(g18
S'kluyveri'
p24
tp25
F0.0
s(g10
g12
tp26
F0.0007238242294709221
s(g12
S'mikatae'
p27
tp28
F17.446225751635318
ssS'ExpectedDwellTime'
p29
(dp30
g6
F32.47067828561653
sg9
F25.10223253687047
sg11
F30.128873190826383
sg13
F28.208577729881704
sg15
F37.26336981591268
sg17
F24.252809444416155
sg19
F23.90342335292463
sg21
F40.438766219265005
sg23
F20.83959531557451
sg25
F0.0
sg26
F30.128474749066466
sg28
F26.660021169112323
ssS'newicktree'
p31
S'../PairsAlignemt/YeastTree.newick'
p32
sS'll'
p33
cnumpy.core.multiarray
scalar
p34
(cnumpy
dtype
p35
(S'f8'
p36
I0
I1
tp37
Rp38
(I3
S'<'
p39
NNNI-1
I-1
I0
tp40
bS'\xc2\xc3\x19\xd7\xdfc\x94\xc0'
p41
tp42
Rp43
sS'edge_list'
p44
(lp45
g19
ag25
ag6
ag15
ag11
ag17
ag26
ag21
ag13
ag28
ag9
ag23
asS'edge_to_blen'
p46
(dp47
g19
g34
(g38
S'?\x16\x89\x89\x86\xea\xb2?'
p48
tp49
Rp50
sg9
g34
(g38
S'\x94\xd3\x19i\xe6\x1f\x92?'
p51
tp52
Rp53
sg11
g34
(g38
S'\xfe\r+\xbeV\xa5M>'
p54
tp55
Rp56
sg13
g34
(g38
S'\xe7\xe7\x18\xaa\xc6\xaaj?'
p57
tp58
Rp59
sg15
g34
(g38
S'\x1a},"\x9a\x83\xac?'
p60
tp61
Rp62
sg17
g34
(g38
S'9\xa2\xa6\xa2$?\x91?'
p63
tp64
Rp65
sg6
g34
(g38
S'\x97R-5\x8a9\x98?'
p66
tp67
Rp68
sg21
g34
(g38
S'1\xe9\xb4\x16\xdfK\x96?'
p69
tp70
Rp71
sg23
g34
(g38
S'\x81O\x10k#\xe9t?'
p72
tp73
Rp74
sg28
g34
(g38
S'\x89Xy\xc0\x9b\xc4\x94?'
p75
tp76
Rp77
sg26
g34
(g38
S'sg*cN\x19\xa9>'
p78
tp79
Rp80
sg25
g34
(g38
S'wyOB\xa3E\xa8>'
p81
tp82
Rp83
ssS'paralog'
p84
(lp85
S'YER074W'
p86
aS'YIL069C'
p87
asS'alignment_file'
p88
S'../MafftAlignment/YER074W_YIL069C/YER074W_YIL069C_input.fasta'
p89
sS'x_clock'
p90
NsS'x'
p91
cnumpy.core.multiarray
_reconstruct
p92
(cnumpy
ndarray
p93
(I0
tp94
S'b'
p95
tp96
Rp97
(I1
(I18
tp98
g38
I00
S"S\xea\xf4G\x90\xfb\xe6\xbf\xdd|H\xcd\x00g\xe0\xbf\x81\xeb0d)\xa9\xe9\xbfD`\xeb\xff\xa2\xa7\x04@`\x1a\xb7\x19\xab'\r@\xeb\x82\xd1&Q1\x02@^e\x81\xd0_\xd7\x04\xc0\xa6\xee\x8b\x8fYG,\xc0\xdaI\x96\xc8\xe8\xf3\r\xc0\xf8\x17@ry\x1a\x07\xc0\xea\xecyF&\x192\xc0\x15,%\xc0\xddU\x10\xc0a\xc0\xaa\xf026,\xc0\x8a\xdd\xeb;\xcb\x9d\x0e\xc0\t=nL\xf1\xe8\x16\xc0\xe9\x81\x8d<9/\x0f\xc0Kn/\xa0\x05#\x10\xc0\xe6}\xcf[*\x1c\x15\xc0"
p99
tp100
bsS'Model'
p101
S'HKY'
p102
sS'clock'
p103
I00
s.