(dp0
S'Force'
p1
NsS'ExpectedGeneconv'
p2
(dp3
(S'N1'
p4
S'N2'
p5
tp6
F64.3641679696603
s(S'N5'
p7
S'cerevisiae'
p8
tp9
F13.588293244757
s(g5
S'N3'
p10
tp11
F12.597403292281836
s(S'N4'
p12
g7
tp13
F8.330604646493063
s(g4
S'castellii'
p14
tp15
F79.5262487105755
s(g5
S'bayanus'
p16
tp17
F18.747677576606733
s(S'N0'
p18
g4
tp19
F11.180278513606796
s(g10
S'kudriavzevii'
p20
tp21
F24.266422143459366
s(g7
S'paradoxus'
p22
tp23
F8.244281599563415
s(g18
S'kluyveri'
p24
tp25
F0.0
s(g10
g12
tp26
F17.25627787097208
s(g12
S'mikatae'
p27
tp28
F25.38575003762781
ssS'ExpectedDwellTime'
p29
(dp30
g6
F530.1729953676419
sg9
F675.86259870988
sg11
F682.9212727422158
sg13
F671.3584587350502
sg15
F525.132427887419
sg17
F696.4331294222013
sg19
F182.03900100509085
sg21
F693.8118261643651
sg23
F678.2035217212402
sg25
F0.0
sg26
F676.0258792663311
sg28
F666.9739955013496
ssS'newicktree'
p31
S'../PairsAlignemt/YeastTree.newick'
p32
sS'll'
p33
cnumpy.core.multiarray
scalar
p34
(cnumpy
dtype
p35
(S'f8'
p36
I0
I1
tp37
Rp38
(I3
S'<'
p39
NNNI-1
I-1
I0
tp40
bS'\xa3\x8e\x14\xcb<%\xbd\xc0'
p41
tp42
Rp43
sS'edge_list'
p44
(lp45
g19
ag25
ag6
ag15
ag11
ag17
ag26
ag21
ag13
ag28
ag9
ag23
asS'edge_to_blen'
p46
(dp47
g19
g34
(g38
S'\x90\xa5\x98\xfe\xf8\x9c\xc0?'
p48
tp49
Rp50
sg9
g34
(g38
S'D.*)G\xbe\xa5?'
p51
tp52
Rp53
sg11
g34
(g38
S'-\xa96\xd9kx\xa5?'
p54
tp55
Rp56
sg13
g34
(g38
S'\xd1c\x11JN\xa0\xa0?'
p57
tp58
Rp59
sg15
g34
(g38
S'r_\xb0N\xdcx\xd3?'
p60
tp61
Rp62
sg17
g34
(g38
S'G\x9f\xa7_\xef\x92\xb1?'
p63
tp64
Rp65
sg6
g34
(g38
S'\r\xfb\x9a\x83\x83\xbb\xd0?'
p66
tp67
Rp68
sg21
g34
(g38
S'\x07\xba0+Zh\xb2?'
p69
tp70
Rp71
sg23
g34
(g38
S'\xe5N>\xd3\xaf\x0f\x9d?'
p72
tp73
Rp74
sg28
g34
(g38
S'\x9b\x15g\x9b\xdf\xae\xb3?'
p75
tp76
Rp77
sg26
g34
(g38
S'\xc5<\xa9\x9af|\xa4?'
p78
tp79
Rp80
sg25
g34
(g38
S'\x98vqj\x80L\xc6?'
p81
tp82
Rp83
ssS'paralog'
p84
(lp85
S'YBR024W'
p86
aS'YBR037C'
p87
asS'alignment_file'
p88
S'../MafftAlignment/YBR024W_YBR037C/YBR024W_YBR037C_input.fasta'
p89
sS'x_clock'
p90
NsS'x'
p91
cnumpy.core.multiarray
_reconstruct
p92
(cnumpy
ndarray
p93
(I0
tp94
S'b'
p95
tp96
Rp97
(I1
(I18
tp98
g38
I00
S"|\x8f\xce\xe6\x92\x05\xe6\xbfn\xd9\x14\xd5\x12\x8b\xe1\xbf'\xa4sP\xeeO\xeb\xbf\x90J\x0e\xd1\x06\x1e\xf4?|:L\xb7r&\xe7\xbf\xd0\xf4\xd1_lv\xe8\xbf\xd8\x7f\xa61\xadU\x00\xc0\xc6\x0b\x186\xbe\xf5\xfb\xbf\x97\xb5\xf6\xd9\xe9v\xf5\xbf\x82\xa6Sc\xd4\t\xf3\xbfrfm\xd1\x89_\t\xc0(Y\xe2$\x19n\x05\xc0\xe5\xad(\xe9\xa9\xbf\t\xc0\x90R\xb4=.\x0f\x05\xc0:\xd7\xdb\xf33k\x0b\xc0hK\xbdb\xf9\x85\x04\xc0\x14DJ`\xacE\t\xc0\xf3\x1a\x7f\x0c\x1c\x7f\x0c\xc0"
p99
tp100
bsS'Model'
p101
S'HKY'
p102
sS'clock'
p103
I00
s.