(dp0
S'Force'
p1
NsS'ExpectedGeneconv'
p2
(dp3
(S'N1'
p4
S'N2'
p5
tp6
F186.8503530977811
s(S'N5'
p7
S'cerevisiae'
p8
tp9
F16.39027071518801
s(g5
S'N3'
p10
tp11
F5.921893431939141
s(S'N4'
p12
g7
tp13
F10.498717177379818
s(g4
S'castellii'
p14
tp15
F317.02289607588415
s(g5
S'bayanus'
p16
tp17
F38.05689485925958
s(S'N0'
p18
g4
tp19
F43.973229221573874
s(g10
S'kudriavzevii'
p20
tp21
F23.176966069809712
s(g7
S'paradoxus'
p22
tp23
F11.600813785059728
s(g18
S'kluyveri'
p24
tp25
F0.0
s(g10
g12
tp26
F14.602054801718962
s(g12
S'mikatae'
p27
tp28
F22.852171324449916
ssS'ExpectedDwellTime'
p29
(dp30
g6
F1054.830745593852
sg9
F1236.0962394541953
sg11
F1175.0755867691357
sg13
F1212.123698115813
sg15
F1123.8734621247281
sg17
F1163.8267039867164
sg19
F539.0084725383177
sg21
F1200.682887481408
sg23
F1227.3622725474486
sg25
F0.0
sg26
F1189.1019075197555
sg28
F1199.6671737969045
ssS'newicktree'
p31
S'../PairsAlignemt/YeastTree.newick'
p32
sS'll'
p33
cnumpy.core.multiarray
scalar
p34
(cnumpy
dtype
p35
(S'f8'
p36
I0
I1
tp37
Rp38
(I3
S'<'
p39
NNNI-1
I-1
I0
tp40
bS'\xe0\xdd\x1c,1g\xd2\xc0'
p41
tp42
Rp43
sS'edge_list'
p44
(lp45
g19
ag25
ag6
ag15
ag11
ag17
ag26
ag21
ag13
ag28
ag9
ag23
asS'edge_to_blen'
p46
(dp47
g19
g34
(g38
S'\x06\x13\xb0\xad\xa2Y\xe1?'
p48
tp49
Rp50
sg9
g34
(g38
S'\xb6~N\x99J\x1f\xc7?'
p51
tp52
Rp53
sg11
g34
(g38
S'\t\x05\x9f\xd3\x0b\xef\xaa?'
p54
tp55
Rp56
sg13
g34
(g38
S'\xe4%@X\xdfh\xbb?'
p57
tp58
Rp59
sg15
g34
(g38
S'\x00\xa2\x0c\x87d\xec\x05@'
p60
tp61
Rp62
sg17
g34
(g38
S']\xc2tY\xf1\x9d\xd1?'
p63
tp64
Rp65
sg6
g34
(g38
S'\xcc6\xa9OFE\xf7?'
p66
tp67
Rp68
sg21
g34
(g38
S'*\x04h\xe4%\x12\xd0?'
p69
tp70
Rp71
sg23
g34
(g38
S'z\xf5\xab_\xba\x84\xbc?'
p72
tp73
Rp74
sg25
g34
(g38
S'w\xaat\x1f\x8f\xdc\xf4?'
p75
tp76
Rp77
sg26
g34
(g38
S'Kt\r\x86\xe1\xd7\xc1?'
p78
tp79
Rp80
sg28
g34
(g38
S'\rF\xb3{\xe0\n\xcf?'
p81
tp82
Rp83
ssS'paralog'
p84
(lp85
S'YNL049C'
p86
aS'YIL109C'
p87
asS'alignment_file'
p88
S'../MafftAlignment/YNL049C_YIL109C/YNL049C_YIL109C_input.fasta'
p89
sS'x_clock'
p90
NsS'x'
p91
cnumpy.core.multiarray
_reconstruct
p92
(cnumpy
ndarray
p93
(I0
tp94
S'b'
p95
tp96
Rp97
(I1
(I19
tp98
g38
I00
S'sP\x89I\xb4\x9f\xe6\xbf\xb9\x1b\xbc\x12\xbf\xf2\xdc\xbf\xc8~\xe9"\xd9\xaf\xef\xbf\xe5\xdc\xa4*\x9a<\xf1?H\xc11y\x15\x1d\x05\xc0\x0b\x1bj\x92\xbd\x8d\x13\xc0AZ7\xa3#\x03\xef\xbf<\xd4\x04\x01\x9d\x96\xe3\xbfVd\xc7s\xfe\xfa\xd0?\xb8xq\x92{\xf9\xd7?~\xad\xf8\x8a;!\xf0?\xd9\x1cG\x94>\x8f\x07\xc0\xe4\xf6\x98\xd5\xec\xa3\xf4\xbf.\x17\xd8P\xc5\x86\xff\xbf\xecG\x9e]\'\x1c\xf6\xbf\xf4\xe8n?\xcf\xdf\x01\xc0\x93R\x1c\xc0\xb1\xaa\xf6\xbf\t\x85\xfa\xaa8a\xfb\xbf\xcbc{\xd5\x97\x8e\x01\xc0'
p99
tp100
bsS'Model'
p101
S'MG94'
p102
sS'clock'
p103
I00
s.