(dp0
S'Force'
p1
NsS'ExpectedGeneconv'
p2
(dp3
(S'N1'
p4
S'N2'
p5
tp6
F16.436169712427514
s(S'N5'
p7
S'cerevisiae'
p8
tp9
F14.433108484838003
s(g5
S'N3'
p10
tp11
F3.926279567921624
s(S'N4'
p12
g7
tp13
F4.4014175966184075
s(g4
S'castellii'
p14
tp15
F32.16052221293921
s(g5
S'bayanus'
p16
tp17
F22.73622227201902
s(S'N0'
p18
g4
tp19
F29.66230171274836
s(g10
S'kudriavzevii'
p20
tp21
F12.82282765935555
s(g7
S'paradoxus'
p22
tp23
F4.769461670765833
s(g18
S'kluyveri'
p24
tp25
F0.0
s(g10
g12
tp26
F4.338859453594837
s(g12
S'mikatae'
p27
tp28
F7.609294043514214
ssS'ExpectedDwellTime'
p29
(dp30
g6
F60.02390622620079
sg9
F55.88024125434418
sg11
F64.89894399221978
sg13
F65.91240912991213
sg15
F49.99081716119467
sg17
F46.08836143694965
sg19
F33.86016095361967
sg21
F62.15216860629631
sg23
F62.17252287693052
sg25
F0.0
sg26
F67.60423926424974
sg28
F73.76323285188072
ssS'newicktree'
p31
S'../PairsAlignemt/YeastTree.newick'
p32
sS'll'
p33
cnumpy.core.multiarray
scalar
p34
(cnumpy
dtype
p35
(S'f8'
p36
I0
I1
tp37
Rp38
(I3
S'<'
p39
NNNI-1
I-1
I0
tp40
bS"\x06\xb9\x8c'F\xee\x96\xc0"
p41
tp42
Rp43
sS'edge_list'
p44
(lp45
g19
ag25
ag6
ag15
ag11
ag17
ag26
ag21
ag13
ag28
ag9
ag23
asS'edge_to_blen'
p46
(dp47
g19
g34
(g38
S'\x9a\xfd>\x84:\x1f\xb2?'
p48
tp49
Rp50
sg9
g34
(g38
S'\xb5\x8fx\\\xb0s\x8e?'
p51
tp52
Rp53
sg11
g34
(g38
S'\xd28\x97U\x87\xb2x?'
p54
tp55
Rp56
sg13
g34
(g38
S'\x82\xad1\x18\xf9\xebn?'
p57
tp58
Rp59
sg15
g34
(g38
S'}u\x95l\xf1\x0f\xa5?'
p60
tp61
Rp62
sg17
g34
(g38
S"\x19'\xc7sC\x00\x97?"
p63
tp64
Rp65
sg6
g34
(g38
S'\xb9\x06>\xc3\xbf\x8a\x97?'
p66
tp67
Rp68
sg21
g34
(g38
S'X\xe3\xcd"\xac\xd8\x8d?'
p69
tp70
Rp71
sg23
g34
(g38
S'\xfe\xc5\x0c}C\x85x?'
p72
tp73
Rp74
sg28
g34
(g38
S'\x97\xa9\x03\x10%q\x89?'
p75
tp76
Rp77
sg26
g34
(g38
S's\xb6\xa2\x92_\xaaw?'
p78
tp79
Rp80
sg25
g34
(g38
S'\x1d \x8b\x80\x15\xe5\xc3>'
p81
tp82
Rp83
ssS'paralog'
p84
(lp85
S'YBL087C'
p86
aS'YER117W'
p87
asS'alignment_file'
p88
S'../MafftAlignment/YBL087C_YER117W/YBL087C_YER117W_input.fasta'
p89
sS'x_clock'
p90
NsS'x'
p91
cnumpy.core.multiarray
_reconstruct
p92
(cnumpy
ndarray
p93
(I0
tp94
S'b'
p95
tp96
Rp97
(I1
(I18
tp98
g38
I00
S'\xfb\x9d\x9bF\n\xdd\xe8\xbf\x88NVI?-\xe5\xbf!~x_\xa2\xa5\xec\xbf\x90\x1e\x05\x90q\xf9\x02@\xd3\xb9g\x83\x14\x83\x01@\xe1\xfd_\x00B\x9d\x07@"\xcd\x89\xa15/\x05\xc0\x9d\xa9\xb4\x8db\xe7)\xc0s\xbfk\x1ev.\x0e\xc0"FF\xa2\xd7\x86\t\xc0H)6\x19\xbcq\x14\xc0[A\x93\t\x12^\x0e\xc0J\xaf3\xdao\x9d\x14\xc0\xf3\x1f\xb9v\n\xea\x10\xc0I\xeb]\x19\\Q\x16\xc0mG\xde6\x89\x8d\x11\xc0\x1eDL;y\xd5\x10\xc0\xe7AW\x9f\x17y\x14\xc0'
p99
tp100
bsS'Model'
p101
S'HKY'
p102
sS'clock'
p103
I00
s.