(dp0
S'Force'
p1
NsS'ExpectedGeneconv'
p2
(dp3
(S'N1'
p4
S'N2'
p5
tp6
F16.648037288577633
s(S'N5'
p7
S'cerevisiae'
p8
tp9
F11.020476320394991
s(g5
S'N3'
p10
tp11
F2.4095171271755416e-06
s(S'N4'
p12
g7
tp13
F2.4124074356509233
s(g4
S'castellii'
p14
tp15
F32.084161448064535
s(g5
S'bayanus'
p16
tp17
F12.737513545253705
s(S'N0'
p18
g4
tp19
F43.2026581293939
s(g10
S'kudriavzevii'
p20
tp21
F11.7006571153036
s(g7
S'paradoxus'
p22
tp23
F4.3075117598118835
s(g18
S'kluyveri'
p24
tp25
F0.0
s(g10
g12
tp26
F0.00017336397155175246
s(g12
S'mikatae'
p27
tp28
F15.06079510736739
ssS'ExpectedDwellTime'
p29
(dp30
g6
F26.90721471811572
sg9
F23.630448447788034
sg11
F26.177142950068745
sg13
F24.95888401768601
sg15
F31.458985193147512
sg17
F22.33657785816984
sg19
F24.169968262127135
sg21
F37.74919617078686
sg23
F19.655560485565385
sg25
F0.0
sg26
F26.177070634909025
sg28
F24.68036375963259
ssS'newicktree'
p31
S'../PairsAlignemt/YeastTree.newick'
p32
sS'll'
p33
cnumpy.core.multiarray
scalar
p34
(cnumpy
dtype
p35
(S'f8'
p36
I0
I1
tp37
Rp38
(I3
S'<'
p39
NNNI-1
I-1
I0
tp40
bS'\x1aQ\xbaT\xfa\xa6\x93\xc0'
p41
tp42
Rp43
sS'edge_list'
p44
(lp45
g19
ag25
ag6
ag15
ag11
ag17
ag26
ag21
ag13
ag28
ag9
ag23
asS'edge_to_blen'
p46
(dp47
g19
g34
(g38
S'i\x0b9\x13\xbc\xb9\xd0?'
p48
tp49
Rp50
sg9
g34
(g38
S'\x00\xf0"/\xcb\x13\xa9?'
p51
tp52
Rp53
sg11
g34
(g38
S'\x0b\xfe\xef\x90M\xa5M>'
p54
tp55
Rp56
sg13
g34
(g38
S'cO\x8d\xd8\xf6\xe3~?'
p57
tp58
Rp59
sg15
g34
(g38
S'6\x81\r\xc1\rT\xc4?'
p60
tp61
Rp62
sg17
g34
(g38
S'\xe3\xd3y\x87\xf9\xe2\xa6?'
p63
tp64
Rp65
sg6
g34
(g38
S'\x12\xda\xc1\xc7%\xaa\xb2?'
p66
tp67
Rp68
sg21
g34
(g38
S'\x15\x19,M\xd6\xe7\xaf?'
p69
tp70
Rp71
sg23
g34
(g38
S'5M\xa6\xc4[\xac\x88?'
p72
tp73
Rp74
sg25
g34
(g38
S'db\x0e\xf3\xefE\xa8>'
p75
tp76
Rp77
sg26
g34
(g38
S"('\x1e<t\x18\xa9>"
p78
tp79
Rp80
sg28
g34
(g38
S'p\xa5pD\x1c\xcd\xab?'
p81
tp82
Rp83
ssS'paralog'
p84
(lp85
S'YER074W'
p86
aS'YIL069C'
p87
asS'alignment_file'
p88
S'../MafftAlignment/YER074W_YIL069C/YER074W_YIL069C_input.fasta'
p89
sS'x_clock'
p90
NsS'x'
p91
cnumpy.core.multiarray
_reconstruct
p92
(cnumpy
ndarray
p93
(I0
tp94
S'b'
p95
tp96
Rp97
(I1
(I19
tp98
g38
I00
S'\xdcg\x13e<\xd4\xe5\xbf\xd7\x96c\x88m5\xe0\xbfx\x07eCA\r\xeb\xbf\x04\x81j\xe1\x8b\x16\x02@\xd2\xafK\xa6cx\xfb\xbf-\xdfiaHR\x05@K\xff\x1d\xf9e3\xf8?\xf0\n\x98q\x9dx\xf5\xbf\xad\xf4\xdb=SG,\xc0"1I\x99\xc8\xf2\x04\xc0\x13\xb6V\x17\xb3p\xfd\xbf\xcb7\xb8\x95&\x192\xc0U\xac\x02\xa7\xb7\xdc\x08\xc0\xd8+!SD6,\xc0\\\x14\xae\xb4O4\x06\xc0\x00"\x8b\x13\x9d\x8c\x13\xc0\xc4rScSN\x07\xc0g\xd5\xa2\xc6\x81!\x08\xc0W\x86\x1e\xad\xf3\xac\x11\xc0'
p99
tp100
bsS'Model'
p101
S'MG94'
p102
sS'clock'
p103
I00
s.