(dp0
S'Force'
p1
NsS'ExpectedGeneconv'
p2
(dp3
(S'N1'
p4
S'N2'
p5
tp6
F145.77501400222127
s(S'N5'
p7
S'cerevisiae'
p8
tp9
F49.3568957866593
s(g5
S'N3'
p10
tp11
F37.11134802736859
s(S'N4'
p12
g7
tp13
F23.659201303306244
s(g4
S'castellii'
p14
tp15
F198.5210024109798
s(g5
S'bayanus'
p16
tp17
F50.02804377377624
s(S'N0'
p18
g4
tp19
F46.73508099818991
s(g10
S'kudriavzevii'
p20
tp21
F64.68850709923689
s(g7
S'paradoxus'
p22
tp23
F28.803130402541246
s(g18
S'kluyveri'
p24
tp25
F0.0
s(g10
g12
tp26
F27.84302877501959
s(g12
S'mikatae'
p27
tp28
F60.38146918166455
ssS'ExpectedDwellTime'
p29
(dp30
g6
F2414.7624471513236
sg9
F3043.2678511845684
sg11
F2898.5203774933116
sg13
F2998.8409433283873
sg15
F2437.1404443710303
sg17
F2936.709413278265
sg19
F1029.4009862866856
sg21
F2991.6590422005856
sg23
F3051.588700686753
sg25
F0.0
sg26
F2959.9733980415162
sg28
F3020.9881085258667
ssS'newicktree'
p31
S'../PairsAlignemt/YeastTree.newick'
p32
sS'll'
p33
cnumpy.core.multiarray
scalar
p34
(cnumpy
dtype
p35
(S'f8'
p36
I0
I1
tp37
Rp38
(I3
S'<'
p39
NNNI-1
I-1
I0
tp40
bS'\x95z\x11\xfd\xe9/\xdd\xc0'
p41
tp42
Rp43
sS'edge_list'
p44
(lp45
g19
ag25
ag6
ag15
ag11
ag17
ag26
ag21
ag13
ag28
ag9
ag23
asS'edge_to_blen'
p46
(dp47
g19
g34
(g38
S'f\xeb`}]\xc9\xcd?'
p48
tp49
Rp50
sg9
g34
(g38
S'f\x92N[\x12\x84\xb6?'
p51
tp52
Rp53
sg11
g34
(g38
S'\xe8g\x1c\x1e0\x06\xb0?'
p54
tp55
Rp56
sg13
g34
(g38
S'\x02\xc5\xb6\x0e\xdc\x0b\xa4?'
p57
tp58
Rp59
sg15
g34
(g38
S'N\x0c\xa8\xd0\xa4\xbc\xd8?'
p60
tp61
Rp62
sg17
g34
(g38
S'&\xe4\xa8\xf5\x89\xbd\xb7?'
p63
tp64
Rp65
sg6
g34
(g38
S'\x13\xfc\xf5\x17\xb1\xec\xd3?'
p66
tp67
Rp68
sg21
g34
(g38
S'\x96\x9a\x13\x9f\x83\x0c\xbd?'
p69
tp70
Rp71
sg23
g34
(g38
S'X\xd23\x1a\x08\xf7\xab?'
p72
tp73
Rp74
sg28
g34
(g38
S'xK\x9a\x86\xec\xad\xbd?'
p75
tp76
Rp77
sg26
g34
(g38
S'\xc4C\x89\x12\x10?\xa9?'
p78
tp79
Rp80
sg25
g34
(g38
S'X|e@\xc2\xf8\xce?'
p81
tp82
Rp83
ssS'paralog'
p84
(lp85
S'YGL133W'
p86
aS'YPL216W'
p87
asS'alignment_file'
p88
S'../MafftAlignment/YGL133W_YPL216W/YGL133W_YPL216W_input.fasta'
p89
sS'x_clock'
p90
NsS'x'
p91
cnumpy.core.multiarray
_reconstruct
p92
(cnumpy
ndarray
p93
(I0
tp94
S'b'
p95
tp96
Rp97
(I1
(I18
tp98
g38
I00
S')^\xef>\xa6 \xe4\xbf\x1b\xbb \xe3\x15\xaa\xdc\xbf\xca<\x96\xcd\x14\x15\xed\xbf\xb7\x91wi\x001\xf4?\x156\x82\xc2\x99D\xee\xbf\xd1\x0e`\x8e\x18\x9a&\xc0G\xe3\x06\xac\xdaS\xf7\xbf\xb3\xc3\x16!\x0b\xb4\xf6\xbf-\x93\xd8\xd2\xbd\xab\xf2\xbfpJ\x02X6k\xee\xbfpf\xee\x88++\x06\xc0\xbf\x80\xd6\xbf$\x06\x03\xc0Z\xe5\xa5\xf4\xbf\x13\x08\xc0x$\xaa.\xdah\x01\xc0`^x=\x17\xec\t\xc02\xfc\xe1;\xe0<\x01\xc0\x9b%\xf5\xca\x98r\x03\xc0%A\xc4HLB\x07\xc0'
p99
tp100
bsS'Model'
p101
S'HKY'
p102
sS'clock'
p103
I00
s.