(dp0
S'Force'
p1
NsS'ExpectedGeneconv'
p2
(dp3
(S'N1'
p4
S'N2'
p5
tp6
F25.32410240892724
s(S'N5'
p7
S'cerevisiae'
p8
tp9
F8.263495869564874
s(g5
S'N3'
p10
tp11
F8.777358765461659e-06
s(S'N4'
p12
g7
tp13
F10.767718970317132
s(g4
S'castellii'
p14
tp15
F53.222482849408756
s(g5
S'bayanus'
p16
tp17
F22.82688892403618
s(S'N0'
p18
g4
tp19
F47.157147210790626
s(g10
S'kudriavzevii'
p20
tp21
F32.19895668347938
s(g7
S'paradoxus'
p22
tp23
F6.16664668057245
s(g18
S'kluyveri'
p24
tp25
F0.0
s(g10
g12
tp26
F8.66746254692908
s(g12
S'mikatae'
p27
tp28
F20.48893689262521
ssS'ExpectedDwellTime'
p29
(dp30
g6
F75.89710443770457
sg9
F75.71176977755508
sg11
F79.24358718199227
sg13
F70.76626007778331
sg15
F66.37219574706417
sg17
F63.643551171862974
sg19
F45.41380632871428
sg21
F67.4380680990548
sg23
F64.57964733846275
sg25
F0.0
sg26
F76.72992240638301
sg28
F79.98386462858068
ssS'newicktree'
p31
S'../PairsAlignemt/YeastTree.newick'
p32
sS'll'
p33
cnumpy.core.multiarray
scalar
p34
(cnumpy
dtype
p35
(S'f8'
p36
I0
I1
tp37
Rp38
(I3
S'<'
p39
NNNI-1
I-1
I0
tp40
bS'(?\x94i\xce\x94\xa0\xc0'
p41
tp42
Rp43
sS'edge_list'
p44
(lp45
g19
ag25
ag6
ag15
ag11
ag17
ag26
ag21
ag13
ag28
ag9
ag23
asS'edge_to_blen'
p46
(dp47
g19
g34
(g38
S'\xd4|\xcb\x8a`\x1b\xb2?'
p48
tp49
Rp50
sg9
g34
(g38
S'\xee\xe0\x8e\x8fo\x9b\x86?'
p51
tp52
Rp53
sg11
g34
(g38
S'\xeadBf\xb2\xb7C>'
p54
tp55
Rp56
sg13
g34
(g38
S'C\x8ea\xd73\xc3\x80?'
p57
tp58
Rp59
sg15
g34
(g38
S'\x1c\xeb\xf1\xdfZ\xca\xa7?'
p60
tp61
Rp62
sg17
g34
(g38
S'3K\x15}e\x1a\x8f?'
p63
tp64
Rp65
sg6
g34
(g38
S'n\xcb\xa3\x95t\xf7\x97?'
p66
tp67
Rp68
sg21
g34
(g38
S'\xd0\xce\xf3iQv\x99?'
p69
tp70
Rp71
sg23
g34
(g38
S'r\x9du rWt?'
p72
tp73
Rp74
sg28
g34
(g38
S'R\xcd\x99\xbdMt\x94?'
p75
tp76
Rp77
sg26
g34
(g38
S'Q\x13z\x83\xd6j{?'
p78
tp79
Rp80
sg25
g34
(g38
S'r\xe3:\x93\xded\xbc>'
p81
tp82
Rp83
ssS'paralog'
p84
(lp85
S'YMR142C'
p86
aS'YDL082W'
p87
asS'alignment_file'
p88
S'../MafftAlignment/YMR142C_YDL082W/YMR142C_YDL082W_input.fasta'
p89
sS'x_clock'
p90
NsS'x'
p91
cnumpy.core.multiarray
_reconstruct
p92
(cnumpy
ndarray
p93
(I0
tp94
S'b'
p95
tp96
Rp97
(I1
(I18
tp98
g38
I00
S'\xe8\x1c1\x01\x99$\xe6\xbf\xe7\xf3\xdc\xd4I\t\xe0\xbf\xea\xec\x19\x19\xcfn\xe7\xbf\xe2\xc0\xeb\x19\n\xc6\x01@\xcdGK\xd0\x9f\xbc\x08@\xe0&\xefDP\xa1\x02@\xfc\xcb\xa6\x12\xe90\x05\xc0i\xf6\x13,&\x94*\xc04\xfb=\xa6\xd9\t\x0e\xc0\x11.\x86\x10e\x8d\x08\xc0\x10\xa4B\xab\x8c\x812\xc0\xea\\\x9b}\xce\xbf\x10\xc0\xbc\xa9\xe7\xb3\xbf\x06\x14\xc0A\xc2\x1fj\xe1\x8d\r\xc0\x85\x8ap7\xce8\x13\xc0\xd4\xb0H\xc3dN\x0f\xc0\x1dU\xf4\x17\x81\x06\x12\xc0q\xe9\xdf\xd4k8\x15\xc0'
p99
tp100
bsS'Model'
p101
S'HKY'
p102
sS'clock'
p103
I00
s.