(dp0
S'Force'
p1
NsS'ExpectedGeneconv'
p2
(dp3
(S'N1'
p4
S'N2'
p5
tp6
F44.93479041983474
s(S'N5'
p7
S'cerevisiae'
p8
tp9
F17.413466793407736
s(g5
S'N3'
p10
tp11
F18.139640722925954
s(S'N4'
p12
g7
tp13
F13.146155494790428
s(g4
S'castellii'
p14
tp15
F104.26557595157455
s(g5
S'bayanus'
p16
tp17
F18.140000426517524
s(S'N0'
p18
g4
tp19
F66.94380950984375
s(g10
S'kudriavzevii'
p20
tp21
F32.43657159655519
s(g7
S'paradoxus'
p22
tp23
F14.22249532515733
s(g18
S'kluyveri'
p24
tp25
F0.0
s(g10
g12
tp26
F15.089535506515041
s(g12
S'mikatae'
p27
tp28
F31.674965299477268
ssS'ExpectedDwellTime'
p29
(dp30
g6
F283.7512316630456
sg9
F319.97044075710585
sg11
F306.9316165590178
sg13
F317.8721114913635
sg15
F318.766412971581
sg17
F318.6652149346049
sg19
F188.0272940376051
sg21
F315.9043187773658
sg23
F333.9107133088922
sg25
F0.0
sg26
F313.15948440462205
sg28
F327.61667722415626
ssS'newicktree'
p31
S'../PairsAlignemt/YeastTree.newick'
p32
sS'll'
p33
cnumpy.core.multiarray
scalar
p34
(cnumpy
dtype
p35
(S'f8'
p36
I0
I1
tp37
Rp38
(I3
S'<'
p39
NNNI-1
I-1
I0
tp40
bS'{\xbf\xc1Bb\xa3\xb6\xc0'
p41
tp42
Rp43
sS'edge_list'
p44
(lp45
g19
ag25
ag6
ag15
ag11
ag17
ag26
ag21
ag13
ag28
ag9
ag23
asS'edge_to_blen'
p46
(dp47
g6
g34
(g38
S'\x8bw\xffw5\xc3\xcb?'
p48
tp49
Rp50
sg9
g34
(g38
S':l\x00\x93\xedT\xb6?'
p51
tp52
Rp53
sg11
g34
(g38
S'\x0f\xbf\\\xa3\xe3\x1f\xb8?'
p54
tp55
Rp56
sg13
g34
(g38
S'\xcf\xdd%\xf2~\xe8\xb1?'
p57
tp58
Rp59
sg21
g34
(g38
S'\x1d\xe2\xc3\xf6\x1d\xf9\xc4?'
p60
tp61
Rp62
sg17
g34
(g38
S'#\xe0\x90)\x011\xbc?'
p63
tp64
Rp65
sg19
g34
(g38
S'?\xae\n=\xf7q\xde?'
p66
tp67
Rp68
sg15
g34
(g38
S'\t\xa8\xaf\x0br[\xe1?'
p69
tp70
Rp71
sg23
g34
(g38
S'\xe4\xfb\xa9\xd1\xfe\xd6\xb5?'
p72
tp73
Rp74
sg28
g34
(g38
S'0?\xf9\xd9:\xf2\xc6?'
p75
tp76
Rp77
sg26
g34
(g38
S'\n\x1c\xf5V\xe5\xa9\xb4?'
p78
tp79
Rp80
sg25
g34
(g38
S';\xcag\xb4\x7fe\xb6>'
p81
tp82
Rp83
ssS'paralog'
p84
(lp85
S'YDR502C'
p86
aS'YLR180W'
p87
asS'alignment_file'
p88
S'../MafftAlignment/YDR502C_YLR180W/YDR502C_YLR180W_input.fasta'
p89
sS'x_clock'
p90
NsS'x'
p91
cnumpy.core.multiarray
_reconstruct
p92
(cnumpy
ndarray
p93
(I0
tp94
S'b'
p95
tp96
Rp97
(I1
(I19
tp98
g38
I00
S'\x9e\xb2*\x07{>\xe8\xbfvW\xd9(\x01\t\xe2\xbf\x82H\xd1\xe6\xfdt\xeb\xbf\xac\x88\x0bv5\x86\xf5?\xae-)m\x8e\xab\x08\xc0!\xaa\x0bWT\x88\xc2\xbfv\xf8P>I\xaa\xda\xbf\x1b;\xf5xJ\xc6\xe7\xbf\xa5GcA\xa2\r+\xc0?\xac\xe4\x9b\x17t\xf8\xbf\x9a&>\x8fF\x93\xe3\xbf\xe49\x8fTD\xe5\x02\xc04\x1c\xb5\x047\xa6\x01\xc0\x8d\xc2\xdf\x96h"\x04\xc0\xc8\xc6\xaf\xb0\xcc\xf0\xfc\xbf\xdc\xd5\x88\xda\x83G\x05\xc0xu\xfe\xa6\x85\x80\xfb\xbf\xab\xa0.\x84j\x83\x03\xc0L?~\xa5\x08\xb1\x03\xc0'
p99
tp100
bsS'Model'
p101
S'MG94'
p102
sS'clock'
p103
I00
s.