(dp0
S'Force'
p1
NsS'ExpectedGeneconv'
p2
(dp3
(S'N1'
p4
S'N2'
p5
tp6
F28.942866148032273
s(S'N5'
p7
S'cerevisiae'
p8
tp9
F11.808250177050498
s(g5
S'N3'
p10
tp11
F5.451316210102945
s(S'N4'
p12
g7
tp13
F4.338449757647971
s(g4
S'castellii'
p14
tp15
F67.91293652169848
s(g5
S'bayanus'
p16
tp17
F14.560320724537199
s(S'N0'
p18
g4
tp19
F10.783323580270864
s(g10
S'kudriavzevii'
p20
tp21
F14.092638213975468
s(g7
S'paradoxus'
p22
tp23
F8.250251131259809
s(g18
S'kluyveri'
p24
tp25
F0.0
s(g10
g12
tp26
F6.310593356293993
s(g12
S'mikatae'
p27
tp28
F18.732351857576525
ssS'ExpectedDwellTime'
p29
(dp30
g6
F224.40147353585505
sg9
F318.20045474195376
sg11
F278.2821887623131
sg13
F306.26997178008077
sg15
F231.56001886453373
sg17
F286.88135572103744
sg19
F91.58505681905027
sg21
F283.55716632553174
sg23
F311.85386450644637
sg25
F0.0
sg26
F288.2171851937142
sg28
F292.37401728822465
ssS'newicktree'
p31
S'../PairsAlignemt/YeastTree.newick'
p32
sS'll'
p33
cnumpy.core.multiarray
scalar
p34
(cnumpy
dtype
p35
(S'f8'
p36
I0
I1
tp37
Rp38
(I3
S'<'
p39
NNNI-1
I-1
I0
tp40
bS'\x983O\xe1K\x0e\xad\xc0'
p41
tp42
Rp43
sS'edge_list'
p44
(lp45
g19
ag25
ag6
ag15
ag11
ag17
ag26
ag21
ag13
ag28
ag9
ag23
asS'edge_to_blen'
p46
(dp47
g19
g34
(g38
S'\x1d\xbd,^\xe9\xac\xbe?'
p48
tp49
Rp50
sg9
g34
(g38
S'P\xff\x9f\xe1\x99\xb9\xa8?'
p51
tp52
Rp53
sg11
g34
(g38
S'(/\x01\xe9\x19\xc1\x95?'
p54
tp55
Rp56
sg13
g34
(g38
S'\xdf\xcah\x18f\xe0\x96?'
p57
tp58
Rp59
sg15
g34
(g38
S'd\x95e~\xd84\xd0?'
p60
tp61
Rp62
sg17
g34
(g38
S'\xee\xa4\xb1-\xb0\x82\xb0?'
p63
tp64
Rp65
sg6
g34
(g38
S'\xa7\x93\x0fQ\xc2\xa6\xc1?'
p66
tp67
Rp68
sg21
g34
(g38
S'T\xe5\xb8\xf6\x14\xdb\xaa?'
p69
tp70
Rp71
sg23
g34
(g38
S'\xcb\xcf#\xf2\xa8-\x97?'
p72
tp73
Rp74
sg28
g34
(g38
S'N\xd3\xa2>\xb4\xad\xad?'
p75
tp76
Rp77
sg26
g34
(g38
S'C\x19\xa9~\xd67\x9f?'
p78
tp79
Rp80
sg25
g34
(g38
S"\xc9'm\x14\x0c\xbc\xcc?"
p81
tp82
Rp83
ssS'paralog'
p84
(lp85
S'YIL057C'
p86
aS'YER067W'
p87
asS'alignment_file'
p88
S'../MafftAlignment/YIL057C_YER067W/YIL057C_YER067W_input.fasta'
p89
sS'x_clock'
p90
NsS'x'
p91
cnumpy.core.multiarray
_reconstruct
p92
(cnumpy
ndarray
p93
(I0
tp94
S'b'
p95
tp96
Rp97
(I1
(I18
tp98
g38
I00
S'p\xcc\xf3C\xacV\xe5\xbf\x17\xd2K<\xeb\xab\xdd\xbf8c.\xed\xe3\xc5\xe7\xbf\xc62\xed*\xff\xa8\xf6?\xd4\xfe?J\xceq\xba\xbf\x98\xb1\xd8(\xbb!\xae? \xfel\xd7E\xf9\x00\xc0\xe7md\xd6"\xe7\xf7\xbf7yJ\x85\x0e\xb3\xff\xbfS\xd1\x95\x07\xc1\xf9\xf5\xbf~>~E3\xd0\x0e\xc0\xa0\x0f|:\xf0\xed\x05\xc0/h\xc28}\xec\x0b\xc0x\xf3\x9c\xd5.\x95\x07\xc0\xaag\xe7\xf4.i\x0e\xc0M\xe2O\'\x80\xc8\x06\xc0\x04\xeb\xb0\xcd{>\x08\xc0\x959&vWN\x0e\xc0'
p99
tp100
bsS'Model'
p101
S'HKY'
p102
sS'clock'
p103
I00
s.