(dp0
S'Force'
p1
NsS'ExpectedGeneconv'
p2
(dp3
(S'N1'
p4
S'N2'
p5
tp6
F24.816247853031133
s(S'N5'
p7
S'cerevisiae'
p8
tp9
F5.738834141969
s(g5
S'N3'
p10
tp11
F4.061937409007966
s(S'N4'
p12
g7
tp13
F1.4759008193223266
s(g4
S'castellii'
p14
tp15
F49.94559969578802
s(g5
S'bayanus'
p16
tp17
F3.2586692345382944
s(S'N0'
p18
g4
tp19
F48.80400976766008
s(g10
S'kudriavzevii'
p20
tp21
F2.379732997790241
s(g7
S'paradoxus'
p22
tp23
F2.0967702426962735
s(g18
S'kluyveri'
p24
tp25
F0.0
s(g10
g12
tp26
F3.9062488063953555
s(g12
S'mikatae'
p27
tp28
F5.5185160594186335
ssS'ExpectedDwellTime'
p29
(dp30
g6
F32.19260556783136
sg9
F46.30801495326788
sg11
F26.544473941854392
sg13
F41.63674665331978
sg15
F41.86379799935115
sg17
F20.63656683193179
sg19
F34.29181322983838
sg21
F40.96371754386123
sg23
F50.62301680812733
sg25
F0.0
sg26
F35.093391540661294
sg28
F41.51878075615026
ssS'newicktree'
p31
S'../PairsAlignemt/YeastTree.newick'
p32
sS'll'
p33
cnumpy.core.multiarray
scalar
p34
(cnumpy
dtype
p35
(S'f8'
p36
I0
I1
tp37
Rp38
(I3
S'<'
p39
NNNI-1
I-1
I0
tp40
bS'K\xe9L\xe2}\xcd\x93\xc0'
p41
tp42
Rp43
sS'edge_list'
p44
(lp45
g19
ag25
ag6
ag15
ag11
ag17
ag26
ag21
ag13
ag28
ag9
ag23
asS'edge_to_blen'
p46
(dp47
g19
g34
(g38
S'3i\ts/b\xdd?'
p48
tp49
Rp50
sg9
g34
(g38
S'\xd7\xbbg\xf1;\xf2\xa2?'
p51
tp52
Rp53
sg11
g34
(g38
S'\xd3\xd0\x14\xb8\ns\xa8?'
p54
tp55
Rp56
sg13
g34
(g38
S'>\xa2p,\xff\x06\x93?'
p57
tp58
Rp59
sg15
g34
(g38
S'P\xeba\xca\xa2\x03\xd8?'
p60
tp61
Rp62
sg17
g34
(g38
S'GJ\xf8\xce\xc8D\x97?'
p63
tp64
Rp65
sg6
g34
(g38
S'\xf8\xffh\x82M\xa5\xc3?'
p66
tp67
Rp68
sg21
g34
(g38
S'O\xe8\x03\xd2E\xf9\xa1?'
p69
tp70
Rp71
sg23
g34
(g38
S'6\xd1\xb0\\\xe0\xb3\x99?'
p72
tp73
Rp74
sg28
g34
(g38
S'\xe51\xcd\x13\x8eH\xa7?'
p75
tp76
Rp77
sg26
g34
(g38
S'\xfa\x97\xb6\x00\xbb\x11\x9f?'
p78
tp79
Rp80
sg25
g34
(g38
S'\xf2\xc67Ox\xc6 ?'
p81
tp82
Rp83
ssS'paralog'
p84
(lp85
S'YLR333C'
p86
aS'YGR027C'
p87
asS'alignment_file'
p88
S'../MafftAlignment/YLR333C_YGR027C/YLR333C_YGR027C_input.fasta'
p89
sS'x_clock'
p90
NsS'x'
p91
cnumpy.core.multiarray
_reconstruct
p92
(cnumpy
ndarray
p93
(I0
tp94
S'b'
p95
tp96
Rp97
(I1
(I19
tp98
g38
I00
S'\xeb\xd94\xfeT\x1f\xe7\xbf\xed\xdf\xe0i\xb5\x9a\xe0\xbfC\xb0\x80\xc8n\x8c\xea\xbfE\xda-\xe5\xb6I\xfc?\x0c%\xcd/\xc77\xfc\xbf\x88\xa2i\xf1\xb6\x01\xf2?\xc32]@{\xae\xfc?\x15\x13\x02\xee\x0c\xe9\xe8\xbf\x9b\x94\xaew\\\xed!\xc0{S\x87\xcd\x9a\xfc\xfd\xbf\xab"\xb5W\x1b^\xef\xbf!U\xb3\x1fqU\x08\xc0\xc7H\xdc1`F\x0e\xc0\xbb\xaaU(G\xf6\x0b\xc0\xf6\x928|\x99\xcb\n\xc0\x82/\x7f\xd4\x7f\xe2\x0f\xc0\xfcW\x97\xae\x83\xb9\x08\xc0\xdd\x01y\xa2\xae_\n\xc0?)/R\xa1z\r\xc0'
p99
tp100
bsS'Model'
p101
S'MG94'
p102
sS'clock'
p103
I00
s.