(dp0
S'Force'
p1
NsS'ExpectedGeneconv'
p2
(dp3
(S'N1'
p4
S'N2'
p5
tp6
F84.79851398609661
s(S'N5'
p7
S'cerevisiae'
p8
tp9
F29.23453792573504
s(g5
S'N3'
p10
tp11
F9.923423839607594
s(S'N4'
p12
g7
tp13
F12.318111972323782
s(g4
S'castellii'
p14
tp15
F122.5728957896998
s(g5
S'bayanus'
p16
tp17
F41.48120762606713
s(S'N0'
p18
g4
tp19
F42.91623893652049
s(g10
S'kudriavzevii'
p20
tp21
F26.828333276719132
s(g7
S'paradoxus'
p22
tp23
F12.811907424339957
s(g18
S'kluyveri'
p24
tp25
F0.0
s(g10
g12
tp26
F13.566417946582941
s(g12
S'mikatae'
p27
tp28
F28.86543507542483
ssS'ExpectedDwellTime'
p29
(dp30
g6
F447.2375416789575
sg9
F515.7567558828573
sg11
F512.2721197450561
sg13
F518.3635072897702
sg15
F464.98127946729295
sg17
F508.6868851268993
sg19
F216.5077660182448
sg21
F522.1846772086434
sg23
F512.0839809029061
sg25
F0.0
sg26
F517.5944577022015
sg28
F534.3022710861757
ssS'newicktree'
p31
S'../PairsAlignemt/YeastTree.newick'
p32
sS'll'
p33
cnumpy.core.multiarray
scalar
p34
(cnumpy
dtype
p35
(S'f8'
p36
I0
I1
tp37
Rp38
(I3
S'<'
p39
NNNI-1
I-1
I0
tp40
bS'w\x84 \xf6\x7f\xc1\xb9\xc0'
p41
tp42
Rp43
sS'edge_list'
p44
(lp45
g19
ag25
ag6
ag15
ag11
ag17
ag26
ag21
ag13
ag28
ag9
ag23
asS'edge_to_blen'
p46
(dp47
g19
g34
(g38
S'\x98 \xe5\xd4\xb5]\xc5?'
p48
tp49
Rp50
sg9
g34
(g38
S'\x96\xb2\xf8\xef\xd9y\xa7?'
p51
tp52
Rp53
sg11
g34
(g38
S'M\x85r\x1f\xe7\xe5\x92?'
p54
tp55
Rp56
sg13
g34
(g38
S'\xf0\x97\xe0\xbd0T\x93?'
p57
tp58
Rp59
sg15
g34
(g38
S'\x10\xc6\xfc\x8e\xea\x11\xcc?'
p60
tp61
Rp62
sg17
g34
(g38
S'Z<9\x0f\xd1\x99\xb0?'
p63
tp64
Rp65
sg6
g34
(g38
S'\x9e\xae\xa9\xdf\xc8\xbf\xc3?'
p66
tp67
Rp68
sg21
g34
(g38
S'\xca\xbe\xac\xe8\x8f\xbe\xa7?'
p69
tp70
Rp71
sg23
g34
(g38
S'\xf2\x80\xfc\xb9\xff\x03\x93?'
p72
tp73
Rp74
sg28
g34
(g38
S'e\xac8Y\x19e\xab?'
p75
tp76
Rp77
sg26
g34
(g38
S'xK\xf3FA\xbd\x95?'
p78
tp79
Rp80
sg25
g34
(g38
S'\xdfv&\x8aK\xd3\xba?'
p81
tp82
Rp83
ssS'paralog'
p84
(lp85
S'YPL232W'
p86
aS'YMR183C'
p87
asS'alignment_file'
p88
S'../MafftAlignment/YPL232W_YMR183C/YPL232W_YMR183C_input.fasta'
p89
sS'x_clock'
p90
NsS'x'
p91
cnumpy.core.multiarray
_reconstruct
p92
(cnumpy
ndarray
p93
(I0
tp94
S'b'
p95
tp96
Rp97
(I1
(I18
tp98
g38
I00
S'k(\x92\xaa\xc9@\xe4\xbf\xcax\t\x94\t@\xdf\xbf\x98d0s>\xa3\xe8\xbfI\xd8\xd4\xaf\x96z\xf8?ny-\xd6\xd8\x8d\xd1?\x87Y\xb6\x92J\xcc\xb1?\xd0E\xf3\xd5\xc4\xa4\xfc\xbfL\xfb\xe0<\xf0\x0b\x02\xc0r\x1f\xad\xfd\x17\xe7\xfd\xbf\x91e^0\xfbF\xf8\xbfPxy\nv\xf0\x0f\xc0\x80\xa9\x17%\xc3\xe2\x05\xc0\x05\xae"}\x9d\xd1\x0e\xc0\xac\x94\t<]\x91\x08\xc0CgXEL\xc2\x0f\xc0U0\x14\x04zl\x07\xc0j\xb1\xe8m\xa5\xa8\x08\xc0\xef\xd0\xd1\x99\xc2\xe3\x0f\xc0'
p99
tp100
bsS'Model'
p101
S'HKY'
p102
sS'clock'
p103
I00
s.