(dp0
S'Force'
p1
NsS'ExpectedGeneconv'
p2
(dp3
(S'N1'
p4
S'N2'
p5
tp6
F36.00947434603889
s(S'N5'
p7
S'cerevisiae'
p8
tp9
F30.100452594734524
s(g5
S'N3'
p10
tp11
F24.90997862087437
s(S'N4'
p12
g7
tp13
F22.355442873767092
s(g4
S'castellii'
p14
tp15
F148.29906266372575
s(g5
S'bayanus'
p16
tp17
F35.73234313704018
s(S'N0'
p18
g4
tp19
F82.32502266728903
s(g10
S'kudriavzevii'
p20
tp21
F57.50589070971912
s(g7
S'paradoxus'
p22
tp23
F25.165735059672276
s(g18
S'kluyveri'
p24
tp25
F0.0
s(g10
g12
tp26
F23.589002409424314
s(g12
S'mikatae'
p27
tp28
F52.450463396301345
ssS'ExpectedDwellTime'
p29
(dp30
g6
F375.58016489854623
sg9
F390.2266731603654
sg11
F397.1492994805411
sg13
F400.2882910725742
sg15
F391.00337645225045
sg17
F395.39823619272835
sg19
F212.07475522118042
sg21
F392.30635939349906
sg23
F404.93755425386075
sg25
F0.0
sg26
F403.37774652149966
sg28
F403.63530423918525
ssS'newicktree'
p31
S'../PairsAlignemt/YeastTree.newick'
p32
sS'll'
p33
cnumpy.core.multiarray
scalar
p34
(cnumpy
dtype
p35
(S'f8'
p36
I0
I1
tp37
Rp38
(I3
S'<'
p39
NNNI-1
I-1
I0
tp40
bS'\x07:\x07\xb1\x03\xfc\xb9\xc0'
p41
tp42
Rp43
sS'edge_list'
p44
(lp45
g19
ag25
ag6
ag15
ag11
ag17
ag26
ag21
ag13
ag28
ag9
ag23
asS'edge_to_blen'
p46
(dp47
g19
g34
(g38
S'I\x19\xbbH;\xce\xc0?'
p48
tp49
Rp50
sg9
g34
(g38
S'\xacr\x82\x9c\x89\x1f\x97?'
p51
tp52
Rp53
sg11
g34
(g38
S'\xc2\x1bsL\xf5\xa0\x96?'
p54
tp55
Rp56
sg13
g34
(g38
S'\xb1,\xc1\xa7B\xca\x91?'
p57
tp58
Rp59
sg15
g34
(g38
S'\xf5\xe9H!\xb6g\xbe?'
p60
tp61
Rp62
sg17
g34
(g38
S'\x9b!\x05\x04wj\x9d?'
p63
tp64
Rp65
sg6
g34
(g38
S'\x19D\xd8\xf4h\n\xa0?'
p66
tp67
Rp68
sg21
g34
(g38
S'\xf7~t\xed\xcdD\xa5?'
p69
tp70
Rp71
sg23
g34
(g38
S'\xa6\xd0>=a\xc4\x95?'
p72
tp73
Rp74
sg28
g34
(g38
S'\x85\xc0\x83)\xc3\xb9\xa5?'
p75
tp76
Rp77
sg26
g34
(g38
S'\xbc\xa7/\xe8<F\x92?'
p78
tp79
Rp80
sg25
g34
(g38
S'W\x01\xee\xa3\x1cc\xb6>'
p81
tp82
Rp83
ssS'paralog'
p84
(lp85
S'YDR502C'
p86
aS'YLR180W'
p87
asS'alignment_file'
p88
S'../MafftAlignment/YDR502C_YLR180W/YDR502C_YLR180W_input.fasta'
p89
sS'x_clock'
p90
NsS'x'
p91
cnumpy.core.multiarray
_reconstruct
p92
(cnumpy
ndarray
p93
(I0
tp94
S'b'
p95
tp96
Rp97
(I1
(I18
tp98
g38
I00
S"\xa6\x89\rH\rC\xe9\xbf;1\x07_\x91\xea\xe2\xbf\x03O\xb8\xb3\x16n\xea\xbf\xb3\x81\xa7\xcfek\xfc?\xdb8\xba\xec\n2\xf5?(\xb3'\x1e\x83\xb3\xed?\xba\x9d\x86\xa9\x17>\x00\xc0\x9eU\xad\xd5\xd8\r+\xc0V\xa0\t\xf5\xa0\xb4\x0b\xc0\xaa\xbc\xf8\\f\x0b\x01\xc0%D\xb1e}\x7f\x0e\xc0(\xf6JxEf\x0c\xc0\xc0SM\x85\x98\x1a\x10\xc0\xf9\x16{\xab\xdcr\t\xc0\xe2\x13\x08I\x196\x10\xc0ps\x0c\xe0UG\t\xc0\xc1g\xa5\xc78S\x0e\xc0z\xc2_\xb4\xfe\xce\x0e\xc0"
p99
tp100
bsS'Model'
p101
S'HKY'
p102
sS'clock'
p103
I00
s.