(dp0
S'Force'
p1
NsS'ExpectedGeneconv'
p2
(dp3
(S'N1'
p4
S'N2'
p5
tp6
F22.507858860492075
s(S'N5'
p7
S'cerevisiae'
p8
tp9
F2.3332773365070483
s(g5
S'N3'
p10
tp11
F5.039418183681084
s(S'N4'
p12
g7
tp13
F4.130415355230736
s(g4
S'castellii'
p14
tp15
F21.651994640734884
s(g5
S'bayanus'
p16
tp17
F7.661174679756322
s(S'N0'
p18
g4
tp19
F26.469008297412973
s(g10
S'kudriavzevii'
p20
tp21
F14.674345076862263
s(g7
S'paradoxus'
p22
tp23
F6.30697175911247
s(g18
S'kluyveri'
p24
tp25
F0.0
s(g10
g12
tp26
F5.314868339968118
s(g12
S'mikatae'
p27
tp28
F17.194280297041637
ssS'ExpectedDwellTime'
p29
(dp30
g6
F57.72606041035204
sg9
F54.40497426243918
sg11
F59.182986274233144
sg13
F53.764994346551745
sg15
F53.018760841781074
sg17
F55.89743188068233
sg19
F32.528770720628735
sg21
F61.210061662714665
sg23
F50.29620833701823
sg25
F0.0
sg26
F56.365717366619755
sg28
F47.85454227483871
ssS'newicktree'
p31
S'../PairsAlignemt/YeastTree.newick'
p32
sS'll'
p33
cnumpy.core.multiarray
scalar
p34
(cnumpy
dtype
p35
(S'f8'
p36
I0
I1
tp37
Rp38
(I3
S'<'
p39
NNNI-1
I-1
I0
tp40
bS'\x8am\x0eE\xa9;\x98\xc0'
p41
tp42
Rp43
sS'edge_list'
p44
(lp45
g19
ag25
ag6
ag15
ag11
ag17
ag26
ag21
ag13
ag28
ag9
ag23
asS'edge_to_blen'
p46
(dp47
g19
g34
(g38
S'z\xd9m\x9b\xd7\xe2\xac?'
p48
tp49
Rp50
sg9
g34
(g38
S'\xd9\xf8\x82E\xdb\x9dm?'
p51
tp52
Rp53
sg11
g34
(g38
S'3}w7*Ru?'
p54
tp55
Rp56
sg13
g34
(g38
S"'S\r\xf9\x1f\x0et?"
p57
tp58
Rp59
sg15
g34
(g38
S'\xeb\xd3\x7fE\xfb\xec\x9a?'
p60
tp61
Rp62
sg17
g34
(g38
S'\x1c\xb7\xad\xe47Q{?'
p63
tp64
Rp65
sg6
g34
(g38
S'\xbb0?\x89\xe2E\x9c?'
p66
tp67
Rp68
sg21
g34
(g38
S'\xf6z\xf1\x0b(\n\x94?'
p69
tp70
Rp71
sg23
g34
(g38
S'\xe1G\xb7\xba\x00\xb1y?'
p72
tp73
Rp74
sg28
g34
(g38
S'\xff\x8f\xfe\x12\xa4)\x92?'
p75
tp76
Rp77
sg26
g34
(g38
S'\xfaA\xe8\x01v\xa3u?'
p78
tp79
Rp80
sg25
g34
(g38
S'N\x0f\x13i_\xbe\xb3>'
p81
tp82
Rp83
ssS'paralog'
p84
(lp85
S'YBR191W'
p86
aS'YPL079W'
p87
asS'alignment_file'
p88
S'../MafftAlignment/YBR191W_YPL079W/YBR191W_YPL079W_input.fasta'
p89
sS'x_clock'
p90
NsS'x'
p91
cnumpy.core.multiarray
_reconstruct
p92
(cnumpy
ndarray
p93
(I0
tp94
S'b'
p95
tp96
Rp97
(I1
(I18
tp98
g38
I00
S'\xca?\x00r\xfe\xd6\xe7\xbf\x83\xbb3\xdc\xf1[\xe0\xbf\xf7\xf5\xf46\xf2\xae\xe9\xbfdP\xec\xb1\x82\x95\x03@u7\xc9\xf2\xcbG\x05@6Q\xda\x1dl{\x06@[\x84[$\xed\xff\x06\xc0\xc5\x15\xec\xca.N+\xc0\x1cj\xbd\xd3m\xb7\x0c\xc0x\x14\x82Xl\x1b\r\xc0(\xd8\xcc\xfeD\x08\x15\xc0\xce\x11\x8eO~\n\x14\xc0\xcc\xb7\xaaO!\xf9\x14\xc0\xb0\xd7\xef\x04Vx\x0f\xc0\xf8<\xd6\r\xf1F\x15\xc01\xcdn\xdd\xdf \x10\xc0\xc5\xccL\xef\x84}\x16\xc0\x87\xbb\t\xebSI\x14\xc0'
p99
tp100
bsS'Model'
p101
S'HKY'
p102
sS'clock'
p103
I00
s.