(dp0
S'Force'
p1
NsS'ExpectedGeneconv'
p2
(dp3
(S'N1'
p4
S'N2'
p5
tp6
F35.33263552972978
s(S'N5'
p7
S'cerevisiae'
p8
tp9
F10.98548936218431
s(g5
S'N3'
p10
tp11
F7.609094582326162
s(S'N4'
p12
g7
tp13
F9.044863002284739
s(g4
S'castellii'
p14
tp15
F44.36063930909992
s(g5
S'bayanus'
p16
tp17
F9.925980017314298
s(S'N0'
p18
g4
tp19
F1.1391293660246629
s(g10
S'kudriavzevii'
p20
tp21
F14.823099919564347
s(g7
S'paradoxus'
p22
tp23
F7.45240599237825
s(g18
S'kluyveri'
p24
tp25
F0.0
s(g10
g12
tp26
F7.46886747023773
s(g12
S'mikatae'
p27
tp28
F16.92699531777722
ssS'ExpectedDwellTime'
p29
(dp30
g6
F499.1194131735888
sg9
F752.0930851136638
sg11
F734.6450551520174
sg13
F751.7012372529844
sg15
F542.8846062568948
sg17
F747.2500504629443
sg19
F90.57880461019293
sg21
F754.3955407767596
sg23
F749.4505896013106
sg25
F0.0
sg26
F750.0870201651287
sg28
F760.7166364821098
ssS'newicktree'
p31
S'../PairsAlignemt/YeastTree.newick'
p32
sS'll'
p33
cnumpy.core.multiarray
scalar
p34
(cnumpy
dtype
p35
(S'f8'
p36
I0
I1
tp37
Rp38
(I3
S'<'
p39
NNNI-1
I-1
I0
tp40
bS'\x13\x16\x1aM\x87C\xbf\xc0'
p41
tp42
Rp43
sS'edge_list'
p44
(lp45
g19
ag25
ag6
ag15
ag11
ag17
ag26
ag21
ag13
ag28
ag9
ag23
asS'edge_to_blen'
p46
(dp47
g19
g34
(g38
S'\xe1cd\r\x9c\x01\xaf?'
p48
tp49
Rp50
sg9
g34
(g38
S'h\xd4\x18(\xeb[\xb2?'
p51
tp52
Rp53
sg11
g34
(g38
S'Aa\x0c\xb2\xf3\x05\xa9?'
p54
tp55
Rp56
sg13
g34
(g38
S'\xe4%\xcb,R\xe2\xa5?'
p57
tp58
Rp59
sg15
g34
(g38
S'\nf\xd6\xd0\x83\xe1\xda?'
p60
tp61
Rp62
sg17
g34
(g38
S'q\xd9\x19<*\x1e\xb2?'
p63
tp64
Rp65
sg6
g34
(g38
S'>\x0ch\xb6\xae\xb2\xd6?'
p66
tp67
Rp68
sg21
g34
(g38
S'N\xa6\xef\x1a\x8f\x0c\xb5?'
p69
tp70
Rp71
sg23
g34
(g38
S"$\x0f'6wM\xa9?"
p72
tp73
Rp74
sg28
g34
(g38
S'\x15\xe3\xb1\t\xfa\xc4\xb9?'
p75
tp76
Rp77
sg26
g34
(g38
S'\x8a\x96\xb0\xb8\xad\xfe\xa8?'
p78
tp79
Rp80
sg25
g34
(g38
S'Ku\x98\xab#\xa4\xda?'
p81
tp82
Rp83
ssS'paralog'
p84
(lp85
S'YLR284C'
p86
aS'YOR180C'
p87
asS'alignment_file'
p88
S'../MafftAlignment/YLR284C_YOR180C/YLR284C_YOR180C_input.fasta'
p89
sS'x_clock'
p90
NsS'x'
p91
cnumpy.core.multiarray
_reconstruct
p92
(cnumpy
ndarray
p93
(I0
tp94
S'b'
p95
tp96
Rp97
(I1
(I18
tp98
g38
I00
S'\xed\xa3\xbc\r\xda\x90\xe5\xbfA\x0ba\x1ci\xca\xe1\xbf\xce\xef\xd7Y\xf1\x8a\xec\xbf]jR:\x9f\x10\xf4?G\x87{U\x84R\xf5\xbf\xbd C\xd1\x87W\xfe\xbf=\x10\xdb!\xden\x06\xc0\xe1r\x1a+\xad\x0b\xec\xbf\xe1\xc1\xcds\xf1\x95\xf0\xbf\x17**\xf6H\xc2\xeb\xbf\x0b\x1e\xa4j\xed%\x08\xc0\xfeB&\xd8\xad/\x05\xc0\xe2ji\x08A(\x08\xc0\xdc\xa4\xe2\t\x90\xfc\x03\xc05r\x12mt8\t\xc0\x93\xd2\xac\x07/^\x02\xc0\xaa\xd7\tj\x97\x14\x05\xc0\x15\xf28\xe20\x0f\x08\xc0'
p99
tp100
bsS'Model'
p101
S'HKY'
p102
sS'clock'
p103
I00
s.