(dp0
S'Force'
p1
NsS'ExpectedGeneconv'
p2
(dp3
(S'N1'
p4
S'N2'
p5
tp6
F14.471654141664036
s(S'N5'
p7
S'cerevisiae'
p8
tp9
F8.413031158177663
s(g5
S'N3'
p10
tp11
F2.5225975223266253
s(S'N4'
p12
g7
tp13
F0.8902397054941315
s(g4
S'castellii'
p14
tp15
F11.70300513404586
s(g5
S'bayanus'
p16
tp17
F6.665495715329849
s(S'N0'
p18
g4
tp19
F9.633783993239025
s(g10
S'kudriavzevii'
p20
tp21
F4.291048433722619
s(g7
S'paradoxus'
p22
tp23
F1.9411706076005089
s(g18
S'kluyveri'
p24
tp25
F0.0
s(g10
g12
tp26
F2.925494916549814
s(g12
S'mikatae'
p27
tp28
F6.234374518674159
ssS'ExpectedDwellTime'
p29
(dp30
g6
F51.39902784493963
sg9
F58.02252010271566
sg11
F56.029078687735726
sg13
F62.10475856466744
sg15
F57.20886123112203
sg17
F55.796575911177335
sg19
F27.761571214002664
sg21
F58.856505236005304
sg23
F67.14666858202759
sg25
F0.0
sg26
F59.23178458798016
sg28
F63.05025373504199
ssS'newicktree'
p31
S'../PairsAlignemt/YeastTree.newick'
p32
sS'll'
p33
cnumpy.core.multiarray
scalar
p34
(cnumpy
dtype
p35
(S'f8'
p36
I0
I1
tp37
Rp38
(I3
S'<'
p39
NNNI-1
I-1
I0
tp40
bS'o\xdf\xb3\x7f\xd9\xe5\x92\xc0'
p41
tp42
Rp43
sS'edge_list'
p44
(lp45
g19
ag25
ag6
ag15
ag11
ag17
ag26
ag21
ag13
ag28
ag9
ag23
asS'edge_to_blen'
p46
(dp47
g6
g34
(g38
S'r\x10\x80\xec\x95F\xc1?'
p48
tp49
Rp50
sg9
g34
(g38
S'UX\xff\x14\xc3\xdb\xa8?'
p51
tp52
Rp53
sg11
g34
(g38
S'\xecE\x81\x1adc\x9b?'
p54
tp55
Rp56
sg13
g34
(g38
S'e-\x9e\x0c/t\x83?'
p57
tp58
Rp59
sg21
g34
(g38
S'\x95\xbf\x8a\xdfY/\xa7?'
p60
tp61
Rp62
sg17
g34
(g38
S'\x0by\xef\xb8\xb9T\xaf?'
p63
tp64
Rp65
sg19
g34
(g38
S'{^\xa0\x85X\x13\xc7?'
p66
tp67
Rp68
sg15
g34
(g38
S'\x06\x05\xfe\x1a\xa7\xe2\xc0?'
p69
tp70
Rp71
sg23
g34
(g38
S'*W\xb9\xea\xb6\xd1\xa1?'
p72
tp73
Rp74
sg28
g34
(g38
S'\x05d<\x04\xf2\xa3\xac?'
p75
tp76
Rp77
sg26
g34
(g38
S'\xc5O{\x1b\xfe\xf0\xa0?'
p78
tp79
Rp80
sg25
g34
(g38
S'n3\x92\x97\xf0\xd3\x8a>'
p81
tp82
Rp83
ssS'paralog'
p84
(lp85
S'YER131W'
p86
aS'YGL189C'
p87
asS'alignment_file'
p88
S'../MafftAlignment/YER131W_YGL189C/YER131W_YGL189C_input.fasta'
p89
sS'x_clock'
p90
NsS'x'
p91
cnumpy.core.multiarray
_reconstruct
p92
(cnumpy
ndarray
p93
(I0
tp94
S'b'
p95
tp96
Rp97
(I1
(I19
tp98
g38
I00
S'<8rndI\xe5\xbf\xf8\x05"\x8c\xa8T\xdc\xbf.\x80\xfaO\xaa\xc8\xe6\xbf\x81j\xab\xc5N\xf3\xfd? W\x86\x9ac\xf3\x05\xc0k\x8f\xe8\xb9,\xe2\xe3\xbf\xba\x92\xffU\xfb\xb5\xf3?O\xd4\xfa\xea~i\xfb\xbf*0\xe5O\xdf\xd9.\xc0q\t\xf36\x96\x05\x00\xc0\x99,\x83\xf0d4\x00\xc0W8\x89w\x8a\xf8\x0c\xc0\xf4s\x1b\xc7\x88Y\x06\xc0/;\xa5\x0e\xbeD\x0b\xc0AL#O1\xc2\x08\xc0`\xf30\x07U\xa0\x12\xc0R\xda\xfb\x8bk\x11\x07\xc0\xbb\x1a\x94\xd2u3\x08\xc0\xdd\xe0-fH\xdd\n\xc0'
p99
tp100
bsS'Model'
p101
S'MG94'
p102
sS'clock'
p103
I00
s.