(dp0
S'Force'
p1
NsS'ExpectedGeneconv'
p2
(dp3
(S'N1'
p4
S'N2'
p5
tp6
F66.32779925797801
s(S'N5'
p7
S'cerevisiae'
p8
tp9
F5.599916650130713
s(g5
S'N3'
p10
tp11
F5.9271398055450115
s(S'N4'
p12
g7
tp13
F3.030275292290486
s(g4
S'castellii'
p14
tp15
F88.1787601557183
s(g5
S'bayanus'
p16
tp17
F7.4866502709660665
s(S'N0'
p18
g4
tp19
F3.8296731802964743
s(g10
S'kudriavzevii'
p20
tp21
F6.1245276771643935
s(g7
S'paradoxus'
p22
tp23
F10.261034648944166
s(g18
S'kluyveri'
p24
tp25
F0.0
s(g10
g12
tp26
F2.252673969207551
s(g12
S'mikatae'
p27
tp28
F5.878142023837539
ssS'ExpectedDwellTime'
p29
(dp30
g6
F912.907369198307
sg9
F1073.8845372941732
sg11
F1058.1526180659819
sg13
F1074.70040203451
sg15
F940.537398118502
sg17
F1058.3901156089669
sg19
F277.25016929751223
sg21
F1074.1537724249708
sg23
F1096.7722604400599
sg25
F0.0
sg26
F1067.421665490886
sg28
F1078.8294927842514
ssS'newicktree'
p31
S'../PairsAlignemt/YeastTree.newick'
p32
sS'll'
p33
cnumpy.core.multiarray
scalar
p34
(cnumpy
dtype
p35
(S'f8'
p36
I0
I1
tp37
Rp38
(I3
S'<'
p39
NNNI-1
I-1
I0
tp40
bS'\xf3p\x8b\x87\xc8\x16\xd2\xc0'
p41
tp42
Rp43
sS'edge_list'
p44
(lp45
g19
ag25
ag6
ag15
ag11
ag17
ag26
ag21
ag13
ag28
ag9
ag23
asS'edge_to_blen'
p46
(dp47
g6
g34
(g38
S'YAg\x97\xeb\x1f\x01@'
p48
tp49
Rp50
sg9
g34
(g38
S'&J(\xd4\x93e\xc8?'
p51
tp52
Rp53
sg11
g34
(g38
S'\xbd\x95\xdd{k\x85\xcd?'
p54
tp55
Rp56
sg13
g34
(g38
S'\xa3\x8c]\xe3\xf2\xfd\xbe?'
p57
tp58
Rp59
sg21
g34
(g38
S'v16\x1b\xe4\xc3\xd5?'
p60
tp61
Rp62
sg17
g34
(g38
S'!\xb3/\x80\xc70\xd5?'
p63
tp64
Rp65
sg19
g34
(g38
S'\xb4\x9b\xe4\xa19{\xd1?'
p66
tp67
Rp68
sg15
g34
(g38
S'\xb6),\xf2\x1d\x96\x06@'
p69
tp70
Rp71
sg23
g34
(g38
S'\xf3C\xbb>\x92\x13\xd6?'
p72
tp73
Rp74
sg28
g34
(g38
S'B\xf5\x8c\xee\x14\x1a\xd2?'
p75
tp76
Rp77
sg26
g34
(g38
S'g\x12H\xd1^}\xbb?'
p78
tp79
Rp80
sg25
g34
(g38
S'\x18uBn\xe4\x1e\r@'
p81
tp82
Rp83
ssS'paralog'
p84
(lp85
S'YAL056W'
p86
aS'YOR371C'
p87
asS'alignment_file'
p88
S'../MafftAlignment/YAL056W_YOR371C/YAL056W_YOR371C_input.fasta'
p89
sS'x_clock'
p90
NsS'x'
p91
cnumpy.core.multiarray
_reconstruct
p92
(cnumpy
ndarray
p93
(I0
tp94
S'b'
p95
tp96
Rp97
(I1
(I19
tp98
g38
I00
S'\x88\xaaH\xbc;\x0e\xe4\xbf#\xa64\x15\x83\xad\xdd\xbf\x1f\xe2\x9e\xc7\xf1\x00\xf0\xbfS*u8lw\xed?\x17\xf4\x0c\xd4\xfd\xd5\x00\xc0\xa6&\xa3\xd9(\xf5\r\xc0\xe6\xfc\xdf\x94%P\x01\xc0\x8c\xe1\xbd\x06\x94\xc3\xf4\xbf6\x08=Q\x0f\xac\xf4?h\xf2\xf7\xb9\xc3Z\xe8?O3R\x7fC\x9b\xf0?h\xfdI\xd1\x83x\xf7\xbfr\xe1crl\xaf\xf1\xbf@\x0fW\xe9\xd5\xd9\x01\xc0\xef\xf1\x91f\xd3A\xf1\xbf\xcd\xe8!=?\xe4\x00\xc0X\x1f\xe86\xb44\xf4\xbf\x89~A_q\x85\xfa\xbf\xc0z\xf2\x8e\xaa\x07\xf1\xbf'
p99
tp100
bsS'Model'
p101
S'MG94'
p102
sS'clock'
p103
I00
s.