(dp0
S'Force'
p1
NsS'ExpectedGeneconv'
p2
(dp3
(S'N1'
p4
S'N2'
p5
tp6
F208.24582973220444
s(S'N5'
p7
S'cerevisiae'
p8
tp9
F37.90401420897094
s(g5
S'N3'
p10
tp11
F29.724293353776194
s(S'N4'
p12
g7
tp13
F23.52365757983479
s(g4
S'castellii'
p14
tp15
F297.8848949202009
s(g5
S'bayanus'
p16
tp17
F60.826828392699504
s(S'N0'
p18
g4
tp19
F36.2900496071666
s(g10
S'kudriavzevii'
p20
tp21
F48.606541700349695
s(g7
S'paradoxus'
p22
tp23
F30.31317079280387
s(g18
S'kluyveri'
p24
tp25
F0.0
s(g10
g12
tp26
F19.462310565633256
s(g12
S'mikatae'
p27
tp28
F54.35326474467813
ssS'ExpectedDwellTime'
p29
(dp30
g6
F1804.3562891578179
sg9
F2281.639226367232
sg11
F2229.6044179144023
sg13
F2281.208616184265
sg15
F1914.6652709403868
sg17
F2242.3816657780585
sg19
F660.9872878759497
sg21
F2247.9825552878606
sg23
F2275.7258501385263
sg25
F0.0
sg26
F2261.8615338052773
sg28
F2302.4094987803733
ssS'newicktree'
p31
S'../PairsAlignemt/YeastTree.newick'
p32
sS'll'
p33
cnumpy.core.multiarray
scalar
p34
(cnumpy
dtype
p35
(S'f8'
p36
I0
I1
tp37
Rp38
(I3
S'<'
p39
NNNI-1
I-1
I0
tp40
bS'Ez\xab\xb5\xbc&\xd7\xc0'
p41
tp42
Rp43
sS'edge_list'
p44
(lp45
g19
ag25
ag6
ag15
ag11
ag17
ag26
ag21
ag13
ag28
ag9
ag23
asS'edge_to_blen'
p46
(dp47
g19
g34
(g38
S'{1m\xb72~\xc4?'
p48
tp49
Rp50
sg9
g34
(g38
S'Im\xc7\x1b\n~\xaa?'
p51
tp52
Rp53
sg11
g34
(g38
S'2Q\x9b\x04g\x1f\xa4?'
p54
tp55
Rp56
sg13
g34
(g38
S'\x9a\xbeys\x17:\xa1?'
p57
tp58
Rp59
sg15
g34
(g38
S'\xc7\x94\xacf\xd1\xf6\xdb?'
p60
tp61
Rp62
sg17
g34
(g38
S'uY\x9dV\xd3\xc2\xb3?'
p63
tp64
Rp65
sg6
g34
(g38
S'"\xc0\x12^\xfd\xf3\xd4?'
p66
tp67
Rp68
sg21
g34
(g38
S'\x8e\x91!\x9b$\x98\xb0?'
p69
tp70
Rp71
sg23
g34
(g38
S'\x03\xa21\\D\xea\xa3?'
p72
tp73
Rp74
sg28
g34
(g38
S'\xd7\x9c9\xb2=\xa7\xb4?'
p75
tp76
Rp77
sg26
g34
(g38
S'\xd6\xfc\xc1\x8f\xc1\x0f\x9f?'
p78
tp79
Rp80
sg25
g34
(g38
S'U\xfc\x15\xc0\xbd\x9a\xd3?'
p81
tp82
Rp83
ssS'paralog'
p84
(lp85
S'YIR033W'
p86
aS'YKL020C'
p87
asS'alignment_file'
p88
S'../MafftAlignment/YIR033W_YKL020C/YIR033W_YKL020C_input.fasta'
p89
sS'x_clock'
p90
NsS'x'
p91
cnumpy.core.multiarray
_reconstruct
p92
(cnumpy
ndarray
p93
(I0
tp94
S'b'
p95
tp96
Rp97
(I1
(I18
tp98
g38
I00
S'\r\x81Iyh:\xe6\xbf\xc9r,\xc3s\x80\xdd\xbf\xd4\x8e\xea\xd4\xc2V\xeb\xbf\x8b\x14\xf1\x10m\x91\xf4?\xdd%\xa2\x0c\xb0\x03\xed\xbfZ\xc4%\x8f5\\\xf4\xbf3\x18P\x87\xa9O\xfd\xbf\x01Zv\xa2\x15\xee\xf2\xbf\\\xb9\xb1\x06\x95\xdd\xf1\xbf\x97Qt\xbe\xa6~\xea\xbfB\x89\xf9xN\xe4\t\xc0\xc6Q\x95\x7f\xe1}\x04\xc0\x14\x99\xc3Q\xc9\xf6\x0b\xc0\xdf\xb6\x9c\xa8\x91\xe3\x05\xc0_\xf9\x17\xf3\x82"\x0b\xc0S\xe5\x12\xc8o#\x04\xc0e\xde\x9a\x9e\x16\xb1\x07\xc0\xa9\xb1\x8bs\x8a\xf9\t\xc0'
p99
tp100
bsS'Model'
p101
S'HKY'
p102
sS'clock'
p103
I00
s.