(dp0
S'Force'
p1
NsS'ExpectedGeneconv'
p2
(dp3
(S'N1'
p4
S'N2'
p5
tp6
F173.82880611781383
s(S'N5'
p7
S'cerevisiae'
p8
tp9
F53.64864975728581
s(g5
S'N3'
p10
tp11
F25.987460459137953
s(S'N4'
p12
g7
tp13
F26.798476804065313
s(g4
S'castellii'
p14
tp15
F300.94167805943516
s(g5
S'bayanus'
p16
tp17
F69.99782261276272
s(S'N0'
p18
g4
tp19
F61.5735392846634
s(g10
S'kudriavzevii'
p20
tp21
F66.37685343895951
s(g7
S'paradoxus'
p22
tp23
F39.695707849014035
s(g18
S'kluyveri'
p24
tp25
F0.0
s(g10
g12
tp26
F38.9788883307312
s(g12
S'mikatae'
p27
tp28
F68.54588148823437
ssS'ExpectedDwellTime'
p29
(dp30
g6
F1446.3328944554944
sg9
F1838.46659147337
sg11
F1737.5902786419574
sg13
F1813.862431135653
sg15
F1599.7382816596162
sg17
F1735.4354636710457
sg19
F619.2573458906904
sg21
F1789.2760855232468
sg23
F1827.3607395255144
sg25
F0.0
sg26
F1773.2479253837157
sg28
F1795.4720372584443
ssS'newicktree'
p31
S'../PairsAlignemt/YeastTree.newick'
p32
sS'll'
p33
cnumpy.core.multiarray
scalar
p34
(cnumpy
dtype
p35
(S'f8'
p36
I0
I1
tp37
Rp38
(I3
S'<'
p39
NNNI-1
I-1
I0
tp40
bS'Z\x81\xa8\xf1\xa3w\xd4\xc0'
p41
tp42
Rp43
sS'edge_list'
p44
(lp45
g19
ag25
ag6
ag15
ag11
ag17
ag26
ag21
ag13
ag28
ag9
ag23
asS'edge_to_blen'
p46
(dp47
g19
g34
(g38
S'\x96\x0b\xc6\x0en\xba\xc3?'
p48
tp49
Rp50
sg9
g34
(g38
S'D<[dO\xee\xa7?'
p51
tp52
Rp53
sg11
g34
(g38
S'xD\xea\x9d0\x91\x99?'
p54
tp55
Rp56
sg13
g34
(g38
S'=\xa5\xa2\xd4\x8ba\x9b?'
p57
tp58
Rp59
sg15
g34
(g38
S' \xed\x8d~\xcf\xc4\xd2?'
p60
tp61
Rp62
sg17
g34
(g38
S'3\xb7\x97\x00b\x91\xad?'
p63
tp64
Rp65
sg6
g34
(g38
S'\xa5sh\xb0\x86\xbc\xc6?'
p66
tp67
Rp68
sg21
g34
(g38
S'W\xd7\xa3)\x08\xd1\xaf?'
p69
tp70
Rp71
sg23
g34
(g38
S'|\xde\xb8\x99\r\xa1\x9f?'
p72
tp73
Rp74
sg28
g34
(g38
S'r\xd6\xcc\x18IC\xaf?'
p75
tp76
Rp77
sg26
g34
(g38
S'\xd0\xc3\xc4\xd9\x9f\xb7\xa2?'
p78
tp79
Rp80
sg25
g34
(g38
S'\xb3\xc8\tV\x10\x0e\xc1?'
p81
tp82
Rp83
ssS'paralog'
p84
(lp85
S'YNL049C'
p86
aS'YIL109C'
p87
asS'alignment_file'
p88
S'../MafftAlignment/YNL049C_YIL109C/YNL049C_YIL109C_input.fasta'
p89
sS'x_clock'
p90
NsS'x'
p91
cnumpy.core.multiarray
_reconstruct
p92
(cnumpy
ndarray
p93
(I0
tp94
S'b'
p95
tp96
Rp97
(I1
(I18
tp98
g38
I00
S'ZQ<\xaf\x98D\xe7\xbf\x03W\xb1\xa7`\xbb\xde\xbf\'\x06\xf4\x114:\xeb\xbf\x7fhY4{\xde\xf4?\x10j\xe1\xf9\xae\x04\xf1\xbf\xf9\xb1\xd2H\x02\xa8\xaf\xbfL\x0eF)o\xeb\xfd\xbf\xfdF\xf1\xf0\xed\x1f\x00\xc0.\xc6\xa3\x19$\xa6\xfb\xbf\xf1r\x0c8\x83\xa0\xf3\xbf\x0ePuxt\x85\r\xc0\xa7\xb8"%&\xd0\x06\xc0\xfe\xfa\xc5\xaa\x94x\n\xc01$\n\x9b\t:\x06\xc04\xd9%o\x14\xf9\x0c\xc0\xde\xbb|\x02\xfe]\x06\xc0\xeae\xbc\xf7V\x81\x08\xc0s\xafw\xd5\xb3\xd1\x0b\xc0'
p99
tp100
bsS'Model'
p101
S'HKY'
p102
sS'clock'
p103
I00
s.