(dp0
S'Force'
p1
NsS'ExpectedGeneconv'
p2
(dp3
(S'N1'
p4
S'N2'
p5
tp6
F326.7175595440015
s(S'N5'
p7
S'cerevisiae'
p8
tp9
F178.38935456960908
s(g5
S'N3'
p10
tp11
F72.18068470400665
s(S'N4'
p12
g7
tp13
F90.38395966903771
s(g4
S'castellii'
p14
tp15
F406.90824113646204
s(g5
S'bayanus'
p16
tp17
F290.0289938497041
s(S'N0'
p18
g4
tp19
F549.2543307734617
s(g10
S'kudriavzevii'
p20
tp21
F233.6850985193709
s(g7
S'paradoxus'
p22
tp23
F100.0293504071393
s(g18
S'kluyveri'
p24
tp25
F0.0
s(g10
g12
tp26
F97.30744197555462
s(g12
S'mikatae'
p27
tp28
F215.9666907657239
ssS'ExpectedDwellTime'
p29
(dp30
g6
F1111.3172008345516
sg9
F1010.2818034529284
sg11
F1108.2574926040884
sg13
F1084.7350229344215
sg15
F1144.498960646381
sg17
F1005.5149316342863
sg19
F714.9900119603859
sg21
F1078.7881038222815
sg23
F1066.1479832883704
sg25
F0.0
sg26
F1105.8047358978572
sg28
F1080.6434704179435
ssS'newicktree'
p31
S'../PairsAlignemt/YeastTree.newick'
p32
sS'll'
p33
cnumpy.core.multiarray
scalar
p34
(cnumpy
dtype
p35
(S'f8'
p36
I0
I1
tp37
Rp38
(I3
S'<'
p39
NNNI-1
I-1
I0
tp40
bS'\x84\x15C\xf7\xff\x19\xd5\xc0'
p41
tp42
Rp43
sS'edge_list'
p44
(lp45
g19
ag25
ag6
ag15
ag11
ag17
ag26
ag21
ag13
ag28
ag9
ag23
asS'edge_to_blen'
p46
(dp47
g19
g34
(g38
S'\xe9\xf77\x0bMY\xc8?'
p48
tp49
Rp50
sg9
g34
(g38
S'v\x06|\x07\xfd\xa4\xa1?'
p51
tp52
Rp53
sg11
g34
(g38
S"'\x92\xb2]\xd6\xa0\x8f?"
p54
tp55
Rp56
sg13
g34
(g38
S'Hfd\xa7\xfa\xe4\x92?'
p57
tp58
Rp59
sg15
g34
(g38
S'5E\xbb^\xff\x87\xb6?'
p60
tp61
Rp62
sg17
g34
(g38
S'\xb6*\x89Pq\x07\xac?'
p63
tp64
Rp65
sg6
g34
(g38
S"\x1f=\xe8\xb8\t'\xb1?"
p66
tp67
Rp68
sg21
g34
(g38
S'\x8a\xbbh\x7f\x7fg\xa9?'
p69
tp70
Rp71
sg23
g34
(g38
S'\x932\xec\x07\x0e\x13\x98?'
p72
tp73
Rp74
sg28
g34
(g38
S'\xe1&\xfcs\xb1\xee\xa7?'
p75
tp76
Rp77
sg26
g34
(g38
S'\nE\xafz \xd5\x95?'
p78
tp79
Rp80
sg25
g34
(g38
S'iE4F\x86N\xe1>'
p81
tp82
Rp83
ssS'paralog'
p84
(lp85
S'YGL062W'
p86
aS'YBR218C'
p87
asS'alignment_file'
p88
S'../MafftAlignment/YGL062W_YBR218C/YGL062W_YBR218C_input.fasta'
p89
sS'x_clock'
p90
NsS'x'
p91
cnumpy.core.multiarray
_reconstruct
p92
(cnumpy
ndarray
p93
(I0
tp94
S'b'
p95
tp96
Rp97
(I1
(I18
tp98
g38
I00
S"\\\x98\x1cM\xad*\xe8\xbf\x86\x0c\x99l{@\xe3\xbfN\xbf`ETX\xe9\xbf\xf4\x1b\xf4e\x07\x0e\xfa?*D\xfb\x1b\x94,\xf6?\x82/\xc3\x9d\xde\xa7\xf8?\x92\x9a\xb1\x83\x80\x8d\xfa\xbfS\x03&\x1a\xf5h'\xc0}\xfb\x15F\xd0\x9f\x05\xc0\xf2\x8f$\xd43q\x03\xc0\xf5\xd7\xdbF\xa9\xae\x10\xc0\x8aDB\xcf\x9b=\x07\xc07\x02$d\xd9\xc8\x0e\xc0\x06\xc5\xf0\t\xfa\x06\x08\xc0\x95\x14H'\xda\xf0\x0f\xc0^\xaa\xf5/6\x81\x08\xc0\xbd\x9e\x02=v\xf1\n\xc0\xd6\xceb\x82\xa8\x00\x0e\xc0"
p99
tp100
bsS'Model'
p101
S'HKY'
p102
sS'clock'
p103
I00
s.