(dp0
S'Force'
p1
NsS'ExpectedGeneconv'
p2
(dp3
(S'N1'
p4
S'N2'
p5
tp6
F22.517061401875008
s(S'N5'
p7
S'cerevisiae'
p8
tp9
F9.716396999785601
s(g5
S'N3'
p10
tp11
F5.903114451138248
s(S'N4'
p12
g7
tp13
F3.654306863459276
s(g4
S'castellii'
p14
tp15
F24.108594498163143
s(g5
S'bayanus'
p16
tp17
F9.839753326871083
s(S'N0'
p18
g4
tp19
F0.07328018176797652
s(g10
S'kudriavzevii'
p20
tp21
F8.410834786614064
s(g7
S'paradoxus'
p22
tp23
F4.537252442328674
s(g18
S'kluyveri'
p24
tp25
F0.0
s(g10
g12
tp26
F5.245910066380421
s(g12
S'mikatae'
p27
tp28
F16.239337707492297
ssS'ExpectedDwellTime'
p29
(dp30
g6
F146.87110154516702
sg9
F243.4423802096032
sg11
F228.58048217925048
sg13
F235.70890381869344
sg15
F126.25534957604867
sg17
F244.25073807554463
sg19
F10.341028974179908
sg21
F228.67739548645866
sg23
F244.57210423590232
sg25
F0.0
sg26
F231.87315910642928
sg28
F221.23745194313847
ssS'newicktree'
p31
S'../PairsAlignemt/YeastTree.newick'
p32
sS'll'
p33
cnumpy.core.multiarray
scalar
p34
(cnumpy
dtype
p35
(S'f8'
p36
I0
I1
tp37
Rp38
(I3
S'<'
p39
NNNI-1
I-1
I0
tp40
bS'8A\xb5\xdd\x1a,\xab\xc0'
p41
tp42
Rp43
sS'edge_list'
p44
(lp45
g19
ag25
ag6
ag15
ag11
ag17
ag26
ag21
ag13
ag28
ag9
ag23
asS'edge_to_blen'
p46
(dp47
g19
g34
(g38
S'm\xb7VN^:\x96?'
p48
tp49
Rp50
sg9
g34
(g38
S'\xa8\xc29\x13\xd6{\xc1?'
p51
tp52
Rp53
sg11
g34
(g38
S'\xd6n\xe4\xafW\x98\xb4?'
p54
tp55
Rp56
sg13
g34
(g38
S'\xf9L\xcb!\x07[\xad?'
p57
tp58
Rp59
sg15
g34
(g38
S'\x83\xbf!n"q\xde?'
p60
tp61
Rp62
sg17
g34
(g38
S'\xa3\xe2n\xe8\x7f\xcc\xc4?'
p63
tp64
Rp65
sg6
g34
(g38
S'\x86+\xed\x1d\xa25\xde?'
p66
tp67
Rp68
sg21
g34
(g38
S'\xc9\xd2B\x10F\xb5\xba?'
p69
tp70
Rp71
sg23
g34
(g38
S'Tq"\xd0R\xa8\xaf?'
p72
tp73
Rp74
sg25
g34
(g38
S'J\xf2\x8d\xb0S\x8d\xe4?'
p75
tp76
Rp77
sg26
g34
(g38
S'\xc5\xd5\x99f\xf2\x98\xb0?'
p78
tp79
Rp80
sg28
g34
(g38
S'\xc01\x99\xbd\x85&\xc8?'
p81
tp82
Rp83
ssS'paralog'
p84
(lp85
S'YDR099W'
p86
aS'YER177W'
p87
asS'alignment_file'
p88
S'../MafftAlignment/YDR099W_YER177W/YDR099W_YER177W_input.fasta'
p89
sS'x_clock'
p90
NsS'x'
p91
cnumpy.core.multiarray
_reconstruct
p92
(cnumpy
ndarray
p93
(I0
tp94
S'b'
p95
tp96
Rp97
(I1
(I19
tp98
g38
I00
S'\xcb\x02%\xf6\x93\x9f\xe8\xbf\x15\x1c\xc6\x90\x1fW\xde\xbf\x14p\xe1\xe2\xb1\xf2\xeb\xbfqw\xc41f?\xfa?\xd1\x8d\xa9\xca\xfaG\r\xc0.u\r\n\xb6\x86\xf0\xbf0\xfa\x01d\xc0n\xf0\xbf\x06\xc7\xdak\x15\xa4\x0e\xc0X}\x95&lV\xdc\xbf/\x8d0\x87\xf3\x05\xe8\xbf\xbeh")*\xc7\xe7\xbfT"\xcf67)\x04\xc0\xb7S\xbe\xc5\xfa\x12\xfd\xbf\x9a\xd5\xaet.\xe3\x05\xc0L\xdc\xb7C\xe9\x14\x02\xc0\xac\xb8\x06\x96\xe8\xde\x06\xc0Y\xaaJ\x8b\x01\xaf\xfa\xbf\xee\xc8!Y&\xda\xff\xbf\xfdUh\x89LD\x06\xc0'
p99
tp100
bsS'Model'
p101
S'MG94'
p102
sS'clock'
p103
I00
s.