(dp0
S'Force'
p1
NsS'ExpectedGeneconv'
p2
(dp3
(S'N1'
p4
S'N2'
p5
tp6
F23.769083039776536
s(S'N5'
p7
S'cerevisiae'
p8
tp9
F5.593429888100484
s(g5
S'N3'
p10
tp11
F2.4425200602423924
s(S'N4'
p12
g7
tp13
F0.4289529065353106
s(g4
S'castellii'
p14
tp15
F14.16024845425088
s(g5
S'bayanus'
p16
tp17
F8.999970913374609
s(S'N0'
p18
g4
tp19
F8.54048394568191
s(g10
S'kudriavzevii'
p20
tp21
F8.683383420962578
s(g7
S'paradoxus'
p22
tp23
F7.0998494547953745
s(g18
S'kluyveri'
p24
tp25
F0.0
s(g10
g12
tp26
F2.139098820444971
s(g12
S'mikatae'
p27
tp28
F8.224072133950404
ssS'ExpectedDwellTime'
p29
(dp30
g6
F38.312423928966396
sg9
F51.759758045995405
sg11
F44.93797983500962
sg13
F51.58760308569529
sg15
F38.220791349062665
sg17
F36.290001119065494
sg19
F19.940856537575247
sg21
F57.9607662705093
sg23
F48.25554890022035
sg25
F0.0
sg26
F50.80848813514414
sg28
F54.67882354438892
ssS'newicktree'
p31
S'../PairsAlignemt/YeastTree.newick'
p32
sS'll'
p33
cnumpy.core.multiarray
scalar
p34
(cnumpy
dtype
p35
(S'f8'
p36
I0
I1
tp37
Rp38
(I3
S'<'
p39
NNNI-1
I-1
I0
tp40
bS'\x8dq\xc3\x03\xfb\xfa\x92\xc0'
p41
tp42
Rp43
sS'edge_list'
p44
(lp45
g19
ag25
ag6
ag15
ag11
ag17
ag26
ag21
ag13
ag28
ag9
ag23
asS'edge_to_blen'
p46
(dp47
g6
g34
(g38
S'I\xc7\xb1B\x17E\xc3?'
p48
tp49
Rp50
sg9
g34
(g38
S'\xdfM\xe19(\x03\x9c?'
p51
tp52
Rp53
sg11
g34
(g38
S"$\xb0&'\x99\x92\x9a?"
p54
tp55
Rp56
sg13
g34
(g38
S'\xbd\xec\xd2\xded\x87j?'
p57
tp58
Rp59
sg15
g34
(g38
S'I1\xab;\xe7\xa8\xb9?'
p60
tp61
Rp62
sg17
g34
(g38
S'\xe9;\xc0\xce\xe7%\xa8?'
p63
tp64
Rp65
sg19
g34
(g38
S'\xb2\xf6\xbd\x8f\xc0\x89\xba?'
p66
tp67
Rp68
sg21
g34
(g38
S'\xd44\xe9\n\x17A\xb1?'
p69
tp70
Rp71
sg23
g34
(g38
S'C\x80\x90\xdb\xf6]\xa0?'
p72
tp73
Rp74
sg25
g34
(g38
S'of\xa3\xb8\xa4v\x88>'
p75
tp76
Rp77
sg26
g34
(g38
S'<H\xe7NP\x11\x88?'
p78
tp79
Rp80
sg28
g34
(g38
S'ye\x9e@^L\xaa?'
p81
tp82
Rp83
ssS'paralog'
p84
(lp85
S'YMR143W'
p86
aS'YDL083C'
p87
asS'alignment_file'
p88
S'../MafftAlignment/YMR143W_YDL083C/YMR143W_YDL083C_input.fasta'
p89
sS'x_clock'
p90
NsS'x'
p91
cnumpy.core.multiarray
_reconstruct
p92
(cnumpy
ndarray
p93
(I0
tp94
S'b'
p95
tp96
Rp97
(I1
(I19
tp98
g38
I00
S'\xef\xe0\xb3\x89\xcc\xd1\xe6\xbf(\xf1\xb6\x9d\x0bk\xdf\xbfvKMI\xd0E\xee\xbf\xf6\xbdN\x00\xc6W\x03@\xd4\n\xdd\xef\xc4\x9b\x0c\xc0|\xeat\x0c\xca\x8a\xf3?*%RCJ\xff\xf5?\xde\xb2M2\xfd!\x02\xc0u(y@\x1c\t/\xc0`\x02\x96\xb2\xb8K\xfe\xbf\x08\x19j\xe6\xeaf\x02\xc0\xd3p<xt6\r\xc09m\xc7\x96\xd6n\x08\xc0N\xecr\xb2f\xc6\x11\xc0\xeb\xf6#\xdd\xb2\x93\x05\xc0\xab\xf6\x9azC\xee\x16\xc0\x97\xc0\xd6\x9b$\xc0\x07\xc0\x0b\xdf\xe7\xc7e\xca\x0c\xc0\xeb\r\x163`\x8b\x0b\xc0'
p99
tp100
bsS'Model'
p101
S'MG94'
p102
sS'clock'
p103
I00
s.