(dp0
S'Force'
p1
NsS'ExpectedGeneconv'
p2
(dp3
(S'N1'
p4
S'N2'
p5
tp6
F44.59586052221577
s(S'N5'
p7
S'cerevisiae'
p8
tp9
F2.5647525413836347
s(g5
S'N3'
p10
tp11
F2.220586904507796
s(S'N4'
p12
g7
tp13
F1.3984905131664416
s(g4
S'castellii'
p14
tp15
F37.474653837681146
s(g5
S'bayanus'
p16
tp17
F5.500861306435561
s(S'N0'
p18
g4
tp19
F23.07283275658965
s(g10
S'kudriavzevii'
p20
tp21
F2.8303978600256787
s(g7
S'paradoxus'
p22
tp23
F1.7528419539563607
s(g18
S'kluyveri'
p24
tp25
F0.0
s(g10
g12
tp26
F1.636920731025365
s(g12
S'mikatae'
p27
tp28
F2.844190754089149
ssS'ExpectedDwellTime'
p29
(dp30
g6
F513.0402719093019
sg9
F559.0161295315886
sg11
F539.5229166903603
sg13
F548.5072809308564
sg15
F496.2248470795287
sg17
F540.0617051482417
sg19
F336.1165516329875
sg21
F544.9985078595396
sg23
F555.0775126292568
sg25
F0.0
sg26
F543.0326304737202
sg28
F542.3759262445467
ssS'newicktree'
p31
S'../PairsAlignemt/YeastTree.newick'
p32
sS'll'
p33
cnumpy.core.multiarray
scalar
p34
(cnumpy
dtype
p35
(S'f8'
p36
I0
I1
tp37
Rp38
(I3
S'<'
p39
NNNI-1
I-1
I0
tp40
bS'\xc2\xd1!\xd3\xa0n\xc0\xc0'
p41
tp42
Rp43
sS'edge_list'
p44
(lp45
g19
ag25
ag6
ag15
ag11
ag17
ag26
ag21
ag13
ag28
ag9
ag23
asS'edge_to_blen'
p46
(dp47
g19
g34
(g38
S'n\xee\xcbF\xba\xd1\xf3?'
p48
tp49
Rp50
sg9
g34
(g38
S'\xc7^\n\x02X\xe9\xcc?'
p51
tp52
Rp53
sg11
g34
(g38
S'\x9c5\x86\xa0\t\xab\xc0?'
p54
tp55
Rp56
sg13
g34
(g38
S'\xc7\xfam\x9d:\x94\xbd?'
p57
tp58
Rp59
sg15
g34
(g38
S'\x8a\xc3\x91\r\xe5H\xfb?'
p60
tp61
Rp62
sg17
g34
(g38
S'q#\x10\xc6\x18\x91\xd6?'
p63
tp64
Rp65
sg6
g34
(g38
S'\xf5/\xf9\x90\xae\x1f\x01@'
p66
tp67
Rp68
sg21
g34
(g38
S'\x96d_\x0b$\x1f\xcd?'
p69
tp70
Rp71
sg23
g34
(g38
S'\xe3\xb1\xaa\x84\x8a\x9a\xbf?'
p72
tp73
Rp74
sg25
g34
(g38
S'H\x7f\xf6\t\xf3\x99\xef?'
p75
tp76
Rp77
sg26
g34
(g38
S'\xe3\\\xca\x8d\xbf\x0e\xc2?'
p78
tp79
Rp80
sg28
g34
(g38
S'h\xb9\x00\xbb=\xd8\xcf?'
p81
tp82
Rp83
ssS'paralog'
p84
(lp85
S'YDR438W'
p86
aS'YML018C'
p87
asS'alignment_file'
p88
S'../MafftAlignment/YDR438W_YML018C/YDR438W_YML018C_input.fasta'
p89
sS'x_clock'
p90
NsS'x'
p91
cnumpy.core.multiarray
_reconstruct
p92
(cnumpy
ndarray
p93
(I0
tp94
S'b'
p95
tp96
Rp97
(I1
(I19
tp98
g38
I00
S'L\xed\xe0\xcc\'\xd0\xe6\xbf\x03 ^2\xe8\xa4\xe2\xbf\x13r\xc1\xa2\xfb\x7f\xee\xbf"\xd6\xdfu&\xb4\xf0?\x1a%Yqg\x07\x02\xc0`\xf5II\xc0\xb2$\xc0$\xdb(~i\x8e\xfc\xbf\xa1\xe5\x90}zf\xcb?\xe6T{%C\xac\x89\xbfx\xb8]\xb0QZ\xe8?\xdaa\x96\xe2c\x14\xe1?a\xd6\xa6/\xeaN\x00\xc0\xab\x8a\xf3\xcb\xaf\xad\xf0\xbf\x0e\xe4GW\xddU\xff\xbfgG5\xb9S\xb0\xf7\xbf\xf9D\x08L\xd0C\x01\xc0\xb4\x0eG\x850B\xf6\xbfvA;\xc8\xfd\xcd\xf7\xbfE\xe2\xc4)8\xbc\x00\xc0'
p99
tp100
bsS'Model'
p101
S'MG94'
p102
sS'clock'
p103
I00
s.