(dp0
S'Force'
p1
NsS'ExpectedGeneconv'
p2
(dp3
(S'N1'
p4
S'N2'
p5
tp6
F15.441757945701344
s(S'N5'
p7
S'cerevisiae'
p8
tp9
F11.63776069411611
s(g5
S'N3'
p10
tp11
F7.114461541973218
s(S'N4'
p12
g7
tp13
F1.3531594711920734
s(g4
S'castellii'
p14
tp15
F16.822634458231988
s(g5
S'bayanus'
p16
tp17
F6.271505384949911
s(S'N0'
p18
g4
tp19
F12.283044557888253
s(g10
S'kudriavzevii'
p20
tp21
F6.671475495417454
s(g7
S'paradoxus'
p22
tp23
F2.743422809314017
s(g18
S'kluyveri'
p24
tp25
F0.0
s(g10
g12
tp26
F3.947009062254225
s(g12
S'mikatae'
p27
tp28
F8.288555754898113
ssS'ExpectedDwellTime'
p29
(dp30
g6
F59.32364753128876
sg9
F60.00360461285938
sg11
F62.677897540926416
sg13
F66.64073146440944
sg15
F61.49616444677718
sg17
F62.02757099868612
sg19
F31.28232867251913
sg21
F63.14581852032473
sg23
F71.22890613089926
sg25
F0.0
sg26
F64.98718530395882
sg28
F66.31191468385461
ssS'newicktree'
p31
S'../PairsAlignemt/YeastTree.newick'
p32
sS'll'
p33
cnumpy.core.multiarray
scalar
p34
(cnumpy
dtype
p35
(S'f8'
p36
I0
I1
tp37
Rp38
(I3
S'<'
p39
NNNI-1
I-1
I0
tp40
bS'\xed\x93B_\x83h\x94\xc0'
p41
tp42
Rp43
sS'edge_list'
p44
(lp45
g19
ag25
ag6
ag15
ag11
ag17
ag26
ag21
ag13
ag28
ag9
ag23
asS'edge_to_blen'
p46
(dp47
g19
g34
(g38
S'7\xfek\x11#p\xad?'
p48
tp49
Rp50
sg9
g34
(g38
S">\x1a\xcc'F3\x90?"
p51
tp52
Rp53
sg11
g34
(g38
S'\xd1\xe4\xd6\xef\xb9\x14\x8c?'
p54
tp55
Rp56
sg13
g34
(g38
S'G\x01n\xe8\xc7\xd5i?'
p57
tp58
Rp59
sg15
g34
(g38
S'G\xbb\xab\xa2\x12\x0b\xa3?'
p60
tp61
Rp62
sg17
g34
(g38
S'\xc1\xbbg2\xd2\xc5\x86?'
p63
tp64
Rp65
sg6
g34
(g38
S'\xd0-F\x1a\xf8\x1c\xa0?'
p66
tp67
Rp68
sg21
g34
(g38
S'\xee\xa1S\xc7ny\x89?'
p69
tp70
Rp71
sg23
g34
(g38
S'|x\xdc\xaf\xb2(\x82?'
p72
tp73
Rp74
sg28
g34
(g38
S'[k\xcc(\xc0\xd2\x8e?'
p75
tp76
Rp77
sg26
g34
(g38
S'PG\xd0\x85\xf0\xae\x81?'
p78
tp79
Rp80
sg25
g34
(g38
S'\x10\x1d\xf0z1\xd2\x8a>'
p81
tp82
Rp83
ssS'paralog'
p84
(lp85
S'YER131W'
p86
aS'YGL189C'
p87
asS'alignment_file'
p88
S'../MafftAlignment/YER131W_YGL189C/YER131W_YGL189C_input.fasta'
p89
sS'x_clock'
p90
NsS'x'
p91
cnumpy.core.multiarray
_reconstruct
p92
(cnumpy
ndarray
p93
(I0
tp94
S'b'
p95
tp96
Rp97
(I1
(I18
tp98
g38
I00
S'\xbb\xca\xee\x19Y\x8b\xe6\xbfq\xf8tg\xb6\xa2\xdd\xbf\xf2\x7f\xca\x96 \x01\xe5\xbf\x81\xf8\x99\x0f.\xe1\x01@\xbc\x9c\xd0\x89\x06G\xf1?\x7f7\x95\x1aP\x7f\x04@1\x00o\xf7)\xd9\x06\xc0\x9eQ\xf0\xa5\x00\xda.\xc0\xc6\xf9\xaf\xbed\xab\x0b\xc0\x80\x1f\x13\x8b8U\n\xc0D\x94\x9c\xcdy(\x11\xc0\xdfnt;\x08\xff\x11\xc0\xce/\xc1\xfc\n\x02\x13\xc0\xe4\xc6]\xd9;\x8c\x11\xc0\xb8\xb3-}f\t\x17\xc0\xa9B\xc1\xf1\x0f\xc9\x10\xc0\x88\xd2\xdd\x13\xf5\x95\x10\xc0bc\xf4g\xdd\xe6\x12\xc0'
p99
tp100
bsS'Model'
p101
S'HKY'
p102
sS'clock'
p103
I00
s.