(dp0
S'Force'
p1
NsS'ExpectedGeneconv'
p2
(dp3
(S'N1'
p4
S'N2'
p5
tp6
F22.222266010198545
s(S'N5'
p7
S'cerevisiae'
p8
tp9
F4.487499877099629
s(g5
S'N3'
p10
tp11
F3.208887331777711
s(S'N4'
p12
g7
tp13
F2.2811173772062565
s(g4
S'castellii'
p14
tp15
F31.25150449241143
s(g5
S'bayanus'
p16
tp17
F8.563045435309503
s(S'N0'
p18
g4
tp19
F29.266967946368506
s(g10
S'kudriavzevii'
p20
tp21
F4.856807236497778
s(g7
S'paradoxus'
p22
tp23
F7.059235553248836
s(g18
S'kluyveri'
p24
tp25
F0.0
s(g10
g12
tp26
F4.038483021214595
s(g12
S'mikatae'
p27
tp28
F8.04047548773077
ssS'ExpectedDwellTime'
p29
(dp30
g6
F70.80552995771421
sg9
F81.04376617149329
sg11
F79.9553423638735
sg13
F80.40632296802272
sg15
F69.50921243767733
sg17
F70.52489110753748
sg19
F44.57932501572737
sg21
F94.72832017990407
sg23
F77.46005728237652
sg25
F0.0
sg26
F82.51231748554886
sg28
F83.29894185936651
ssS'newicktree'
p31
S'../PairsAlignemt/YeastTree.newick'
p32
sS'll'
p33
cnumpy.core.multiarray
scalar
p34
(cnumpy
dtype
p35
(S'f8'
p36
I0
I1
tp37
Rp38
(I3
S'<'
p39
NNNI-1
I-1
I0
tp40
bS'\xe3\xd8c\xb9]\x01\x9d\xc0'
p41
tp42
Rp43
sS'edge_list'
p44
(lp45
g19
ag25
ag6
ag15
ag11
ag17
ag26
ag21
ag13
ag28
ag9
ag23
asS'edge_to_blen'
p46
(dp47
g19
g34
(g38
S'\x8f\xf2\xff\xac\xd3\xc0\xcd?'
p48
tp49
Rp50
sg9
g34
(g38
S"^\x85'\xa8\xbc#\x98?"
p51
tp52
Rp53
sg11
g34
(g38
S' \xb7\xa9\xf5\xde\xb3\x94?'
p54
tp55
Rp56
sg13
g34
(g38
S'BcQ\x99>n{?'
p57
tp58
Rp59
sg15
g34
(g38
S'$\xf5\x87\x8c`\x9f\xc5?'
p60
tp61
Rp62
sg17
g34
(g38
S'\xf5\xf7du@\x96\xa0?'
p63
tp64
Rp65
sg6
g34
(g38
S'\x1f\xb9\xbf7\xe2S\xbe?'
p66
tp67
Rp68
sg21
g34
(g38
S'!\x97\x87\xa1\xe3\xc4\xa6?'
p69
tp70
Rp71
sg23
g34
(g38
S'v\xf1H\x8a \xd0\xa0?'
p72
tp73
Rp74
sg25
g34
(g38
S'\x18\xbd\xd1\xfa;\xe3\xdd>'
p75
tp76
Rp77
sg26
g34
(g38
S'\xb6\x864\xae\xa5H\x92?'
p78
tp79
Rp80
sg28
g34
(g38
S'\x82\x94\x13\x88F\x11\xa3?'
p81
tp82
Rp83
ssS'paralog'
p84
(lp85
S'YJL177W'
p86
aS'YKL180W'
p87
asS'alignment_file'
p88
S'../MafftAlignment/YJL177W_YKL180W/YJL177W_YKL180W_input.fasta'
p89
sS'x_clock'
p90
NsS'x'
p91
cnumpy.core.multiarray
_reconstruct
p92
(cnumpy
ndarray
p93
(I0
tp94
S'b'
p95
tp96
Rp97
(I1
(I19
tp98
g38
I00
S"\xa1\xf1\nXa\xe0\xe6\xbf\\P\x05?\x8b\x15\xdd\xbf\x125\xd8\xb8\x0e\r\xea\xbfS\xfb\xdbzB\xcf\xfd?\x03\xc4\xa4G\xb36\x01\xc0Gp\xa6\x8a\x8e\xca\xe7?\x14-]\xb3\xf0~\xf4?\xd9\xb8)sqX\xf7\xbfM\x8c\x91;\x1e\xb4'\xc0\xb8\x05\xc2\x9b\x9f\x10\x01\xc0\x16Q4\x13\xe3s\xfc\xbf\x0f(Q`\xae5\x0f\xc0\x84\xb5\x1a\xdd\x0bp\x0b\xc0\xb7?o\x8d\x11\x1a\x10\xc0\xf9.\xde\xc7B\xe7\x08\xc0\xa2\xc8\x9c\x80@\x06\x14\xc0dH\xe3\xe5\x9dR\n\xc0Ga,I\x1f\xfb\r\xc0\xfc>\xb26RT\x0b\xc0"
p99
tp100
bsS'Model'
p101
S'MG94'
p102
sS'clock'
p103
I00
s.