(dp0
S'Force'
p1
NsS'ExpectedGeneconv'
p2
(dp3
(S'N1'
p4
S'N2'
p5
tp6
F51.65396872079265
s(S'N5'
p7
S'cerevisiae'
p8
tp9
F8.26964686486347
s(g5
S'N3'
p10
tp11
F6.495688858250577
s(S'N4'
p12
g7
tp13
F4.5056534240182415
s(g4
S'castellii'
p14
tp15
F67.24376678056525
s(g5
S'bayanus'
p16
tp17
F10.333406764003836
s(S'N0'
p18
g4
tp19
F18.752136878665628
s(g10
S'kudriavzevii'
p20
tp21
F11.37663100288099
s(g7
S'paradoxus'
p22
tp23
F4.637747717098938
s(g18
S'kluyveri'
p24
tp25
F0.0
s(g10
g12
tp26
F6.087695655032818
s(g12
S'mikatae'
p27
tp28
F11.752823915449117
ssS'ExpectedDwellTime'
p29
(dp30
g6
F1471.1085580755691
sg9
F1663.6622876870704
sg11
F1618.6005071323978
sg13
F1647.367537017556
sg15
F1461.0966723220718
sg17
F1623.03305098413
sg19
F796.0081491266385
sg21
F1644.4494232992836
sg23
F1665.5848058192653
sg25
F0.0
sg26
F1635.2982484446836
sg28
F1640.812110010792
ssS'newicktree'
p31
S'../PairsAlignemt/YeastTree.newick'
p32
sS'll'
p33
cnumpy.core.multiarray
scalar
p34
(cnumpy
dtype
p35
(S'f8'
p36
I0
I1
tp37
Rp38
(I3
S'<'
p39
NNNI-1
I-1
I0
tp40
bS'\xd7\xf8\x90\x1a\xe6\x96\xdb\xc0'
p41
tp42
Rp43
sS'edge_list'
p44
(lp45
g19
ag25
ag6
ag15
ag11
ag17
ag26
ag21
ag13
ag28
ag9
ag23
asS'edge_to_blen'
p46
(dp47
g19
g34
(g38
S'\xc5\x1b\xdb\xdd\xb9-\xe8?'
p48
tp49
Rp50
sg9
g34
(g38
S'!^\x8f\x91\xa1\x8f\xd4?'
p51
tp52
Rp53
sg11
g34
(g38
S'\xdd8F\xf3\xea\x05\xc9?'
p54
tp55
Rp56
sg13
g34
(g38
S'\xeb\xde\x8a\\\x9b\xe2\xc1?'
p57
tp58
Rp59
sg21
g34
(g38
S"'x\x91\x8a\xf7\xd9\xda?"
p60
tp61
Rp62
sg17
g34
(g38
S'2\x15o\x11@W\xd9?'
p63
tp64
Rp65
sg6
g34
(g38
S'e\xf3F\x96[\x99\xf8?'
p66
tp67
Rp68
sg15
g34
(g38
S'@\x05\xab\x1d\xe9g\xfd?'
p69
tp70
Rp71
sg23
g34
(g38
S'5Sq\x99\x0b*\xc8?'
p72
tp73
Rp74
sg28
g34
(g38
S'4\x1cr\x7f\xad\x82\xdb?'
p75
tp76
Rp77
sg26
g34
(g38
S's\xd0\xed\xdd$\xdd\xc7?'
p78
tp79
Rp80
sg25
g34
(g38
S'z\x80\xc9E\x8b^\xf5?'
p81
tp82
Rp83
ssS'paralog'
p84
(lp85
S'YGL133W'
p86
aS'YPL216W'
p87
asS'alignment_file'
p88
S'../MafftAlignment/YGL133W_YPL216W/YGL133W_YPL216W_input.fasta'
p89
sS'x_clock'
p90
NsS'x'
p91
cnumpy.core.multiarray
_reconstruct
p92
(cnumpy
ndarray
p93
(I0
tp94
S'b'
p95
tp96
Rp97
(I1
(I19
tp98
g38
I00
S'\x16l*\xea!b\xe3\xbf\x85\x00+\x0c\x92\x8c\xdb\xbf\x02\x87\x85\x1apD\xf0\xbf-\xfbk\xbf\xfe\x13\xf0?\x81\x1c\xae\xfc\xb2\xa7\xfa\xbf/f]\xc9L>\x02\xc0\xdd`\xb9X\x1e\x9a&\xc0\xfa=]\x02\xe6\xef\xd1\xbf\x9bt7\xed\xfd\x84\xd2?@\xe8.\xe9\x12\x87\xdb?\x89\xb1\xdd\xa1\xb4y\xe3?%\xec\xcam\x9d\x1d\xfa\xbfJB\x82\x10\x9d\xa5\xed\xbfQ\x9f\xda4\xe9\xdf\xfa\xbfn\r\xe6xF\xcb\xeb\xbf\x19@C\x05*}\xff\xbf\xbd0@\xa6\xa4\x04\xeb\xbfqI\xb9h\xf1*\xf2\xbf#5\xa98\xac\xac\xfa\xbf'
p99
tp100
bsS'Model'
p101
S'MG94'
p102
sS'clock'
p103
I00
s.