(dp0
S'Force'
p1
NsS'ExpectedGeneconv'
p2
(dp3
(S'N1'
p4
S'N2'
p5
tp6
F15.838672538499031
s(S'N5'
p7
S'cerevisiae'
p8
tp9
F9.374716063017706
s(g5
S'N3'
p10
tp11
F2.37800783543822
s(S'N4'
p12
g7
tp13
F3.125412461050012
s(g4
S'castellii'
p14
tp15
F33.32613404988239
s(g5
S'bayanus'
p16
tp17
F12.677517556872047
s(S'N0'
p18
g4
tp19
F38.99497881859817
s(g10
S'kudriavzevii'
p20
tp21
F19.116949243417388
s(g7
S'paradoxus'
p22
tp23
F5.725817444392778
s(g18
S'kluyveri'
p24
tp25
F0.0
s(g10
g12
tp26
F1.9418378962051167e-06
s(g12
S'mikatae'
p27
tp28
F15.044646124884709
ssS'ExpectedDwellTime'
p29
(dp30
g6
F56.63009914381864
sg9
F50.31608607003236
sg11
F58.74685854280182
sg13
F57.31254795946564
sg15
F47.48051380616244
sg17
F54.85145635900855
sg19
F34.84901774070995
sg21
F55.235391283487544
sg23
F53.73328411839414
sg25
F0.0
sg26
F58.47417017357534
sg28
F57.6497602952432
ssS'newicktree'
p31
S'../PairsAlignemt/YeastTree.newick'
p32
sS'll'
p33
cnumpy.core.multiarray
scalar
p34
(cnumpy
dtype
p35
(S'f8'
p36
I0
I1
tp37
Rp38
(I3
S'<'
p39
NNNI-1
I-1
I0
tp40
bS'?\xee\xfb\xfe\xe5\xd5\x96\xc0'
p41
tp42
Rp43
sS'edge_list'
p44
(lp45
g19
ag25
ag6
ag15
ag11
ag17
ag26
ag21
ag13
ag28
ag9
ag23
asS'edge_to_blen'
p46
(dp47
g19
g34
(g38
S'\xb1t\xae\xef\xb0W\xb4?'
p48
tp49
Rp50
sg9
g34
(g38
S'Z\xa9^\xfe\xa7\xa8\x83?'
p51
tp52
Rp53
sg11
g34
(g38
S'\x92\xf7\x85\xaf\x9b\xcee?'
p54
tp55
Rp56
sg13
g34
(g38
S'$w+d\xe1\xf0i?'
p57
tp58
Rp59
sg15
g34
(g38
S'r\x978\x8c\xbbr\xa3?'
p60
tp61
Rp62
sg17
g34
(g38
S':\xd3L\xa1\xca\xd8\x8b?'
p63
tp64
Rp65
sg6
g34
(g38
S'\xd2\xd7g\x19\xad\xd6\x94?'
p66
tp67
Rp68
sg21
g34
(g38
S'\x81\xd5k{\x81\xdc\x96?'
p69
tp70
Rp71
sg23
g34
(g38
S'\xa1\xbb\x8e\t7\xc1z?'
p72
tp73
Rp74
sg28
g34
(g38
S'\x7f\xd6t\x18\x19E\x93?'
p75
tp76
Rp77
sg26
g34
(g38
S'9\x9f\x9b\x81X+7>'
p78
tp79
Rp80
sg25
g34
(g38
S'3\x04|^\xa3\xc2\xb9>'
p81
tp82
Rp83
ssS'paralog'
p84
(lp85
S'YML026C'
p86
aS'YDR450W'
p87
asS'alignment_file'
p88
S'../MafftAlignment/YML026C_YDR450W/YML026C_YDR450W_input.fasta'
p89
sS'x_clock'
p90
NsS'x'
p91
cnumpy.core.multiarray
_reconstruct
p92
(cnumpy
ndarray
p93
(I0
tp94
S'b'
p95
tp96
Rp97
(I1
(I18
tp98
g38
I00
S'\nB\xbe\xa2S_\xe7\xbfaOw\xb4t\x99\xe0\xbfj\xa7\x12\x99\x02\xc5\xe9\xbf\xb5\x14\x07[\xa1\xc1\x01@\x85h\xb0\xd5)\x08\x06@\xdb\xfb\xaa\x1c\x1f\xf2\x05@%b<\xf7{B\x04\xc0J(\xa79\xfd\xc5*\xc0-\xe5R\x89F(\x0f\xc0I\xf7ZZ!*\n\xc0\xf4\x9e\xf3\xbd\xf7\xb6\x17\xc0\xf5B\xe3\x8b\x0c1\x11\xc0\xc7\xbd\xb5\x8e\xb2\t3\xc0?6U\x97\x8bj\x0e\xc0\xdf\x90\xb5\x906\x05\x17\xc0\xf3~\x80\xd5\x8d\xc8\x0f\xc0\xe0M\xbav\x99\x95\x12\xc0O\xe0\xe4\xb1\xcc\x1f\x14\xc0'
p99
tp100
bsS'Model'
p101
S'HKY'
p102
sS'clock'
p103
I00
s.