(dp0
S'Force'
p1
(dp2
I5
F0.0
sI6
F0.0
ssS'ExpectedGeneconv'
p3
(dp4
(S'N1'
p5
S'N2'
p6
tp7
F0.0
s(S'N5'
p8
S'cerevisiae'
p9
tp10
F0.0
s(g6
S'N3'
p11
tp12
F0.0
s(S'N4'
p13
g8
tp14
F0.0
s(g5
S'castellii'
p15
tp16
F0.0
s(g6
S'bayanus'
p17
tp18
F0.0
s(S'N0'
p19
g5
tp20
F0.0
s(g11
S'kudriavzevii'
p21
tp22
F0.0
s(g8
S'paradoxus'
p23
tp24
F0.0
s(g19
S'kluyveri'
p25
tp26
F0.0
s(g11
g13
tp27
F0.0
s(g13
S'mikatae'
p28
tp29
F0.0
ssS'ExpectedDwellTime'
p30
(dp31
g7
F1461.3858248927222
sg10
F1665.17717652939
sg12
F1620.7225273852428
sg14
F1649.6109864133957
sg16
F1454.0236179113188
sg18
F1626.0269350514664
sg20
F727.185990076001
sg22
F1647.6004419976844
sg24
F1666.8622661024783
sg26
F0.0
sg27
F1638.180821752841
sg29
F1644.3975575299494
ssS'newicktree'
p32
S'../PairsAlignemt/YeastTree.newick'
p33
sS'll'
p34
cnumpy.core.multiarray
scalar
p35
(cnumpy
dtype
p36
(S'f8'
p37
I0
I1
tp38
Rp39
(I3
S'<'
p40
NNNI-1
I-1
I0
tp41
bS'Ph\xcc*4\x9b\xdb\xc0'
p42
tp43
Rp44
sS'edge_list'
p45
(lp46
g20
ag26
ag7
ag16
ag12
ag18
ag27
ag22
ag14
ag29
ag10
ag24
asS'edge_to_blen'
p47
(dp48
g20
g35
(g39
S'\xb8jW\x8c\xa4I\xe4?'
p49
tp50
Rp51
sg10
g35
(g39
S'\x1dR\xe3\x1d6\xdd\xd4?'
p52
tp53
Rp54
sg12
g35
(g39
S'\x9a\x9b\xe9\xca\xce\xf1\xc8?'
p55
tp56
Rp57
sg14
g35
(g39
S'3\n\xfe\xc15E\xc2?'
p58
tp59
Rp60
sg16
g35
(g39
S'\t\x87\xdeL\xe6r\xfd?'
p61
tp62
Rp63
sg18
g35
(g39
S'\x14u\nAwD\xda?'
p64
tp65
Rp66
sg7
g35
(g39
S'?*\xdd\x8dy\xec\xf8?'
p67
tp68
Rp69
sg22
g35
(g39
S'\xa5!\xe07\x8em\xdb?'
p70
tp71
Rp72
sg24
g35
(g39
S'`\x9f}4\xfe\xd6\xc8?'
p73
tp74
Rp75
sg29
g35
(g39
S'\n\xee\xf8+\xbe\r\xdc?'
p76
tp77
Rp78
sg27
g35
(g39
S'R\xa2d\x1c\x10L\xc8?'
p79
tp80
Rp81
sg26
g35
(g39
S'\xf6N5u\xed\xf9\xf6?'
p82
tp83
Rp84
ssS'paralog'
p85
(lp86
S'YGL133W'
p87
aS'YPL216W'
p88
asS'alignment_file'
p89
S'../MafftAlignment/YGL133W_YPL216W/YGL133W_YPL216W_input.fasta'
p90
sS'x_clock'
p91
NsS'x'
p92
cnumpy.core.multiarray
_reconstruct
p93
(cnumpy
ndarray
p94
(I0
tp95
S'b'
p96
tp97
Rp98
(I1
(I19
tp99
g39
I00
S'd;r^Eh\xe3\xbfy\x8c\xe6\xd1\xba\x82\xdb\xbfG\x95\xc2\xec\xe4G\xf0\xbfF:\xa2\xdc\xfd\xf7\xef?tIF\xef\xf6\xa0\xfa\xbfi`\xbb\xe6\x1bR\xf9?i`\xbb\xe6\x1bR\xf9?\xfa\xc1L\xb1\x8f*\xdd\xbf\xd5\xd3\x95\x0c\xf0(\xd7?\x1f\x9a\x0e3\xe8]\xdc?e|F\xc1\xa7\x85\xe3?\xba\x91?b~*\xfa\xbf\xc5\x11X~h\x7f\xec\xbf"\xb8\xb6\xcd5\x96\xfa\xbf\xc0Q\xa8\xd0?\x1d\xeb\xbf\xa8\x98>\x03\xe4%\xff\xbfmKr\xb4ud\xea\xbf\x0c\xfd\x1fP\x03\xef\xf1\xbf@{ \xc1\xba;\xfa\xbf'
p100
tp101
bsS'Model'
p102
S'MG94'
p103
sS'clock'
p104
I00
s.