(dp0
S'Force'
p1
(dp2
I4
F0.0
sI5
F0.0
ssS'ExpectedGeneconv'
p3
(dp4
(S'N1'
p5
S'N2'
p6
tp7
F0.0
s(S'N5'
p8
S'cerevisiae'
p9
tp10
F0.0
s(g6
S'N3'
p11
tp12
F0.0
s(S'N4'
p13
g8
tp14
F0.0
s(g5
S'castellii'
p15
tp16
F0.0
s(g6
S'bayanus'
p17
tp18
F0.0
s(S'N0'
p19
g5
tp20
F0.0
s(g11
S'kudriavzevii'
p21
tp22
F0.0
s(g8
S'paradoxus'
p23
tp24
F0.0
s(g19
S'kluyveri'
p25
tp26
F0.0
s(g11
g13
tp27
F0.0
s(g13
S'mikatae'
p28
tp29
F0.0
ssS'ExpectedDwellTime'
p30
(dp31
g7
F7.2638458826121735
sg10
F20.29962392887066
sg12
F12.48030527939698
sg14
F13.235201585435547
sg16
F40.49763591042154
sg18
F16.595251536385625
sg20
F0.7578449963382571
sg22
F35.6132567107193
sg24
F14.588757339198214
sg26
F0.0
sg27
F13.16288331349349
sg29
F20.22089572491884
ssS'newicktree'
p32
S'../PairsAlignemt/YeastTree.newick'
p33
sS'll'
p34
cnumpy.core.multiarray
scalar
p35
(cnumpy
dtype
p36
(S'f8'
p37
I0
I1
tp38
Rp39
(I3
S'<'
p40
NNNI-1
I-1
I0
tp41
bS'\xf5f\xde\x87)\xe2\x96\xc0'
p42
tp43
Rp44
sS'edge_list'
p45
(lp46
g20
ag26
ag7
ag16
ag12
ag18
ag27
ag22
ag14
ag29
ag10
ag24
asS'edge_to_blen'
p47
(dp48
g20
g35
(g39
S'\xc55\xb7v\xba\xf2N?'
p49
tp50
Rp51
sg10
g35
(g39
S'\xd8&\xa1\xc0\x8fy\x95?'
p52
tp53
Rp54
sg12
g35
(g39
S':\xea\xbc`\xd1\xa1L?'
p55
tp56
Rp57
sg14
g35
(g39
S'8^O(\xaf\x1dk?'
p58
tp59
Rp60
sg16
g35
(g39
S'\x98\xe3L$\x95f\xb7?'
p61
tp62
Rp63
sg18
g35
(g39
S'\xc5\x1bqBZ\xa1\x92?'
p64
tp65
Rp66
sg7
g35
(g39
S'\x8e\x8a\xc9\x94\xe2\xdb\x81?'
p67
tp68
Rp69
sg22
g35
(g39
S'_5;\x91\xfap\xa6?'
p70
tp71
Rp72
sg24
g35
(g39
S'\xbaZ\xf2#\xf71}?'
p73
tp74
Rp75
sg29
g35
(g39
S'b\x8f\x10\x19\xde&\x9a?'
p76
tp77
Rp78
sg27
g35
(g39
S'{B\xd6_2\tf>'
p79
tp80
Rp81
sg26
g35
(g39
S'B8\xb5Nga\xb6?'
p82
tp83
Rp84
ssS'paralog'
p85
(lp86
S'YER074W'
p87
aS'YIL069C'
p88
asS'alignment_file'
p89
S'../MafftAlignment/YER074W_YIL069C/YER074W_YIL069C_input.fasta'
p90
sS'x_clock'
p91
NsS'x'
p92
cnumpy.core.multiarray
_reconstruct
p93
(cnumpy
ndarray
p94
(I0
tp95
S'b'
p96
tp97
Rp98
(I1
(I18
tp99
g39
I00
S'\x17)\xde\xf2g\xf3\xe7\xbf\x98\xe2\x97\xc0\xd0\x12\xdf\xbf\xb5\x1c\xa4\xef\xceJ\xea\xbfR\x8e\x9f\xdb\x9d\xd1\x04@i`\xbb\xe6\x1bR\xf9?i`\xbb\xe6\x1bR\xf9?=H\n<\r\xdc\x1b\xc0\\\xd3l\xa8\xf3~\x03\xc0c[\xea"\xed\xf7\x12\xc0\x8f\xaa4Y\xa8#\x03\xc0a\x95\xe2\x18\xb4+\x1c\xc0+J\xa0\x03\xd8\x06\x10\xc0s\xf2\':3\x021\xc0h\xd7\xd3\x13\xf5\x04\t\xc06\x00X\x9e\xd9\xd7\x16\xc0\xa3\xfdt\xe8%W\r\xc0\x91u+\xd0\xad\xea\x0e\xc0\x10V\x17\xb6i\xc6\x13\xc0'
p100
tp101
bsS'Model'
p102
S'HKY'
p103
sS'clock'
p104
I00
s.