(dp0
S'Force'
p1
(dp2
I5
F0.0
ssS'ExpectedGeneconv'
p3
(dp4
(S'N1'
p5
S'N2'
p6
tp7
F0.0
s(S'N5'
p8
S'cerevisiae'
p9
tp10
F0.0
s(g6
S'N3'
p11
tp12
F0.0
s(S'N4'
p13
g8
tp14
F0.0
s(g5
S'castellii'
p15
tp16
F0.0
s(g6
S'bayanus'
p17
tp18
F0.0
s(S'N0'
p19
g5
tp20
F0.0
s(g11
S'kudriavzevii'
p21
tp22
F0.0
s(g8
S'paradoxus'
p23
tp24
F0.0
s(g19
S'kluyveri'
p25
tp26
F0.0
s(g11
g13
tp27
F0.0
s(g13
S'mikatae'
p28
tp29
F0.0
ssS'ExpectedDwellTime'
p30
(dp31
g7
F136.82069840441255
sg10
F243.11605835009047
sg12
F222.14268876778334
sg14
F231.56695164376248
sg16
F115.74191524499834
sg18
F242.5363327838308
sg20
F0.0023964503740158626
sg22
F226.34156033694197
sg24
F243.31468048710772
sg26
F0.0
sg27
F226.28454586758562
sg29
F220.75644584564924
ssS'newicktree'
p32
S'../PairsAlignemt/YeastTree.newick'
p33
sS'll'
p34
cnumpy.core.multiarray
scalar
p35
(cnumpy
dtype
p36
(S'f8'
p37
I0
I1
tp38
Rp39
(I3
S'<'
p40
NNNI-1
I-1
I0
tp41
bS'4\xfb\x8dx\x9dH\xab\xc0'
p42
tp43
Rp44
sS'edge_list'
p45
(lp46
g20
ag26
ag7
ag16
ag12
ag18
ag27
ag22
ag14
ag29
ag10
ag24
asS'edge_to_blen'
p47
(dp48
g20
g35
(g39
S'\xd6c\x1d\t\xabc\xd5>'
p49
tp50
Rp51
sg10
g35
(g39
S"4\xe6'\xd2\xdar\xc4?"
p52
tp53
Rp54
sg12
g35
(g39
S'E\xb0\x12\nnu\xb5?'
p55
tp56
Rp57
sg14
g35
(g39
S'\xa8\xb10_\xf6\xa0\xb1?'
p58
tp59
Rp60
sg16
g35
(g39
S'\xaa2]yX\xe2\xdb?'
p61
tp62
Rp63
sg18
g35
(g39
S'\x043\x00\x99\xbf5\xc9?'
p64
tp65
Rp66
sg7
g35
(g39
S'\xe5o\x11T;\xb1\xdc?'
p67
tp68
Rp69
sg22
g35
(g39
S'\xf9\xd8=\xfcO\xc1\xbe?'
p70
tp71
Rp72
sg24
g35
(g39
S'(\xf8\x80\x9c$\xc0\xb2?'
p73
tp74
Rp75
sg29
g35
(g39
S'@\x19n\x0c}\x1b\xcb?'
p76
tp77
Rp78
sg27
g35
(g39
S'\xfb\xcd\xea5x\xb4\xb2?'
p79
tp80
Rp81
sg26
g35
(g39
S'6\x94\xe3\x94\x87\xfd\xe5?'
p82
tp83
Rp84
ssS'paralog'
p85
(lp86
S'YDR099W'
p87
aS'YER177W'
p88
asS'alignment_file'
p89
S'../MafftAlignment/YDR099W_YER177W/YDR099W_YER177W_input.fasta'
p90
sS'x_clock'
p91
NsS'x'
p92
cnumpy.core.multiarray
_reconstruct
p93
(cnumpy
ndarray
p94
(I0
tp95
S'b'
p96
tp97
Rp98
(I1
(I18
tp99
g39
I00
S'\xd5\xb1\xa9|\x1d\xba\xe8\xbfG\xe6/\xc3\x87\xa9\xde\xbf\xd3\xcd\x10\xaf\xf2\xe7\xeb\xbf\nc_\x1a\x13!\xfa?\xd0\x86\x96\x93 \x8b\r\xc0\x8f4\x13\xd9\xc2\x88\xd5?\xe2^\xd7\xb8h_(\xc0tfff*\x02\xd8\xbf\xb1A5X\x10\xac\xe9\xbfA\xed#\xa6\x1c\x96\xea\xbf\xcc\xee\xec}\x16\xd5\x03\xc0:\x1f\xbe-%\xff\xf9\xbfaX):]\xee\x04\xc0\x1e\xba>\x93\xf5\xf3\x00\xc0\xeeRG\xff\xb8g\x05\xc0\x89\xfa97\xe9\xd5\xf8\xbf&]}7\x87X\xfd\xbfeiM\xa9`\xe9\x04\xc0'
p100
tp101
bsS'Model'
p102
S'MG94'
p103
sS'clock'
p104
I00
s.