(dp0
S'Force'
p1
(dp2
I4
F0.0
ssS'ExpectedGeneconv'
p3
(dp4
(S'N1'
p5
S'N2'
p6
tp7
F0.0
s(S'N5'
p8
S'cerevisiae'
p9
tp10
F0.0
s(g6
S'N3'
p11
tp12
F0.0
s(S'N4'
p13
g8
tp14
F0.0
s(g5
S'castellii'
p15
tp16
F0.0
s(g6
S'bayanus'
p17
tp18
F0.0
s(S'N0'
p19
g5
tp20
F0.0
s(g11
S'kudriavzevii'
p21
tp22
F0.0
s(g8
S'paradoxus'
p23
tp24
F0.0
s(g19
S'kluyveri'
p25
tp26
F0.0
s(g11
g13
tp27
F0.0
s(g13
S'mikatae'
p28
tp29
F0.0
ssS'ExpectedDwellTime'
p30
(dp31
g7
F21.158381944909227
sg10
F53.92929077767477
sg12
F31.47340352912756
sg14
F46.054247016478136
sg16
F29.451783595966067
sg18
F38.66069981236074
sg20
F4.55323523043845
sg22
F54.08410565364542
sg24
F51.352802044906205
sg26
F0.0
sg27
F41.666594774984894
sg29
F54.55429248003769
ssS'newicktree'
p32
S'../PairsAlignemt/YeastTree.newick'
p33
sS'll'
p34
cnumpy.core.multiarray
scalar
p35
(cnumpy
dtype
p36
(S'f8'
p37
I0
I1
tp38
Rp39
(I3
S'<'
p40
NNNI-1
I-1
I0
tp41
bS'\x1c#\x1a\x8d\xc1\x87\x94\xc0'
p42
tp43
Rp44
sS'edge_list'
p45
(lp46
g20
ag26
ag7
ag16
ag12
ag18
ag27
ag22
ag14
ag29
ag10
ag24
asS'edge_to_blen'
p47
(dp48
g7
g35
(g39
S'\x8e(\x835\x96\x02\xa0?'
p49
tp50
Rp51
sg10
g35
(g39
S'E\x9c\x96H\x07\xa2\x93?'
p52
tp53
Rp54
sg12
g35
(g39
S'?|\xb0\xa6iW\x85?'
p55
tp56
Rp57
sg14
g35
(g39
S'\xd6\x88\xb0{\xf5\xcdh?'
p58
tp59
Rp60
sg22
g35
(g39
S'\xe0\xc1\xd8\x1e\x82+\x9c?'
p61
tp62
Rp63
sg18
g35
(g39
S')A\xbcw\xbd|\x9a?'
p64
tp65
Rp66
sg20
g35
(g39
S'nKWo\xf2\xb6{?'
p67
tp68
Rp69
sg16
g35
(g39
S'\xa8\xebf\xf7BX\xa4?'
p70
tp71
Rp72
sg24
g35
(g39
S'\xe7\x10\x01h\xeeH\x8d?'
p73
tp74
Rp75
sg26
g35
(g39
S'\xe0\x96E\x16\xb1\x16\xb5?'
p76
tp77
Rp78
sg27
g35
(g39
S'\xf0\x88\x0f\xc1s\xf5|?'
p79
tp80
Rp81
sg29
g35
(g39
S'\x92p~\xe3\xe6\xac\xa2?'
p82
tp83
Rp84
ssS'paralog'
p85
(lp86
S'YLR406C'
p87
aS'YDL075W'
p88
asS'alignment_file'
p89
S'../MafftAlignment/YLR406C_YDL075W/YLR406C_YDL075W_input.fasta'
p90
sS'x_clock'
p91
NsS'x'
p92
cnumpy.core.multiarray
_reconstruct
p93
(cnumpy
ndarray
p94
(I0
tp95
S'b'
p96
tp97
Rp98
(I1
(I17
tp99
g39
I00
S'\xad\x1a\x0b\x18\x8f\xd8\xe6\xbf\xe5c\x08\x99=U\xe0\xbf\x04\x82\xee\x11\x86\xe8\xec\xbf\xc5\x1e\x87c\x0c%\x03@\x8f4\x13\xd9\xc2\x88\xd5?\xb2!4o\xb4\xfb\x13\xc0)y\x80\x15\xb7\xf8\x03\xc025\xb8\xbe\x88\xb8\x0b\xc0\xacy\x18J\xd3\xcd\t\xc0L{\xa3\xb3\x80A\x12\xc0_\xb0\xba\xd3\x0b=\r\xc0*3\xf9\xce\xbc\xce\x13\xc0\x7fqd\xf3\xe7\xbe\x0c\xc0\x8fSD\x9f\x153\x17\xc0aNu6+}\n\xc0Q\xf3\xb2\x18U\xa2\x0f\xc0`#W\x0f}\xfd\x10\xc0'
p100
tp101
bsS'Model'
p102
S'HKY'
p103
sS'clock'
p104
I00
s.