(dp0
S'Force'
p1
(dp2
I5
F0.0
sI6
F0.0
ssS'ExpectedGeneconv'
p3
(dp4
(S'N1'
p5
S'N2'
p6
tp7
F0.0
s(S'N5'
p8
S'cerevisiae'
p9
tp10
F0.0
s(g6
S'N3'
p11
tp12
F0.0
s(S'N4'
p13
g8
tp14
F0.0
s(g5
S'castellii'
p15
tp16
F0.0
s(g6
S'bayanus'
p17
tp18
F0.0
s(S'N0'
p19
g5
tp20
F0.0
s(g11
S'kudriavzevii'
p21
tp22
F0.0
s(g8
S'paradoxus'
p23
tp24
F0.0
s(g19
S'kluyveri'
p25
tp26
F0.0
s(g11
g13
tp27
F0.0
s(g13
S'mikatae'
p28
tp29
F0.0
ssS'ExpectedDwellTime'
p30
(dp31
g7
F20.101350662576298
sg10
F24.980735577610798
sg12
F36.242117360303745
sg14
F33.3326024969519
sg16
F50.16249358320812
sg18
F47.77006226962439
sg20
F0.0008713343368642491
sg22
F71.69829524778262
sg24
F32.133909443967404
sg26
F0.0
sg27
F39.53893749438677
sg29
F52.121377909944115
ssS'newicktree'
p32
S'../PairsAlignemt/YeastTree.newick'
p33
sS'll'
p34
cnumpy.core.multiarray
scalar
p35
(cnumpy
dtype
p36
(S'f8'
p37
I0
I1
tp38
Rp39
(I3
S'<'
p40
NNNI-1
I-1
I0
tp41
bS'\x89\x07=\x1aQ)\xa1\xc0'
p42
tp43
Rp44
sS'edge_list'
p45
(lp46
g20
ag26
ag7
ag16
ag12
ag18
ag27
ag22
ag14
ag29
ag10
ag24
asS'edge_to_blen'
p47
(dp48
g7
g35
(g39
S'$\xc6\xfa~Z$\xb4?'
p49
tp50
Rp51
sg10
g35
(g39
S'\x92\x92\x1c\xd3\xf4\x12\x87?'
p52
tp53
Rp54
sg12
g35
(g39
S'D/\xc6$s\x88\xa4?'
p55
tp56
Rp57
sg14
g35
(g39
S'X\x07k\x07\xbb\x97\xa0?'
p58
tp59
Rp60
sg22
g35
(g39
S'\xfe\x0f2\xe5;[\xc2?'
p61
tp62
Rp63
sg18
g35
(g39
S'\x0f\xaau\x9a\xcaq\xbb?'
p64
tp65
Rp66
sg20
g35
(g39
S'(\x10\x01y\xaa;\xc4>'
p67
tp68
Rp69
sg16
g35
(g39
S'\x04J\x8ec\x90\xe1\xce?'
p70
tp71
Rp72
sg24
g35
(g39
S'\xbd\x14M\x80G\x89\xa2?'
p73
tp74
Rp75
sg29
g35
(g39
S'\xe9\x1f\xcf\x08{~\xac?'
p76
tp77
Rp78
sg27
g35
(g39
S':PI\t\xa21\x94?'
p79
tp80
Rp81
sg26
g35
(g39
S'\x99\xb0l\xeb"\xa4\xcf?'
p82
tp83
Rp84
ssS'paralog'
p85
(lp86
S'YER102W'
p87
aS'YBL072C'
p88
asS'alignment_file'
p89
S'../MafftAlignment/YER102W_YBL072C/YER102W_YBL072C_input.fasta'
p90
sS'x_clock'
p91
NsS'x'
p92
cnumpy.core.multiarray
_reconstruct
p93
(cnumpy
ndarray
p94
(I0
tp95
S'b'
p96
tp97
Rp98
(I1
(I19
tp99
g39
I00
S'lQY\x08e&\xe7\xbf\x97~\xe3zq\xa3\xe0\xbf@]\x83_?\xf1\xeb\xbf\x1cs\xeb\xaf\xa7\x16\xfc?`"%\x8a\x9e\r\x00\xc0i`\xbb\xe6\x1bR\xf9?i`\xbb\xe6\x1bR\xf9?g2\x08\x12\xc1\xde)\xc0SWZ\xf6s\\\xf6\xbf\xdc\x17\x9e\x10\xc6V\x04\xc0\xe4\x11\x8a \x0b\xc0\xf6\xbf\xb0\xc4X\xbe\xf6\xba\t\xc0q\xc1\xd0B5\xdd\x01\xc0\x81\xb9\xcb\x11\xa3h\x0f\xc0\xd7\x17$\x15\xa6\x12\xff\xbf\x1d=\xdcNUo\x0b\xc0{\xce\xedk\xe9\x1b\x07\xc0@\xa5\x8a\x82\x92\xf1\x11\xc0\xf7\x19\x1aR|\x8c\n\xc0'
p100
tp101
bsS'Model'
p102
S'MG94'
p103
sS'clock'
p104
I00
s.