(dp0
S'Force'
p1
(dp2
I4
F0.0
sI5
F0.0
ssS'ExpectedGeneconv'
p3
(dp4
(S'N1'
p5
S'N2'
p6
tp7
F0.0
s(S'N5'
p8
S'cerevisiae'
p9
tp10
F0.0
s(g6
S'N3'
p11
tp12
F0.0
s(S'N4'
p13
g8
tp14
F0.0
s(g5
S'castellii'
p15
tp16
F0.0
s(g6
S'bayanus'
p17
tp18
F0.0
s(S'N0'
p19
g5
tp20
F0.0
s(g11
S'kudriavzevii'
p21
tp22
F0.0
s(g8
S'paradoxus'
p23
tp24
F0.0
s(g19
S'kluyveri'
p25
tp26
F0.0
s(g11
g13
tp27
F0.0
s(g13
S'mikatae'
p28
tp29
F0.0
ssS'ExpectedDwellTime'
p30
(dp31
g7
F22.169734701041374
sg10
F49.49024249491942
sg12
F35.788687361939616
sg14
F47.43090675628578
sg16
F30.84151447652095
sg18
F31.371810911271584
sg20
F2.0867083497497534
sg22
F51.02022336304402
sg24
F55.249595030260046
sg26
F0.0
sg27
F44.602320626664685
sg29
F64.85578533850004
ssS'newicktree'
p32
S'../PairsAlignemt/YeastTree.newick'
p33
sS'll'
p34
cnumpy.core.multiarray
scalar
p35
(cnumpy
dtype
p36
(S'f8'
p37
I0
I1
tp38
Rp39
(I3
S'<'
p40
NNNI-1
I-1
I0
tp41
bS'$\x98\x9c\xcc\xad\xc2\x98\xc0'
p42
tp43
Rp44
sS'edge_list'
p45
(lp46
g20
ag26
ag7
ag16
ag12
ag18
ag27
ag22
ag14
ag29
ag10
ag24
asS'edge_to_blen'
p47
(dp48
g7
g35
(g39
S'J\x07B\xb74`\xa3?'
p49
tp50
Rp51
sg10
g35
(g39
S'\x9do\\\x0eW\x10\x94?'
p52
tp53
Rp54
sg12
g35
(g39
S'\tX\x97\xdc\xc2\xbd\x93?'
p55
tp56
Rp57
sg14
g35
(g39
S'b\xb0l\xd0\xc91e?'
p58
tp59
Rp60
sg16
g35
(g39
S'x\x8b~\xa8\x16\xef\xa9?'
p61
tp62
Rp63
sg18
g35
(g39
S'\x8d\x87.7uP\x92?'
p64
tp65
Rp66
sg20
g35
(g39
S'sgM\x9ac6e?'
p67
tp68
Rp69
sg22
g35
(g39
S'|\\\x0f\xf5\xc7.\x9a?'
p70
tp71
Rp72
sg24
g35
(g39
S'\x92\x1a\xa2\x8a\xf5^\x91?'
p73
tp74
Rp75
sg29
g35
(g39
S's\xf7\x18j/L\xa0?'
p76
tp77
Rp78
sg27
g35
(g39
S'\xf5\xff\xb7/1\xb4\x83?'
p79
tp80
Rp81
sg26
g35
(g39
S'\x01YP\n\x04i\xb2?'
p82
tp83
Rp84
ssS'paralog'
p85
(lp86
S'YBL087C'
p87
aS'YER117W'
p88
asS'alignment_file'
p89
S'../MafftAlignment/YBL087C_YER117W/YBL087C_YER117W_input.fasta'
p90
sS'x_clock'
p91
NsS'x'
p92
cnumpy.core.multiarray
_reconstruct
p93
(cnumpy
ndarray
p94
(I0
tp95
S'b'
p96
tp97
Rp98
(I1
(I18
tp99
g39
I00
S'\xea5\xad\x08ED\xea\xbf\xd1\x9aqJ:c\xe5\xbf\x04q\r|\x93=\xed\xbf\xba z\xb3&\xac\x04@i`\xbb\xe6\x1bR\xf9?i`\xbb\xe6\x1bR\xf9?Cp+\xcaF\xd3\x17\xc0\n?lk\xe4\x0e\x05\xc0{\x0cH\xf4\xc31\n\xc0\x1bd\xa6\x9f\xb7\xdc\x07\xc0\xb1*\xfd\x1e\x10\x97\x0f\xc0\x88 \xf2x\\\x18\x10\xc0\x08:\x18CA\x93\x12\xc0\xbe\xdb0\x8d\xbaT\r\xc0\xf3\x15E\xfa$\xd4\x17\xc0y\x92}\x9e\x15\x94\x0b\xc0\xf2\x15\x1cs\xdeu\x0f\xc0\n\xf7\xe1{\x83N\x10\xc0'
p100
tp101
bsS'Model'
p102
S'HKY'
p103
sS'clock'
p104
I00
s.