(dp0
S'Force'
p1
(dp2
I5
F0.0
ssS'ExpectedGeneconv'
p3
(dp4
(S'N1'
p5
S'N2'
p6
tp7
F227.14164720577335
s(S'N5'
p8
S'cerevisiae'
p9
tp10
F45.15870043800785
s(g6
S'N3'
p11
tp12
F131.3481838059574
s(S'N4'
p13
g8
tp14
F30.00494640025019
s(g5
S'castellii'
p15
tp16
F265.57040627751684
s(g6
S'bayanus'
p17
tp18
F0.0
s(S'N0'
p19
g5
tp20
F59.68920720517157
s(g11
S'kudriavzevii'
p21
tp22
F76.59630330377303
s(g8
S'paradoxus'
p23
tp24
F46.5822300105641
s(g19
S'kluyveri'
p25
tp26
F0.0
s(g11
g13
tp27
F28.409379309216945
s(g13
S'mikatae'
p28
tp29
F88.7063309525379
ssS'ExpectedDwellTime'
p30
(dp31
g7
F961.6994398949674
sg10
F1221.0280000082869
sg12
F1166.3049789026088
sg14
F1204.5882103976703
sg16
F971.6054977145438
sg18
F0.0
sg20
F393.52172116745834
sg22
F1191.7420453677767
sg24
F1183.5809742252825
sg26
F0.0
sg27
F1198.2366232526922
sg29
F1205.1494191499648
ssS'newicktree'
p32
S'../PairsAlignemt/YeastTree.newick'
p33
sS'll'
p34
cnumpy.core.multiarray
scalar
p35
(cnumpy
dtype
p36
(S'f8'
p37
I0
I1
tp38
Rp39
(I3
S'<'
p40
NNNI-1
I-1
I0
tp41
bS'A\xc8\xdc\x8b\x9c<\xcf\xc0'
p42
tp43
Rp44
sS'edge_list'
p45
(lp46
g20
ag26
ag7
ag16
ag12
ag18
ag27
ag22
ag14
ag29
ag10
ag24
asS'edge_to_blen'
p47
(dp48
g7
g35
(g39
S'\x8cqI\rH\xdf\xc7?'
p49
tp50
Rp51
sg10
g35
(g39
S'\xae9\xab\x1a}\xcb\xa2?'
p52
tp53
Rp54
sg12
g35
(g39
S'$\x17\x9b|\xe4\x9b\xb6?'
p55
tp56
Rp57
sg14
g35
(g39
S'+\x8eg6d~\x95?'
p58
tp59
Rp60
sg22
g35
(g39
S'\x10w\xf4j\x94Y\xac?'
p61
tp62
Rp63
sg18
g35
(g39
S'\x00\x00\x00\x00\x00\x00\x00\x00'
p64
tp65
Rp66
sg20
g35
(g39
S'M\xbb\xb6\x07c|\xbf?'
p67
tp68
Rp69
sg16
g35
(g39
S'\xcbZ\xed\\\x95g\xcb?'
p70
tp71
Rp72
sg24
g35
(g39
S':\xd3\x98_G\x02\x9e?'
p73
tp74
Rp75
sg26
g35
(g39
S'\xac\x0b\xc3{\x9d\xc6\xc7?'
p76
tp77
Rp78
sg27
g35
(g39
S'\x02^\xc7\x07\x0b\x98\x97?'
p79
tp80
Rp81
sg29
g35
(g39
S'\xe3\xd8\xfc\x93\xb22\xae?'
p82
tp83
Rp84
ssS'paralog'
p85
(lp86
S'YPR159W'
p87
aS'YGR143W'
p88
asS'alignment_file'
p89
S'../MafftAlignment/YPR159W_YGR143W/YPR159W_YGR143W_input.fasta'
p90
sS'x_clock'
p91
NsS'x'
p92
cnumpy.core.multiarray
_reconstruct
p93
(cnumpy
ndarray
p94
(I0
tp95
S'b'
p96
tp97
Rp98
(I1
(I17
tp99
g39
I00
S"\x8c\x8a\xec\r\x1c\xbe\xe7\xbf\xd9\xaf\xc4^\xd6e\xe0\xbf\xe4\x03mY\x12\xa5\xea\xbf\x91\xe0\xb1\xd8\xcf\xd8\xf4?\x7f:mI\x16'\xcb?\xbd\x11 \xe3\xdd\xc3\x00\xc0\xcf\x9c\xb36\x0b\xef\xfa\xbf\xcd\xe68fz\xde\xfa\xbf\xca\xa8.\xa3=\xa9\xf8\xbfJ\x84\xaf\x90&j\x03\xc0\x15U\xb5\xbb\xb1k\x12\xc0i\xf7L\xe6\xf2)\x0e\xc0\xc0{\x10cL&\x07\xc0>\xaf\xfde\xe1\xe8\x0e\xc0>\x12\xf3/\xf6\xa4\x06\xc0\xc9\xc5\xc0\xa8\x1bp\n\xc0\xb5mX\xf9d=\x0c\xc0"
p100
tp101
bsS'Model'
p102
S'HKY'
p103
sS'clock'
p104
I00
s.