(dp0
S'Force'
p1
(dp2
I4
F0.0
sI5
F0.0
ssS'ExpectedGeneconv'
p3
(dp4
(S'N1'
p5
S'N2'
p6
tp7
F0.0
s(S'N5'
p8
S'cerevisiae'
p9
tp10
F0.0
s(g6
S'N3'
p11
tp12
F0.0
s(S'N4'
p13
g8
tp14
F0.0
s(g5
S'castellii'
p15
tp16
F0.0
s(g6
S'bayanus'
p17
tp18
F0.0
s(S'N0'
p19
g5
tp20
F0.0
s(g11
S'kudriavzevii'
p21
tp22
F0.0
s(g8
S'paradoxus'
p23
tp24
F0.0
s(g19
S'kluyveri'
p25
tp26
F0.0
s(g11
g13
tp27
F0.0
s(g13
S'mikatae'
p28
tp29
F0.0
ssS'ExpectedDwellTime'
p30
(dp31
g7
F50.04377537145819
sg10
F81.45846412311415
sg12
F75.73966858354099
sg14
F81.60815512247109
sg16
F53.800102500243526
sg18
F80.14680596759995
sg20
F5.553880456911628
sg22
F89.78213420806684
sg24
F85.28454742046503
sg26
F0.0
sg27
F78.87712619148358
sg29
F87.81030492997131
ssS'newicktree'
p32
S'../PairsAlignemt/YeastTree.newick'
p33
sS'll'
p34
cnumpy.core.multiarray
scalar
p35
(cnumpy
dtype
p36
(S'f8'
p37
I0
I1
tp38
Rp39
(I3
S'<'
p40
NNNI-1
I-1
I0
tp41
bS'\xedl\x7f\xc6n\xaf\x9e\xc0'
p42
tp43
Rp44
sS'edge_list'
p45
(lp46
g20
ag26
ag7
ag16
ag12
ag18
ag27
ag22
ag14
ag29
ag10
ag24
asS'edge_to_blen'
p47
(dp48
g7
g35
(g39
S'P\xe5\r\xcaL\n\xad?'
p49
tp50
Rp51
sg10
g35
(g39
S'\x99\x8f\xf3r\xd92\x98?'
p52
tp53
Rp54
sg12
g35
(g39
S'\x06\xefL\x1c\x05\xb1\x7f?'
p55
tp56
Rp57
sg14
g35
(g39
S'qk\xc1\x82-\x03\x86?'
p58
tp59
Rp60
sg16
g35
(g39
S'\xb6\x80rB/\xec\xab?'
p61
tp62
Rp63
sg18
g35
(g39
S'[\xe3^\x98\xa5\x01\x91?'
p64
tp65
Rp66
sg20
g35
(g39
S'W\x8a\xa8\x90@zw?'
p67
tp68
Rp69
sg22
g35
(g39
S"\x9e\x12i'#\x8a\xa1?"
p70
tp71
Rp72
sg24
g35
(g39
S'\xd2J\xc35(\xf1\x84?'
p73
tp74
Rp75
sg29
g35
(g39
S'\xf2\xad\xc0\xbb\x00I\x98?'
p76
tp77
Rp78
sg27
g35
(g39
S'\xce\x00\x9d\xe9\x97U\x88?'
p79
tp80
Rp81
sg26
g35
(g39
S'\xd9D\x15>q\r\xb1?'
p82
tp83
Rp84
ssS'paralog'
p85
(lp86
S'YDR418W'
p87
aS'YEL054C'
p88
asS'alignment_file'
p89
S'../MafftAlignment/YDR418W_YEL054C/YDR418W_YEL054C_input.fasta'
p90
sS'x_clock'
p91
NsS'x'
p92
cnumpy.core.multiarray
_reconstruct
p93
(cnumpy
ndarray
p94
(I0
tp95
S'b'
p96
tp97
Rp98
(I1
(I18
tp99
g39
I00
S'\xd1H\xda\xc5\xc4r\xe9\xbf\xf0>\x90X2\x9e\xde\xbf\x00\xd7\xd69m\xd7\xe9\xbf\xc7\xad\xbe\x1e\xab\x8e\x04@i`\xbb\xe6\x1bR\xf9?i`\xbb\xe6\x1bR\xf9?\xf1\xc72Z\x9a\xa5\x14\xc0Q\xefgR\xc9\xab\x05\xc0Dw\x12\x0f\x07\xf5\x06\xc0\x91(\xa3CgE\x07\xc0\xe3\xf9\xae>fr\x13\xc0" \xa0\xaf:d\x10\xc0\x00qc\x98\x1d\xbb\x11\xc0BxQ&\xac\xfd\n\xc0\x9djl\x04\xce!\x12\xc0I\x99\x16%\xcf\xee\r\xc0\x9f,\x15\xb6\x1e\xf6\r\xc0\xa6\xa8\xa0\x99\xd9T\x12\xc0'
p100
tp101
bsS'Model'
p102
S'HKY'
p103
sS'clock'
p104
I00
s.