(dp0
S'Force'
p1
(dp2
I4
F0.0
ssS'ExpectedGeneconv'
p3
(dp4
(S'N1'
p5
S'N2'
p6
tp7
F0.0
s(S'N5'
p8
S'cerevisiae'
p9
tp10
F0.0
s(g6
S'N3'
p11
tp12
F0.0
s(S'N4'
p13
g8
tp14
F0.0
s(g5
S'castellii'
p15
tp16
F0.0
s(g6
S'bayanus'
p17
tp18
F0.0
s(S'N0'
p19
g5
tp20
F0.0
s(g11
S'kudriavzevii'
p21
tp22
F0.0
s(g8
S'paradoxus'
p23
tp24
F0.0
s(g19
S'kluyveri'
p25
tp26
F0.0
s(g11
g13
tp27
F0.0
s(g13
S'mikatae'
p28
tp29
F0.0
ssS'ExpectedDwellTime'
p30
(dp31
g7
F25.467514896739562
sg10
F70.69426839430665
sg12
F37.732399300527355
sg14
F49.43596133555656
sg16
F42.12462704750913
sg18
F45.02620378778769
sg20
F2.0748897331559032e-05
sg22
F52.64085532131282
sg24
F58.27472270940348
sg26
F0.0
sg27
F41.5817507584464
sg29
F68.04517891029565
ssS'newicktree'
p32
S'../PairsAlignemt/YeastTree.newick'
p33
sS'll'
p34
cnumpy.core.multiarray
scalar
p35
(cnumpy
dtype
p36
(S'f8'
p37
I0
I1
tp38
Rp39
(I3
S'<'
p40
NNNI-1
I-1
I0
tp41
bS'\x89\xf9)\xee\x992\xa2\xc0'
p42
tp43
Rp44
sS'edge_list'
p45
(lp46
g20
ag26
ag7
ag16
ag12
ag18
ag27
ag22
ag14
ag29
ag10
ag24
asS'edge_to_blen'
p47
(dp48
g7
g35
(g39
S'E\x80<j\xa8\xb1\xa1?'
p49
tp50
Rp51
sg10
g35
(g39
S'\x83L\x81%\xc3\xac\x95?'
p52
tp53
Rp54
sg12
g35
(g39
S'hy\xe3\x1d\xf78m?'
p55
tp56
Rp57
sg14
g35
(g39
S'e\xb1z\x92S\x8c\x8b?'
p58
tp59
Rp60
sg22
g35
(g39
S'8%k\xaf/\x01\xa2?'
p61
tp62
Rp63
sg18
g35
(g39
S'\x98\x1e\xcc\r\xf3f\x92?'
p64
tp65
Rp66
sg20
g35
(g39
S'\xacL\x14\x08f\xe5k>'
p67
tp68
Rp69
sg16
g35
(g39
S'+\xb0\xb6\x00\xd0\xf8\xad?'
p70
tp71
Rp72
sg24
g35
(g39
S'8\x0f\xecW\xa9\xec~?'
p73
tp74
Rp75
sg26
g35
(g39
S'!g\x97\x7f\xca\x88\xb2?'
p76
tp77
Rp78
sg27
g35
(g39
S'~\x8c3\x10\xee\xe8\x82?'
p79
tp80
Rp81
sg29
g35
(g39
S'w\xb2S\xb0gp\xa1?'
p82
tp83
Rp84
ssS'paralog'
p85
(lp86
S'YMR142C'
p87
aS'YDL082W'
p88
asS'alignment_file'
p89
S'../MafftAlignment/YMR142C_YDL082W/YMR142C_YDL082W_input.fasta'
p90
sS'x_clock'
p91
NsS'x'
p92
cnumpy.core.multiarray
_reconstruct
p93
(cnumpy
ndarray
p94
(I0
tp95
S'b'
p96
tp97
Rp98
(I1
(I17
tp99
g39
I00
S"Y{\xe1\xaeD\x0c\xe8\xbf\x14\xfd$8\x95\xc6\xdf\xbf_B\x15\xd5\xd1\xcb\xe6\xbf5ip\x08i\xda\x01@\x8f4\x13\xd9\xc2\x88\xd5?\xbf=\xa3\x06\xd5\xc50\xc0\x8f\x19'\x86!\x01\x05\xc0YC^\xbf\xb9\xeb\n\xc0\xb6\x94\xf1\xa9Z\xb4\x06\xc0\xe3V\x16\xaf<\x8b\x16\xc0\xea\xae\xcf\xeau\x13\x10\xc0C\x16\xbck_\xbd\x12\xc0\x97l\x18\x8f\x14\xc8\n\xc0\xcfYs\x8d\x17<\x11\xc0\xbb\x9b\xf1gq\t\x0b\xc0\xd2\xe4y\x87\xb1\xd7\x0e\xc0[w\x1e\xed|\x8b\x13\xc0"
p100
tp101
bsS'Model'
p102
S'HKY'
p103
sS'clock'
p104
I00
s.