(dp0
S'Force'
p1
(dp2
I4
F0.0
ssS'ExpectedGeneconv'
p3
(dp4
(S'N1'
p5
S'N2'
p6
tp7
F0.0
s(S'N5'
p8
S'cerevisiae'
p9
tp10
F0.0
s(g6
S'N3'
p11
tp12
F0.0
s(S'N4'
p13
g8
tp14
F0.0
s(g5
S'castellii'
p15
tp16
F0.0
s(g6
S'bayanus'
p17
tp18
F0.0
s(S'N0'
p19
g5
tp20
F0.0
s(g11
S'kudriavzevii'
p21
tp22
F0.0
s(g8
S'paradoxus'
p23
tp24
F0.0
s(g19
S'kluyveri'
p25
tp26
F0.0
s(g11
g13
tp27
F0.0
s(g13
S'mikatae'
p28
tp29
F0.0
ssS'ExpectedDwellTime'
p30
(dp31
g7
F16.898743138974943
sg10
F51.53893243619688
sg12
F30.91959131061562
sg14
F43.702881659887225
sg16
F59.903453339320286
sg18
F50.82348758698926
sg20
F1.7496376030885457
sg22
F63.6597669333827
sg24
F77.7184601233372
sg26
F0.0
sg27
F36.26929023461906
sg29
F74.45176968377987
ssS'newicktree'
p32
S'../PairsAlignemt/YeastTree.newick'
p33
sS'll'
p34
cnumpy.core.multiarray
scalar
p35
(cnumpy
dtype
p36
(S'f8'
p37
I0
I1
tp38
Rp39
(I3
S'<'
p40
NNNI-1
I-1
I0
tp41
bS'\x8f\n\xde=(\xbc\xa2\xc0'
p42
tp43
Rp44
sS'edge_list'
p45
(lp46
g20
ag26
ag7
ag16
ag12
ag18
ag27
ag22
ag14
ag29
ag10
ag24
asS'edge_to_blen'
p47
(dp48
g7
g35
(g39
S'P\xe6V\x9f\x1a\x97\x8d?'
p49
tp50
Rp51
sg10
g35
(g39
S'\xf7\n<\xa8R\xd3\x94?'
p52
tp53
Rp54
sg12
g35
(g39
S'\xa5\xb5\x9c[\x87\xab}?'
p55
tp56
Rp57
sg14
g35
(g39
S'\x98\xa1z\x95\xeb\x8eo?'
p58
tp59
Rp60
sg22
g35
(g39
S'\xd1\xf6\x83h?\xf8\xa4?'
p61
tp62
Rp63
sg18
g35
(g39
S'/]>\x1f\x90\xa0\xa1?'
p64
tp65
Rp66
sg20
g35
(g39
S',K{\xfb]\x12Z?'
p67
tp68
Rp69
sg16
g35
(g39
S'\xc9\x93\x99B\x84I\xb5?'
p70
tp71
Rp72
sg24
g35
(g39
S'\xceok\xb7@/\xa2?'
p73
tp74
Rp75
sg26
g35
(g39
S'-\xde\x85D\x82\x1a\xb2?'
p76
tp77
Rp78
sg27
g35
(g39
S'k\x9bG\x0b\x94\no?'
p79
tp80
Rp81
sg29
g35
(g39
S'\xc0\xedA\xac\xb4\xb4\xa4?'
p82
tp83
Rp84
ssS'paralog'
p85
(lp86
S'YNL301C'
p87
aS'YOL120C'
p88
asS'alignment_file'
p89
S'../MafftAlignment/YNL301C_YOL120C/YNL301C_YOL120C_input.fasta'
p90
sS'x_clock'
p91
NsS'x'
p92
cnumpy.core.multiarray
_reconstruct
p93
(cnumpy
ndarray
p94
(I0
tp95
S'b'
p96
tp97
Rp98
(I1
(I17
tp99
g39
I00
S'\xd1K\xfb\xd43\xef\xe8\xbfC\xfb\xac\x1f\x0bE\xe2\xbfm\xd9\x0c9\x18\xb6\xe9\xbf\x89\x01\xedk\x96\x14\x00@\x8f4\x13\xd9\xc2\x88\xd5?\x8f\xbb\x03f\xd8\xc5\x19\xc03,\x8aIK1\x05\xc0\xbfQ\x87\xc2\xdd\xf2\x10\xc0\x00\x8a{^\x86\xe5\x03\xc0\x9f\xe7QD\xe4\xb5\x13\xc0\xf3\xb2K&x\xf3\n\xc0\x83H\xcf\x88hM\x16\xc08O\xe4\xbd\xdc\x8f\t\xc0\xb1mB\xc1~<\x16\xc0q \xb9\x0c\xcb\xa9\t\xc0\xa8\xfe\xe52\x90)\x0f\xc0\xe3^\xb8\x92\xb6\xb3\n\xc0'
p100
tp101
bsS'Model'
p102
S'HKY'
p103
sS'clock'
p104
I00
s.