(dp0
S'Force'
p1
(dp2
I5
F0.0
ssS'ExpectedGeneconv'
p3
(dp4
(S'N1'
p5
S'N2'
p6
tp7
F173.41203365809986
s(S'N5'
p8
S'cerevisiae'
p9
tp10
F46.78195823046642
s(g6
S'N3'
p11
tp12
F96.84119987556372
s(S'N4'
p13
g8
tp14
F22.259089184312288
s(g5
S'castellii'
p15
tp16
F179.44135053417693
s(g6
S'bayanus'
p17
tp18
F0.0
s(S'N0'
p19
g5
tp20
F41.29826144502308
s(g11
S'kudriavzevii'
p21
tp22
F62.60682681229428
s(g8
S'paradoxus'
p23
tp24
F25.352978216617867
s(g19
S'kluyveri'
p25
tp26
F0.0
s(g11
g13
tp27
F27.51943190653333
s(g13
S'mikatae'
p28
tp29
F61.084220731851964
ssS'ExpectedDwellTime'
p30
(dp31
g7
F2490.96725891272
sg10
F3041.8673581680805
sg12
F2988.4321146855036
sg14
F3001.593768960446
sg16
F2415.4449102454582
sg18
F0.0
sg20
F993.5769337326122
sg22
F3007.668418169561
sg24
F3050.1309406858663
sg26
F0.0
sg27
F2980.846700870725
sg29
F3025.0162580497795
ssS'newicktree'
p32
S'../PairsAlignemt/YeastTree.newick'
p33
sS'll'
p34
cnumpy.core.multiarray
scalar
p35
(cnumpy
dtype
p36
(S'f8'
p37
I0
I1
tp38
Rp39
(I3
S'<'
p40
NNNI-1
I-1
I0
tp41
bS'\x98\x89G\xcd Z\xdd\xc0'
p42
tp43
Rp44
sS'edge_list'
p45
(lp46
g20
ag26
ag7
ag16
ag12
ag18
ag27
ag22
ag14
ag29
ag10
ag24
asS'edge_to_blen'
p47
(dp48
g7
g35
(g39
S'v\xfa\x97\xca\x88\x9a\xd8?'
p49
tp50
Rp51
sg10
g35
(g39
S'\xb9\xe1\xaeGR\x85\xb6?'
p52
tp53
Rp54
sg12
g35
(g39
S'\xd87^{\xad\x97\xc3?'
p55
tp56
Rp57
sg14
g35
(g39
S'&P^\x95\xab\xe0\xa3?'
p58
tp59
Rp60
sg22
g35
(g39
S'W\x17BC\xc1\x18\xbd?'
p61
tp62
Rp63
sg18
g35
(g39
S'\x00\x00\x00\x00\x00\x00\x00\x00'
p64
tp65
Rp66
sg20
g35
(g39
S',9\xd1\xf0\xf6l\xcc?'
p67
tp68
Rp69
sg16
g35
(g39
S'\xac\x0e\xe6\xd4e\x89\xd8?'
p70
tp71
Rp72
sg24
g35
(g39
S'\xee\x16\xde\xdcL\x19\xac?'
p73
tp74
Rp75
sg26
g35
(g39
S'>\x96\xf0Z\x1e\n\xd0?'
p76
tp77
Rp78
sg27
g35
(g39
S'$\xc0v\x03\xf6\x7f\xa9?'
p79
tp80
Rp81
sg29
g35
(g39
S'X\xb6\xda;D\xb4\xbd?'
p82
tp83
Rp84
ssS'paralog'
p85
(lp86
S'YGL133W'
p87
aS'YPL216W'
p88
asS'alignment_file'
p89
S'../MafftAlignment/YGL133W_YPL216W/YGL133W_YPL216W_input.fasta'
p90
sS'x_clock'
p91
NsS'x'
p92
cnumpy.core.multiarray
_reconstruct
p93
(cnumpy
ndarray
p94
(I0
tp95
S'b'
p96
tp97
Rp98
(I1
(I17
tp99
g39
I00
S'\x13U\xe8v\xfb\x0c\xe4\xbf\r8#2\x8c\x99\xdc\xbf\xbcWt\xaf\xe6<\xed\xbf\xb9\x1a\xe0\xa55t\xf4?\xafW\xfde\x1a\xe3\xfa\xbf?\xc6\x11\xc9h\x13\xf8\xbf\x0f\x94\xc6\xd5\'$\xf6\xbf\xa7\x88_\xbft\x97\xee\xbf \xc7\x94J\xc6\xad\xee\xbf\xfa\x8b\xcff\xb7\x07\xfe\xbf\x15U\xb5\xbb\xb1k\x12\xc0\xca\x1d.\xa0I\xff\x07\xc0\x1c\x9c\xc8\xe4{e\x01\xc0\x1dD\xf9Gf\xfd\t\xc0U^\x17\xc0*;\x01\xc0PV\x8c"\'r\x03\xc0\xb1O\xf4\xa0\x848\x07\xc0'
p100
tp101
bsS'Model'
p102
S'HKY'
p103
sS'clock'
p104
I00
s.