(dp0
S'Force'
p1
(dp2
I4
F0.0
sI5
F0.0
ssS'ExpectedGeneconv'
p3
(dp4
(S'N1'
p5
S'N2'
p6
tp7
F0.0
s(S'N5'
p8
S'cerevisiae'
p9
tp10
F0.0
s(g6
S'N3'
p11
tp12
F0.0
s(S'N4'
p13
g8
tp14
F0.0
s(g5
S'castellii'
p15
tp16
F0.0
s(g6
S'bayanus'
p17
tp18
F0.0
s(S'N0'
p19
g5
tp20
F0.0
s(g11
S'kudriavzevii'
p21
tp22
F0.0
s(g8
S'paradoxus'
p23
tp24
F0.0
s(g19
S'kluyveri'
p25
tp26
F0.0
s(g11
g13
tp27
F0.0
s(g13
S'mikatae'
p28
tp29
F0.0
ssS'ExpectedDwellTime'
p30
(dp31
g7
F25.834318218188397
sg10
F56.477130585997315
sg12
F46.790801794297714
sg14
F58.26773297080023
sg16
F41.585065374290494
sg18
F50.846541721311056
sg20
F3.5978483026384604
sg22
F58.61175032562685
sg24
F67.47474418927229
sg26
F0.0
sg27
F55.93687208909839
sg29
F62.68191373273459
ssS'newicktree'
p32
S'../PairsAlignemt/YeastTree.newick'
p33
sS'll'
p34
cnumpy.core.multiarray
scalar
p35
(cnumpy
dtype
p36
(S'f8'
p37
I0
I1
tp38
Rp39
(I3
S'<'
p40
NNNI-1
I-1
I0
tp41
bS'\xbb\xdfSC\xb7]\x95\xc0'
p42
tp43
Rp44
sS'edge_list'
p45
(lp46
g20
ag26
ag7
ag16
ag12
ag18
ag27
ag22
ag14
ag29
ag10
ag24
asS'edge_to_blen'
p47
(dp48
g20
g35
(g39
S'o\x97\xa4\x8d+\xect?'
p49
tp50
Rp51
sg10
g35
(g39
S'E\x85\x89$d\xfa\x94?'
p52
tp53
Rp54
sg12
g35
(g39
S'2\x16K\xa2\xc1\xdc\x90?'
p55
tp56
Rp57
sg14
g35
(g39
S'\xc10W\x1c\xeeot?'
p58
tp59
Rp60
sg16
g35
(g39
S'G0\xd9\x15il\xae?'
p61
tp62
Rp63
sg18
g35
(g39
S'\x91Hm\x145\xfb\x93?'
p64
tp65
Rp66
sg7
g35
(g39
S'\xb3\x15\xaa\x0f-\xbb\xa1?'
p67
tp68
Rp69
sg22
g35
(g39
S'\xe5|z\x07\xaa\x0e\x92?'
p70
tp71
Rp72
sg24
g35
(g39
S'\xe8\n\x9b\xae\xe7\r\x93?'
p73
tp74
Rp75
sg29
g35
(g39
S'\x1c\x9e>\x17C#\x9b?'
p76
tp77
Rp78
sg27
g35
(g39
S'\x90x\xf8C\xd1f\x89?'
p79
tp80
Rp81
sg26
g35
(g39
S'\x85\xb8`S\x18\xea\xa8?'
p82
tp83
Rp84
ssS'paralog'
p85
(lp86
S'YER131W'
p87
aS'YGL189C'
p88
asS'alignment_file'
p89
S'../MafftAlignment/YER131W_YGL189C/YER131W_YGL189C_input.fasta'
p90
sS'x_clock'
p91
NsS'x'
p92
cnumpy.core.multiarray
_reconstruct
p93
(cnumpy
ndarray
p94
(I0
tp95
S'b'
p96
tp97
Rp98
(I1
(I18
tp99
g39
I00
S'\xd6\xbcX\x19-9\xe8\xbf_\x89L\x0e\x16\xa6\xdc\xbf\xebK\xb6\xcb\xea\xa5\xe4\xbf)I\x1d\xd9Z\xdc\x03@i`\xbb\xe6\x1bR\xf9?i`\xbb\xe6\x1bR\xf9?d\xd5\x1d\xef\x95\x1b\x15\xc0 -fN\xda.\x08\xc0\xd5\xd4,8m\xe7\n\xc0\xd7%\x9e\xb1\xba\x95\x06\xc0\xd1\xf9\x1dk\xf1l\x10\xc0\xf6~u\x01P~\x0f\xc0\xd5I\x0f4)\x8f\x11\xc0W\x13\x0e:\xd5&\x10\xc0\x05\x8b\x9c,\x9e3\x15\xc0\xf3q\x89\xe0[\x0b\r\xc0[\x84`0\x9c\x1a\x0f\xc0\xd70\x93\xca\x98\xdf\x0f\xc0'
p100
tp101
bsS'Model'
p102
S'HKY'
p103
sS'clock'
p104
I00
s.