(dp0
S'Force'
p1
(dp2
I4
F0.0
ssS'ExpectedGeneconv'
p3
(dp4
(S'N1'
p5
S'N2'
p6
tp7
F0.0
s(S'N5'
p8
S'cerevisiae'
p9
tp10
F0.0
s(g6
S'N3'
p11
tp12
F0.0
s(S'N4'
p13
g8
tp14
F0.0
s(g5
S'castellii'
p15
tp16
F0.0
s(g6
S'bayanus'
p17
tp18
F0.0
s(S'N0'
p19
g5
tp20
F0.0
s(g11
S'kudriavzevii'
p21
tp22
F0.0
s(g8
S'paradoxus'
p23
tp24
F0.0
s(g19
S'kluyveri'
p25
tp26
F0.0
s(g11
g13
tp27
F0.0
s(g13
S'mikatae'
p28
tp29
F0.0
ssS'ExpectedDwellTime'
p30
(dp31
g7
F291.3833715668765
sg10
F509.75869591138155
sg12
F460.39993034397565
sg14
F497.48527814347517
sg16
F366.25566985030235
sg18
F482.03414281490655
sg20
F45.50959160195436
sg22
F504.60294163577646
sg24
F504.6876387064508
sg26
F0.0
sg27
F484.5643357371371
sg29
F524.1903806810159
ssS'newicktree'
p32
S'../PairsAlignemt/YeastTree.newick'
p33
sS'll'
p34
cnumpy.core.multiarray
scalar
p35
(cnumpy
dtype
p36
(S'f8'
p37
I0
I1
tp38
Rp39
(I3
S'<'
p40
NNNI-1
I-1
I0
tp41
bS'a\x13\\\x98\xcc/\xba\xc0'
p42
tp43
Rp44
sS'edge_list'
p45
(lp46
g20
ag26
ag7
ag16
ag12
ag18
ag27
ag22
ag14
ag29
ag10
ag24
asS'edge_to_blen'
p47
(dp48
g7
g35
(g39
S"\x8b\xd1'4\xd4\x0f\xc5?"
p49
tp50
Rp51
sg10
g35
(g39
S'm\tn\x05\xed\xf8\xae?'
p52
tp53
Rp54
sg12
g35
(g39
S'R\n\xd3\x7f\x8c\x7f\x9b?'
p55
tp56
Rp57
sg14
g35
(g39
S'\xfe\xc8}\xe50 \x9a?'
p58
tp59
Rp60
sg22
g35
(g39
S'\x922\xba\xae\x12\xa5\xaf?'
p61
tp62
Rp63
sg18
g35
(g39
S'\xed\xd23N\xd5B\xb4?'
p64
tp65
Rp66
sg20
g35
(g39
S'\x1d\xb2\xf2~I\xd2\x9b?'
p67
tp68
Rp69
sg16
g35
(g39
S'e\xac\x0b}\x1b\x11\xd1?'
p70
tp71
Rp72
sg24
g35
(g39
S'\x9b{\xf5\x7fr\x13\x99?'
p73
tp74
Rp75
sg26
g35
(g39
S'(+\xbd\xfd\xc1z\xd0?'
p76
tp77
Rp78
sg27
g35
(g39
S"\xf0\x9b'\x16\xa8\xb0\x9c?"
p79
tp80
Rp81
sg29
g35
(g39
S'\xad\x96X;>1\xb2?'
p82
tp83
Rp84
ssS'paralog'
p85
(lp86
S'YPL232W'
p87
aS'YMR183C'
p88
asS'alignment_file'
p89
S'../MafftAlignment/YPL232W_YMR183C/YPL232W_YMR183C_input.fasta'
p90
sS'x_clock'
p91
NsS'x'
p92
cnumpy.core.multiarray
_reconstruct
p93
(cnumpy
ndarray
p94
(I0
tp95
S'b'
p96
tp97
Rp98
(I1
(I17
tp99
g39
I00
S"\x14\xeb\t\x0b\xe7\x1d\xe5\xbf\xdd\xde\xda\x1a\xb1\x1a\xdf\xbf\x86\xe1\xf0\xb6\xe4~\xe8\xbf\x07\xc3<\x12F\x14\xf9?\x8f4\x13\xd9\xc2\x88\xd5?\xc3\xa6w\xeef\xd8\x0c\xc0yb,\xb9N\xb5\xf5\xbf\xd7O'x\x82\xdf\xfc\xbf``h\xae\xdf%\xf5\xbf\xa4_\xa7#U\xf0\x0c\xc0\xe3A\xc7\x11\xb4J\x04\xc02HE#p\x99\x0c\xc0c\x05\xb6\xdc\x1eE\x06\xc0_\xd6\x1b\x061Y\r\xc0x\xe0&\xb8E'\x05\xc0\x92\xe9\xec\x03\x1cq\x06\xc0\x18f1\xd1.\xad\r\xc0"
p100
tp101
bsS'Model'
p102
S'HKY'
p103
sS'clock'
p104
I00
s.