(dp0
S'Force'
p1
(dp2
I5
F0.0
ssS'ExpectedGeneconv'
p3
(dp4
(S'N1'
p5
S'N2'
p6
tp7
F35.608251853694476
s(S'N5'
p8
S'cerevisiae'
p9
tp10
F13.543067612640508
s(g6
S'N3'
p11
tp12
F12.255366814685237
s(S'N4'
p13
g8
tp14
F3.128161714093126
s(g5
S'castellii'
p15
tp16
F25.44460363493047
s(g6
S'bayanus'
p17
tp18
F0.0
s(S'N0'
p19
g5
tp20
F33.884014315814206
s(g11
S'kudriavzevii'
p21
tp22
F9.034476612362159
s(g8
S'paradoxus'
p23
tp24
F4.460469803869299
s(g19
S'kluyveri'
p25
tp26
F0.0
s(g11
g13
tp27
F4.232702001545653
s(g13
S'mikatae'
p28
tp29
F7.514496360605702
ssS'ExpectedDwellTime'
p30
(dp31
g7
F42.88951419909558
sg10
F55.254755130050675
sg12
F44.35455636580373
sg14
F63.38376601810192
sg16
F46.98502988430695
sg18
F0.0
sg20
F32.90918942506591
sg22
F58.53090165583966
sg24
F61.457586179103274
sg26
F0.0
sg27
F62.13281720098367
sg29
F72.06078138455501
ssS'newicktree'
p32
S'../PairsAlignemt/YeastTree.newick'
p33
sS'll'
p34
cnumpy.core.multiarray
scalar
p35
(cnumpy
dtype
p36
(S'f8'
p37
I0
I1
tp38
Rp39
(I3
S'<'
p40
NNNI-1
I-1
I0
tp41
bS'\xd24V-\xda?\x97\xc0'
p42
tp43
Rp44
sS'edge_list'
p45
(lp46
g20
ag26
ag7
ag16
ag12
ag18
ag27
ag22
ag14
ag29
ag10
ag24
asS'edge_to_blen'
p47
(dp48
g7
g35
(g39
S'\xf3O!;\xdd\x17\xa9?'
p49
tp50
Rp51
sg10
g35
(g39
S'bg\x06#>\x82\x8e?'
p52
tp53
Rp54
sg12
g35
(g39
S'{\x01\x98[B\xf4\x9c?'
p55
tp56
Rp57
sg14
g35
(g39
S'\x16\xe2\x19b\xf7\xe8h?'
p58
tp59
Rp60
sg22
g35
(g39
S'#\xd4\xae\x81\xe3\xa7\x8a?'
p61
tp62
Rp63
sg18
g35
(g39
S'\x00\x00\x00\x00\x00\x00\x00\x00'
p64
tp65
Rp66
sg20
g35
(g39
S'x\xfb\xceli\xcc\xb3?'
p67
tp68
Rp69
sg16
g35
(g39
S'\x05\x8dS\xc3\x95\xb1\xa2?'
p70
tp71
Rp72
sg24
g35
(g39
S'F\xea\x15\x19mCy?'
p73
tp74
Rp75
sg26
g35
(g39
S'\xc7\xce/\x9f\xb4"c?'
p76
tp77
Rp78
sg27
g35
(g39
S'\xdc\xdc\xc5\x80\x91T~?'
p79
tp80
Rp81
sg29
g35
(g39
S'$\x12\xfewWf\x8c?'
p82
tp83
Rp84
ssS'paralog'
p85
(lp86
S'YBL087C'
p87
aS'YER117W'
p88
asS'alignment_file'
p89
S'../MafftAlignment/YBL087C_YER117W/YBL087C_YER117W_input.fasta'
p90
sS'x_clock'
p91
NsS'x'
p92
cnumpy.core.multiarray
_reconstruct
p93
(cnumpy
ndarray
p94
(I0
tp95
S'b'
p96
tp97
Rp98
(I1
(I17
tp99
g39
I00
S'\xfe!$)\x83=\xe9\xbfqZ\x9f\xf7\x97[\xe5\xbf\x19\x14\xec\xeb\x12\xc2\xec\xbf\xc4)\xea\xc4\xaa\xe5\x03@\xb5\xe1\xe9\x80\xbb\xaf\x04@p\x94\xec\xee\x00z\x04\xc0O\x8a-\r\xca<\x18\xc0l\x02St5 \x08\xc0\xcch\xa9\xe6){\n\xc0R\xe5.~\xac\x86\x0c\xc0\x15U\xb5\xbb\xb1k\x12\xc0h\xb03/Z\x9f\x13\xc0\xff\xca\xe5q\xcf]\x11\xc0\x94Ox\x0b\xbd.\x17\xc0\x1d\xe7\xedb\xea\x1c\x11\xc05m9J\x90\xd3\x10\xc0\xb0VK.\x88Z\x14\xc0'
p100
tp101
bsS'Model'
p102
S'HKY'
p103
sS'clock'
p104
I00
s.