(dp0
S'Force'
p1
(dp2
I4
F0.0
sI5
F0.0
ssS'ExpectedGeneconv'
p3
(dp4
(S'N1'
p5
S'N2'
p6
tp7
F0.0
s(S'N5'
p8
S'cerevisiae'
p9
tp10
F0.0
s(g6
S'N3'
p11
tp12
F0.0
s(S'N4'
p13
g8
tp14
F0.0
s(g5
S'castellii'
p15
tp16
F0.0
s(g6
S'bayanus'
p17
tp18
F0.0
s(S'N0'
p19
g5
tp20
F0.0
s(g11
S'kudriavzevii'
p21
tp22
F0.0
s(g8
S'paradoxus'
p23
tp24
F0.0
s(g19
S'kluyveri'
p25
tp26
F0.0
s(g11
g13
tp27
F0.0
s(g13
S'mikatae'
p28
tp29
F0.0
ssS'ExpectedDwellTime'
p30
(dp31
g7
F4.7754846590785895
sg10
F45.711238494095994
sg12
F15.407056027731041
sg14
F34.64591525367554
sg16
F53.74913031041257
sg18
F15.281391252517345
sg20
F2.1599168183635144e-05
sg22
F36.17101005091447
sg24
F49.71363253928838
sg26
F0.0
sg27
F25.110304398147292
sg29
F38.05841183029691
ssS'newicktree'
p32
S'../PairsAlignemt/YeastTree.newick'
p33
sS'll'
p34
cnumpy.core.multiarray
scalar
p35
(cnumpy
dtype
p36
(S'f8'
p37
I0
I1
tp38
Rp39
(I3
S'<'
p40
NNNI-1
I-1
I0
tp41
bS'\xc7h\x15;\xbe\x7f\x96\xc0'
p42
tp43
Rp44
sS'edge_list'
p45
(lp46
g20
ag26
ag7
ag16
ag12
ag18
ag27
ag22
ag14
ag29
ag10
ag24
asS'edge_to_blen'
p47
(dp48
g20
g35
(g39
S'\xb5\xdd\xf6\nH0t>'
p49
tp50
Rp51
sg10
g35
(g39
S'k\x88\x82TN\xa2\x95?'
p52
tp53
Rp54
sg12
g35
(g39
S'\n\xe4$\xe2\xef\xdc\x86?'
p55
tp56
Rp57
sg14
g35
(g39
S'D\xdc\x07-M`\x87?'
p58
tp59
Rp60
sg16
g35
(g39
S'\x18\xa0\x17\xe3\x9e[\xc5?'
p61
tp62
Rp63
sg18
g35
(g39
S'\xb9-\xf2H\xd0$\x87?'
p64
tp65
Rp66
sg7
g35
(g39
S'\xe5v\x1c8\xef\x86\x82?'
p67
tp68
Rp69
sg22
g35
(g39
S'\xd51\x83*@\xda\x96?'
p70
tp71
Rp72
sg24
g35
(g39
S'LR\xf3,\x81\xb5\x91?'
p73
tp74
Rp75
sg29
g35
(g39
S"r\x91\x8a.'\x89\x97?"
p76
tp77
Rp78
sg27
g35
(g39
S'\x8e\xf8\xfe\xd4\xb0\xd7\x85?'
p79
tp80
Rp81
sg26
g35
(g39
S'}\x878\x9ada\xc5?'
p82
tp83
Rp84
ssS'paralog'
p85
(lp86
S'YLR333C'
p87
aS'YGR027C'
p88
asS'alignment_file'
p89
S'../MafftAlignment/YLR333C_YGR027C/YLR333C_YGR027C_input.fasta'
p90
sS'x_clock'
p91
NsS'x'
p92
cnumpy.core.multiarray
_reconstruct
p93
(cnumpy
ndarray
p94
(I0
tp95
S'b'
p96
tp97
Rp98
(I1
(I18
tp99
g39
I00
S'p\x827\x85U\x82\xe7\xbf\xcc98w\tO\xe1\xbfr\xa3xf\xb4K\xe9\xbfn\xc0D\x15S\t\xfd?i`\xbb\xe6\x1bR\xf9?i`\xbb\xe6\x1bR\xf9?\xd4Yk4+g0\xc0\x90\xa7\xfe\x13\x03\xa2\xfc\xbf\xab\xe7ozP\xd2\x12\xc0\xe3|\x98\x81U\xa6\xfc\xbfZ\x97\xa7\xda\xfa\xfa\x11\xc0\x04i`8{\xee\x11\xc0\x18\xefj\xd8\xbc)\x12\xc0\xad\xf3K\xa7Uk\x0e\xc0G\xfb\xacL@\xe4\x11\xc0E\xfd\x01\xfb\x00/\x0e\xc0\xf8\xffrs\x8e\xdb\x0e\xc0Y\x8a\xe2\xb8\xc6:\x10\xc0'
p100
tp101
bsS'Model'
p102
S'HKY'
p103
sS'clock'
p104
I00
s.