(dp0
S'Force'
p1
(dp2
I5
F0.0
ssS'ExpectedGeneconv'
p3
(dp4
(S'N1'
p5
S'N2'
p6
tp7
F35.06619035713247
s(S'N5'
p8
S'cerevisiae'
p9
tp10
F12.760225304189268
s(g6
S'N3'
p11
tp12
F17.97210048949131
s(S'N4'
p13
g8
tp14
F5.068543649690243
s(g5
S'castellii'
p15
tp16
F41.97309580541697
s(g6
S'bayanus'
p17
tp18
F0.0
s(S'N0'
p19
g5
tp20
F6.677535336518525
s(g11
S'kudriavzevii'
p21
tp22
F15.436475806686543
s(g8
S'paradoxus'
p23
tp24
F9.122089947915967
s(g19
S'kluyveri'
p25
tp26
F0.0
s(g11
g13
tp27
F4.198596159900086
s(g13
S'mikatae'
p28
tp29
F13.420887534405493
ssS'ExpectedDwellTime'
p30
(dp31
g7
F113.13907784878091
sg10
F147.92507192462244
sg12
F146.41898446424509
sg14
F151.81144166244027
sg16
F98.49076284406358
sg18
F0.0
sg20
F39.13160302200124
sg22
F155.26945292760374
sg24
F150.61252618198486
sg26
F0.0
sg27
F152.65548964503532
sg29
F155.53509428462775
ssS'newicktree'
p32
S'../PairsAlignemt/YeastTree.newick'
p33
sS'll'
p34
cnumpy.core.multiarray
scalar
p35
(cnumpy
dtype
p36
(S'f8'
p37
I0
I1
tp38
Rp39
(I3
S'<'
p40
NNNI-1
I-1
I0
tp41
bS'\x97\xd0c\xde\x9e\xb5\xa0\xc0'
p42
tp43
Rp44
sS'edge_list'
p45
(lp46
g20
ag26
ag7
ag16
ag12
ag18
ag27
ag22
ag14
ag29
ag10
ag24
asS'edge_to_blen'
p47
(dp48
g7
g35
(g39
S'\xbb3\x87\xe15}\xc2?'
p49
tp50
Rp51
sg10
g35
(g39
S'\xa0\x02\xfa_ \x11\xa2?'
p52
tp53
Rp54
sg12
g35
(g39
S'\xbeG\xbd\xc8\xe7\xbb\xab?'
p55
tp56
Rp57
sg14
g35
(g39
S'4\xa2\x12\xbb\x9dA\x8f?'
p58
tp59
Rp60
sg22
g35
(g39
S'p1\x84\x9e\xc5)\xa8?'
p61
tp62
Rp63
sg18
g35
(g39
S'\x00\x00\x00\x00\x00\x00\x00\x00'
p64
tp65
Rp66
sg20
g35
(g39
S'\x82l\x18q\x9f}\xb2?'
p67
tp68
Rp69
sg16
g35
(g39
S'U\xc5\x19\x1b\xb3C\xc3?'
p70
tp71
Rp72
sg24
g35
(g39
S'/H\xbfE\x9f\\\x99?'
p73
tp74
Rp75
sg26
g35
(g39
S"'\xa5h\xb0\x86\xb0\xb0?"
p76
tp77
Rp78
sg27
g35
(g39
S'B\x11x6\x8e7\x86?'
p79
tp80
Rp81
sg29
g35
(g39
S'\xacX\x08mW\x1c\xa5?'
p82
tp83
Rp84
ssS'paralog'
p85
(lp86
S'YJR048W'
p87
aS'YEL039C'
p88
asS'alignment_file'
p89
S'../MafftAlignment/YJR048W_YEL039C/YJR048W_YEL039C_input.fasta'
p90
sS'x_clock'
p91
NsS'x'
p92
cnumpy.core.multiarray
_reconstruct
p93
(cnumpy
ndarray
p94
(I0
tp95
S'b'
p96
tp97
Rp98
(I1
(I17
tp99
g39
I00
S'\xe0<w\xbe\xc6\x14\xe5\xbfw5\xd2\xa1\xf8C\xe0\xbfN`O\xce0\xdd\xe9\xbf\x8a\x07\x16\x8f\x1d\xc2\xf8?\xd9k!z\xdaq\xeb?\x135l\t\xf5\x05\x05\xc0\x89\x98P\xff\xd8\xd7\x05\xc0\xbf\x99\xd8\xeb#\xf5\xfe\xbfIe^u\xe0L\xfe\xbf>\x87$XHS\x07\xc0\x15U\xb5\xbb\xb1k\x12\xc0oCE\xb3T\x18\x12\xc0\xe0\x19\x01\xc7\x8em\x08\xc0F\xdd\xa1p\xc6\xba\x10\xc0\x17\xd9\x14s#\x82\t\xc0[\xc1\x93\x83\x02\xc1\n\xc04=\x88K\xf8\x95\r\xc0'
p100
tp101
bsS'Model'
p102
S'HKY'
p103
sS'clock'
p104
I00
s.