(dp0
S'Force'
p1
(dp2
I5
F0.0
ssS'ExpectedGeneconv'
p3
(dp4
(S'N1'
p5
S'N2'
p6
tp7
F101.85311958496122
s(S'N5'
p8
S'cerevisiae'
p9
tp10
F26.803666472347945
s(g6
S'N3'
p11
tp12
F56.11457526563981
s(S'N4'
p13
g8
tp14
F12.811303270694419
s(g5
S'castellii'
p15
tp16
F111.202685828717
s(g6
S'bayanus'
p17
tp18
F0.0
s(S'N0'
p19
g5
tp20
F3.492118980958794
s(g11
S'kudriavzevii'
p21
tp22
F30.29261273226838
s(g8
S'paradoxus'
p23
tp24
F34.18243535360602
s(g19
S'kluyveri'
p25
tp26
F0.0
s(g11
g13
tp27
F12.72661440602164
s(g13
S'mikatae'
p28
tp29
F27.299889258408662
ssS'ExpectedDwellTime'
p30
(dp31
g7
F1316.4350056367698
sg10
F1858.1516556307238
sg12
F1863.0664637837272
sg14
F1864.6893080896489
sg16
F1365.0637769458476
sg18
F0.0
sg20
F252.67872927168852
sg22
F1894.7564435431648
sg24
F1919.5811917658225
sg26
F0.0
sg27
F1861.5749732592167
sg29
F1881.1198847194194
ssS'newicktree'
p32
S'../PairsAlignemt/YeastTree.newick'
p33
sS'll'
p34
cnumpy.core.multiarray
scalar
p35
(cnumpy
dtype
p36
(S'f8'
p37
I0
I1
tp38
Rp39
(I3
S'<'
p40
NNNI-1
I-1
I0
tp41
bS'9\nt\xc4\x05\x7f\xd3\xc0'
p42
tp43
Rp44
sS'edge_list'
p45
(lp46
g20
ag26
ag7
ag16
ag12
ag18
ag27
ag22
ag14
ag29
ag10
ag24
asS'edge_to_blen'
p47
(dp48
g20
g35
(g39
S'\x82$\xd0O\xa8\xea\xb1?'
p49
tp50
Rp51
sg10
g35
(g39
S'\x04f{\x96<t\xac?'
p52
tp53
Rp54
sg12
g35
(g39
S'A\xaaWJ\xf1u\xc1?'
p55
tp56
Rp57
sg14
g35
(g39
S'\x15\xcd\\u\xd6p\xa1?'
p58
tp59
Rp60
sg16
g35
(g39
S'a\xcd\x0c(\xee\xfa\xdb?'
p61
tp62
Rp63
sg18
g35
(g39
S'\x00\x00\x00\x00\x00\x00\x00\x00'
p64
tp65
Rp66
sg7
g35
(g39
S'\xef\x82Y\xb1 \xc7\xd9?'
p67
tp68
Rp69
sg22
g35
(g39
S'c\x9aro\x88\x96\xb6?'
p70
tp71
Rp72
sg24
g35
(g39
S'o(7\xd1\xf4P\xb7?'
p73
tp74
Rp75
sg26
g35
(g39
S'\x08+cg\x89\xa8\xe1?'
p76
tp77
Rp78
sg27
g35
(g39
S'\x85`:\xf8\x9e\x8e\xa1?'
p79
tp80
Rp81
sg29
g35
(g39
S'\xfb\xdb\x81\xe2Ed\xb3?'
p82
tp83
Rp84
ssS'paralog'
p85
(lp86
S'YAL056W'
p87
aS'YOR371C'
p88
asS'alignment_file'
p89
S'../MafftAlignment/YAL056W_YOR371C/YAL056W_YOR371C_input.fasta'
p90
sS'x_clock'
p91
NsS'x'
p92
cnumpy.core.multiarray
_reconstruct
p93
(cnumpy
ndarray
p94
(I0
tp95
S'b'
p96
tp97
Rp98
(I1
(I17
tp99
g39
I00
S'\x94\xe7R\xe9\xd6(\xe5\xbf9\x1e\xd7\x9dd\xf5\xde\xbf\x95=\xee\\M\xf2\xeb\xbf\x0f\xb8\xeb\xd3\x89-\xf2?\x14\xba,\xaa\xd3\xfa\xf9\xbf\x01\xd1\xea\xb5\x8cF\x05\xc0\xcbX\x980^\x06\xe3\xbf<YTr\x8a\x19\xed\xbf\xa6@\xcde\xf2y\xea\xbf\x82\xe6i\x00\x8c\xdf\xff\xbf\x15U\xb5\xbb\xb1k\x12\xc0\xce\r:\xe1\xa0\xfb\n\xc0n2\x96G\x0cl\x03\xc0X6\x13\x98>\t\x0b\xc0\x84bH\x7f\x85\xa4\x04\xc0d`\xbf7\xca\x1e\x07\xc0\xcc\xa0\xd5y\x10+\x03\xc0'
p100
tp101
bsS'Model'
p102
S'HKY'
p103
sS'clock'
p104
I00
s.