(dp0
S'Force'
p1
(dp2
I4
F0.0
ssS'ExpectedGeneconv'
p3
(dp4
(S'N1'
p5
S'N2'
p6
tp7
F0.0
s(S'N5'
p8
S'cerevisiae'
p9
tp10
F0.0
s(g6
S'N3'
p11
tp12
F0.0
s(S'N4'
p13
g8
tp14
F0.0
s(g5
S'castellii'
p15
tp16
F0.0
s(g6
S'bayanus'
p17
tp18
F0.0
s(S'N0'
p19
g5
tp20
F0.0
s(g11
S'kudriavzevii'
p21
tp22
F0.0
s(g8
S'paradoxus'
p23
tp24
F0.0
s(g19
S'kluyveri'
p25
tp26
F0.0
s(g11
g13
tp27
F0.0
s(g13
S'mikatae'
p28
tp29
F0.0
ssS'ExpectedDwellTime'
p30
(dp31
g7
F422.22045496026846
sg10
F673.2382889399641
sg12
F653.1716363946261
sg14
F660.5920321199083
sg16
F441.0267318454026
sg18
F680.0592471378849
sg20
F58.67640595385877
sg22
F684.0453949419625
sg24
F675.1662189657153
sg26
F0.0
sg27
F657.1034687171001
sg29
F661.2020192689332
ssS'newicktree'
p32
S'../PairsAlignemt/YeastTree.newick'
p33
sS'll'
p34
cnumpy.core.multiarray
scalar
p35
(cnumpy
dtype
p36
(S'f8'
p37
I0
I1
tp38
Rp39
(I3
S'<'
p40
NNNI-1
I-1
I0
tp41
bS'\x08od\xa9\xecQ\xbd\xc0'
p42
tp43
Rp44
sS'edge_list'
p45
(lp46
g20
ag26
ag7
ag16
ag12
ag18
ag27
ag22
ag14
ag29
ag10
ag24
asS'edge_to_blen'
p47
(dp48
g7
g35
(g39
S'\x9b\x8fRY\xf1\xd9\xd1?'
p49
tp50
Rp51
sg10
g35
(g39
S'z\xaa|\xe8\xcf&\xaa?'
p52
tp53
Rp54
sg12
g35
(g39
S'M\xcc\xbaW\x1a\xa9\xa6?'
p55
tp56
Rp57
sg14
g35
(g39
S'`\x1b\xbb\xe5\xf08\xa4?'
p58
tp59
Rp60
sg22
g35
(g39
S'NLD\x1e\x00\xaa\xb5?'
p61
tp62
Rp63
sg18
g35
(g39
S'U\x07\xf5\x88aY\xb6?'
p64
tp65
Rp66
sg20
g35
(g39
S']Z\xd5|\x86\xd5\xa2?'
p67
tp68
Rp69
sg16
g35
(g39
S'\x1e\x1c\xd3\xd1\xc1z\xd4?'
p70
tp71
Rp72
sg24
g35
(g39
S',9\x0e\xc2\xa2\xcd\xa0?'
p73
tp74
Rp75
sg26
g35
(g39
S'\xecl|\xb2\xe7\xad\xd1?'
p76
tp77
Rp78
sg27
g35
(g39
S'\xc6\xc0\xa9\xa6\xf4\xff\xa7?'
p79
tp80
Rp81
sg29
g35
(g39
S'\xab\x82\xf4e\xdf\x9d\xb6?'
p82
tp83
Rp84
ssS'paralog'
p85
(lp86
S'YBR024W'
p87
aS'YBR037C'
p88
asS'alignment_file'
p89
S'../MafftAlignment/YBR024W_YBR037C/YBR024W_YBR037C_input.fasta'
p90
sS'x_clock'
p91
NsS'x'
p92
cnumpy.core.multiarray
_reconstruct
p93
(cnumpy
ndarray
p94
(I0
tp95
S'b'
p96
tp97
Rp98
(I1
(I17
tp99
g39
I00
S"\\qU|\x0bC\xe6\xbf\xae\x8e\xe85X\x9c\xe1\xbf}\xa7%\xbc\x06.\xeb\xbf\x04o\t^\xa7+\xf4?\x8f4\x13\xd9\xc2\x88\xd5?\x86-H%\xd7k\n\xc0nL,\x1at\x95\xf4\xbf\xe0\xb86\xa0\xcam\xf4\xbff\xb6\x89\x058;\xf2\xbfI\x99\xe4\x08\x0c\xf1\x08\xc0+\x7f\\M\xd2\x81\x03\xc0o\xcf\x93\ts{\x08\xc0\x9e\xd4\xdd\r\x95\xc1\x03\xc0\x88\xc7'\xaf-\xda\t\xc0\xcc,\xae:si\x03\xc0t\xc8\xf1\x7f\x99\xcb\x07\xc0d\x02\xc5\xc5\x81U\x0b\xc0"
p100
tp101
bsS'Model'
p102
S'HKY'
p103
sS'clock'
p104
I00
s.