(dp0
S'Force'
p1
(dp2
I5
F0.0
ssS'ExpectedGeneconv'
p3
(dp4
(S'N1'
p5
S'N2'
p6
tp7
F0.0
s(S'N5'
p8
S'cerevisiae'
p9
tp10
F0.0
s(g6
S'N3'
p11
tp12
F0.0
s(S'N4'
p13
g8
tp14
F0.0
s(g5
S'castellii'
p15
tp16
F0.0
s(g6
S'bayanus'
p17
tp18
F0.0
s(S'N0'
p19
g5
tp20
F0.0
s(g11
S'kudriavzevii'
p21
tp22
F0.0
s(g8
S'paradoxus'
p23
tp24
F0.0
s(g19
S'kluyveri'
p25
tp26
F0.0
s(g11
g13
tp27
F0.0
s(g13
S'mikatae'
p28
tp29
F0.0
ssS'ExpectedDwellTime'
p30
(dp31
g7
F627.5052870398008
sg10
F845.1608464870143
sg12
F796.6162883454417
sg14
F825.1516517682909
sg16
F692.4408880662538
sg18
F797.9455207597468
sg20
F56.63604509169349
sg22
F830.9633339669392
sg24
F827.4913455430807
sg26
F0.0
sg27
F814.9828571763924
sg29
F836.8698864481446
ssS'newicktree'
p32
S'../PairsAlignemt/YeastTree.newick'
p33
sS'll'
p34
cnumpy.core.multiarray
scalar
p35
(cnumpy
dtype
p36
(S'f8'
p37
I0
I1
tp38
Rp39
(I3
S'<'
p40
NNNI-1
I-1
I0
tp41
bS'M\x1f\xe7^\x1c\xfd\xcb\xc0'
p42
tp43
Rp44
sS'edge_list'
p45
(lp46
g20
ag26
ag7
ag16
ag12
ag18
ag27
ag22
ag14
ag29
ag10
ag24
asS'edge_to_blen'
p47
(dp48
g20
g35
(g39
S'.\xb9mz>?\xa7?'
p49
tp50
Rp51
sg10
g35
(g39
S'\xfdp\xcf\x13\xdek\xc6?'
p52
tp53
Rp54
sg12
g35
(g39
S'j\xd2\xf2(\x1di\xc6?'
p55
tp56
Rp57
sg14
g35
(g39
S'\xc4\xb9S\x8c\x95\x9d\xb6?'
p58
tp59
Rp60
sg16
g35
(g39
S'\xe6[\xfb\x1f\x00\xf4\xfa?'
p61
tp62
Rp63
sg18
g35
(g39
S'+\xde\xfct\xcdw\xd2?'
p64
tp65
Rp66
sg7
g35
(g39
S']\x9eB\xfd\xb9\x14\xf2?'
p67
tp68
Rp69
sg22
g35
(g39
S'\x13\x01w<RX\xd1?'
p70
tp71
Rp72
sg24
g35
(g39
S'9S\n\x8c\xd2:\xc0?'
p73
tp74
Rp75
sg29
g35
(g39
S'\x94DT\x04\x8dv\xd3?'
p76
tp77
Rp78
sg27
g35
(g39
S'G\xd7\xe5c\xd2/\xba?'
p79
tp80
Rp81
sg26
g35
(g39
S'\x0b\xc9\n\x06\xe06\x00@'
p82
tp83
Rp84
ssS'paralog'
p85
(lp86
S'YPR159W'
p87
aS'YGR143W'
p88
asS'alignment_file'
p89
S'../MafftAlignment/YPR159W_YGR143W/YPR159W_YGR143W_input.fasta'
p90
sS'x_clock'
p91
NsS'x'
p92
cnumpy.core.multiarray
_reconstruct
p93
(cnumpy
ndarray
p94
(I0
tp95
S'b'
p96
tp97
Rp98
(I1
(I18
tp99
g39
I00
S"\xed\xe1\xca)\x8d\xb2\xe6\xbfe\xdf\x16)\x88\xa7\xdc\xbf\x7f\xc84T\x88\xfc\xf0\xbf\xff\xc6'\x91\xb7\xcd\xf1?\x1e\xa7\xb5\xc4\xd0\xcf\x04\xc0\x8f4\x13\xd9\xc2\x88\xd5?t\x84\xedN\xb7\xbc\x08\xc0\xe5\xdd\xb1\x80H\x9b\xe6?\xef\x11\xb2.%M\xbf?\xc00\x89\xfc6\xb0\xe0?R\x11n\xa4C\xe1\xfb\xbf\x93)M'\xb1\xe2\xf3\xbf\xa3\x07\x13\xa7G=\x02\xc08|\xa4N\xa6\xe3\xf4\xbfa\x87*Z\x8di\x03\xc0F\x14[[\xba\x0b\xf3\xbf\ni }L\xdf\xfb\xbf\x1awp\x86~\x85\x00\xc0"
p100
tp101
bsS'Model'
p102
S'MG94'
p103
sS'clock'
p104
I00
s.