(dp0
S'Force'
p1
(dp2
I5
F0.0
ssS'ExpectedGeneconv'
p3
(dp4
(S'N1'
p5
S'N2'
p6
tp7
F30.777967519778137
s(S'N5'
p8
S'cerevisiae'
p9
tp10
F2.363426378363484
s(g6
S'N3'
p11
tp12
F9.608079775942782
s(S'N4'
p13
g8
tp14
F3.9800338784132223
s(g5
S'castellii'
p15
tp16
F20.456556518932597
s(g6
S'bayanus'
p17
tp18
F0.0
s(S'N0'
p19
g5
tp20
F27.000489941089988
s(g11
S'kudriavzevii'
p21
tp22
F13.06984302899135
s(g8
S'paradoxus'
p23
tp24
F5.635587301182377
s(g19
S'kluyveri'
p25
tp26
F0.0
s(g11
g13
tp27
F5.187436013922385
s(g13
S'mikatae'
p28
tp29
F15.770100067377536
ssS'ExpectedDwellTime'
p30
(dp31
g7
F52.05770442506176
sg10
F53.7694578425516
sg12
F52.824233669360325
sg14
F51.622616398115284
sg16
F51.60190796845583
sg18
F0.0
sg20
F31.68748774479906
sg22
F59.209419699090674
sg24
F49.69557757498283
sg26
F0.0
sg27
F52.57350149269449
sg29
F46.636557557704805
ssS'newicktree'
p32
S'../PairsAlignemt/YeastTree.newick'
p33
sS'll'
p34
cnumpy.core.multiarray
scalar
p35
(cnumpy
dtype
p36
(S'f8'
p37
I0
I1
tp38
Rp39
(I3
S'<'
p40
NNNI-1
I-1
I0
tp41
bS'w\x01\xab\xbb\xd6S\x98\xc0'
p42
tp43
Rp44
sS'edge_list'
p45
(lp46
g20
ag26
ag7
ag16
ag12
ag18
ag27
ag22
ag14
ag29
ag10
ag24
asS'edge_to_blen'
p47
(dp48
g7
g35
(g39
S"1'\xb7\x80\xfdv\xa3?"
p49
tp50
Rp51
sg10
g35
(g39
S'\xbcc\xda\xc6\x86\xa9p?'
p52
tp53
Rp54
sg12
g35
(g39
S'\x16\xd6\xaf\x88\xe3\xbc\x88?'
p55
tp56
Rp57
sg14
g35
(g39
S'\x86\xc7\xbfS\x06\xecu?'
p58
tp59
Rp60
sg22
g35
(g39
S'C\xa1z$\x12\xbe\x93?'
p61
tp62
Rp63
sg18
g35
(g39
S'\x00\x00\x00\x00\x00\x00\x00\x00'
p64
tp65
Rp66
sg20
g35
(g39
S'\xbe\xc5?\x96B+\xad?'
p67
tp68
Rp69
sg16
g35
(g39
S'/3A\xc6V\x18\x9b?'
p70
tp71
Rp72
sg24
g35
(g39
S':#D\xb5b<x?'
p73
tp74
Rp75
sg26
g35
(g39
S'C\xc7+\xbb\xa4\xcd\xfa>'
p76
tp77
Rp78
sg27
g35
(g39
S'f\x80\xf4\x8di\xd0w?'
p79
tp80
Rp81
sg29
g35
(g39
S'\x87Am\x91\xdd\x9a\x91?'
p82
tp83
Rp84
ssS'paralog'
p85
(lp86
S'YBR191W'
p87
aS'YPL079W'
p88
asS'alignment_file'
p89
S'../MafftAlignment/YBR191W_YPL079W/YBR191W_YPL079W_input.fasta'
p90
sS'x_clock'
p91
NsS'x'
p92
cnumpy.core.multiarray
_reconstruct
p93
(cnumpy
ndarray
p94
(I0
tp95
S'b'
p96
tp97
Rp98
(I1
(I17
tp99
g39
I00
S'\xa3\xa1\xc8j@\x06\xe8\xbf\x9ai\xf6\xae\x1e\x82\xe0\xbf\xd8\xef\xe2i\x1f\xd5\xe9\xbfq\xfd\x9d\xfd\xf4\x0b\x04@^\x85\xea\x86\xb6\xc0\x05@:\x0f\xc6\xc0\xf7\xeb\x06\xc0\x98P38\x1a&%\xc0\x1dW 1a(\n\xc0\x94\xf1\xcd\xdb\x94\x0e\r\xc0d{\x1f\x86F\xaa\x11\xc0\x15U\xb5\xbb\xb1k\x12\xc0\xb5R\xf1\x0f\x07\x97\x14\xc0\xaa\xd6z\xfe\xef\x96\x0f\xc0\xdaB+\xac\xcd\xeb\x14\xc0\xec\x0f\xef\xa2\xcf@\x10\xc0-1i\xd1\xbb\x04\x16\xc0\xd3\x88\xd0\xe0\x0c\x85\x14\xc0'
p100
tp101
bsS'Model'
p102
S'HKY'
p103
sS'clock'
p104
I00
s.