(dp0
S'Force'
p1
(dp2
I4
F0.0
ssS'ExpectedGeneconv'
p3
(dp4
(S'N1'
p5
S'N2'
p6
tp7
F0.0
s(S'N5'
p8
S'cerevisiae'
p9
tp10
F0.0
s(g6
S'N3'
p11
tp12
F0.0
s(S'N4'
p13
g8
tp14
F0.0
s(g5
S'castellii'
p15
tp16
F0.0
s(g6
S'bayanus'
p17
tp18
F0.0
s(S'N0'
p19
g5
tp20
F0.0
s(g11
S'kudriavzevii'
p21
tp22
F0.0
s(g8
S'paradoxus'
p23
tp24
F0.0
s(g19
S'kluyveri'
p25
tp26
F0.0
s(g11
g13
tp27
F0.0
s(g13
S'mikatae'
p28
tp29
F0.0
ssS'ExpectedDwellTime'
p30
(dp31
g7
F25.83509277839334
sg10
F56.476315271399166
sg12
F46.7911071846911
sg14
F58.267010141784645
sg16
F41.586348991288936
sg18
F50.846504129558106
sg20
F3.5988366150011917
sg22
F58.6122116000602
sg24
F67.47396748241783
sg26
F0.0
sg27
F55.93743300842146
sg29
F62.68215837198726
ssS'newicktree'
p32
S'../PairsAlignemt/YeastTree.newick'
p33
sS'll'
p34
cnumpy.core.multiarray
scalar
p35
(cnumpy
dtype
p36
(S'f8'
p37
I0
I1
tp38
Rp39
(I3
S'<'
p40
NNNI-1
I-1
I0
tp41
bS'w\nKE\xb7]\x95\xc0'
p42
tp43
Rp44
sS'edge_list'
p45
(lp46
g20
ag26
ag7
ag16
ag12
ag18
ag27
ag22
ag14
ag29
ag10
ag24
asS'edge_to_blen'
p47
(dp48
g7
g35
(g39
S'\xf8"s\xd1x\xbb\xa1?'
p49
tp50
Rp51
sg10
g35
(g39
S'\xb0|R#\xe4\xfa\x94?'
p52
tp53
Rp54
sg12
g35
(g39
S'4\x9b\t9\x90\xdc\x90?'
p55
tp56
Rp57
sg14
g35
(g39
S'\xcdL;\xdd\xf7dt?'
p58
tp59
Rp60
sg22
g35
(g39
S'b-\x86mN\x0e\x92?'
p61
tp62
Rp63
sg18
g35
(g39
S'3\x8e\xa4\xa0\x0e\xfc\x93?'
p64
tp65
Rp66
sg20
g35
(g39
S'\x8e\x8d\xed\x04\xa9\xf0t?'
p67
tp68
Rp69
sg16
g35
(g39
S'\xc0[fh#n\xae?'
p70
tp71
Rp72
sg24
g35
(g39
S'\x8b\xdeW\xcf\xb9\x0f\x93?'
p73
tp74
Rp75
sg26
g35
(g39
S'\x0f?\xc9J\x99\xec\xa8?'
p76
tp77
Rp78
sg27
g35
(g39
S'\xb2=\x0c\x88We\x89?'
p79
tp80
Rp81
sg29
g35
(g39
S'\xf9\x9e\xb9\xdf\x9d$\x9b?'
p82
tp83
Rp84
ssS'paralog'
p85
(lp86
S'YER131W'
p87
aS'YGL189C'
p88
asS'alignment_file'
p89
S'../MafftAlignment/YER131W_YGL189C/YER131W_YGL189C_input.fasta'
p90
sS'x_clock'
p91
NsS'x'
p92
cnumpy.core.multiarray
_reconstruct
p93
(cnumpy
ndarray
p94
(I0
tp95
S'b'
p96
tp97
Rp98
(I1
(I17
tp99
g39
I00
S'\xd0\x98\x96\x87\x909\xe8\xbf\xdfoA\xcc$\xa6\xdc\xbf\x0b;\xff\xc8\x02\xa6\xe4\xbf\xcf\xe4\xcd\xd6\xec\xdb\x03@\x8f4\x13\xd9\xc2\x88\xd5?4\xd7\x05E\xba\x1a\x15\xc01\x01o\x88\x0c.\x08\xc0\xa1^O\nK\xe7\n\xc0\xb0\xa0YeF\x95\x06\xc0\xc1|\xc7#\xfdl\x10\xc0\xa0j\x8d\xe9\xf8}\x0f\xc0&\xf0$\xb1d\x8f\x11\xc0z\x7f\xd3\x84\xe9&\x10\xc00\xcd\x19\xfe\xc35\x15\xc0\xde\x00u\xa8\xf5\n\r\xc0\x14MVak\x1a\x0f\xc0\x111x\x1f\xd5\xde\x0f\xc0'
p100
tp101
bsS'Model'
p102
S'HKY'
p103
sS'clock'
p104
I00
s.