(dp0
S'Force'
p1
(dp2
I4
F0.0
sI5
F0.0
ssS'ExpectedGeneconv'
p3
(dp4
(S'N1'
p5
S'N2'
p6
tp7
F0.0
s(S'N5'
p8
S'cerevisiae'
p9
tp10
F0.0
s(g6
S'N3'
p11
tp12
F0.0
s(S'N4'
p13
g8
tp14
F0.0
s(g5
S'castellii'
p15
tp16
F0.0
s(g6
S'bayanus'
p17
tp18
F0.0
s(S'N0'
p19
g5
tp20
F0.0
s(g11
S'kudriavzevii'
p21
tp22
F0.0
s(g8
S'paradoxus'
p23
tp24
F0.0
s(g19
S'kluyveri'
p25
tp26
F0.0
s(g11
g13
tp27
F0.0
s(g13
S'mikatae'
p28
tp29
F0.0
ssS'ExpectedDwellTime'
p30
(dp31
g7
F130.08442682746676
sg10
F264.8785843558282
sg12
F224.5747064645881
sg14
F251.29033516115416
sg16
F125.2053120489804
sg18
F248.18033163463357
sg20
F13.721974560684474
sg22
F244.8131827981257
sg24
F268.2915489660091
sg26
F0.0
sg27
F239.94250513124328
sg29
F236.82531530258177
ssS'newicktree'
p32
S'../PairsAlignemt/YeastTree.newick'
p33
sS'll'
p34
cnumpy.core.multiarray
scalar
p35
(cnumpy
dtype
p36
(S'f8'
p37
I0
I1
tp38
Rp39
(I3
S'<'
p40
NNNI-1
I-1
I0
tp41
bS'\x9c\xf5k\x15\xed\x94\xb0\xc0'
p42
tp43
Rp44
sS'edge_list'
p45
(lp46
g20
ag26
ag7
ag16
ag12
ag18
ag27
ag22
ag14
ag29
ag10
ag24
asS'edge_to_blen'
p47
(dp48
g20
g35
(g39
S'\x95\xcbp\xb5ak\x83?'
p49
tp50
Rp51
sg10
g35
(g39
S'r\x8a\x1a\xe5\x971\xa7?'
p52
tp53
Rp54
sg12
g35
(g39
S'\xf8W\x94\xc1C\xa1\x99?'
p55
tp56
Rp57
sg14
g35
(g39
S'\xeaaW\xd7\xf2\x9d\x95?'
p58
tp59
Rp60
sg16
g35
(g39
S'\xd6\xcc\x0ft\xdej\xb8?'
p61
tp62
Rp63
sg18
g35
(g39
S"\xef>V\x9fK'\xac?"
p64
tp65
Rp66
sg7
g35
(g39
S'\x13\xfe\x9c\x85F\xb6\xb6?'
p67
tp68
Rp69
sg22
g35
(g39
S'\xeaN\xe5`\xde\x1c\xa2?'
p70
tp71
Rp72
sg24
g35
(g39
S'\xa3\x9bsT5\xcb\x99?'
p73
tp74
Rp75
sg29
g35
(g39
S'\xed\xf7%<\x01\x96\xad?'
p76
tp77
Rp78
sg27
g35
(g39
S'\x80\xf5\x1b\x97;\x95\x96?'
p79
tp80
Rp81
sg26
g35
(g39
S'\xefWN@\x08_\xc2?'
p82
tp83
Rp84
ssS'paralog'
p85
(lp86
S'YDR099W'
p87
aS'YER177W'
p88
asS'alignment_file'
p89
S'../MafftAlignment/YDR099W_YER177W/YDR099W_YER177W_input.fasta'
p90
sS'x_clock'
p91
NsS'x'
p92
cnumpy.core.multiarray
_reconstruct
p93
(cnumpy
ndarray
p94
(I0
tp95
S'b'
p96
tp97
Rp98
(I1
(I18
tp99
g39
I00
S'\xe9w\xc0\x9a\xa7s\xea\xbfR\xbfch\xf7\x88\xe0\xbf\xa8\xf0v\xc8RF\xe9\xbf)^.5\xcd\xfb\x01@i`\xbb\xe6\x1bR\xf9?i`\xbb\xe6\x1bR\xf9?\xed\x1b\'\xc2$\xa2\x12\xc0\x19\xc9\x92\xe3V\x0f\xff\xbf3_3"\xd6`\x03\xc0\x8a\xde\xe6l\x8d\xcc\x02\xc0\x14\xaaljn\x80\r\xc0[G\x11\x93\x894\x07\xc0\x91\xdb\xb5\xac\xa3\x83\x0e\xc0\xdd/q%\xd1\xbb\n\xc0 \xa5\xa1\x1b+\xdd\x0e\xc0<\x00^\x1a\xe6\xce\x06\xc0\x95@\x97Gk\xc1\x08\xc0\x7f\xd8\xcc\x82as\r\xc0'
p100
tp101
bsS'Model'
p102
S'HKY'
p103
sS'clock'
p104
I00
s.