(dp0
S'Force'
p1
(dp2
I5
F0.0
ssS'ExpectedGeneconv'
p3
(dp4
(S'N1'
p5
S'N2'
p6
tp7
F0.0
s(S'N5'
p8
S'cerevisiae'
p9
tp10
F0.0
s(g6
S'N3'
p11
tp12
F0.0
s(S'N4'
p13
g8
tp14
F0.0
s(g5
S'castellii'
p15
tp16
F0.0
s(g6
S'bayanus'
p17
tp18
F0.0
s(S'N0'
p19
g5
tp20
F0.0
s(g11
S'kudriavzevii'
p21
tp22
F0.0
s(g8
S'paradoxus'
p23
tp24
F0.0
s(g19
S'kluyveri'
p25
tp26
F0.0
s(g11
g13
tp27
F0.0
s(g13
S'mikatae'
p28
tp29
F0.0
ssS'ExpectedDwellTime'
p30
(dp31
g7
F439.6445617790982
sg10
F575.4883244423588
sg12
F575.7407557859394
sg14
F576.4954848002923
sg16
F505.4668280714417
sg18
F573.3084743545896
sg20
F0.009762475014893577
sg22
F581.2346058941421
sg24
F588.4023695822995
sg26
F0.0
sg27
F576.3291260510881
sg29
F570.5344331569626
ssS'newicktree'
p32
S'../PairsAlignemt/YeastTree.newick'
p33
sS'll'
p34
cnumpy.core.multiarray
scalar
p35
(cnumpy
dtype
p36
(S'f8'
p37
I0
I1
tp38
Rp39
(I3
S'<'
p40
NNNI-1
I-1
I0
tp41
bS'7\x97\x18k\xe0w\xc2\xc0'
p42
tp43
Rp44
sS'edge_list'
p45
(lp46
g20
ag26
ag7
ag16
ag12
ag18
ag27
ag22
ag14
ag29
ag10
ag24
asS'edge_to_blen'
p47
(dp48
g20
g35
(g39
S'\x002FX\n\xe6\xea>'
p49
tp50
Rp51
sg10
g35
(g39
S'\xec47\xc7\x91\x13\xcb?'
p52
tp53
Rp54
sg12
g35
(g39
S'EM1\xc0\x978\xc4?'
p55
tp56
Rp57
sg14
g35
(g39
S'z\x01YW\xb7\x9c\xbc?'
p58
tp59
Rp60
sg22
g35
(g39
S'\x03\xc7\x11d\xe4K\xd4?'
p61
tp62
Rp63
sg18
g35
(g39
S'\x01KX\x10\x18\xac\xd3?'
p64
tp65
Rp66
sg7
g35
(g39
S'{\\\xd3\x8b\x82\x12\xfc?'
p67
tp68
Rp69
sg16
g35
(g39
S'D`\x8f@Q\xc5\x07@'
p70
tp71
Rp72
sg24
g35
(g39
S'\x1c\x8f\xa5\xa3Y\xd4\xc3?'
p73
tp74
Rp75
sg29
g35
(g39
S"\x8d'\xf0\xbc\xc6J\xd4?"
p76
tp77
Rp78
sg27
g35
(g39
S'W\xc1\x01\x15TA\xbe?'
p79
tp80
Rp81
sg26
g35
(g39
S'T\xc9\xbb\x0c\xa0\r\x04@'
p82
tp83
Rp84
ssS'paralog'
p85
(lp86
S'YPR157W'
p87
aS'YGR141W'
p88
asS'alignment_file'
p89
S'../MafftAlignment/YPR157W_YGR141W/YPR157W_YGR141W_input.fasta'
p90
sS'x_clock'
p91
NsS'x'
p92
cnumpy.core.multiarray
_reconstruct
p93
(cnumpy
ndarray
p94
(I0
tp95
S'b'
p96
tp97
Rp98
(I1
(I18
tp99
g39
I00
S"M\x0c\xa2=B\n\xe5\xbfL'\xb54\x0f\x1a\xe1\xbfE\xe2\xae\xe5\x8b\xfa\xee\xbf\xd9\xfe\xad\xce\xaf\x17\xee?*\x1ef\xb0\xf9F\x05\xc0\x8f4\x13\xd9\xc2\x88\xd5?\xa1j63-\x87&\xc0\x92]gh\x06h\xed?\x8f\x14\xbd\xde\x7f\xfd\xe1?l\xab\xc5-\x9bl\xf1?CP\\\xe8^\x86\xfd\xbfy\xcd\x93U\xf2\xdf\xf2\xbfg\x9f\x06 \x86\x15\x01\xc0\xc6D\x9d`\xff_\xf2\xbf\x9c\xc9j\xfe\xdf\x87\x01\xc0\xff\x0b\x06\x96\xe0`\xf2\xbf\x0c\xb3T|\x96\xda\xf8\xbfU\r\x95Uw\xd6\xfd\xbf"
p100
tp101
bsS'Model'
p102
S'MG94'
p103
sS'clock'
p104
I00
s.