(dp0
S'Force'
p1
(dp2
I5
F0.0
ssS'ExpectedGeneconv'
p3
(dp4
(S'N1'
p5
S'N2'
p6
tp7
F27.643397646308465
s(S'N5'
p8
S'cerevisiae'
p9
tp10
F5.953585974955861
s(g6
S'N3'
p11
tp12
F13.112258456055699
s(S'N4'
p13
g8
tp14
F4.865119337974894
s(g5
S'castellii'
p15
tp16
F9.04738407077424
s(g6
S'bayanus'
p17
tp18
F0.0
s(S'N0'
p19
g5
tp20
F0.3189461002868772
s(g11
S'kudriavzevii'
p21
tp22
F8.78907531663309
s(g8
S'paradoxus'
p23
tp24
F3.9073090081287356
s(g19
S'kluyveri'
p25
tp26
F0.0
s(g11
g13
tp27
F3.10166212762645
s(g13
S'mikatae'
p28
tp29
F10.415195784972726
ssS'ExpectedDwellTime'
p30
(dp31
g7
F221.0387765638331
sg10
F352.13020625759026
sg12
F346.1579725393714
sg14
F345.64313617030695
sg16
F117.15766608878062
sg18
F0.0
sg20
F24.07029214499089
sg22
F345.4917754812656
sg24
F354.6036530485172
sg26
F0.0
sg27
F343.48066870072046
sg29
F339.4050766445588
ssS'newicktree'
p32
S'../PairsAlignemt/YeastTree.newick'
p33
sS'll'
p34
cnumpy.core.multiarray
scalar
p35
(cnumpy
dtype
p36
(S'f8'
p37
I0
I1
tp38
Rp39
(I3
S'<'
p40
NNNI-1
I-1
I0
tp41
bS'u\xc2\xc51\x07\xc7\xa8\xc0'
p42
tp43
Rp44
sS'edge_list'
p45
(lp46
g20
ag26
ag7
ag16
ag12
ag18
ag27
ag22
ag14
ag29
ag10
ag24
asS'edge_to_blen'
p47
(dp48
g20
g35
(g39
S'\xae\xa0>\x01w\x15\x9e?'
p49
tp50
Rp51
sg10
g35
(g39
S'\xaeZ\xf3\xb0\x97\xab\xa5?'
p52
tp53
Rp54
sg12
g35
(g39
S'\xb6\x80\xab\xd6^\xef\xb2?'
p55
tp56
Rp57
sg14
g35
(g39
S't\x14\xf0Z\xaf^\x9e?'
p58
tp59
Rp60
sg16
g35
(g39
S'\xf6N\xaa\xf5\x08\xd9\xbd?'
p61
tp62
Rp63
sg18
g35
(g39
S'\x00\x00\x00\x00\x00\x00\x00\x00'
p64
tp65
Rp66
sg7
g35
(g39
S'VEF\x03\xfa\xf5\xd4?'
p67
tp68
Rp69
sg22
g35
(g39
S'\xa8\x9d?N\xa3\xd5\xab?'
p70
tp71
Rp72
sg24
g35
(g39
S'\xea\xfaS\\\xbc:\x9f?'
p73
tp74
Rp75
sg26
g35
(g39
S'E\xccc]b\xc3\xc1?'
p76
tp77
Rp78
sg27
g35
(g39
S'^\xdb\x9a<\xee#\x8e?'
p79
tp80
Rp81
sg29
g35
(g39
S'.L\x18\xf3\xff,\xb0?'
p82
tp83
Rp84
ssS'paralog'
p85
(lp86
S'YPL037C'
p87
aS'YDR252W'
p88
asS'alignment_file'
p89
S'../MafftAlignment/YPL037C_YDR252W/YPL037C_YDR252W_input.fasta'
p90
sS'x_clock'
p91
NsS'x'
p92
cnumpy.core.multiarray
_reconstruct
p93
(cnumpy
ndarray
p94
(I0
tp95
S'b'
p96
tp97
Rp98
(I1
(I17
tp99
g39
I00
S'\xf7\xa8k\x0f\xb1]\xe5\xbf+4\r\x0bYE\xdd\xbf\xce\x9b\x87l\x81\xcf\xe6\xbf\x01\xed\xbe$U\xb2\xf7?\xc8\x9e/\x9c\xc2\x8a\xe9\xbf7?\xfa9I8\x0c\xc0\xb7lg\x021\x99\xff\xbf\xb9\xf9\xe8\xb0\x10\xdc\xf1\xbf\x016\xfc\xccI1\x01\xc0\x1a?Y\x87S\xd5\x04\xc0\x15U\xb5\xbb\xb1k\x12\xc0\xba\x85\xbf\x0f\x01\xe0\x10\xc0s\xe86\x94\xdfK\x07\xc0D\xad\xcc5\xe8$\x0c\xc0\xa1\xad\x84n\xe2\x17\x06\xc0\xa3\xbcuQ\x8fL\t\xc0u\xd9\x00%\xbf\xeb\x0b\xc0'
p100
tp101
bsS'Model'
p102
S'HKY'
p103
sS'clock'
p104
I00
s.