(dp0
S'Force'
p1
(dp2
I5
F0.0
ssS'ExpectedGeneconv'
p3
(dp4
(S'N0'
p5
S'N1'
p6
tp7
F0.2667204780900186
s(S'N5'
p8
S'cerevisiae'
p9
tp10
F8.602625613505305
s(S'N2'
p11
S'N3'
p12
tp13
F3.669195497399227
s(S'N4'
p14
g8
tp15
F1.3494362307988212
s(g12
S'kudriavzevii'
p16
tp17
F12.120668815642555
s(g11
S'bayanus'
p18
tp19
F8.19700052922076
s(g6
g11
tp20
F6.688422777416496
s(g6
S'castellii'
p21
tp22
F12.787024143290692
s(g8
S'paradoxus'
p23
tp24
F3.735626073282998
s(g14
S'mikatae'
p25
tp26
F13.135289818077418
s(g12
g14
tp27
F0.6358556010129729
s(g5
S'kluyveri'
p28
tp29
F0.0
ssS'newicktree'
p30
S'../PairsAlignemt/YeastTree.newick'
p31
sS'll'
p32
cnumpy.core.multiarray
scalar
p33
(cnumpy
dtype
p34
(S'f8'
p35
I0
I1
tp36
Rp37
(I3
S'<'
p38
NNNI-1
I-1
I0
tp39
bS'\xb4\t\x9f;m\xb5\x98\xc0'
p40
tp41
Rp42
sS'clock'
p43
I00
sS'edge_to_blen'
p44
(dp45
g20
g33
(g37
S'-\xccozb\x91\xaa?'
p46
tp47
Rp48
sg10
g33
(g37
S'\xfdaEd\xbf/\x94?'
p49
tp50
Rp51
sg13
g33
(g37
S'\x80\xf7rN<?\x90?'
p52
tp53
Rp54
sg15
g33
(g37
S'u\x8aI\xc8\xb3i]?'
p55
tp56
Rp57
sg17
g33
(g37
S'\xbf \x84\x08\xaf\xcd\x9e?'
p58
tp59
Rp60
sg19
g33
(g37
S'\x80s H!\xc5\xa1?'
p61
tp62
Rp63
sg7
g33
(g37
S'\xc0\xba"\x14CH\x93?'
p64
tp65
Rp66
sg22
g33
(g37
S'\xcdS\x95\xfa\x97\xc7\xae?'
p67
tp68
Rp69
sg24
g33
(g37
S'S\x99\x05\xf8C6\x90?'
p70
tp71
Rp72
sg26
g33
(g37
S'\x0b\xeb~\xe0\xccz\xa7?'
p73
tp74
Rp75
sg27
g33
(g37
S'\x17\x06\xb4\xe9\x95\xa6\x84?'
p76
tp77
Rp78
sg29
g33
(g37
S'\xbe\xebY/P\x96\xc1?'
p79
tp80
Rp81
ssS'paralog'
p82
(lp83
S'YML026C'
p84
aS'YDR450W'
p85
asS'alignment_file'
p86
S'../PairsAlignemt/YML026C_YDR450W/YML026C_YDR450W_input.fasta'
p87
sS'x_clock'
p88
(lp89
F-0.6082900286551159
aF-0.5179788899895584
aF-0.8170342027473766
aF0.1823215567939546
aF-0.10536051565782628
aF0.3364722366212129
aF-0.10536051565782628
aF-0.10536051565782628
aF-0.10536051565782628
aF-0.10536051565782628
aF-0.10536051565782628
aF-0.10536051565782628
aF-0.10536051565782628
asS'x'
p90
(lp91
F-0.5549075659714835
aF-0.5822156582534094
aF-0.8978611391547996
aF1.76977596
aF-2.44028574
aF1.19617746
aF-3.972285601219626
aF-1.9848611152694173
aF-2.9586205695645607
aF-2.8114704530540457
aF-4.143562670430652
aF-3.3608107831494745
aF-4.596868558924692
aF-3.503845042494945
aF-6.322627190833592
aF-3.0821888893685547
aF-3.9264570402199217
aF-4.145721662210715
asS'Model'
p92
S'MG94'
p93
s.