(dp0
S'Force'
p1
(dp2
I5
F0.0
ssS'ExpectedGeneconv'
p3
(dp4
(S'N1'
p5
S'N2'
p6
tp7
F31.173082169916167
s(S'N5'
p8
S'cerevisiae'
p9
tp10
F6.4626038270308035
s(g6
S'N3'
p11
tp12
F8.600089559372973
s(S'N4'
p13
g8
tp14
F0.7290814052483031
s(g5
S'castellii'
p15
tp16
F16.83109153617706
s(g6
S'bayanus'
p17
tp18
F0.0
s(S'N0'
p19
g5
tp20
F9.753586702213768
s(g11
S'kudriavzevii'
p21
tp22
F9.739890534687756
s(g8
S'paradoxus'
p23
tp24
F9.42698274646089
s(g19
S'kluyveri'
p25
tp26
F0.0
s(g11
g13
tp27
F3.5012023580852074
s(g13
S'mikatae'
p28
tp29
F9.982049333994961
ssS'ExpectedDwellTime'
p30
(dp31
g7
F39.169027950465846
sg10
F52.91077972351485
sg12
F43.25327197883637
sg14
F54.745429101495795
sg16
F40.353676635438006
sg18
F0.0
sg20
F21.030449991345296
sg22
F60.724704123358066
sg24
F49.59227078702214
sg26
F0.0
sg27
F54.21515164842564
sg29
F56.38235792626854
ssS'newicktree'
p32
S'../PairsAlignemt/YeastTree.newick'
p33
sS'll'
p34
cnumpy.core.multiarray
scalar
p35
(cnumpy
dtype
p36
(S'f8'
p37
I0
I1
tp38
Rp39
(I3
S'<'
p40
NNNI-1
I-1
I0
tp41
bS'\x8b\xb0\x0b3\xf9\xe0\x94\xc0'
p42
tp43
Rp44
sS'edge_list'
p45
(lp46
g20
ag26
ag7
ag16
ag12
ag18
ag27
ag22
ag14
ag29
ag10
ag24
asS'edge_to_blen'
p47
(dp48
g7
g35
(g39
S'\x95\x01R\x05}\x9c\xa9?'
p49
tp50
Rp51
sg10
g35
(g39
S"\xc6\xeeDh\xa6'\x7f?"
p52
tp53
Rp54
sg12
g35
(g39
S'b\xca\xcbMDW\x95?'
p55
tp56
Rp57
sg14
g35
(g39
S'c9\xf7\xcc\xae\x1aT?'
p58
tp59
Rp60
sg22
g35
(g39
S'\x06\x9e\xc3\x84\xa5@\x93?'
p61
tp62
Rp63
sg18
g35
(g39
S'\x00\x00\x00\x00\x00\x00\x00\x00'
p64
tp65
Rp66
sg20
g35
(g39
S'\xd3\xb7\xee\x8a\xffd\xa2?'
p67
tp68
Rp69
sg16
g35
(g39
S'Nj\x81n\x00\xfd\x9e?'
p70
tp71
Rp72
sg24
g35
(g39
S'\x08\xcb\xac\xee\x90J\x86?'
p73
tp74
Rp75
sg26
g35
(g39
S'\xec\xca\xb2.^\xb5\xda>'
p76
tp77
Rp78
sg27
g35
(g39
S'.\xac\xe6\xb1c\xadt?'
p79
tp80
Rp81
sg29
g35
(g39
S'\x17\x8b\xe9\x1f\xbd\x16\x90?'
p82
tp83
Rp84
ssS'paralog'
p85
(lp86
S'YMR143W'
p87
aS'YDL083C'
p88
asS'alignment_file'
p89
S'../MafftAlignment/YMR143W_YDL083C/YMR143W_YDL083C_input.fasta'
p90
sS'x_clock'
p91
NsS'x'
p92
cnumpy.core.multiarray
_reconstruct
p93
(cnumpy
ndarray
p94
(I0
tp95
S'b'
p96
tp97
Rp98
(I1
(I17
tp99
g39
I00
S"\x0c\xaf\xa73\xa7\xbc\xe8\xbf\x08\x0c:{r\x17\xe0\xbf\x16\xc3@\xda\x14\xb6\xeb\xbfa\xb9\xc9\x10\xc40\x08@\xec\xc4JxA\x8a\x04@dP\xadH4\x9c\n\xc0Hq\xac!\xb3\xed'\xc0<V\xd2v[\xf6\x07\xc0\xd70}S\x9f\xfb\x0b\xc0)\x16\x8d\xa7~\xf7\x0e\xc0\x15U\xb5\xbb\xb1k\x12\xc0\n\xbc<\xb9\xa8'\x15\xc0\x1b\x1f\x08&g\xca\x0f\xc0\xf3}\xa9c\x01\xd0\x1a\xc0r\xfe\x8b\xfd\x06\x9d\x10\xc0S\xaf\x1f\xe2\xe2\x83\x13\xc0\xf4\x16N\xf2\xe9\x14\x12\xc0"
p100
tp101
bsS'Model'
p102
S'HKY'
p103
sS'clock'
p104
I00
s.