(dp0
S'Force'
p1
(dp2
I5
F0.0
ssS'ExpectedGeneconv'
p3
(dp4
(S'N1'
p5
S'N2'
p6
tp7
F270.8090111533125
s(S'N5'
p8
S'cerevisiae'
p9
tp10
F40.02198522880828
s(g6
S'N3'
p11
tp12
F104.86604062169768
s(S'N4'
p13
g8
tp14
F25.36552169434467
s(g5
S'castellii'
p15
tp16
F324.197729850689
s(g6
S'bayanus'
p17
tp18
F0.0
s(S'N0'
p19
g5
tp20
F40.46248422264434
s(g11
S'kudriavzevii'
p21
tp22
F52.65302976825001
s(g8
S'paradoxus'
p23
tp24
F31.50387317967195
s(g19
S'kluyveri'
p25
tp26
F0.0
s(g11
g13
tp27
F21.31278324193952
s(g13
S'mikatae'
p28
tp29
F57.080269765906166
ssS'ExpectedDwellTime'
p30
(dp31
g7
F1857.4544581692544
sg10
F2280.9918146964196
sg12
F2263.6804247098703
sg14
F2282.3863973929797
sg16
F1919.016867049285
sg18
F0.0
sg20
F667.1418690549569
sg22
F2251.757251732135
sg24
F2275.232800326676
sg26
F0.0
sg27
F2268.190300063451
sg29
F2303.898287303352
ssS'newicktree'
p32
S'../PairsAlignemt/YeastTree.newick'
p33
sS'll'
p34
cnumpy.core.multiarray
scalar
p35
(cnumpy
dtype
p36
(S'f8'
p37
I0
I1
tp38
Rp39
(I3
S'<'
p40
NNNI-1
I-1
I0
tp41
bS'l\x1a\xc3\xac\xc77\xd7\xc0'
p42
tp43
Rp44
sS'edge_list'
p45
(lp46
g20
ag26
ag7
ag16
ag12
ag18
ag27
ag22
ag14
ag29
ag10
ag24
asS'edge_to_blen'
p47
(dp48
g7
g35
(g39
S'\xce\xb5\x9dk\xecD\xd8?'
p49
tp50
Rp51
sg10
g35
(g39
S'`&&\xd8ZV\xaa?'
p52
tp53
Rp54
sg12
g35
(g39
S'jY\x12r\x1f\xfc\xbc?'
p55
tp56
Rp57
sg14
g35
(g39
S'\xbf)\x81\xe6\xf7G\xa1?'
p58
tp59
Rp60
sg22
g35
(g39
S'l\x03\x06\xc2\xf4\xab\xb0?'
p61
tp62
Rp63
sg18
g35
(g39
S'\x00\x00\x00\x00\x00\x00\x00\x00'
p64
tp65
Rp66
sg20
g35
(g39
S'g|c\xf8p\xc4\xc4?'
p67
tp68
Rp69
sg16
g35
(g39
S'\xa2\xa4\x1d\xbd_c\xdc?'
p70
tp71
Rp72
sg24
g35
(g39
S'\x0cD\r\x10L\x85\xa3?'
p73
tp74
Rp75
sg26
g35
(g39
S'\xbe6\xc80]\x93\xd3?'
p76
tp77
Rp78
sg27
g35
(g39
S'+y_\x17\x16\x87\x9e?'
p79
tp80
Rp81
sg29
g35
(g39
S'\xfe=!Oq;\xb4?'
p82
tp83
Rp84
ssS'paralog'
p85
(lp86
S'YIR033W'
p87
aS'YKL020C'
p88
asS'alignment_file'
p89
S'../MafftAlignment/YIR033W_YKL020C/YIR033W_YKL020C_input.fasta'
p90
sS'x_clock'
p91
NsS'x'
p92
cnumpy.core.multiarray
_reconstruct
p93
(cnumpy
ndarray
p94
(I0
tp95
S'b'
p96
tp97
Rp98
(I1
(I17
tp99
g39
I00
S'\x98\x1f\xc7\xbf$/\xe6\xbf\xda\xa1\xdb4\x82k\xdd\xbf\xb2\x9e\x08\xcf\x9f\xb4\xeb\xbf \x7fi\xe2z\xd8\xf4?p1\x9eS\x10\x94\xef\xbf2\xf4n\xf0.\x19\xfd\xbf\x15\x10u\x19\x1c\xf4\xf2\xbf\x05\x127\x1d\x91\x07\xef\xbf\xf6\xb2\xb1S\\\x03\xea\xbf>:V\x13_m\x01\xc0\x15U\xb5\xbb\xb1k\x12\xc0\x16V\x84\xcaJ\x1a\x0c\xc0@\x13#\x18\n\xda\x05\xc0-\xf1\xd5\xd1\x13\x1c\x0b\xc04c5\xa6\x9fM\x04\xc0(\xa7\xeev\x1b\xbd\x07\xc0\xee=\x11\x0b\x82"\n\xc0'
p100
tp101
bsS'Model'
p102
S'HKY'
p103
sS'clock'
p104
I00
s.