(dp0
S'Force'
p1
(dp2
I4
F0.0
ssS'ExpectedGeneconv'
p3
(dp4
(S'N1'
p5
S'N2'
p6
tp7
F0.0
s(S'N5'
p8
S'cerevisiae'
p9
tp10
F0.0
s(g6
S'N3'
p11
tp12
F0.0
s(S'N4'
p13
g8
tp14
F0.0
s(g5
S'castellii'
p15
tp16
F0.0
s(g6
S'bayanus'
p17
tp18
F0.0
s(S'N0'
p19
g5
tp20
F0.0
s(g11
S'kudriavzevii'
p21
tp22
F0.0
s(g8
S'paradoxus'
p23
tp24
F0.0
s(g19
S'kluyveri'
p25
tp26
F0.0
s(g11
g13
tp27
F0.0
s(g13
S'mikatae'
p28
tp29
F0.0
ssS'ExpectedDwellTime'
p30
(dp31
g7
F79.09045256005777
sg10
F147.40359597970723
sg12
F123.0604968794948
sg14
F133.26420113427938
sg16
F88.6040698881584
sg18
F135.8001439815382
sg20
F15.559637632298749
sg22
F147.1562769707162
sg24
F142.07065890534923
sg26
F0.0
sg27
F127.39196319910333
sg29
F148.2826379780806
ssS'newicktree'
p32
S'../PairsAlignemt/YeastTree.newick'
p33
sS'll'
p34
cnumpy.core.multiarray
scalar
p35
(cnumpy
dtype
p36
(S'f8'
p37
I0
I1
tp38
Rp39
(I3
S'<'
p40
NNNI-1
I-1
I0
tp41
bS'\xf8Y\xe2\xe3\xed\xc9\xa3\xc0'
p42
tp43
Rp44
sS'edge_list'
p45
(lp46
g20
ag26
ag7
ag16
ag12
ag18
ag27
ag22
ag14
ag29
ag10
ag24
asS'edge_to_blen'
p47
(dp48
g7
g35
(g39
S'b\xc84\xd3\x8c#\xab?'
p49
tp50
Rp51
sg10
g35
(g39
S'\x0cK\xf9s\t\xf3\x91?'
p52
tp53
Rp54
sg12
g35
(g39
S"\xe3#\xf4\x0b:'\x85?"
p55
tp56
Rp57
sg14
g35
(g39
S'\xa4\x82\x06k\x14\x8b\x82?'
p58
tp59
Rp60
sg22
g35
(g39
S'\xf3^\x9cb\x897\xa0?'
p61
tp62
Rp63
sg18
g35
(g39
S'L\x18\x83)\x1a<\xa2?'
p64
tp65
Rp66
sg20
g35
(g39
S'\xa1M\xb2k\xf4U\x8b?'
p67
tp68
Rp69
sg16
g35
(g39
S'E\xa5\x8a\x0b\x7f\xcc\xb2?'
p70
tp71
Rp72
sg24
g35
(g39
S'\xd8\x14\xc1\xaf(\x11t?'
p73
tp74
Rp75
sg26
g35
(g39
S'\xc5\xb8.\xb8\xfa\t\xb2?'
p76
tp77
Rp78
sg27
g35
(g39
S'-\xa6x/\xa3\xbfg?'
p79
tp80
Rp81
sg29
g35
(g39
S'\xd7}\x88G\x81\xf5\x9b?'
p82
tp83
Rp84
ssS'paralog'
p85
(lp86
S'YNL069C'
p87
aS'YIL133C'
p88
asS'alignment_file'
p89
S'../MafftAlignment/YNL069C_YIL133C/YNL069C_YIL133C_input.fasta'
p90
sS'x_clock'
p91
NsS'x'
p92
cnumpy.core.multiarray
_reconstruct
p93
(cnumpy
ndarray
p94
(I0
tp95
S'b'
p96
tp97
Rp98
(I1
(I17
tp99
g39
I00
S'd\xbb`\x8f\x0b\x98\xe8\xbf\xde\rd\x97jd\xe1\xbf\xa3)\xb11(2\xeb\xbf\x91S\xf1\x8c\xb92\xff?\x8f4\x13\xd9\xc2\x88\xd5?\x0f\xd1\xebr\x04D\x11\xc0SJ\x86\x8f\x9c8\x05\xc0\xa4\x03kd\xb5\x7f\x07\xc0\xa7\xc62!\x1d\xe4\x04\xc0\xd3\x15\xe1\x00\x93J\x12\xc0[33n\x11\xae\n\xc0\xa9\xef\xfb\xbe\xa1_\x17\xc0\xfacM\xd0>\x9e\x0b\xc08\x07$wk\xd1\x12\xc0\xcbwG\xd9L\xce\x0c\xc0\t\xfe\x01\xa0\xf8,\x10\xc0\xad\xd67/VF\x15\xc0'
p100
tp101
bsS'Model'
p102
S'HKY'
p103
sS'clock'
p104
I00
s.