(dp0
S'Force'
p1
(dp2
I4
F0.0
sI5
F0.0
ssS'ExpectedGeneconv'
p3
(dp4
(S'N1'
p5
S'N2'
p6
tp7
F0.0
s(S'N5'
p8
S'cerevisiae'
p9
tp10
F0.0
s(g6
S'N3'
p11
tp12
F0.0
s(S'N4'
p13
g8
tp14
F0.0
s(g5
S'castellii'
p15
tp16
F0.0
s(g6
S'bayanus'
p17
tp18
F0.0
s(S'N0'
p19
g5
tp20
F0.0
s(g11
S'kudriavzevii'
p21
tp22
F0.0
s(g8
S'paradoxus'
p23
tp24
F0.0
s(g19
S'kluyveri'
p25
tp26
F0.0
s(g11
g13
tp27
F0.0
s(g13
S'mikatae'
p28
tp29
F0.0
ssS'ExpectedDwellTime'
p30
(dp31
g7
F709.9236349512365
sg10
F983.8152586324555
sg12
F921.681704008612
sg14
F958.678976730547
sg16
F696.5926292601634
sg18
F926.6289313962717
sg20
F228.2620642541367
sg22
F954.263793535475
sg24
F971.3286978835222
sg26
F0.0
sg27
F946.2122082658803
sg29
F954.1909309963045
ssS'newicktree'
p32
S'../PairsAlignemt/YeastTree.newick'
p33
sS'll'
p34
cnumpy.core.multiarray
scalar
p35
(cnumpy
dtype
p36
(S'f8'
p37
I0
I1
tp38
Rp39
(I3
S'<'
p40
NNNI-1
I-1
I0
tp41
bS'\xfc\x8a\xbcg\xd1\xf2\xc1\xc0'
p42
tp43
Rp44
sS'edge_list'
p45
(lp46
g20
ag26
ag7
ag16
ag12
ag18
ag27
ag22
ag14
ag29
ag10
ag24
asS'edge_to_blen'
p47
(dp48
g20
g35
(g39
S'\xe9u]\xc0\xe8\xde\xc0?'
p49
tp50
Rp51
sg10
g35
(g39
S'\xf9\x1f\x8d\xc8\xa5\xba\xb1?'
p52
tp53
Rp54
sg12
g35
(g39
S'\xbf\x9a\x98\xaaq\x89\xa8?'
p55
tp56
Rp57
sg14
g35
(g39
S'\x1f?\xf5\xe3Ic\xa3?'
p58
tp59
Rp60
sg16
g35
(g39
S'\xdb\xa7.L%Z\xd4?'
p61
tp62
Rp63
sg18
g35
(g39
S'\xdcu\xed&x3\xb8?'
p64
tp65
Rp66
sg7
g35
(g39
S'A\xa2\x1bNI\xfd\xd3?'
p67
tp68
Rp69
sg22
g35
(g39
S'PH\x8a\x9dLV\xb2?'
p70
tp71
Rp72
sg24
g35
(g39
S'0\x864\xfd\xb5r\xa5?'
p73
tp74
Rp75
sg29
g35
(g39
S'\\t\x1f\xbc\xbd\xcc\xb2?'
p76
tp77
Rp78
sg27
g35
(g39
S'_=\x01\xa6(\x0e\xa5?'
p79
tp80
Rp81
sg26
g35
(g39
S'\x97\xc2K\xb5\x8d\t\xce?'
p82
tp83
Rp84
ssS'paralog'
p85
(lp86
S'YDR438W'
p87
aS'YML018C'
p88
asS'alignment_file'
p89
S'../MafftAlignment/YDR438W_YML018C/YDR438W_YML018C_input.fasta'
p90
sS'x_clock'
p91
NsS'x'
p92
cnumpy.core.multiarray
_reconstruct
p93
(cnumpy
ndarray
p94
(I0
tp95
S'b'
p96
tp97
Rp98
(I1
(I18
tp99
g39
I00
S"\xa1\xf1\xb08g^\xe8\xbf\xc8@i\xdd\xc6\xca\xe1\xbf\x91\x98\xdcgt\xa7\xee\xbf\x13c\x96\x19\x1e\x15\xf4?i`\xbb\xe6\x1bR\xf9?i`\xbb\xe6\x1bR\xf9?\xd1\xff-0+6\x00\xc0s\xe9'\xf9\x841\xf7\xbf]\xd3A\xedo\x9e\xf2\xbf#<\xdb\xd3\xc6T\xf2\xbf\t\xba\x12\xf6\x1fN\x08\xc0\xca\x1d\xc5\xbf\xc8\xde\x02\xc0f*j(\x85\x87\t\xc0\t0\x05\xa3\n\x17\x05\xc0 ?Z7~0\n\xc0\xbe\xef\xc1s\x02\xe4\x04\xc0B*Q\x82\x19\\\x05\xc0\xb1\x9e\x86\xcc\xaaa\t\xc0"
p100
tp101
bsS'Model'
p102
S'HKY'
p103
sS'clock'
p104
I00
s.