(dp0
S'Force'
p1
(dp2
I5
F0.0
ssS'ExpectedGeneconv'
p3
(dp4
(S'N1'
p5
S'N2'
p6
tp7
F566.6202274570421
s(S'N5'
p8
S'cerevisiae'
p9
tp10
F178.1206630785604
s(g6
S'N3'
p11
tp12
F278.07299439053634
s(S'N4'
p13
g8
tp14
F85.12122155456318
s(g5
S'castellii'
p15
tp16
F429.86377848468493
s(g6
S'bayanus'
p17
tp18
F0.0
s(S'N0'
p19
g5
tp20
F535.8988300655541
s(g11
S'kudriavzevii'
p21
tp22
F198.46953304738096
s(g8
S'paradoxus'
p23
tp24
F95.45535656689324
s(g19
S'kluyveri'
p25
tp26
F0.0
s(g11
g13
tp27
F103.02760983210032
s(g13
S'mikatae'
p28
tp29
F207.9864602482226
ssS'ExpectedDwellTime'
p30
(dp31
g7
F1011.7885477818941
sg10
F1007.2895157501206
sg12
F976.2708345768627
sg14
F1070.319523294882
sg16
F1130.9041857571697
sg18
F0.0
sg20
F699.6613060299928
sg22
F1052.2544255715648
sg24
F1063.9646851048524
sg26
F0.0
sg27
F1061.2942074432578
sg29
F1070.839635586403
ssS'newicktree'
p32
S'../PairsAlignemt/YeastTree.newick'
p33
sS'll'
p34
cnumpy.core.multiarray
scalar
p35
(cnumpy
dtype
p36
(S'f8'
p37
I0
I1
tp38
Rp39
(I3
S'<'
p40
NNNI-1
I-1
I0
tp41
bS'{\xbf\xed\xcbsM\xd5\xc0'
p42
tp43
Rp44
sS'edge_list'
p45
(lp46
g20
ag26
ag7
ag16
ag12
ag18
ag27
ag22
ag14
ag29
ag10
ag24
asS'edge_to_blen'
p47
(dp48
g7
g35
(g39
S'\xd5\x8a\xf1\xd6\xfbc\xbd?'
p49
tp50
Rp51
sg10
g35
(g39
S'\\?\x98\x04\x06\x04\xa2?'
p52
tp53
Rp54
sg12
g35
(g39
S'\x95*R\trq\xb1?'
p55
tp56
Rp57
sg14
g35
(g39
S'_r\xb9l\xd0\xf5\x92?'
p58
tp59
Rp60
sg22
g35
(g39
S'\xb8e"\xbc\xb1\xaa\xa7?'
p61
tp62
Rp63
sg18
g35
(g39
S'\x00\x00\x00\x00\x00\x00\x00\x00'
p64
tp65
Rp66
sg20
g35
(g39
S'\xd3\xec(\xb8\xec\xf2\xc7?'
p67
tp68
Rp69
sg16
g35
(g39
S'\xde\xc4\xcc\x14Y\x8e\xb8?'
p70
tp71
Rp72
sg24
g35
(g39
S'\xff\xc5\xd0\xd3h\xb0\x97?'
p73
tp74
Rp75
sg26
g35
(g39
S'&\x18\xc3N\x0ca\xc0>'
p76
tp77
Rp78
sg27
g35
(g39
S'W\x08\xe1\x8cJ\xb7\x99?'
p79
tp80
Rp81
sg29
g35
(g39
S'\xb2\x9bJ\xfd\x93\xff\xa7?'
p82
tp83
Rp84
ssS'paralog'
p85
(lp86
S'YGL062W'
p87
aS'YBR218C'
p88
asS'alignment_file'
p89
S'../MafftAlignment/YGL062W_YBR218C/YGL062W_YBR218C_input.fasta'
p90
sS'x_clock'
p91
NsS'x'
p92
cnumpy.core.multiarray
_reconstruct
p93
(cnumpy
ndarray
p94
(I0
tp95
S'b'
p96
tp97
Rp98
(I1
(I17
tp99
g39
I00
S'\xe3h\xf5\x88\xcb\x8b\xe8\xbf\xbccA\xe7 \xcc\xe2\xbf\x07\xc2\x9f\xebSd\xea\xbf/M\x0ef-\xfd\xfa?\xfbd\x19\x98\x1d9\xf7?\xda\xba=iU\xd1\xfa\xbfT\x9b\x18=\xf2J*\xc0\x9aL"f\xe7P\x01\xc0j$\x8e\x0e\xf6\xc0\x02\xc0\x95a\xad|f}\x05\xc0\x15U\xb5\xbb\xb1k\x12\xc0^\xe7yL\x91y\r\xc0>\x86\x19\xaf\x11\x98\x08\xc0\x16\x8cM\x8b\xbc\xe9\x0f\xc0\xd4\xfbXB\x93{\x08\xc0i\x96B\xed\xd1\xc6\n\xc0Rn\x14\x1a\xb4!\x0e\xc0'
p100
tp101
bsS'Model'
p102
S'HKY'
p103
sS'clock'
p104
I00
s.