(dp0
S'Force'
p1
(dp2
I5
F0.0
ssS'ExpectedGeneconv'
p3
(dp4
(S'N1'
p5
S'N2'
p6
tp7
F279.68002446038264
s(S'N5'
p8
S'cerevisiae'
p9
tp10
F30.574619131196467
s(g6
S'N3'
p11
tp12
F10.23963498335905
s(S'N4'
p13
g8
tp14
F12.870425934757044
s(g5
S'castellii'
p15
tp16
F332.9370545227427
s(g6
S'bayanus'
p17
tp18
F34.48186961611712
s(S'N0'
p19
g5
tp20
F19.18988514515337
s(g11
S'kudriavzevii'
p21
tp22
F28.2095754463432
s(g8
S'paradoxus'
p23
tp24
F6.691775367494281
s(g19
S'kluyveri'
p25
tp26
F0.0
s(g11
g13
tp27
F10.9165450556866
s(g13
S'mikatae'
p28
tp29
F28.94946838271658
ssS'newicktree'
p30
S'../PairsAlignemt/YeastTree.newick'
p31
sS'll'
p32
cnumpy.core.multiarray
scalar
p33
(cnumpy
dtype
p34
(S'f8'
p35
I0
I1
tp36
Rp37
(I3
S'<'
p38
NNNI-1
I-1
I0
tp39
bS'dp\r\xf2\x92.\xbc\xc0'
p40
tp41
Rp42
sS'edge_list'
p43
(lp44
g20
ag26
ag7
ag16
ag12
ag18
ag27
ag22
ag14
ag29
ag10
ag24
asS'edge_to_blen'
p45
(dp46
g20
g33
(g37
S'\x08{\x1di:p\xd4?'
p47
tp48
Rp49
sg10
g33
(g37
S'\xc0\x18\xa5\x19E\x0c\xcf?'
p50
tp51
Rp52
sg12
g33
(g37
S'\xf8\x9aU\xa3\xf3u\xc0?'
p53
tp54
Rp55
sg14
g33
(g37
S'u\xe53t4\x07\xc1?'
p56
tp57
Rp58
sg16
g33
(g37
S'7\x07\x9e2\xfe\x06\t@'
p59
tp60
Rp61
sg18
g33
(g37
S'O\x8f\xf2\xf3)\xab\xd2?'
p62
tp63
Rp64
sg7
g33
(g37
S'0}8\xd7\xdd\xa8\x04@'
p65
tp66
Rp67
sg22
g33
(g37
S'v`\xd8\x17\x02D\xd1?'
p68
tp69
Rp70
sg24
g33
(g37
S"e\x03\xee'_\xd5\xb2?"
p71
tp72
Rp73
sg26
g33
(g37
S'\x00\xa6\xef \xc1B\x05@'
p74
tp75
Rp76
sg27
g33
(g37
S'\x03\x0c\x17\x0c]a\xb7?'
p77
tp78
Rp79
sg29
g33
(g37
S'\xaef\x11\xa1\xb1G\xd3?'
p80
tp81
Rp82
ssS'paralog'
p83
(lp84
S'YPL087W'
p85
aS'YBR183W'
p86
asS'alignment_file'
p87
S'../MafftAlignment/YPL087W_YBR183W/YPL087W_YBR183W_input.fasta'
p88
sS'x_clock'
p89
NsS'x'
p90
cnumpy.core.multiarray
_reconstruct
p91
(cnumpy
ndarray
p92
(I0
tp93
S'b'
p94
tp95
Rp96
(I1
(I18
tp97
g37
I00
S'z\xdf8\x8a4`\xe6\xbf\x12a\x8d\x01\xb8Z\xe1\xbf\xb6X\xe8UG,\xf1\xbfh\xcb\x1d\xd3\x96\x0f\xf0?\xd0\x99\xc5E\xc5\xbc\x05\xc0\xfa\x98\xee\xf9\x8a#\xf3?\x1d\x12\x08\xfasC\xf2\xbf\x96XU\x8f\tG\xef?A-j\x86\x14\\\xee?U\xd1B\x8b\x98?\xf2?/\n-\xba\x8dh\x00\xc0pT(2o\xb6\xf3\xbf\xba\xc0nQq%\x03\xc0\xf7\xea\x067n\xf6\xf4\xbf\xa1]\x839&#\x00\xc0,m`\rn2\xf3\xbfI~E\xf5\xf9\xa9\xf6\xbfZ\xe8}\x1aW\xe0\x04\xc0'
p98
tp99
bsS'Model'
p100
S'MG94'
p101
sS'clock'
p102
I00
s.