(dp0
S'Force'
p1
(dp2
I5
F0.0
ssS'ExpectedGeneconv'
p3
(dp4
(S'N1'
p5
S'N2'
p6
tp7
F139.3168284513863
s(S'N5'
p8
S'cerevisiae'
p9
tp10
F22.530850692661495
s(g6
S'N3'
p11
tp12
F52.77849047958906
s(S'N4'
p13
g8
tp14
F14.55694156114714
s(g5
S'castellii'
p15
tp16
F131.86904405634476
s(g6
S'bayanus'
p17
tp18
F0.0
s(S'N0'
p19
g5
tp20
F4.752112694179834
s(g11
S'kudriavzevii'
p21
tp22
F34.158890902423146
s(g8
S'paradoxus'
p23
tp24
F18.40025942796064
s(g19
S'kluyveri'
p25
tp26
F0.0
s(g11
g13
tp27
F18.93503565811608
s(g13
S'mikatae'
p28
tp29
F30.473639227619888
ssS'ExpectedDwellTime'
p30
(dp31
g7
F1007.8263106112195
sg10
F1406.971858201004
sg12
F1433.2602604344108
sg14
F1424.7409652985318
sg16
F921.5194232842791
sg18
F0.0
sg20
F193.82154750909862
sg22
F1434.184087023578
sg24
F1419.0479745110524
sg26
F0.0
sg27
F1435.2063139368172
sg29
F1420.8978306340969
ssS'newicktree'
p32
S'../PairsAlignemt/YeastTree.newick'
p33
sS'll'
p34
cnumpy.core.multiarray
scalar
p35
(cnumpy
dtype
p36
(S'f8'
p37
I0
I1
tp38
Rp39
(I3
S'<'
p40
NNNI-1
I-1
I0
tp41
bS'+\xb3K\x7f\xe8\xa4\xca\xc0'
p42
tp43
Rp44
sS'edge_list'
p45
(lp46
g20
ag26
ag7
ag16
ag12
ag18
ag27
ag22
ag14
ag29
ag10
ag24
asS'edge_to_blen'
p47
(dp48
g20
g35
(g39
S'\x88\x03H\xc4\xf2\x05\xb2?'
p49
tp50
Rp51
sg10
g35
(g39
S'7%\xf7\x8e\xfe\xac\xa6?'
p52
tp53
Rp54
sg12
g35
(g39
S'\xb5\xed\x8a\x02\xc0J\xbb?'
p55
tp56
Rp57
sg14
g35
(g39
S'\xf4\xb4\xf0\x97~c\x9e?'
p58
tp59
Rp60
sg16
g35
(g39
S'm\n\x99M\xdd\xa8\xd8?'
p61
tp62
Rp63
sg18
g35
(g39
S'\x00\x00\x00\x00\x00\x00\x00\x00'
p64
tp65
Rp66
sg7
g35
(g39
S'0\xb2\xb5kEC\xdb?'
p67
tp68
Rp69
sg22
g35
(g39
S'\xe5\x05\xf8;IL\xb0?'
p70
tp71
Rp72
sg24
g35
(g39
S'\x1e9~\x84\xbaz\xa3?'
p73
tp74
Rp75
sg26
g35
(g39
S'\\\xe1\xff\x1ak\x13\xcc?'
p76
tp77
Rp78
sg27
g35
(g39
S'\xaf\xcc6Nc \xa2?'
p79
tp80
Rp81
sg29
g35
(g39
S'j\x9b\xf8-\xcb\xf1\xb0?'
p82
tp83
Rp84
ssS'paralog'
p85
(lp86
S'YDR518W'
p87
aS'YCL043C'
p88
asS'alignment_file'
p89
S'../MafftAlignment/YDR518W_YCL043C/YDR518W_YCL043C_input.fasta'
p90
sS'x_clock'
p91
NsS'x'
p92
cnumpy.core.multiarray
_reconstruct
p93
(cnumpy
ndarray
p94
(I0
tp95
S'b'
p96
tp97
Rp98
(I1
(I17
tp99
g39
I00
S'p\xba]\x80 \x80\xe7\xbf\x8f\x06~C\xd9f\xe0\xbf\x905\x85mg\xe5\xe8\xbf]\x18\x90\xa6\xb7\xd3\xf4?\x17\x8a\xf3M\xf2\xe7\xf0\xbf\\\x19@jf:\x05\xc0\x1f\x13\xc4\x04 F\xf8\xbf\xb1a"6\xbbN\xeb\xbf\x95\xe5\xc3\xd3\xd6\x84\xee\xbf\x9b\xcd\xac\xc8\x9e\xe8\x01\xc0\x15U\xb5\xbb\xb1k\x12\xc0s\x1d\xcb`C\xba\n\xc0C\xdf22x\x08\x06\xc0=\xaa\x94\xfa\xa3#\x0c\xc0\x8f\xe9\x87z\xcc\xb8\x05\xc0b8\xcas\xac\xef\x08\xc0\x80G\x0e\x02\xd8&\n\xc0'
p100
tp101
bsS'Model'
p102
S'HKY'
p103
sS'clock'
p104
I00
s.