(dp0
S'Force'
p1
(dp2
I4
F0.0
ssS'ExpectedGeneconv'
p3
(dp4
(S'N1'
p5
S'N2'
p6
tp7
F0.0
s(S'N5'
p8
S'cerevisiae'
p9
tp10
F0.0
s(g6
S'N3'
p11
tp12
F0.0
s(S'N4'
p13
g8
tp14
F0.0
s(g5
S'castellii'
p15
tp16
F0.0
s(g6
S'bayanus'
p17
tp18
F0.0
s(S'N0'
p19
g5
tp20
F0.0
s(g11
S'kudriavzevii'
p21
tp22
F0.0
s(g8
S'paradoxus'
p23
tp24
F0.0
s(g19
S'kluyveri'
p25
tp26
F0.0
s(g11
g13
tp27
F0.0
s(g13
S'mikatae'
p28
tp29
F0.0
ssS'ExpectedDwellTime'
p30
(dp31
g7
F7.256324971756446
sg10
F20.299369949080617
sg12
F12.47576694078927
sg14
F13.2332751613276
sg16
F40.50083162731696
sg18
F16.592832378234434
sg20
F0.7566823678690369
sg22
F35.611797858265135
sg24
F14.588928349694553
sg26
F0.0
sg27
F13.159628408051725
sg29
F20.219332811002253
ssS'newicktree'
p32
S'../PairsAlignemt/YeastTree.newick'
p33
sS'll'
p34
cnumpy.core.multiarray
scalar
p35
(cnumpy
dtype
p36
(S'f8'
p37
I0
I1
tp38
Rp39
(I3
S'<'
p40
NNNI-1
I-1
I0
tp41
bS'\xb1\xf6b\xc2)\xe2\x96\xc0'
p42
tp43
Rp44
sS'edge_list'
p45
(lp46
g20
ag26
ag7
ag16
ag12
ag18
ag27
ag22
ag14
ag29
ag10
ag24
asS'edge_to_blen'
p47
(dp48
g7
g35
(g39
S'\x1c\x06\xb8\xd5\xfa\xcd\x81?'
p49
tp50
Rp51
sg10
g35
(g39
S'$\xd19\xba9w\x95?'
p52
tp53
Rp54
sg12
g35
(g39
S'\xad\xa2\xf7\xefw\xbeL?'
p55
tp56
Rp57
sg14
g35
(g39
S'\xb9\xe41&\xbf\x08k?'
p58
tp59
Rp60
sg22
g35
(g39
S'\xbe\x8d\xd5z\x91o\xa6?'
p61
tp62
Rp63
sg18
g35
(g39
S'\x07\x9f_\xb2\xc3\xa3\x92?'
p64
tp65
Rp66
sg20
g35
(g39
S'h\xfa\xc4Q1\xc8N?'
p67
tp68
Rp69
sg16
g35
(g39
S'\xc5\xcb\xa7\x13\xe9g\xb7?'
p70
tp71
Rp72
sg24
g35
(g39
S'\x90\xdc9\xd7h*}?'
p73
tp74
Rp75
sg26
g35
(g39
S'\x1a^\xfa\xf6\x17b\xb6?'
p76
tp77
Rp78
sg27
g35
(g39
S'\xe1\xf0\x05\xa4\xac\xbc\x97>'
p79
tp80
Rp81
sg29
g35
(g39
S"\xea\x02\xee@;'\x9a?"
p82
tp83
Rp84
ssS'paralog'
p85
(lp86
S'YER074W'
p87
aS'YIL069C'
p88
asS'alignment_file'
p89
S'../MafftAlignment/YER074W_YIL069C/YER074W_YIL069C_input.fasta'
p90
sS'x_clock'
p91
NsS'x'
p92
cnumpy.core.multiarray
_reconstruct
p93
(cnumpy
ndarray
p94
(I0
tp95
S'b'
p96
tp97
Rp98
(I1
(I17
tp99
g39
I00
S"\x11>\xc6zu\xf3\xe7\xbf#\x08-\x97L\x11\xdf\xbf^\xc3*\xcb\x8bJ\xea\xbfAI\x98-q\xd1\x04@\x8f4\x13\xd9\xc2\x88\xd5?\xe6\xa2An\x90\xe1\x1b\xc0\x8c\xc7\xc9\x83\xb4~\x03\xc0d\xe1\xa7\xa7\x0b\xfb\x12\xc0\xd5\xbb\xd5%4#\x03\xc0\x85\xf8\xa2n\xb5'\x1c\xc0\xa5\x167{S\x06\x10\xc0*\x06@4\xa7\xb5-\xc00\x9e\xcb\xd0u\x05\t\xc0\xa7\x036~\xf1\xda\x16\xc0Chsi\tW\r\xc0\xf9_]\xa4\x8c\xeb\x0e\xc0\x9c\xb3\x96\xdcr\xc7\x13\xc0"
p100
tp101
bsS'Model'
p102
S'HKY'
p103
sS'clock'
p104
I00
s.