(dp0
S'Force'
p1
(dp2
I5
F0.0
ssS'ExpectedGeneconv'
p3
(dp4
(S'N1'
p5
S'N2'
p6
tp7
F49.22588045024834
s(S'N5'
p8
S'cerevisiae'
p9
tp10
F12.475451148863243
s(g6
S'N3'
p11
tp12
F25.540039843567225
s(S'N4'
p13
g8
tp14
F9.545922806175081
s(g5
S'castellii'
p15
tp16
F50.410283105427965
s(g6
S'bayanus'
p17
tp18
F0.0
s(S'N0'
p19
g5
tp20
F1.3612362032089236
s(g11
S'kudriavzevii'
p21
tp22
F16.806975131279245
s(g8
S'paradoxus'
p23
tp24
F8.409738997110802
s(g19
S'kluyveri'
p25
tp26
F0.0
s(g11
g13
tp27
F8.17048715163449
s(g13
S'mikatae'
p28
tp29
F19.720617253938563
ssS'ExpectedDwellTime'
p30
(dp31
g7
F527.8535141618175
sg10
F752.1724215566142
sg12
F757.8757242108123
sg14
F752.4681803984649
sg16
F541.715842803325
sg18
F0.0
sg20
F91.25825855932595
sg22
F756.666718751261
sg24
F749.5608191545068
sg26
F0.0
sg27
F753.496990530762
sg29
F761.1148917647818
ssS'newicktree'
p32
S'../PairsAlignemt/YeastTree.newick'
p33
sS'll'
p34
cnumpy.core.multiarray
scalar
p35
(cnumpy
dtype
p36
(S'f8'
p37
I0
I1
tp38
Rp39
(I3
S'<'
p40
NNNI-1
I-1
I0
tp41
bS'\xf8\x14\xdd\x10\xb5\\\xbf\xc0'
p42
tp43
Rp44
sS'edge_list'
p45
(lp46
g20
ag26
ag7
ag16
ag12
ag18
ag27
ag22
ag14
ag29
ag10
ag24
asS'edge_to_blen'
p47
(dp48
g7
g35
(g39
S'c\xcf\x85\xa2\xdc\xe8\xd9?'
p49
tp50
Rp51
sg10
g35
(g39
S")\xac'\x03\xa46\xb2?"
p52
tp53
Rp54
sg12
g35
(g39
S'\xa7\th\x0c\x89\xba\xbd?'
p55
tp56
Rp57
sg14
g35
(g39
S'\xd3\xf3\xe7|\x94\x0e\xa5?'
p58
tp59
Rp60
sg22
g35
(g39
S'\xe2\xb6t\x1b\x98\x18\xb5?'
p61
tp62
Rp63
sg18
g35
(g39
S'\x00\x00\x00\x00\x00\x00\x00\x00'
p64
tp65
Rp66
sg20
g35
(g39
S'\xa5\x0b\xf8\xdfLF\xaf?'
p67
tp68
Rp69
sg16
g35
(g39
S'E\xab\x98\xd5\xd6\xb6\xda?'
p70
tp71
Rp72
sg24
g35
(g39
S"'/\x1byH\xaf\xa8?"
p73
tp74
Rp75
sg26
g35
(g39
S'\xa1\xc4\xce\x94\xd4\x0c\xdb?'
p76
tp77
Rp78
sg27
g35
(g39
S'%\r\xb9,\xe6b\xa8?'
p79
tp80
Rp81
sg29
g35
(g39
S'k\xafY\xd7w\x86\xb9?'
p82
tp83
Rp84
ssS'paralog'
p85
(lp86
S'YLR284C'
p87
aS'YOR180C'
p88
asS'alignment_file'
p89
S'../MafftAlignment/YLR284C_YOR180C/YLR284C_YOR180C_input.fasta'
p90
sS'x_clock'
p91
NsS'x'
p92
cnumpy.core.multiarray
_reconstruct
p93
(cnumpy
ndarray
p94
(I0
tp95
S'b'
p96
tp97
Rp98
(I1
(I17
tp99
g39
I00
S"4\xfcD\x03%\x8b\xe5\xbf\x83\x0b\xf2\x16z\xcb\xe1\xbf\xcdJ\x18\xd38\x9b\xec\xbfs\x18\xf3$\xd2\xf5\xf3?I\x10[\x17\x1f\x9a\xf6\xbfO-\x87\x8d8]\x06\xc0\x10ZP\xdf\xe1\x8e\xeb\xbf,\x85<M\xc5\xef\xec\xbfy\x12/\xf1>\xf5\xeb\xbf\xfbF:\xb7z9\x01\xc0\x15U\xb5\xbb\xb1k\x12\xc0d\xfb\x04\x11\xbbZ\x08\xc0\xdc\xf2e]\xfe\xf7\x03\xc0\xfe\x14\x89/\\\x87\t\xc0\x91Br\x85\xaeq\x02\xc0:\t\x9fp\xe6$\x05\xc0\x13I\n'\xd3A\x08\xc0"
p100
tp101
bsS'Model'
p102
S'HKY'
p103
sS'clock'
p104
I00
s.