(dp0
S'Force'
p1
(dp2
I5
F0.0
ssS'ExpectedGeneconv'
p3
(dp4
(S'N1'
p5
S'N2'
p6
tp7
F0.0
s(S'N5'
p8
S'cerevisiae'
p9
tp10
F0.0
s(g6
S'N3'
p11
tp12
F0.0
s(S'N4'
p13
g8
tp14
F0.0
s(g5
S'castellii'
p15
tp16
F0.0
s(g6
S'bayanus'
p17
tp18
F0.0
s(S'N0'
p19
g5
tp20
F0.0
s(g11
S'kudriavzevii'
p21
tp22
F0.0
s(g8
S'paradoxus'
p23
tp24
F0.0
s(g19
S'kluyveri'
p25
tp26
F0.0
s(g11
g13
tp27
F0.0
s(g13
S'mikatae'
p28
tp29
F0.0
ssS'ExpectedDwellTime'
p30
(dp31
g7
F6.377848209276956
sg10
F44.71365634069611
sg12
F15.542851671597962
sg14
F34.71167545802507
sg16
F47.525770487630204
sg18
F14.597232185551306
sg20
F3.228995256199405e-06
sg22
F36.01947526210776
sg24
F48.72026121648893
sg26
F0.0
sg27
F25.02851200693747
sg29
F38.0106535007913
ssS'newicktree'
p32
S'../PairsAlignemt/YeastTree.newick'
p33
sS'll'
p34
cnumpy.core.multiarray
scalar
p35
(cnumpy
dtype
p36
(S'f8'
p37
I0
I1
tp38
Rp39
(I3
S'<'
p40
NNNI-1
I-1
I0
tp41
bS'MnY\xbe\x95\x06\x95\xc0'
p42
tp43
Rp44
sS'edge_list'
p45
(lp46
g20
ag26
ag7
ag16
ag12
ag18
ag27
ag22
ag14
ag29
ag10
ag24
asS'edge_to_blen'
p47
(dp48
g20
g35
(g39
S'\xca[1x\x19\x8cg>'
p49
tp50
Rp51
sg10
g35
(g39
S'\xb4~x\x87\xc9\xc6\xb0?'
p52
tp53
Rp54
sg12
g35
(g39
S'\x99E\xa3\xd4w\xc8\xa0?'
p55
tp56
Rp57
sg14
g35
(g39
S'\x85\x9a\xc9\xcaqJ\xa2?'
p58
tp59
Rp60
sg16
g35
(g39
S' \xc8@c<!\xe1?'
p61
tp62
Rp63
sg18
g35
(g39
S'Dqx\x04p\xac\xa1?'
p64
tp65
Rp66
sg7
g35
(g39
S'~\x0b\x19Y\x89M\xa8?'
p67
tp68
Rp69
sg22
g35
(g39
S'\xfdSJ\xec/\xf5\xb1?'
p70
tp71
Rp72
sg24
g35
(g39
S'\xad-\xb4\x90\xca\x1d\xab?'
p73
tp74
Rp75
sg26
g35
(g39
S'\xfa\xd1hf\x8f\x17\xe1?'
p76
tp77
Rp78
sg27
g35
(g39
S'N_\xc6x\xcb\xa6\xa0?'
p79
tp80
Rp81
sg29
g35
(g39
S'\xaba\xee\xecey\xb2?'
p82
tp83
Rp84
ssS'paralog'
p85
(lp86
S'YLR333C'
p87
aS'YGR027C'
p88
asS'alignment_file'
p89
S'../MafftAlignment/YLR333C_YGR027C/YLR333C_YGR027C_input.fasta'
p90
sS'x_clock'
p91
NsS'x'
p92
cnumpy.core.multiarray
_reconstruct
p93
(cnumpy
ndarray
p94
(I0
tp95
S'b'
p96
tp97
Rp98
(I1
(I18
tp99
g39
I00
S"\x02'\xd6'\xce\xcb\xe6\xbf9\x80\xeca_6\xe1\xbf\\?\x0eOx\x96\xeb\xbf\tQ\xc6\xe38\x0c\xf6?(\xb9G\xe2\xe3\xcd\xfe\xbf\x8f4\x13\xd9\xc2\x88\xd5?\xfb\xe7U\xdc7\xf10\xc0k%\x9fXe\x11\xe4\xbf\x99j\xdc4\xc0a\x08\xc0\xb5\xd1\xae\x01M\xff\xe3\xbf8\x16\x84\xfe\xf7W\x0b\xc0ps\xb6R\x16\xee\n\xc0\xac\xae\xb0@\x15h\x0b\xc0^\xe2Fw\xdaA\x05\xc0d'\x0e\x13\xc9\xa7\n\xc0\xc6\xc5\xce)\xc9\x07\x05\xc0 W\xbae4\xcd\x05\xc0\t<\xaf'h\x81\x07\xc0"
p100
tp101
bsS'Model'
p102
S'MG94'
p103
sS'clock'
p104
I00
s.