(dp0
S'Force'
p1
NsS'ExpectedGeneconv'
p2
(dp3
(S'N1'
p4
S'N2'
p5
tp6
F29.865751875431542
s(S'N5'
p7
S'cerevisiae'
p8
tp9
F7.222690610451768
s(g5
S'N3'
p10
tp11
F6.375174479176547
s(S'N4'
p12
g7
tp13
F4.605513316440756
s(g4
S'castellii'
p14
tp15
F44.65459678117663
s(g5
S'bayanus'
p16
tp17
F18.350852281346135
s(S'N0'
p18
g4
tp19
F33.46280051878546
s(g10
S'kudriavzevii'
p20
tp21
F12.884231993519075
s(g7
S'paradoxus'
p22
tp23
F1.7334442699805401
s(g18
S'kluyveri'
p24
tp25
F0.0
s(g10
g12
tp26
F2.0079284310715164
s(g12
S'mikatae'
p27
tp28
F7.9992426059621256
ssS'ExpectedDwellTime'
p29
(dp30
g6
F134.86796708380848
sg9
F150.32720962498738
sg11
F146.05755913032303
sg13
F144.6120796226124
sg15
F125.82374425733252
sg17
F147.01701920489643
sg19
F73.66090253964751
sg21
F155.1724398577362
sg23
F145.77228669991104
sg25
F0.0
sg26
F144.40006800177062
sg28
F155.37671699374064
ssS'newicktree'
p31
S'../PairsAlignemt/YeastTree.newick'
p32
sS'll'
p33
cnumpy.core.multiarray
scalar
p34
(cnumpy
dtype
p35
(S'f8'
p36
I0
I1
tp37
Rp38
(I3
S'<'
p39
NNNI-1
I-1
I0
tp40
bS'\x88\xf3^\xf7\xd8\x15\xa3\xc0'
p41
tp42
Rp43
sS'edge_list'
p44
(lp45
g19
ag25
ag6
ag15
ag11
ag17
ag26
ag21
ag13
ag28
ag9
ag23
asS'edge_to_blen'
p46
(dp47
g6
g34
(g38
S'\x8c\xfe\xb71\xaff\xa6?'
p48
tp49
Rp50
sg9
g34
(g38
S'M\xe4%\xa2M\x1a\x87?'
p51
tp52
Rp53
sg11
g34
(g38
S'n\x8f\xda}a\xf3|?'
p54
tp55
Rp56
sg13
g34
(g38
S'F$\x8bk\xc1\xf4z?'
p57
tp58
Rp59
sg21
g34
(g38
S'\x82\xd6X\x9a\xd7R\x96?'
p60
tp61
Rp62
sg17
g34
(g38
S'!\xbb\xcc\xc4e\xbe\x95?'
p63
tp64
Rp65
sg19
g34
(g38
S'\x97\xf1K\xc6\xdf\xcd\xb6?'
p66
tp67
Rp68
sg15
g34
(g38
S'\xe0~\xf6\xc2W\xce\xac?'
p69
tp70
Rp71
sg23
g34
(g38
S'\x8e\x10\xfc\x0c\x166f?'
p72
tp73
Rp74
sg25
g34
(g38
S'\xf4{\xa8\xf9\xda\xd8\xe7>'
p75
tp76
Rp77
sg26
g34
(g38
S'L\xc9i&\xae\xb1a?'
p78
tp79
Rp80
sg28
g34
(g38
S'6\x16\x80\x9d\xebZ\x91?'
p81
tp82
Rp83
ssS'paralog'
p84
(lp85
S'YNL069C'
p86
aS'YIL133C'
p87
asS'alignment_file'
p88
S'../MafftAlignment/YNL069C_YIL133C/YNL069C_YIL133C_input.fasta'
p89
sS'x_clock'
p90
NsS'x'
p91
cnumpy.core.multiarray
_reconstruct
p92
(cnumpy
ndarray
p93
(I0
tp94
S'b'
p95
tp96
Rp97
(I1
(I17
tp98
g38
I00
S'*\x8c\xb0\x84\x1f\xe6\xe7\xbff/5i\xd7\xce\xe1\xbf\xc1+\xad{Q\xc1\xea\xbf]\x7f\x86Q\xf1\xda\xff?\x8b\n\xf75I\x1e\xfa?\xf6;\x9e}\x8aX\x03\xc04zN\xd1\xd3\xc4&\xc0\x01\x0eHd\xa1\x08\t\xc0L\xb4\xca\x8c\x9c\x05\x07\xc0\x8ft\xfc\x0f\x06\xcf\x13\xc0\x93\xe6\x19\xdd1\xd1\x0e\xc0\x19\xf1D\x13\xfd\x8c\x18\xc0d,\x0bVK\x9b\x0e\xc0\xdfS*p\x1f\x18\x14\xc0\x81\xbf\x8b\xacqO\x10\xc0^NA\xaaL\xf0\x11\xc0\xb0\x9e\xdd.)\xa4\x17\xc0'
p99
tp100
bsS'Model'
p101
S'HKY'
p102
sS'clock'
p103
I00
s.