(dp0
S'Force'
p1
NsS'ExpectedGeneconv'
p2
(dp3
(S'N1'
p4
S'N2'
p5
tp6
F25.061671722231512
s(S'N5'
p7
S'cerevisiae'
p8
tp9
F6.147114252196598
s(g5
S'N3'
p10
tp11
F4.5391437207639775
s(S'N4'
p12
g7
tp13
F3.1814689137084
s(g4
S'castellii'
p14
tp15
F38.316920992382876
s(g5
S'bayanus'
p16
tp17
F11.638636089867695
s(S'N0'
p18
g4
tp19
F27.841853350521014
s(g10
S'kudriavzevii'
p20
tp21
F7.30133538611003
s(g7
S'paradoxus'
p22
tp23
F8.019895202027113
s(g18
S'kluyveri'
p24
tp25
F0.0
s(g10
g12
tp26
F7.143421455659981
s(g12
S'mikatae'
p27
tp28
F10.143402638810425
ssS'ExpectedDwellTime'
p29
(dp30
g6
F80.38022076933242
sg9
F84.10562658129584
sg11
F89.70280234220368
sg13
F85.43301514606472
sg15
F76.59813604062172
sg17
F78.39599957040008
sg19
F44.50999384898972
sg21
F100.90071151177054
sg23
F81.40722231294193
sg25
F0.0
sg26
F90.51996788196372
sg28
F88.26341537019513
ssS'newicktree'
p31
S'../PairsAlignemt/YeastTree.newick'
p32
sS'll'
p33
cnumpy.core.multiarray
scalar
p34
(cnumpy
dtype
p35
(S'f8'
p36
I0
I1
tp37
Rp38
(I3
S'<'
p39
NNNI-1
I-1
I0
tp40
bS'\xfc\xa0\x19=\xd7\x8f\x9e\xc0'
p41
tp42
Rp43
sS'edge_list'
p44
(lp45
g19
ag25
ag6
ag15
ag11
ag17
ag26
ag21
ag13
ag28
ag9
ag23
asS'edge_to_blen'
p46
(dp47
g6
g34
(g38
S'G^\x00/\xef9\xa0?'
p48
tp49
Rp50
sg9
g34
(g38
S'\xa0\xfb\x866f\xf3~?'
p51
tp52
Rp53
sg11
g34
(g38
S'\x1a\x95u\xd1\xab\xa9{?'
p54
tp55
Rp56
sg13
g34
(g38
S'\xbaBp<\xbbHc?'
p57
tp58
Rp59
sg21
g34
(g38
S'\x8bF\xc9<\xbc\x1f\x87?'
p60
tp61
Rp62
sg17
g34
(g38
S'\x11^&ij\xd1\x84?'
p63
tp64
Rp65
sg19
g34
(g38
S'\xa5w@\x1a\xc4\xc3\xaf?'
p66
tp67
Rp68
sg15
g34
(g38
S'ia\x00\xcd9\xd4\xa8?'
p69
tp70
Rp71
sg23
g34
(g38
S'1\xaa+\x97[\xf2\x82?'
p72
tp73
Rp74
sg25
g34
(g38
S'\xefyW]\x1eZ\x8d?'
p75
tp76
Rp77
sg26
g34
(g38
S'?\xf9\xa7k\xd0\xady?'
p78
tp79
Rp80
sg28
g34
(g38
S"\xc7\xfa'\xb7s\xc0\x87?"
p81
tp82
Rp83
ssS'paralog'
p84
(lp85
S'YJL177W'
p86
aS'YKL180W'
p87
asS'alignment_file'
p88
S'../MafftAlignment/YJL177W_YKL180W/YJL177W_YKL180W_input.fasta'
p89
sS'x_clock'
p90
NsS'x'
p91
cnumpy.core.multiarray
_reconstruct
p92
(cnumpy
ndarray
p93
(I0
tp94
S'b'
p95
tp96
Rp97
(I1
(I17
tp98
g38
I00
S'\xce\xa0\xf5\x14\x85\xbe\xe7\xbf\xa3\x872m\x1f\xd2\xde\xbf\xa43a\xaeP*\xe7\xbf&\x86Z\x86\xda9\x01@\xf2a\x88w\x9d\x85\x02@\x83\xecm6`=\x06\xc0\x00\x1e\xca\xc2$\xfb\x10\xc0\xa0\xd9}\x1b\x10\x9d\x0b\xc04\xfdx\x13\xe35\x08\xc0J \xe0h\x9f\xfd\x13\xc0 c\xf4D\xeeZ\x12\xc0\x890\x18\x0b\xd3I\x14\xc0\xc0\xab\xc7\x01\\\xef\x11\xc0\x9cV\x0c\t\xdf4\x18\xc0\xfe\x96^\xe0\xed\xd3\x11\xc0\xbb\x0c\xe5\xe9\x9d\x8a\x13\xc0\x95\xdb\x86ba\xbb\x12\xc0'
p99
tp100
bsS'Model'
p101
S'HKY'
p102
sS'clock'
p103
I00
s.