(dp0
S'Force'
p1
NsS'ExpectedGeneconv'
p2
(dp3
(S'N1'
p4
S'N2'
p5
tp6
F15.598353460112888
s(S'N5'
p7
S'cerevisiae'
p8
tp9
F13.687290016010051
s(g5
S'N3'
p10
tp11
F3.730597895284269
s(S'N4'
p12
g7
tp13
F3.9815303341591504
s(g4
S'castellii'
p14
tp15
F33.59052366368819
s(g5
S'bayanus'
p16
tp17
F23.099788129508934
s(S'N0'
p18
g4
tp19
F28.644821648619665
s(g10
S'kudriavzevii'
p20
tp21
F12.066418980379016
s(g7
S'paradoxus'
p22
tp23
F4.783186831213161
s(g18
S'kluyveri'
p24
tp25
F0.0
s(g10
g12
tp26
F4.48143123649976
s(g12
S'mikatae'
p27
tp28
F7.73926118060966
ssS'ExpectedDwellTime'
p29
(dp30
g6
F61.03294168096822
sg9
F55.41417983876781
sg11
F64.46944320921257
sg13
F64.95161804779147
sg15
F50.41933499276922
sg17
F46.222810646408064
sg19
F34.19076324155543
sg21
F61.62675964780669
sg23
F61.609324124310675
sg25
F0.0
sg26
F66.59635283513877
sg28
F73.20865854332922
ssS'newicktree'
p31
S'../PairsAlignemt/YeastTree.newick'
p32
sS'll'
p33
cnumpy.core.multiarray
scalar
p34
(cnumpy
dtype
p35
(S'f8'
p36
I0
I1
tp37
Rp38
(I3
S'<'
p39
NNNI-1
I-1
I0
tp40
bS'&`\xfc^\x1f\xf7\x96\xc0'
p41
tp42
Rp43
sS'edge_list'
p44
(lp45
g19
ag25
ag6
ag15
ag11
ag17
ag26
ag21
ag13
ag28
ag9
ag23
asS'edge_to_blen'
p46
(dp47
g6
g34
(g38
S'\xe20k\x9bw\xf1\x95?'
p48
tp49
Rp50
sg9
g34
(g38
S'\xa9\xc3Y\xb8\x19\xb3\x8d?'
p51
tp52
Rp53
sg11
g34
(g38
S'!\x08\xb6\xfe\xf7\x10v?'
p54
tp55
Rp56
sg13
g34
(g38
S'\xd8n\xa5G\xdf\xdaj?'
p57
tp58
Rp59
sg21
g34
(g38
S'\xbb\xd5zoj\xec\x8c?'
p60
tp61
Rp62
sg17
g34
(g38
S'<\x84\xae\xad\x12|\x97?'
p63
tp64
Rp65
sg19
g34
(g38
S'\x01\x12\xaciL\xd7\xb1?'
p66
tp67
Rp68
sg15
g34
(g38
S'\xa6\xe3\xd8P\x05\xcd\xa5?'
p69
tp70
Rp71
sg23
g34
(g38
S'\xe8\x95\xd0\x0f\xf4\x8by?'
p72
tp73
Rp74
sg25
g34
(g38
S'\xd1\xc9\xe7\xf0\xec\xd5\x8d>'
p75
tp76
Rp77
sg26
g34
(g38
S'\x9d\x9btN\xd5\xeex?'
p78
tp79
Rp80
sg28
g34
(g38
S'E\x8f\x99\xed(U\x8a?'
p81
tp82
Rp83
ssS'paralog'
p84
(lp85
S'YBL087C'
p86
aS'YER117W'
p87
asS'alignment_file'
p88
S'../MafftAlignment/YBL087C_YER117W/YBL087C_YER117W_input.fasta'
p89
sS'x_clock'
p90
NsS'x'
p91
cnumpy.core.multiarray
_reconstruct
p92
(cnumpy
ndarray
p93
(I0
tp94
S'b'
p95
tp96
Rp97
(I1
(I17
tp98
g38
I00
S'fyT\x8f\xc9\xc0\xe8\xbfl\xf0D\xeb\x12.\xe5\xbf+\xb5\xaf\xa5f\x98\xec\xbf\xadj\xa5\xb9\x07\x1b\x03@]\x94\xcb\x8d\xbc\x13\x05@\x81\x02\xc4C6O\x05\xc0*\x12y[w\xa3.\xc0\xda\xce\x91\xa4}\xbe\x0e\xc0\x88\xf8a\x96A@\t\xc0\x1b:\x9c\xa1\x15\xe5\x14\xc0u\x02\xefft3\x0e\xc0\x05\xa0\xff\x9a\x03h\x14\xc0y\xb6K)4\n\x11\xc0\xdaSE\xe9\xc0\xe1\x16\xc0$\xdbW\xf2Lj\x11\xc0\x1ea2\xb3\x16\xef\x10\xc0\xa4\x18\x91\xcc\x1cO\x14\xc0'
p99
tp100
bsS'Model'
p101
S'HKY'
p102
sS'clock'
p103
I00
s.