(dp0
S'Force'
p1
NsS'ExpectedGeneconv'
p2
(dp3
(S'N1'
p4
S'N2'
p5
tp6
F157.64946618593768
s(S'N5'
p7
S'cerevisiae'
p8
tp9
F52.50519479761783
s(g5
S'N3'
p10
tp11
F24.433848164783015
s(S'N4'
p12
g7
tp13
F27.19894048070207
s(g4
S'castellii'
p14
tp15
F285.9219614865823
s(g5
S'bayanus'
p16
tp17
F62.99702561059171
s(S'N0'
p18
g4
tp19
F49.626631538798684
s(g10
S'kudriavzevii'
p20
tp21
F62.71482383500773
s(g7
S'paradoxus'
p22
tp23
F38.59653923982056
s(g18
S'kluyveri'
p24
tp25
F0.0
s(g10
g12
tp26
F36.60728960455026
s(g12
S'mikatae'
p27
tp28
F67.76701475733275
ssS'ExpectedDwellTime'
p29
(dp30
g6
F1408.93402776053
sg9
F1836.8619178994584
sg11
F1725.3378095571386
sg13
F1809.9114398267038
sg15
F1573.9468719418558
sg17
F1727.4028140843172
sg19
F576.403764233671
sg21
F1785.5810068670967
sg23
F1825.7072080412358
sg25
F0.0
sg26
F1766.9281090283405
sg28
F1793.4170790712185
ssS'newicktree'
p31
S'../PairsAlignemt/YeastTree.newick'
p32
sS'll'
p33
cnumpy.core.multiarray
scalar
p34
(cnumpy
dtype
p35
(S'f8'
p36
I0
I1
tp37
Rp38
(I3
S'<'
p39
NNNI-1
I-1
I0
tp40
bS'0Y\xb6n~{\xd4\xc0'
p41
tp42
Rp43
sS'edge_list'
p44
(lp45
g19
ag25
ag6
ag15
ag11
ag17
ag26
ag21
ag13
ag28
ag9
ag23
asS'edge_to_blen'
p46
(dp47
g6
g34
(g38
S'\xfe\xf4\x1e\x9d\xc5\xaa\xc6?'
p48
tp49
Rp50
sg9
g34
(g38
S'=\x0c\x17T\xd5\x1e\xa8?'
p51
tp52
Rp53
sg11
g34
(g38
S'@s\x9c\xa6\x81q\x9a?'
p54
tp55
Rp56
sg13
g34
(g38
S'v\xa0(D\r\xc5\x9b?'
p57
tp58
Rp59
sg21
g34
(g38
S'\x82\xa4 r\t\xfc\xaf?'
p60
tp61
Rp62
sg17
g34
(g38
S'\xde)\x96\x00K7\xad?'
p63
tp64
Rp65
sg19
g34
(g38
S'\xb0i\x0e1\x90\xfe\xc1?'
p66
tp67
Rp68
sg15
g34
(g38
S'\xe0s*\x7f\xbb\xfd\xd2?'
p69
tp70
Rp71
sg23
g34
(g38
S'\xc4\xebA\x07%\x00\xa0?'
p72
tp73
Rp74
sg28
g34
(g38
S'A\x965\xc2\xc9^\xaf?'
p75
tp76
Rp77
sg26
g34
(g38
S'\xf8v>t3\xc9\xa2?'
p78
tp79
Rp80
sg25
g34
(g38
S'+\x8aAD\xde|\xc2?'
p81
tp82
Rp83
ssS'paralog'
p84
(lp85
S'YNL049C'
p86
aS'YIL109C'
p87
asS'alignment_file'
p88
S'../MafftAlignment/YNL049C_YIL109C/YNL049C_YIL109C_input.fasta'
p89
sS'x_clock'
p90
NsS'x'
p91
cnumpy.core.multiarray
_reconstruct
p92
(cnumpy
ndarray
p93
(I0
tp94
S'b'
p95
tp96
Rp97
(I1
(I17
tp98
g38
I00
S'\x10\x18\x92&\xfb?\xe7\xbf\x84{n0\xc1\xc5\xde\xbfP\xbd\xe8\x98\x8f2\xeb\xbf\x1a\xdcM\xacR\xdb\xf4?\xfe\xc6#\xad\x03\xa2\xdf\xbf/jx\x05;d\xff\xbf\xbe\tE\xbeo\xf5\xfe\xbf\xe6\x9f\xb5n\xa7\xb2\xfb\xbfWn[\xe6Ep\xf3\xbf\xe2\xbf\xc8"q@\r\xc0\x0c\x9c\x11\x96\xab\xe8\x06\xc0\xd8\x8a\xcb\xff\x14q\n\xc0\x1b%(\xb2@/\x06\xc0J\x08\xe8\x1d6\xdc\x0c\xc0y\x08\xc6m\xf7V\x06\xc0\xde\x17\x96\xb9.q\x08\xc0\xcd>-;\xc1\xb9\x0b\xc0'
p99
tp100
bsS'Model'
p101
S'HKY'
p102
sS'clock'
p103
I00
s.