(dp0
S'Force'
p1
NsS'ExpectedGeneconv'
p2
(dp3
(S'N1'
p4
S'N2'
p5
tp6
F22.49081495536942
s(S'N5'
p7
S'cerevisiae'
p8
tp9
F2.323272791361592
s(g5
S'N3'
p10
tp11
F4.941196997336477
s(S'N4'
p12
g7
tp13
F4.169541606172305
s(g4
S'castellii'
p14
tp15
F21.718311601747185
s(g5
S'bayanus'
p16
tp17
F7.646968270634349
s(S'N0'
p18
g4
tp19
F26.40918183615143
s(g10
S'kudriavzevii'
p20
tp21
F14.737810521026937
s(g7
S'paradoxus'
p22
tp23
F6.3359721046176904
s(g18
S'kluyveri'
p24
tp25
F0.0
s(g10
g12
tp26
F5.308381615135521
s(g12
S'mikatae'
p27
tp28
F17.1622261455204
ssS'ExpectedDwellTime'
p29
(dp30
g6
F57.561939374787606
sg9
F54.43074565559554
sg11
F59.16124503665317
sg13
F53.755023526029305
sg15
F52.872922716372834
sg17
F55.83571117713938
sg19
F32.4371798112171
sg21
F61.23554888441765
sg23
F50.319961663860646
sg25
F0.0
sg26
F56.37341822161093
sg28
F47.83844670081868
ssS'newicktree'
p31
S'../PairsAlignemt/YeastTree.newick'
p32
sS'll'
p33
cnumpy.core.multiarray
scalar
p34
(cnumpy
dtype
p35
(S'f8'
p36
I0
I1
tp37
Rp38
(I3
S'<'
p39
NNNI-1
I-1
I0
tp40
bS'\\y\xe9\xe6\x13<\x98\xc0'
p41
tp42
Rp43
sS'edge_list'
p44
(lp45
g19
ag25
ag6
ag15
ag11
ag17
ag26
ag21
ag13
ag28
ag9
ag23
asS'edge_to_blen'
p46
(dp47
g6
g34
(g38
S'\xb3EY\x86EU\x9c?'
p48
tp49
Rp50
sg9
g34
(g38
S'\x9b{u\xf5Eym?'
p51
tp52
Rp53
sg11
g34
(g38
S",'\x88\xeb\xd0\nu?"
p54
tp55
Rp56
sg13
g34
(g38
S'@\xc8\xe4\xd7\xa2\\t?'
p57
tp58
Rp59
sg21
g34
(g38
S"'\xa5\xa3\x10Q\x12\x94?"
p60
tp61
Rp62
sg17
g34
(g38
S'V\x1e\x14\x90\x13p{?'
p63
tp64
Rp65
sg19
g34
(g38
S'\xc7\x83\xfc\x7f\xb3\xd2\xac?'
p66
tp67
Rp68
sg15
g34
(g38
S'e\x10\x16\xeb\x8e"\x9b?'
p69
tp70
Rp71
sg23
g34
(g38
S'W& E\x9a\xc7y?'
p72
tp73
Rp74
sg25
g34
(g38
S'\xb4l8\x1a\xbe\x0b\xb1>'
p75
tp76
Rp77
sg26
g34
(g38
S'\xfe\x8b \xe5$wu?'
p78
tp79
Rp80
sg28
g34
(g38
S'\xe5/\xf1\xbb{\x1f\x92?'
p81
tp82
Rp83
ssS'paralog'
p84
(lp85
S'YBR191W'
p86
aS'YPL079W'
p87
asS'alignment_file'
p88
S'../MafftAlignment/YBR191W_YPL079W/YBR191W_YPL079W_input.fasta'
p89
sS'x_clock'
p90
NsS'x'
p91
cnumpy.core.multiarray
_reconstruct
p92
(cnumpy
ndarray
p93
(I0
tp94
S'b'
p95
tp96
Rp97
(I1
(I17
tp98
g38
I00
S')\xf5\xb0\x80\xe5\xd7\xe7\xbfa\xfd?*\x1d\\\xe0\xbf\xfb\x11ru\x0f\xae\xe9\xbfj\xf7\xf8M;\x97\x03@\xcfX\x9d\xa3\xb3\xe7\x05@\xf2xm\xc7f\x04\x07\xc0\xf6\xed)_h\x99+\xc0\x07\x9d\x85s\x14\xb3\x0c\xc0:\xd1F\xfe\x90\x0b\r\xc0\x97\xbe\x12R\xbe\x15\x15\xc0\xc0I; \xfc\x05\x14\xc0\xde\t\xb9\xf3Z\x01\x15\xc0\x8d\x88\x92\xba\x14u\x0f\xc0\x17\x8eK\xaef7\x15\xc0\xb9Ao+\x1d#\x10\xc0,hT\xdex\x82\x16\xc0\xe0\xa3(\xb0\xd0E\x14\xc0'
p99
tp100
bsS'Model'
p101
S'HKY'
p102
sS'clock'
p103
I00
s.