(dp0
S'Force'
p1
NsS'ExpectedGeneconv'
p2
(dp3
(S'N1'
p4
S'N2'
p5
tp6
F205.7339332529714
s(S'N5'
p7
S'cerevisiae'
p8
tp9
F37.85309911202081
s(g5
S'N3'
p10
tp11
F29.531787424201625
s(S'N4'
p12
g7
tp13
F23.40594476078687
s(g4
S'castellii'
p14
tp15
F295.09517388364935
s(g5
S'bayanus'
p16
tp17
F60.658286126826745
s(S'N0'
p18
g4
tp19
F34.929143579251104
s(g10
S'kudriavzevii'
p20
tp21
F48.17185285109703
s(g7
S'paradoxus'
p22
tp23
F30.05680501078119
s(g18
S'kluyveri'
p24
tp25
F0.0
s(g10
g12
tp26
F19.71881873678159
s(g12
S'mikatae'
p27
tp28
F54.07982270154265
ssS'ExpectedDwellTime'
p29
(dp30
g6
F1797.97587533693
sg9
F2281.2305477499012
sg11
F2229.0074171481733
sg13
F2280.4292213426106
sg15
F1909.2142133672046
sg17
F2242.0225665916983
sg19
F651.8169115156853
sg21
F2247.80079696648
sg23
F2275.2379046696724
sg25
F0.0
sg26
F2261.281983378437
sg28
F2302.174649497504
ssS'newicktree'
p31
S'../PairsAlignemt/YeastTree.newick'
p32
sS'll'
p33
cnumpy.core.multiarray
scalar
p34
(cnumpy
dtype
p35
(S'f8'
p36
I0
I1
tp37
Rp38
(I3
S'<'
p39
NNNI-1
I-1
I0
tp40
bS"b\xaa\xc4\xca\x0e'\xd7\xc0"
p41
tp42
Rp43
sS'edge_list'
p44
(lp45
g19
ag25
ag6
ag15
ag11
ag17
ag26
ag21
ag13
ag28
ag9
ag23
asS'edge_to_blen'
p46
(dp47
g6
g34
(g38
S'\x83\xd3d\x10+\xf8\xd4?'
p48
tp49
Rp50
sg9
g34
(g38
S'1\xd5\xff\xb7\xb3\x8a\xaa?'
p51
tp52
Rp53
sg11
g34
(g38
S'\xa7\xf2,[0\x10\xa4?'
p54
tp55
Rp56
sg13
g34
(g38
S'0n#\xbb89\xa1?'
p57
tp58
Rp59
sg21
g34
(g38
S'\xd9\x1eP\x18\xb4\x9b\xb0?'
p60
tp61
Rp62
sg17
g34
(g38
S'O\xc2\xf2fv\xc7\xb3?'
p63
tp64
Rp65
sg19
g34
(g38
S'\xeb(\xc9\xeb\x84$\xc4?'
p66
tp67
Rp68
sg15
g34
(g38
S'Q\xf8\xa2\xc5\x84\xff\xdb?'
p69
tp70
Rp71
sg23
g34
(g38
S'"$\xd6\xee\x1a\xe5\xa3?'
p72
tp73
Rp74
sg25
g34
(g38
S'\x8c\xe6\x82\x9e\x82\xbe\xd3?'
p75
tp76
Rp77
sg26
g34
(g38
S'f\xf4\x0c\xe4/\x0f\x9f?'
p78
tp79
Rp80
sg28
g34
(g38
S'*\xde\x18\xc3w\xad\xb4?'
p81
tp82
Rp83
ssS'paralog'
p84
(lp85
S'YIR033W'
p86
aS'YKL020C'
p87
asS'alignment_file'
p88
S'../MafftAlignment/YIR033W_YKL020C/YIR033W_YKL020C_input.fasta'
p89
sS'x_clock'
p90
NsS'x'
p91
cnumpy.core.multiarray
_reconstruct
p92
(cnumpy
ndarray
p93
(I0
tp94
S'b'
p95
tp96
Rp97
(I1
(I17
tp98
g38
I00
S'\x15\x1d$\xcb\x03:\xe6\xbfF+\xc1\x1c\xfa}\xdd\xbfR.\x86g\xc9X\xeb\xbf\x8d@,)\x97\x8c\xf4?\xc6\xeb\xaa\x05\xa7G\xf1\xbf>>\x7f\xeeH\x96\xfd\xbf3\xe3M\xd8\xfe\xd0\xf2\xbf5\x80+\x83d\xda\xf1\xbfC\xb8\xb6u\xb3t\xea\xbf^\xd3\xb0!]\xea\t\xc00\x07\xad&\x01|\x04\xc0g\x85\xb4\xd6\xee\xf6\x0b\xc0K\xba\x93k\xda\xe1\x05\xc0\x17\xaf}c\xea"\x0b\xc0wN\xf1\xaf\x06!\x04\xc0<nh\xa6D\xad\x07\xc0\x9b\xc5X\x8b\x9d\xfb\t\xc0'
p99
tp100
bsS'Model'
p101
S'HKY'
p102
sS'clock'
p103
I00
s.