(dp0
S'Force'
p1
NsS'ExpectedGeneconv'
p2
(dp3
(S'N1'
p4
S'N2'
p5
tp6
F64.41292972971331
s(S'N5'
p7
S'cerevisiae'
p8
tp9
F13.62825959446781
s(g5
S'N3'
p10
tp11
F12.591233305256683
s(S'N4'
p12
g7
tp13
F8.328430887070535
s(g4
S'castellii'
p14
tp15
F79.53546729206865
s(g5
S'bayanus'
p16
tp17
F18.749985784660474
s(S'N0'
p18
g4
tp19
F11.19218232397131
s(g10
S'kudriavzevii'
p20
tp21
F24.220999167858025
s(g7
S'paradoxus'
p22
tp23
F8.235247601607446
s(g18
S'kluyveri'
p24
tp25
F0.0
s(g10
g12
tp26
F17.23298700788437
s(g12
S'mikatae'
p27
tp28
F25.368223172610943
ssS'ExpectedDwellTime'
p29
(dp30
g6
F530.2552627259734
sg9
F675.8572157774316
sg11
F682.8492317120373
sg13
F671.3322049487422
sg15
F525.230371145067
sg17
F696.409551949639
sg19
F182.171169726404
sg21
F693.7632640620329
sg23
F678.204983484846
sg25
F0.0
sg26
F675.955160713356
sg28
F666.9507585308959
ssS'newicktree'
p31
S'../PairsAlignemt/YeastTree.newick'
p32
sS'll'
p33
cnumpy.core.multiarray
scalar
p34
(cnumpy
dtype
p35
(S'f8'
p36
I0
I1
tp37
Rp38
(I3
S'<'
p39
NNNI-1
I-1
I0
tp40
bS'\xa0\xfc\x16\xd3>%\xbd\xc0'
p41
tp42
Rp43
sS'edge_list'
p44
(lp45
g19
ag25
ag6
ag15
ag11
ag17
ag26
ag21
ag13
ag28
ag9
ag23
asS'edge_to_blen'
p46
(dp47
g6
g34
(g38
S'\xf4\x04I\x06?\xbb\xd0?'
p48
tp49
Rp50
sg9
g34
(g38
S'\xd7\x1a\x8b\x12?\xc0\xa5?'
p51
tp52
Rp53
sg11
g34
(g38
S'tJ\xbftsu\xa5?'
p54
tp55
Rp56
sg13
g34
(g38
S'\x0c\xa5\xf6)w\xa1\xa0?'
p57
tp58
Rp59
sg21
g34
(g38
S'\xe5\xb3\x0c\xf3\xe8g\xb2?'
p60
tp61
Rp62
sg17
g34
(g38
S'\xdf\x12\xe7\x94\x9d\x93\xb1?'
p63
tp64
Rp65
sg19
g34
(g38
S'\xee!YC\x9b\x9f\xc0?'
p66
tp67
Rp68
sg15
g34
(g38
S'ts4"Sw\xd3?'
p69
tp70
Rp71
sg23
g34
(g38
S'\xfb\xc1\x96\xa7t\x10\x9d?'
p72
tp73
Rp74
sg25
g34
(g38
S'\x10\xe7\xb1\x05,F\xc6?'
p75
tp76
Rp77
sg26
g34
(g38
S'p\xd5\xe8\xd9\x93\x82\xa4?'
p78
tp79
Rp80
sg28
g34
(g38
S'D\xf5\x974\xe2\xac\xb3?'
p81
tp82
Rp83
ssS'paralog'
p84
(lp85
S'YBR024W'
p86
aS'YBR037C'
p87
asS'alignment_file'
p88
S'../MafftAlignment/YBR024W_YBR037C/YBR024W_YBR037C_input.fasta'
p89
sS'x_clock'
p90
NsS'x'
p91
cnumpy.core.multiarray
_reconstruct
p92
(cnumpy
ndarray
p93
(I0
tp94
S'b'
p95
tp96
Rp97
(I1
(I17
tp98
g38
I00
S'Nk\xdd\xd3\xde\x05\xe6\xbf\x02\xeae\xfaX\x8c\xe1\xbf\x9d_2\xc8]N\xeb\xbfL/O\x18\xb9\x1d\xf4?\xbd\x0e\xa37i\xcd\xe7\xbfB:z\x9ahT\x00\xc0g\x7f\x06\x88I\xfa\xfb\xbfYBFX+w\xf5\xbf\xef\x8b\x01\x81\x17\x0b\xf3\xbf\xd0\xcd\xb48\xa5`\t\xc0\x04t\xe9\xd8\xc9m\x05\xc0\x95\x01S\xc7@\xbd\t\xc0\xf7\x0c\xe0r_\x0f\x05\xc0\xa7\xc5\x16 \xa5j\x0b\xc0\xf3\n\xc2w\xc8\x86\x04\xc0\\\xe37\x01\xf3D\t\xc0d\xffI\xde\xe5~\x0c\xc0'
p99
tp100
bsS'Model'
p101
S'HKY'
p102
sS'clock'
p103
I00
s.