(dp0
S'Force'
p1
NsS'ExpectedGeneconv'
p2
(dp3
(S'N1'
p4
S'N2'
p5
tp6
F18.896358474424517
s(S'N5'
p7
S'cerevisiae'
p8
tp9
F6.641303123484722
s(g5
S'N3'
p10
tp11
F1.0890300428562478
s(S'N4'
p12
g7
tp13
F1.2357115378783823
s(g4
S'castellii'
p14
tp15
F16.547291838119676
s(g5
S'bayanus'
p16
tp17
F16.77464121635471
s(S'N0'
p18
g4
tp19
F10.862309503693679
s(g10
S'kudriavzevii'
p20
tp21
F8.151211138471478
s(g7
S'paradoxus'
p22
tp23
F9.50188055403415
s(g18
S'kluyveri'
p24
tp25
F0.0
s(g10
g12
tp26
F6.726354925034985
s(g12
S'mikatae'
p27
tp28
F9.805649868529663
ssS'ExpectedDwellTime'
p29
(dp30
g6
F47.43439624686546
sg9
F52.99186196891072
sg11
F56.04751249080818
sg13
F55.1679425827546
sg15
F41.375315247436696
sg17
F42.63181482174544
sg19
F22.85659607532613
sg21
F64.27872423666271
sg23
F49.680630508664684
sg25
F0.0
sg26
F56.756798260033904
sg28
F56.7518566120885
ssS'newicktree'
p31
S'../PairsAlignemt/YeastTree.newick'
p32
sS'll'
p33
cnumpy.core.multiarray
scalar
p34
(cnumpy
dtype
p35
(S'f8'
p36
I0
I1
tp37
Rp38
(I3
S'<'
p39
NNNI-1
I-1
I0
tp40
bS'\x1f,\x0eJW\xaf\x94\xc0'
p41
tp42
Rp43
sS'edge_list'
p44
(lp45
g19
ag25
ag6
ag15
ag11
ag17
ag26
ag21
ag13
ag28
ag9
ag23
asS'edge_to_blen'
p46
(dp47
g6
g34
(g38
S'\xa1&\xf4B#d\xa0?'
p48
tp49
Rp50
sg9
g34
(g38
S'\x0e\xfc \xe3\xfa\x1a\x7f?'
p51
tp52
Rp53
sg11
g34
(g38
S'\x8e\xfd\xd6\x9fweo?'
p54
tp55
Rp56
sg13
g34
(g38
S'\xc6\x05n5f\xbb[?'
p57
tp58
Rp59
sg21
g34
(g38
S'-\xf3\tO\xff\xd1\x8c?'
p60
tp61
Rp62
sg17
g34
(g38
S'\xc7\xbb\xfb\xa3\xcc\x9e\x93?'
p63
tp64
Rp65
sg19
g34
(g38
S'\x98))\xe6u\xb7\xa3?'
p66
tp67
Rp68
sg15
g34
(g38
S'6o\x07\xb5\xe9\xfe\x9b?'
p69
tp70
Rp71
sg23
g34
(g38
S'\x9c8g\xde+\xca\x85?'
p72
tp73
Rp74
sg25
g34
(g38
S'\x88C\xfb\xfc7\xdb\xc5>'
p75
tp76
Rp77
sg26
g34
(g38
S"\x14='\xee\xdb\xf5~?"
p78
tp79
Rp80
sg28
g34
(g38
S'J:\tvX<\x8e?'
p81
tp82
Rp83
ssS'paralog'
p84
(lp85
S'YMR143W'
p86
aS'YDL083C'
p87
asS'alignment_file'
p88
S'../MafftAlignment/YMR143W_YDL083C/YMR143W_YDL083C_input.fasta'
p89
sS'x_clock'
p90
NsS'x'
p91
cnumpy.core.multiarray
_reconstruct
p92
(cnumpy
ndarray
p93
(I0
tp94
S'b'
p95
tp96
Rp97
(I1
(I17
tp98
g38
I00
S"Wn\xe7\xa7/a\xe8\xbf\n'\xedS\xf6\x1d\xe0\xbff\xd7\xd2\xd4\x7fp\xeb\xbf\xac\xc5n\x06{8\x08@HMb\xac\x83\xef\x04@\xbcg\xd5k\r\x0e\n\xc0\xe1r\xb0\xff=\xb7)\xc0\xfb\xd5\x88I\\\x88\x0b\xc0\x97\xe6\x88+\x9c\xcb\x0c\xc0EO~G\xc3A\x16\xc0\xb5\xd7Q\x0b\xa6\xa3\x0f\xc0LX\x10\x8bL\x8a\x13\xc0\xf6\x1ap%\xdd\r\x11\xc0Cr\xcf\xbb\xa0\x86\x19\xc0\xd5\xedw\xe3\xc4\xdc\x10\xc0\xf2\xb8\x0b\xa7\x83\x85\x13\xc0\xd4\xb1Cj7,\x12\xc0"
p99
tp100
bsS'Model'
p101
S'HKY'
p102
sS'clock'
p103
I00
s.