(dp0
S'Force'
p1
NsS'ExpectedGeneconv'
p2
(dp3
(S'N1'
p4
S'N2'
p5
tp6
F35.45753295720276
s(S'N5'
p7
S'cerevisiae'
p8
tp9
F11.038656617696374
s(g5
S'N3'
p10
tp11
F7.407775451481338
s(S'N4'
p12
g7
tp13
F8.689394010660191
s(g4
S'castellii'
p14
tp15
F44.57379782813177
s(g5
S'bayanus'
p16
tp17
F10.377059481321144
s(S'N0'
p18
g4
tp19
F1.167102736849927
s(g10
S'kudriavzevii'
p20
tp21
F14.37194665495497
s(g7
S'paradoxus'
p22
tp23
F7.564119449688593
s(g18
S'kluyveri'
p24
tp25
F0.0
s(g10
g12
tp26
F7.044728051876691
s(g12
S'mikatae'
p27
tp28
F17.462638982716562
ssS'ExpectedDwellTime'
p29
(dp30
g6
F499.65184844630147
sg9
F751.9114034789185
sg11
F733.9382121417361
sg13
F751.3378228046149
sg15
F543.6408522241431
sg17
F747.0374981985615
sg19
F91.6172361522337
sg21
F753.9173254829464
sg23
F749.2596216862707
sg25
F0.0
sg26
F749.4481491069414
sg28
F760.5123644321077
ssS'newicktree'
p31
S'../PairsAlignemt/YeastTree.newick'
p32
sS'll'
p33
cnumpy.core.multiarray
scalar
p34
(cnumpy
dtype
p35
(S'f8'
p36
I0
I1
tp37
Rp38
(I3
S'<'
p39
NNNI-1
I-1
I0
tp40
bS'?aa\x96+D\xbf\xc0'
p41
tp42
Rp43
sS'edge_list'
p44
(lp45
g19
ag25
ag6
ag15
ag11
ag17
ag26
ag21
ag13
ag28
ag9
ag23
asS'edge_to_blen'
p46
(dp47
g6
g34
(g38
S'_x\\z\xd2\xa9\xd6?'
p48
tp49
Rp50
sg9
g34
(g38
S'<Y\x0f\x03\x05b\xb2?'
p51
tp52
Rp53
sg11
g34
(g38
S'\xb2\x06tM\x1d\xa4\xa8?'
p54
tp55
Rp56
sg13
g34
(g38
S'\xa4\xf3\x93\x86\xde\xd6\xa5?'
p57
tp58
Rp59
sg21
g34
(g38
S'\xcb&\xe5su\x03\xb5?'
p60
tp61
Rp62
sg17
g34
(g38
S'\x82\xc4\xfd\xe9<Z\xb2?'
p63
tp64
Rp65
sg19
g34
(g38
S'W\xfb\x17\x9c\x90c\xaf?'
p66
tp67
Rp68
sg15
g34
(g38
S'\xbbc\x07\x9b\xcc\xdf\xda?'
p69
tp70
Rp71
sg23
g34
(g38
S'\x88-\x10\xcbB=\xa9?'
p72
tp73
Rp74
sg25
g34
(g38
S's\x83.\x11\xb4\x91\xda?'
p75
tp76
Rp77
sg26
g34
(g38
S'\xfc\x1ak<\x9a\xff\xa8?'
p78
tp79
Rp80
sg28
g34
(g38
S'|\x92z2v\xc0\xb9?'
p81
tp82
Rp83
ssS'paralog'
p84
(lp85
S'YLR284C'
p86
aS'YOR180C'
p87
asS'alignment_file'
p88
S'../MafftAlignment/YLR284C_YOR180C/YLR284C_YOR180C_input.fasta'
p89
sS'x_clock'
p90
NsS'x'
p91
cnumpy.core.multiarray
_reconstruct
p92
(cnumpy
ndarray
p93
(I0
tp94
S'b'
p95
tp96
Rp97
(I1
(I17
tp98
g38
I00
S"\xca\x1625y\x90\xe5\xbf\xee\x17U!N\xcd\xe1\xbf\xcaR\xec\xbe\x94\x87\xec\xbf\xdb\xf78\x96V\r\xf4?\x85\xeb/:U2\xf9\xbf\xc7\x1e\xfa\xab\xbfU\x06\xc0\xa9\xe0\xd6\xc9\xd9!\xec\xbfE\xd6\x15\x921\x9c\xf0\xbf\x9bW\xd1\xe0S\xc4\xeb\xbf\x86\xec\xeb\x97rE\x08\xc0&/J\xedR\x15\x05\xc0\xf1M\x89V\xf5'\x08\xc0\xe2@\x904\x06\x00\x04\xc0\x94Q\x889\xa5<\t\xc0\x8dkb\xfa\x95_\x02\xc0\xbeM\x0cF\xef\x11\x05\xc0[\xb7$%R\x14\x08\xc0"
p99
tp100
bsS'Model'
p101
S'HKY'
p102
sS'clock'
p103
I00
s.