(dp0
S'Force'
p1
NsS'ExpectedGeneconv'
p2
(dp3
(S'N1'
p4
S'N2'
p5
tp6
F15.430049006712986
s(S'N5'
p7
S'cerevisiae'
p8
tp9
F3.816889050264249
s(g5
S'N3'
p10
tp11
F1.6320877888897631
s(S'N4'
p12
g7
tp13
F1.323310688718599
s(g4
S'castellii'
p14
tp15
F11.577432708314248
s(g5
S'bayanus'
p16
tp17
F9.530597189597357
s(S'N0'
p18
g4
tp19
F7.347807864703983
s(g10
S'kudriavzevii'
p20
tp21
F4.057241017323426
s(g7
S'paradoxus'
p22
tp23
F5.415588684801256
s(g18
S'kluyveri'
p24
tp25
F0.0
s(g10
g12
tp26
F1.526662023210955
s(g12
S'mikatae'
p27
tp28
F10.452228494285553
ssS'ExpectedDwellTime'
p29
(dp30
g6
F43.21786194288544
sg9
F56.753910402845584
sg11
F46.66691463198113
sg13
F54.12502311797608
sg15
F42.36698409008869
sg17
F46.517477202273405
sg19
F22.003099873399194
sg21
F59.6516342864157
sg23
F54.53271858452168
sg25
F0.0
sg26
F52.40332472036917
sg28
F57.932722210601206
ssS'newicktree'
p31
S'../PairsAlignemt/YeastTree.newick'
p32
sS'll'
p33
cnumpy.core.multiarray
scalar
p34
(cnumpy
dtype
p35
(S'f8'
p36
I0
I1
tp37
Rp38
(I3
S'<'
p39
NNNI-1
I-1
I0
tp40
bS'\x8a\xe8\x94\x0eu\xd2\x93\xc0'
p41
tp42
Rp43
sS'edge_list'
p44
(lp45
g19
ag25
ag6
ag15
ag11
ag17
ag26
ag21
ag13
ag28
ag9
ag23
asS'edge_to_blen'
p46
(dp47
g6
g34
(g38
S'~\xc2a\x13U?\xa2?'
p48
tp49
Rp50
sg9
g34
(g38
S'U\xfa\x1e]\x8b/\x85?'
p51
tp52
Rp53
sg11
g34
(g38
S'\x82\xd2\xbd\xe3w\rz?'
p54
tp55
Rp56
sg13
g34
(g38
S'\x83\x17\xd1a\xa4\xe0_?'
p57
tp58
Rp59
sg21
g34
(g38
S'\x14\xa6\xfa\xbb\x1e\xbb\x90?'
p60
tp61
Rp62
sg17
g34
(g38
S'-\t\xb5u\x85C\x99?'
p63
tp64
Rp65
sg19
g34
(g38
S'\x97\xfb:\x00\xd3S\xa5?'
p66
tp67
Rp68
sg15
g34
(g38
S'7\xac\x02y\x91\x18\x9c?'
p69
tp70
Rp71
sg23
g34
(g38
S'\xfba\xf9Q\x80\xed\x87?'
p72
tp73
Rp74
sg25
g34
(g38
S'(\xb5\xf35\xbf\xe3\xa7?'
p75
tp76
Rp77
sg26
g34
(g38
S'\x8bb0\x85U\xa2u?'
p78
tp79
Rp80
sg28
g34
(g38
S'\x08\x81\x1ezG\x04\x98?'
p81
tp82
Rp83
ssS'paralog'
p84
(lp85
S'YLR406C'
p86
aS'YDL075W'
p87
asS'alignment_file'
p88
S'../MafftAlignment/YLR406C_YDL075W/YLR406C_YDL075W_input.fasta'
p89
sS'x_clock'
p90
NsS'x'
p91
cnumpy.core.multiarray
_reconstruct
p92
(cnumpy
ndarray
p93
(I0
tp94
S'b'
p95
tp96
Rp97
(I1
(I17
tp98
g38
I00
S'\x91\xb8\xf0n\xa01\xe6\xbf\xeb\x1a]\xee\xe2<\xe0\xbf\xd3\x9c\xd9?\x9aY\xec\xbf\xe7[Snd\xb3\x02@\xa7\xe9\x9ej\x03\xa5\x00@0\x17\x9ca8m\t\xc0o\xe3\x98\xbe\xdf\x84\x08\xc0\xa8^F\xc5\xa6\xac\n\xc0\xc0Vn\xbbJ\xc4\x0c\xc0D\xe8d \x08;\x14\xc0\x13\xad3&\xe7\x9d\r\xc0\xf2\x9f#\xa5V\xf9\x14\xc03\x13\xd2\r\xf4t\x10\xc0\x94\t\x8a\xbf\xf8\xf7\x18\xc0\xb9\x81\xb4\xf8\x92\x05\x0e\xc0\xbd\x17\x86\xaa\x00I\x12\xc0^\xc2\xc5\xd8^\xcc\x11\xc0'
p99
tp100
bsS'Model'
p101
S'HKY'
p102
sS'clock'
p103
I00
s.