(dp0
S'Force'
p1
NsS'ExpectedGeneconv'
p2
(dp3
(S'N1'
p4
S'N2'
p5
tp6
F52.66676610669088
s(S'N5'
p7
S'cerevisiae'
p8
tp9
F9.663839353558377
s(g5
S'N3'
p10
tp11
F7.010279377168597
s(S'N4'
p12
g7
tp13
F6.22493097021448
s(g4
S'castellii'
p14
tp15
F55.873338256288335
s(g5
S'bayanus'
p16
tp17
F18.065959287022906
s(S'N0'
p18
g4
tp19
F14.526876973481066
s(g10
S'kudriavzevii'
p20
tp21
F10.431439012172008
s(g7
S'paradoxus'
p22
tp23
F7.156353640483066
s(g18
S'kluyveri'
p24
tp25
F0.0
s(g10
g12
tp26
F6.1349345942964515
s(g12
S'mikatae'
p27
tp28
F12.748637725423674
ssS'ExpectedDwellTime'
p29
(dp30
g6
F782.2488017641253
sg9
F985.38661744448
sg11
F936.7568701459144
sg13
F964.329546186268
sg15
F757.814602898515
sg17
F935.2180964481455
sg19
F328.343387530189
sg21
F958.8034434157203
sg23
F973.2480871524714
sg25
F0.0
sg26
F954.9819374989327
sg28
F957.1365905432116
ssS'newicktree'
p31
S'../PairsAlignemt/YeastTree.newick'
p32
sS'll'
p33
cnumpy.core.multiarray
scalar
p34
(cnumpy
dtype
p35
(S'f8'
p36
I0
I1
tp37
Rp38
(I3
S'<'
p39
NNNI-1
I-1
I0
tp40
bS'\xd4\x9c\xa7\x14 \xea\xc1\xc0'
p41
tp42
Rp43
sS'edge_list'
p44
(lp45
g19
ag25
ag6
ag15
ag11
ag17
ag26
ag21
ag13
ag28
ag9
ag23
asS'edge_to_blen'
p46
(dp47
g6
g34
(g38
S'\x7f\x88\xec@\x87l\xd3?'
p48
tp49
Rp50
sg9
g34
(g38
S'\xbf\xd0\xf1\x80\x9b\x0e\xb0?'
p51
tp52
Rp53
sg11
g34
(g38
S'\xe2\x9a\xcd\xabO\x9a\xa5?'
p54
tp55
Rp56
sg13
g34
(g38
S'JF\xc0\xb8\x19\x8f\xa1?'
p57
tp58
Rp59
sg21
g34
(g38
S'\xe1\n\xd3\xa3\x9a\xc7\xb0?'
p60
tp61
Rp62
sg17
g34
(g38
S'\xce<\x911\xfa\x8b\xb6?'
p63
tp64
Rp65
sg19
g34
(g38
S'\xae\xa0\x00\xab}\xcb\xca?'
p66
tp67
Rp68
sg15
g34
(g38
S' \xdfX\x94\xc8\xb7\xd3?'
p69
tp70
Rp71
sg23
g34
(g38
S'\xc3\xb7\xb7\x8bI\x9f\xa3?'
p72
tp73
Rp74
sg25
g34
(g38
S'\xe2A\x9c\xbd6/\xc4?'
p75
tp76
Rp77
sg26
g34
(g38
S'E\xbf\xfc\xad5f\xa3?'
p78
tp79
Rp80
sg28
g34
(g38
S'\xd1\x01\xa8\x84\n%\xb1?'
p81
tp82
Rp83
ssS'paralog'
p84
(lp85
S'YDR438W'
p86
aS'YML018C'
p87
asS'alignment_file'
p88
S'../MafftAlignment/YDR438W_YML018C/YDR438W_YML018C_input.fasta'
p89
sS'x_clock'
p90
NsS'x'
p91
cnumpy.core.multiarray
_reconstruct
p92
(cnumpy
ndarray
p93
(I0
tp94
S'b'
p95
tp96
Rp97
(I1
(I17
tp98
g38
I00
S'&\xd2\x8d\xaaAb\xe8\xbf\xebq\xba\xb2\\\xc1\xe1\xbf\xc2\xd0m\xe6>\xbb\xee\xbf\xc1\xac\x1d\xddf\x91\xf4?\xfc\xb1\xa1\xb6a\x01\xf9\xbf,\x95LIg\x05\xf9\xbf\xbe@\x92p\xcc\x8d\xfd\xbfVH\x1b\xb7\xf9\x13\xf3\xbf|3sAs\xd6\xf2\xbf\x8e\x8e;\x14\xf3R\t\xc0\x83W\x125\xcao\x03\xc0\x96\xbd;\xbfI/\n\xc0\x13\x95\xde\xb0\xd0\xcc\x05\xc0>\xa29\xf3h\xfb\n\xc0\xc2\x8d\x83\xc1\xbe\xa0\x05\xc0+x\xfd\x91\xf8&\x06\xc0t\x07f^\xe2\x17\n\xc0'
p99
tp100
bsS'Model'
p101
S'HKY'
p102
sS'clock'
p103
I00
s.