(dp0
S'Force'
p1
NsS'ExpectedGeneconv'
p2
(dp3
(S'N1'
p4
S'N2'
p5
tp6
F37.66395964492474
s(S'N5'
p7
S'cerevisiae'
p8
tp9
F30.205022739997446
s(g5
S'N3'
p10
tp11
F24.31531506461265
s(S'N4'
p12
g7
tp13
F23.078492614867166
s(g4
S'castellii'
p14
tp15
F145.29783604635315
s(g5
S'bayanus'
p16
tp17
F36.84920987867647
s(S'N0'
p18
g4
tp19
F83.16229370537793
s(g10
S'kudriavzevii'
p20
tp21
F57.98610304218903
s(g7
S'paradoxus'
p22
tp23
F25.025393336002946
s(g18
S'kluyveri'
p24
tp25
F0.0
s(g10
g12
tp26
F23.351124026274356
s(g12
S'mikatae'
p27
tp28
F51.61016045062418
ssS'ExpectedDwellTime'
p29
(dp30
g6
F377.10207256625694
sg9
F390.35797721550057
sg11
F398.1268065246177
sg13
F400.7138039094016
sg15
F392.6145503702236
sg17
F395.7563363451152
sg19
F213.57098167368335
sg21
F392.64370856405094
sg23
F405.04384063247863
sg25
F0.0
sg26
F404.2069055313502
sg28
F403.9948609211775
ssS'newicktree'
p31
S'../PairsAlignemt/YeastTree.newick'
p32
sS'll'
p33
cnumpy.core.multiarray
scalar
p34
(cnumpy
dtype
p35
(S'f8'
p36
I0
I1
tp37
Rp38
(I3
S'<'
p39
NNNI-1
I-1
I0
tp40
bS'\x85\xb9\x8a!\x94\xfe\xb9\xc0'
p41
tp42
Rp43
sS'edge_list'
p44
(lp45
g19
ag25
ag6
ag15
ag11
ag17
ag26
ag21
ag13
ag28
ag9
ag23
asS'edge_to_blen'
p46
(dp47
g6
g34
(g38
S"\xaf'\x04\x0b\xc7i\xa0?"
p48
tp49
Rp50
sg9
g34
(g38
S'\x18\xb3\x0cP(F\x97?'
p51
tp52
Rp53
sg11
g34
(g38
S'\xcf\xa7e\x98\x85\x1a\x96?'
p54
tp55
Rp56
sg13
g34
(g38
S'\xdf\xdd\xb5\x80\x1f0\x92?'
p57
tp58
Rp59
sg21
g34
(g38
S'\xa7K,\xe35K\xa5?'
p60
tp61
Rp62
sg17
g34
(g38
S'L\x8f\xd2K\xe0\x18\x9e?'
p63
tp64
Rp65
sg19
g34
(g38
S'hXc\x9e8\xf1\xc0?'
p66
tp67
Rp68
sg15
g34
(g38
S'\xc8\xc2+\xcd\x18\xe6\xbd?'
p69
tp70
Rp71
sg23
g34
(g38
S'\x1c\xe0\x1a\xcfz\xa7\x95?'
p72
tp73
Rp74
sg28
g34
(g38
S'NP\x07p\xfaz\xa5?'
p75
tp76
Rp77
sg26
g34
(g38
S'\xb7C\x9b\xa6$;\x92?'
p78
tp79
Rp80
sg25
g34
(g38
S"u\x98\x04\xe4\xed'\xc4>"
p81
tp82
Rp83
ssS'paralog'
p84
(lp85
S'YDR502C'
p86
aS'YLR180W'
p87
asS'alignment_file'
p88
S'../MafftAlignment/YDR502C_YLR180W/YDR502C_YLR180W_input.fasta'
p89
sS'x_clock'
p90
NsS'x'
p91
cnumpy.core.multiarray
_reconstruct
p92
(cnumpy
ndarray
p93
(I0
tp94
S'b'
p95
tp96
Rp97
(I1
(I17
tp98
g38
I00
S'K\xe4i\xde\x05G\xe9\xbf\xa0\xdd\x1c\xd6\x96\xec\xe2\xbfO\x19\xe2J\xe8\x94\xea\xbf\x9a\xf0F\x94\x04\x85\xfc?\x9e\x9f;H\xc9O\xf2?9\xf4\r\xee\x80-\x00\xc0\xadH_v\xb5\xe0)\xc0\x99\xcb\xd5\x18\x9c\x85\x0b\xc03\x02\xdeS\xca-\x01\xc0\xac\xd0&\xe0\x93\xaf\x0e\xc0\'|\x9c\x0ca7\x0c\xc0&\x94n\xf3\x06\x1d\x10\xc06\\:.tp\t\xc0"\xc0\xfc\xa8r\x1f\x10\xc0\xd1\x1e\x8d\xf8\x95^\t\xc0\xac\xad\xaf[\xe7E\x0e\xc0Y\xec)\xe7\xa4\xd9\x0e\xc0'
p99
tp100
bsS'Model'
p101
S'HKY'
p102
sS'clock'
p103
I00
s.