(dp0
S'Force'
p1
NsS'ExpectedGeneconv'
p2
(dp3
(S'N1'
p4
S'N2'
p5
tp6
F92.47342832733243
s(S'N5'
p7
S'cerevisiae'
p8
tp9
F34.29579081601016
s(g5
S'N3'
p10
tp11
F21.28500439088672
s(S'N4'
p12
g7
tp13
F15.807692105308895
s(g4
S'castellii'
p14
tp15
F119.47262037509644
s(g5
S'bayanus'
p16
tp17
F30.131889594217157
s(S'N0'
p18
g4
tp19
F19.051702666377587
s(g10
S'kudriavzevii'
p20
tp21
F43.05076801536797
s(g7
S'paradoxus'
p22
tp23
F18.590820545950287
s(g18
S'kluyveri'
p24
tp25
F0.0
s(g10
g12
tp26
F18.381711551131673
s(g12
S'mikatae'
p27
tp28
F44.02170088264916
ssS'ExpectedDwellTime'
p29
(dp30
g6
F2271.877765206486
sg9
F3037.4105945681285
sg11
F2855.544463197665
sg13
F2981.898402915385
sg15
F2329.795482291335
sg17
F2911.015643907383
sg19
F845.3505869738569
sg21
F2978.908543447535
sg23
F3044.9620219713643
sg25
F0.0
sg26
F2935.110796448164
sg28
F3013.343542179813
ssS'newicktree'
p31
S'../PairsAlignemt/YeastTree.newick'
p32
sS'll'
p33
cnumpy.core.multiarray
scalar
p34
(cnumpy
dtype
p35
(S'f8'
p36
I0
I1
tp37
Rp38
(I3
S'<'
p39
NNNI-1
I-1
I0
tp40
bS'\x80\xa9f}u>\xdd\xc0'
p41
tp42
Rp43
sS'edge_list'
p44
(lp45
g19
ag25
ag6
ag15
ag11
ag17
ag26
ag21
ag13
ag28
ag9
ag23
asS'edge_to_blen'
p46
(dp47
g6
g34
(g38
S'\xce\xb5\x94\xe9e]\xd4?'
p48
tp49
Rp50
sg9
g34
(g38
S'c\xd7\xe9\\\xbe-\xb7?'
p51
tp52
Rp53
sg11
g34
(g38
S'9jb\xd9\x11\xa9\xaf?'
p54
tp55
Rp56
sg13
g34
(g38
S'\x85\xa0\x9a\x96\xc3p\xa4?'
p57
tp58
Rp59
sg21
g34
(g38
S'\x01\xd9\xea\xed\xc0\x00\xbe?'
p60
tp61
Rp62
sg17
g34
(g38
S'\x06I\x84\x882\x1f\xb9?'
p63
tp64
Rp65
sg19
g34
(g38
S'k\x9c\xe8\xbc\x8b\x0b\xc7?'
p66
tp67
Rp68
sg15
g34
(g38
S'\xaa\x9f\x11\xee\r\xdb\xd8?'
p69
tp70
Rp71
sg23
g34
(g38
S',\xaf\xe9\x07g\xf7\xac?'
p72
tp73
Rp74
sg28
g34
(g38
S'\xf2\xc44l+\x93\xbe?'
p75
tp76
Rp77
sg26
g34
(g38
S'HG\x8d3\xa5\xc8\xa9?'
p78
tp79
Rp80
sg25
g34
(g38
S'\xaa\xae\xef\xa4\xe8\xe9\xd1?'
p81
tp82
Rp83
ssS'paralog'
p84
(lp85
S'YGL133W'
p86
aS'YPL216W'
p87
asS'alignment_file'
p88
S'../MafftAlignment/YGL133W_YPL216W/YGL133W_YPL216W_input.fasta'
p89
sS'x_clock'
p90
NsS'x'
p91
cnumpy.core.multiarray
_reconstruct
p92
(cnumpy
ndarray
p93
(I0
tp94
S'b'
p95
tp96
Rp97
(I1
(I17
tp98
g38
I00
S'\xec\x15\xa4J\xe3%\xe4\xbf\x0e\xbep)\xcb\xac\xdc\xbf\x91\xb8\x8f\xec\xa3\n\xed\xbf\x8e\x95E"5\x08\xf4?\xc5\xdb\xe80*\xaa\x00\xc0\xc2(\xd4Y\xe8n\xfb\xbf\x14:b\x9a\x81_\xf4\xbf\xb38\xf0v8R\xf2\xbf\x13W\xa1\x82\xf7C\xee\xbf\xdb\xd2dC\x1cD\x06\xc0\xf4\x1d\xad\x8aN\x92\x02\xc0}d\x1aM\x9c\xe8\x07\xc0\xe5\x01\xe9\x92\xab&\x01\xc0\xd9\xbcA\x8b6\xc4\t\xc0\x16~\tJ\xff\xff\x00\xc0\xef\x12L\x92.7\x03\xc0\x05\xd2\xebu=\xfa\x06\xc0'
p99
tp100
bsS'Model'
p101
S'HKY'
p102
sS'clock'
p103
I00
s.