(dp0
S'Force'
p1
NsS'ExpectedGeneconv'
p2
(dp3
(S'N1'
p4
S'N2'
p5
tp6
F25.340827805393893
s(S'N5'
p7
S'cerevisiae'
p8
tp9
F13.933796825722021
s(g5
S'N3'
p10
tp11
F3.6882670620668296
s(S'N4'
p12
g7
tp13
F5.879625622369438
s(g4
S'castellii'
p14
tp15
F26.422058189292258
s(g5
S'bayanus'
p16
tp17
F7.61274053810732
s(S'N0'
p18
g4
tp19
F14.727110356981308
s(g10
S'kudriavzevii'
p20
tp21
F15.017134085929237
s(g7
S'paradoxus'
p22
tp23
F4.329490343819415
s(g18
S'kluyveri'
p24
tp25
F0.0
s(g10
g12
tp26
F5.343118862354013
s(g12
S'mikatae'
p27
tp28
F10.857837383725874
ssS'ExpectedDwellTime'
p29
(dp30
g6
F78.64628947773868
sg9
F85.5920845696793
sg11
F92.17546165435505
sg13
F92.99494628157724
sg15
F74.01306634494571
sg17
F88.61161527820602
sg19
F36.54114522578916
sg21
F95.81278322671918
sg23
F90.29444980454396
sg25
F0.0
sg26
F93.2277599940149
sg28
F93.41604089503979
ssS'newicktree'
p31
S'../PairsAlignemt/YeastTree.newick'
p32
sS'll'
p33
cnumpy.core.multiarray
scalar
p34
(cnumpy
dtype
p35
(S'f8'
p36
I0
I1
tp37
Rp38
(I3
S'<'
p39
NNNI-1
I-1
I0
tp40
bS'\xb6\xfe\x10\xd4#/\x9d\xc0'
p41
tp42
Rp43
sS'edge_list'
p44
(lp45
g19
ag25
ag6
ag15
ag11
ag17
ag26
ag21
ag13
ag28
ag9
ag23
asS'edge_to_blen'
p46
(dp47
g6
g34
(g38
S'\t7K5\\5\xa6?'
p48
tp49
Rp50
sg9
g34
(g38
S'c\x04\xdd\x17\xb5U\x8f?'
p51
tp52
Rp53
sg11
g34
(g38
S'2Viel>u?'
p54
tp55
Rp56
sg13
g34
(g38
S'\xbd\x17X\x9c\x83\xa1z?'
p57
tp58
Rp59
sg21
g34
(g38
S'$h\xcf\xddX\xa4\x96?'
p60
tp61
Rp62
sg17
g34
(g38
S'\xf9\xbc\xaf\xfb\xaa\xc2\x80?'
p63
tp64
Rp65
sg19
g34
(g38
S'\x94\xdbq\xfd\xde\xd0\xa9?'
p66
tp67
Rp68
sg15
g34
(g38
S'W\xa2\xcb%\xc1\x1b\xa7?'
p69
tp70
Rp71
sg23
g34
(g38
S'f)%\x88\xfa3x?'
p72
tp73
Rp74
sg25
g34
(g38
S'X\x90\xf8_\x80\xf4\x9e?'
p75
tp76
Rp77
sg26
g34
(g38
S'\x1a\xcf\xd4\x93\xe0\x11\x81?'
p78
tp79
Rp80
sg28
g34
(g38
S'\xbeZO\xd0\x0c\x84\x8d?'
p81
tp82
Rp83
ssS'paralog'
p84
(lp85
S'YDR418W'
p86
aS'YEL054C'
p87
asS'alignment_file'
p88
S'../MafftAlignment/YDR418W_YEL054C/YDR418W_YEL054C_input.fasta'
p89
sS'x_clock'
p90
NsS'x'
p91
cnumpy.core.multiarray
_reconstruct
p92
(cnumpy
ndarray
p93
(I0
tp94
S'b'
p95
tp96
Rp97
(I1
(I17
tp98
g38
I00
S'8OxF\x9a`\xe8\xbf\xac\x8dG\xc0z\x0b\xe0\xbf\x08X\x1c\x9c\xbfv\xe9\xbf\x04\x81\xf7(\xa3\xad\x03@\xc1\xa0g\xd1=\xb6\x00@\x1c\xdf\xd8V\x0f\xe6\x07\xc0P\xc8\x10g\xd1\xfd\x0b\xc0\xd6\xf3\x89OR\x1a\t\xc0d\xb9C3\xf7\xc8\x08\xc0O\x15\x04\xdb\xfa\x0b\x15\xc0$\rs\xe0\xee8\x13\xc0\x94<\xc6\x9a3&\x13\xc0X\x16\xfa\xc5J~\x0e\xc0\x9cwa\xd1\x8c$\x14\xc0\xa3&\x99\xf8q\xf5\x10\xc0\x87\x8a*\x0c5\xb8\x10\xc0\x1e\xe0\xf1Rp\x86\x14\xc0'
p99
tp100
bsS'Model'
p101
S'HKY'
p102
sS'clock'
p103
I00
s.