(dp0
S'Force'
p1
NsS'ExpectedGeneconv'
p2
(dp3
(S'N1'
p4
S'N2'
p5
tp6
F27.3356405521861
s(S'N5'
p7
S'cerevisiae'
p8
tp9
F7.758747023919502
s(g5
S'N3'
p10
tp11
F9.458213528008932e-05
s(S'N4'
p12
g7
tp13
F10.442043957922674
s(g4
S'castellii'
p14
tp15
F50.59137637965792
s(g5
S'bayanus'
p16
tp17
F19.894180725196456
s(S'N0'
p18
g4
tp19
F48.915628215630434
s(g10
S'kudriavzevii'
p20
tp21
F29.843872147391266
s(g7
S'paradoxus'
p22
tp23
F5.674985204959802
s(g18
S'kluyveri'
p24
tp25
F0.0
s(g10
g12
tp26
F8.630164234850426
s(g12
S'mikatae'
p27
tp28
F18.868904228309866
ssS'ExpectedDwellTime'
p29
(dp30
g6
F71.58133948369495
sg9
F74.79934658898341
sg11
F73.76499236752495
sg13
F68.08105942276863
sg15
F64.95552574902386
sg17
F61.10580175358262
sg19
F44.97598287810005
sg21
F65.00624622916229
sg23
F63.6460976028625
sg25
F0.0
sg26
F72.26020394441261
sg28
F78.57862945392087
ssS'newicktree'
p31
S'../PairsAlignemt/YeastTree.newick'
p32
sS'll'
p33
cnumpy.core.multiarray
scalar
p34
(cnumpy
dtype
p35
(S'f8'
p36
I0
I1
tp37
Rp38
(I3
S'<'
p39
NNNI-1
I-1
I0
tp40
bS',d\xc9\x940\x9b\xa0\xc0'
p41
tp42
Rp43
sS'edge_list'
p44
(lp45
g19
ag25
ag6
ag15
ag11
ag17
ag26
ag21
ag13
ag28
ag9
ag23
asS'edge_to_blen'
p46
(dp47
g6
g34
(g38
S'e\xf3\xae\x10\x82>\x9a?'
p48
tp49
Rp50
sg9
g34
(g38
S'\x89\xe2\xb4\xa1\x9a\xd5\x86?'
p51
tp52
Rp53
sg11
g34
(g38
S'\x81\x83\xa46\x02B}>'
p54
tp55
Rp56
sg13
g34
(g38
S'\xcd\x06\x8b\xa9J!\x81?'
p57
tp58
Rp59
sg21
g34
(g38
S'\x8a\xb8\x83=\xc5%\x99?'
p60
tp61
Rp62
sg17
g34
(g38
S'd}\x15\xee\xf5\xb4\x8c?'
p63
tp64
Rp65
sg19
g34
(g38
S'\x95\xc1\x15gR\x8b\xb2?'
p66
tp67
Rp68
sg15
g34
(g38
S'\xd8\x19\x17/iI\xa7?'
p69
tp70
Rp71
sg23
g34
(g38
S'|\xae\xf7\t\xed\x8bt?'
p72
tp73
Rp74
sg25
g34
(g38
S'\x86~1\xca\xfc\xdf?>'
p75
tp76
Rp77
sg26
g34
(g38
S'\xa8\xd7\x1a\xae\r\xc3}?'
p78
tp79
Rp80
sg28
g34
(g38
S'\xccAH\xfd[\x08\x94?'
p81
tp82
Rp83
ssS'paralog'
p84
(lp85
S'YMR142C'
p86
aS'YDL082W'
p87
asS'alignment_file'
p88
S'../MafftAlignment/YMR142C_YDL082W/YMR142C_YDL082W_input.fasta'
p89
sS'x_clock'
p90
NsS'x'
p91
cnumpy.core.multiarray
_reconstruct
p92
(cnumpy
ndarray
p93
(I0
tp94
S'b'
p95
tp96
Rp97
(I1
(I17
tp98
g38
I00
S'\x8c\x02{y%\'\xe6\xbf\xa9\x8aChK\t\xe0\xbf\xd1\xfb\xf7\xe4Wk\xe7\xbff\xe9c{\\\xeb\x01@\xdf\xc1\x02\xdf\xe8(\x06@\xca\x04`\xf1\t\x00\x05\xc0\xff\xf3@!\t\xb82\xc0\xd79\x08\xd6\xedO\r\xc0\x0b\x86rg8\xb9\x08\xc0X\xddqf/\x080\xc0zQ@\xde\xe6\x11\x11\xc0\xff\xfe\x80\x9d\xb9\xb2\x13\xc0\x8e\xf3\x8cuX\xa7\r\xc0k\xf4!\x8a\x98"\x13\xc0\xf6\xbb\xc5\xb5\ry\x0f\xc0\xe7\n\x92~C\xfc\x11\xc0p\x1a\x8f1\'.\x15\xc0'
p99
tp100
bsS'Model'
p101
S'HKY'
p102
sS'clock'
p103
I00
s.