(dp0
S'Force'
p1
NsS'ExpectedGeneconv'
p2
(dp3
(S'N1'
p4
S'N2'
p5
tp6
F18.27589702275691
s(S'N5'
p7
S'cerevisiae'
p8
tp9
F11.440469100605824
s(g5
S'N3'
p10
tp11
F0.005607985723224061
s(S'N4'
p12
g7
tp13
F3.355280287459302
s(g4
S'castellii'
p14
tp15
F40.099652797667304
s(g5
S'bayanus'
p16
tp17
F13.72561985071578
s(S'N0'
p18
g4
tp19
F42.65554265783745
s(g10
S'kudriavzevii'
p20
tp21
F13.326665640778854
s(g7
S'paradoxus'
p22
tp23
F4.153657405992535
s(g18
S'kluyveri'
p24
tp25
F0.0
s(g10
g12
tp26
F0.029225233384122824
s(g12
S'mikatae'
p27
tp28
F15.99828987025047
ssS'ExpectedDwellTime'
p29
(dp30
g6
F30.011839151753026
sg9
F23.505212824775136
sg11
F27.150973957376014
sg13
F25.167783248897727
sg15
F36.68970694582275
sg17
F22.795564036188694
sg19
F23.767081230116965
sg21
F39.011979093521646
sg23
F19.276285305051488
sg25
F0.0
sg26
F27.133052355961226
sg28
F25.18169373804786
ssS'newicktree'
p31
S'../PairsAlignemt/YeastTree.newick'
p32
sS'll'
p33
cnumpy.core.multiarray
scalar
p34
(cnumpy
dtype
p35
(S'f8'
p36
I0
I1
tp37
Rp38
(I3
S'<'
p39
NNNI-1
I-1
I0
tp40
bS'\x99\x1d\xe7\xe1\x97t\x94\xc0'
p41
tp42
Rp43
sS'edge_list'
p44
(lp45
g19
ag25
ag6
ag15
ag11
ag17
ag26
ag21
ag13
ag28
ag9
ag23
asS'edge_to_blen'
p46
(dp47
g6
g34
(g38
S'\xcfw\xb7P\xab\xdd\x97?'
p48
tp49
Rp50
sg9
g34
(g38
S'\xe2\xfeJ\xc2\xf7Y\x92?'
p51
tp52
Rp53
sg11
g34
(g38
S'/\xc7\xb2\xfe.%\xdf>'
p54
tp55
Rp56
sg13
g34
(g38
S'im\x91\x87\x18\xack?'
p57
tp58
Rp59
sg21
g34
(g38
S'\x075E\xf1\xf7!\x97?'
p60
tp61
Rp62
sg17
g34
(g38
S'd\xbbun\x85\xa6\x90?'
p63
tp64
Rp65
sg19
g34
(g38
S'Y\xb7\xfe_\x92\x89\xb3?'
p66
tp67
Rp68
sg15
g34
(g38
S'\x13\xf1\xcc\xbd\xd0\xb9\xab?'
p69
tp70
Rp71
sg23
g34
(g38
S'\xa1\xadG\x9a\x81\x1dq?'
p72
tp73
Rp74
sg25
g34
(g38
S'\x9e\xd9\xa1\xfbE|&?'
p75
tp76
Rp77
sg26
g34
(g38
S'O|W\xec\xda\x87\xfe>'
p78
tp79
Rp80
sg28
g34
(g38
S'\xac\xc6\x03\xd0\xa8$\x94?'
p81
tp82
Rp83
ssS'paralog'
p84
(lp85
S'YER074W'
p86
aS'YIL069C'
p87
asS'alignment_file'
p88
S'../MafftAlignment/YER074W_YIL069C/YER074W_YIL069C_input.fasta'
p89
sS'x_clock'
p90
NsS'x'
p91
cnumpy.core.multiarray
_reconstruct
p92
(cnumpy
ndarray
p93
(I0
tp94
S'b'
p95
tp96
Rp97
(I1
(I17
tp98
g38
I00
S"Q\x92\xdf\x91\xa1\r\xe7\xbf\xf4\x88\xcd\xa7\xb4X\xe0\xbf\x01$\xea\x19s\xa8\xe9\xbfY^D\xff\xef\xca\x04@\x95\x05\x91\xc5_`\t@aX`\x031\x95\x04\xc0RYgU]W!\xc0\x9fy\xc4\xc7y\x12\x0e\xc05j\xd9\xb3\xe2S\x07\xc0\xef\x08\xac\xda\x03\x9f'\xc0\xc2*\x8a\xd3\xe3y\x10\xc0O3\xf4\xaco\xe3$\xc0\xfb\xeb\xaa\x83aR\x0e\xc0n\xe1\xa6\x0b\x0e\xc3\x16\xc0\xac\xc1Du\xc8m\x0f\xc0\xad\xcd\x17II\x16\x10\xc0\xb8\xa1yKC\xe9\x15\xc0"
p99
tp100
bsS'Model'
p101
S'HKY'
p102
sS'clock'
p103
I00
s.