(dp0
S'Force'
p1
NsS'ExpectedGeneconv'
p2
(dp3
(S'N1'
p4
S'N2'
p5
tp6
F92.51522660945292
s(S'N5'
p7
S'cerevisiae'
p8
tp9
F19.503167993998424
s(g5
S'N3'
p10
tp11
F8.8227364032879
s(S'N4'
p12
g7
tp13
F12.445737014371549
s(g4
S'castellii'
p14
tp15
F103.22985463424381
s(g5
S'bayanus'
p16
tp17
F30.306165210393146
s(S'N0'
p18
g4
tp19
F2.9646880152325483
s(g10
S'kudriavzevii'
p20
tp21
F28.277392422708736
s(g7
S'paradoxus'
p22
tp23
F15.933874815826046
s(g18
S'kluyveri'
p24
tp25
F0.0
s(g10
g12
tp26
F15.843702701926738
s(g12
S'mikatae'
p27
tp28
F26.442621330006812
ssS'ExpectedDwellTime'
p29
(dp30
g6
F949.0513936273685
sg9
F1405.531043949178
sg11
F1402.0302778226924
sg13
F1418.4327368530594
sg15
F898.452020845115
sg17
F1405.4456099801546
sg19
F170.70999638365635
sg21
F1424.843297440702
sg23
F1417.3738032990304
sg25
F0.0
sg26
F1421.3863409445153
sg28
F1416.9815572467132
ssS'newicktree'
p31
S'../PairsAlignemt/YeastTree.newick'
p32
sS'll'
p33
cnumpy.core.multiarray
scalar
p34
(cnumpy
dtype
p35
(S'f8'
p36
I0
I1
tp37
Rp38
(I3
S'<'
p39
NNNI-1
I-1
I0
tp40
bS'\xb9-\xa3q\xe6\x84\xca\xc0'
p41
tp42
Rp43
sS'edge_list'
p44
(lp45
g19
ag25
ag6
ag15
ag11
ag17
ag26
ag21
ag13
ag28
ag9
ag23
asS'edge_to_blen'
p46
(dp47
g6
g34
(g38
S'\xadZ\xa2\x99\xd4\xe8\xd7?'
p48
tp49
Rp50
sg9
g34
(g38
S'\x8eT\x94\xcb\xa4#\xa7?'
p51
tp52
Rp53
sg11
g34
(g38
S'`\xed\xa2\x181p\x9e?'
p54
tp55
Rp56
sg13
g34
(g38
S'\x96v\xe4d\xe5\xd9\x9e?'
p57
tp58
Rp59
sg21
g34
(g38
S'\xd2H\xc8\xba}\xa5\xb0?'
p60
tp61
Rp62
sg17
g34
(g38
S'8\x93\xd7\xc6E\xec\xb4?'
p63
tp64
Rp65
sg19
g34
(g38
S'\x84\xd6g\x13.e\xaf?'
p66
tp67
Rp68
sg15
g34
(g38
S'H\xa4~\x08\xe0\xe3\xd7?'
p69
tp70
Rp71
sg23
g34
(g38
S'\x03\xd5<g\x82\x1b\xa4?'
p72
tp73
Rp74
sg25
g34
(g38
S'\xc6\xea\x9c\xa8\x8a\xfa\xcd?'
p75
tp76
Rp77
sg26
g34
(g38
S'\xf3\xb5_\xad\x8f|\xa2?'
p78
tp79
Rp80
sg28
g34
(g38
S'$\x9bh\xf9\xf9\x80\xb1?'
p81
tp82
Rp83
ssS'paralog'
p84
(lp85
S'YDR518W'
p86
aS'YCL043C'
p87
asS'alignment_file'
p88
S'../MafftAlignment/YDR518W_YCL043C/YDR518W_YCL043C_input.fasta'
p89
sS'x_clock'
p90
NsS'x'
p91
cnumpy.core.multiarray
_reconstruct
p92
(cnumpy
ndarray
p93
(I0
tp94
S'b'
p95
tp96
Rp97
(I1
(I17
tp98
g38
I00
S"\xd2\xe6b\xc7\xa9\x9e\xe7\xbfm\xc1\xa8:\xfbk\xe0\xbf\xc6\xfa\x04\xb4Jx\xe8\xbf}\xec\xd8\x1dQ\xac\xf4?\xec&\x00\xc7\xb24\xf4\xbf\x8c\x7f\xb4MVU\x06\xc0\xca\xc4\xd4\r\x869\xf7\xbfZd!\x83\xe7\x81\xef\xbf\x19ym\x06\x8a\x88\xef\xbf\xdd\x01#\xf6L \x0c\xc0v\x1eg\xd8\xde\x08\x04\xc0\xa4N\xb8`\xfb\x91\n\xc0\xcf\x9c\xb5\xde$\xdd\x05\xc0A\xaaA\x96\xb4\x04\x0c\xc0\xcc\xe7\xb1'Jv\x05\xc0\x11\xf3\xc9y<\xc6\x08\xc0\x82\xde\x8f\xd6\xda\xe5\t\xc0"
p99
tp100
bsS'Model'
p101
S'HKY'
p102
sS'clock'
p103
I00
s.