(dp0
S'Force'
p1
NsS'ExpectedGeneconv'
p2
(dp3
(S'N1'
p4
S'N2'
p5
tp6
F62.866923400220365
s(S'N5'
p7
S'cerevisiae'
p8
tp9
F24.09316967221627
s(g5
S'N3'
p10
tp11
F8.723827306475693
s(S'N4'
p12
g7
tp13
F11.42605857717354
s(g4
S'castellii'
p14
tp15
F104.17927039099662
s(g5
S'bayanus'
p16
tp17
F20.81252013926746
s(S'N0'
p18
g4
tp19
F11.388570606909397
s(g10
S'kudriavzevii'
p20
tp21
F20.8941197291433
s(g7
S'paradoxus'
p22
tp23
F7.182434866686641
s(g18
S'kluyveri'
p24
tp25
F0.0
s(g10
g12
tp26
F8.946044458163088
s(g12
S'mikatae'
p27
tp28
F25.632057013181736
ssS'ExpectedDwellTime'
p29
(dp30
g6
F575.7697010857688
sg9
F775.9797017466416
sg11
F767.231218253226
sg13
F787.5475349106636
sg15
F592.4859880057887
sg17
F749.5171675378964
sg19
F193.98737313907455
sg21
F787.4364466365954
sg23
F782.6186834383334
sg25
F0.0
sg26
F787.5981591288912
sg28
F783.5855004493183
ssS'newicktree'
p31
S'../PairsAlignemt/YeastTree.newick'
p32
sS'll'
p33
cnumpy.core.multiarray
scalar
p34
(cnumpy
dtype
p35
(S'f8'
p36
I0
I1
tp37
Rp38
(I3
S'<'
p39
NNNI-1
I-1
I0
tp40
bS'\xeb\r\xd1\xc7\xdcq\xbf\xc0'
p41
tp42
Rp43
sS'edge_list'
p44
(lp45
g19
ag25
ag6
ag15
ag11
ag17
ag26
ag21
ag13
ag28
ag9
ag23
asS'edge_to_blen'
p46
(dp47
g6
g34
(g38
S'\x04\x0eQ\x1e\xe6t\xd0?'
p48
tp49
Rp50
sg9
g34
(g38
S'}\xe3$<\x97\xf9\xac?'
p51
tp52
Rp53
sg11
g34
(g38
S'\x14\xcd\x97\xfb\xce\xd2\xa2?'
p54
tp55
Rp56
sg13
g34
(g38
S'\xccI!\x12\xb3F\x9f?'
p57
tp58
Rp59
sg21
g34
(g38
S'\xd2\xb4\t\xc5\xab\xf8\xae?'
p60
tp61
Rp62
sg17
g34
(g38
S'*\xeb\x92\xe8\x03\xa8\xac?'
p63
tp64
Rp65
sg19
g34
(g38
S'\x18^m.\x9a\xea\xbf?'
p66
tp67
Rp68
sg15
g34
(g38
S'\xe2\xfe\xd5,\x8c6\xd6?'
p69
tp70
Rp71
sg23
g34
(g38
S'2K\x8b\xf5K\x8d\x96?'
p72
tp73
Rp74
sg28
g34
(g38
S'\xf2\xcc\x89\xe4ST\xb1?'
p75
tp76
Rp77
sg26
g34
(g38
S'\xe66\x0fV\xf9\xe4\x99?'
p78
tp79
Rp80
sg25
g34
(g38
S'ATaN\xfdA\xce?'
p81
tp82
Rp83
ssS'paralog'
p84
(lp85
S'YPL087W'
p86
aS'YBR183W'
p87
asS'alignment_file'
p88
S'../MafftAlignment/YPL087W_YBR183W/YPL087W_YBR183W_input.fasta'
p89
sS'x_clock'
p90
NsS'x'
p91
cnumpy.core.multiarray
_reconstruct
p92
(cnumpy
ndarray
p93
(I0
tp94
S'b'
p95
tp96
Rp97
(I1
(I17
tp98
g38
I00
S'\x19{\x15\xb7\xea*\xe8\xbf\xe8\xfah\x08\xbe\x9b\xe2\xbff\xd8w\xac\x94\x9b\xf0\xbf\xc8RM\xa5\x81\xe6\xf3?NF\xb8-\xd7G\xe8\xbfv\xb7I~\r\xa8\x00\xc0V\xb9\xafC\x91\x13\xf7\xbf\xfd.\xfb\xf6\xff\xba\xf5\xbf^$\x80(e\xee\xf0\xbf\x00\x0b\x1f\xa7\xfel\n\xc0zG\xb8\x99H\x10\x07\xc0\x7f\x85\xc0\xb9gk\r\xc0\xe1\xd4\xa6\xde,q\x06\xc0\xacE2)\xaf\xe8\x0b\xc0g\xd0\xa7e\xcc\x8a\x05\xc0\xee\x8a\xe6\xc3\xa2\xf9\x06\xc0\xc7\x89\xb1\xdfs\x86\x0e\xc0'
p99
tp100
bsS'Model'
p101
S'HKY'
p102
sS'clock'
p103
I00
s.