(dp0
S'Force'
p1
NsS'ExpectedGeneconv'
p2
(dp3
(S'N1'
p4
S'N2'
p5
tp6
F8.963607848121832
s(S'N5'
p7
S'cerevisiae'
p8
tp9
F26.023638276498307
s(g5
S'N3'
p10
tp11
F5.273338009260747
s(S'N4'
p12
g7
tp13
F2.0786220322073627
s(g4
S'castellii'
p14
tp15
F59.128337076910846
s(g5
S'bayanus'
p16
tp17
F23.93285061465662
s(S'N0'
p18
g4
tp19
F29.119719066378693
s(g10
S'kudriavzevii'
p20
tp21
F23.1122583909305
s(g7
S'paradoxus'
p22
tp23
F10.584209137884688
s(g18
S'kluyveri'
p24
tp25
F0.0
s(g10
g12
tp26
F5.7551891665089325
s(g12
S'mikatae'
p27
tp28
F14.168476675004525
ssS'ExpectedDwellTime'
p29
(dp30
g6
F76.3049069864609
sg9
F68.13963908728428
sg11
F79.35329486746969
sg13
F85.34703782633618
sg15
F79.53274768259833
sg17
F72.33524730002705
sg19
F44.304184363622895
sg21
F81.6040227220412
sg23
F94.44495011130557
sg25
F0.0
sg26
F81.51944974376953
sg28
F94.49131605600232
ssS'newicktree'
p31
S'../PairsAlignemt/YeastTree.newick'
p32
sS'll'
p33
cnumpy.core.multiarray
scalar
p34
(cnumpy
dtype
p35
(S'f8'
p36
I0
I1
tp37
Rp38
(I3
S'<'
p39
NNNI-1
I-1
I0
tp40
bS'y\x90`\xec\xa0\x8b\xa1\xc0'
p41
tp42
Rp43
sS'edge_list'
p44
(lp45
g19
ag25
ag6
ag15
ag11
ag17
ag26
ag21
ag13
ag28
ag9
ag23
asS'edge_to_blen'
p46
(dp47
g6
g34
(g38
S'\xcc\x8b\x8f\x93\x8b\x94\x87?'
p48
tp49
Rp50
sg9
g34
(g38
S'=\xfa\xcdZT\x02\x96?'
p51
tp52
Rp53
sg11
g34
(g38
S'\x1eKp\xe6Y\x16w?'
p54
tp55
Rp56
sg13
g34
(g38
S'\xc8$emL\x08a?'
p57
tp58
Rp59
sg21
g34
(g38
S'\xb8\xdc\xcb\xa8+\x91\x9c?'
p60
tp61
Rp62
sg17
g34
(g38
S'\xfa2F\xbf+\xf5\x97?'
p63
tp64
Rp65
sg19
g34
(g38
S's\xca\x08`\xc3\xc1\xaf?'
p66
tp67
Rp68
sg15
g34
(g38
S'\xcd\xf2\x89\x14\xfe\x05\xb1?'
p69
tp70
Rp71
sg23
g34
(g38
S'\xfe\xe7+\x12j\x90\x90?'
p72
tp73
Rp74
sg25
g34
(g38
S'I\xad\xd6\xd2\x97\xd4\x87?'
p75
tp76
Rp77
sg26
g34
(g38
S'\x88\xe7J\x89\x07`\x80?'
p78
tp79
Rp80
sg28
g34
(g38
S'\xf3\xc5\xfb\xff[\x92\x93?'
p81
tp82
Rp83
ssS'paralog'
p84
(lp85
S'YNL301C'
p86
aS'YOL120C'
p87
asS'alignment_file'
p88
S'../MafftAlignment/YNL301C_YOL120C/YNL301C_YOL120C_input.fasta'
p89
sS'x_clock'
p90
NsS'x'
p91
cnumpy.core.multiarray
_reconstruct
p92
(cnumpy
ndarray
p93
(I0
tp94
S'b'
p95
tp96
Rp97
(I1
(I17
tp98
g38
I00
S'\xd7\xe6\xc2\xd1+\xa1\xe7\xbf\xb7~\xbcyz-\xe2\xbf\xce/t\xeeSO\xe9\xbf\x8dO\x83]\xb5\xdc\xff?\xf2\x83(\xea\xea*\x03@\x9e\xf0\x1e\\\xe1=\x06\xc0\xa2\xa2\x93\xfa\x8a\xd0\x11\xc0\xbe5\xe4\xadY\xdb\x11\xc0\xe2\xe9\x8c\xcfH\xaf\x05\xc0\xfd<\xe9D\xc4\xb6\x14\xc0\xe5/,\xe7\x9c\n\x0e\xc0\xeey\xcc\xac\xbfP\x13\xc0\x06\xeae\x8e<\xa2\x0c\xc0u\xab\xb1\x99\x03\xb4\x18\xc0\xe9\xc6\xa3)\xba\xa8\x0f\xc0\x01\x85z6Z\xb8\x0e\xc0\xb7U~\xee6\x7f\x10\xc0'
p99
tp100
bsS'Model'
p101
S'HKY'
p102
sS'clock'
p103
I00
s.