(dp0
S'Force'
p1
NsS'ExpectedGeneconv'
p2
(dp3
(S'N1'
p4
S'N2'
p5
tp6
F12.60389227982683
s(S'N5'
p7
S'cerevisiae'
p8
tp9
F10.980248595686348
s(g5
S'N3'
p10
tp11
F6.265743856849487
s(S'N4'
p12
g7
tp13
F1.3816106602467397
s(g4
S'castellii'
p14
tp15
F17.667200307193973
s(g5
S'bayanus'
p16
tp17
F5.580710039176195
s(S'N0'
p18
g4
tp19
F11.930568556892554
s(g10
S'kudriavzevii'
p20
tp21
F5.72270429405925
s(g7
S'paradoxus'
p22
tp23
F2.5310502493099145
s(g18
S'kluyveri'
p24
tp25
F0.0
s(g10
g12
tp26
F3.60785433036716
s(g12
S'mikatae'
p27
tp28
F8.260269259741742
ssS'ExpectedDwellTime'
p29
(dp30
g6
F56.35214384029319
sg9
F59.38565863748662
sg11
F60.46752569542407
sg13
F65.58321384492326
sg15
F59.15634765667795
sg17
F60.69174863014074
sg19
F29.831708461822046
sg21
F62.23676983776689
sg23
F70.60365819653025
sg25
F0.0
sg26
F63.56721602588057
sg28
F65.8477867004916
ssS'newicktree'
p31
S'../PairsAlignemt/YeastTree.newick'
p32
sS'll'
p33
cnumpy.core.multiarray
scalar
p34
(cnumpy
dtype
p35
(S'f8'
p36
I0
I1
tp37
Rp38
(I3
S'<'
p39
NNNI-1
I-1
I0
tp40
bS'd\xd9\xed\x17:\x84\x94\xc0'
p41
tp42
Rp43
sS'edge_list'
p44
(lp45
g19
ag25
ag6
ag15
ag11
ag17
ag26
ag21
ag13
ag28
ag9
ag23
asS'edge_to_blen'
p46
(dp47
g6
g34
(g38
S'\x19%\xbb\x11\x9f4\x9c?'
p48
tp49
Rp50
sg9
g34
(g38
S'\xc6\xa0\xcc\xff:L\x90?'
p51
tp52
Rp53
sg11
g34
(g38
S'o\x95+\xe2\xdc+\x8a?'
p54
tp55
Rp56
sg13
g34
(g38
S'A\xe1\x93\x8fa\x01j?'
p57
tp58
Rp59
sg21
g34
(g38
S'\xb3\xc6H\xebK\x94\x88?'
p60
tp61
Rp62
sg17
g34
(g38
S'\x8d\xda\xfe\x9f\xfda\x87?'
p63
tp64
Rp65
sg19
g34
(g38
S'\x92 r\x17O\x99\xac?'
p66
tp67
Rp68
sg15
g34
(g38
S'\xaeL\x83\xde\x04A\xa5?'
p69
tp70
Rp71
sg23
g34
(g38
S'X~\x98IU\x06\x82?'
p72
tp73
Rp74
sg25
g34
(g38
S'sG\xedC\xfc\xdf\x9d>'
p75
tp76
Rp77
sg26
g34
(g38
S'\xb0\xfd4_\x18\xb4\x81?'
p78
tp79
Rp80
sg28
g34
(g38
S'\xfb\xdb\\\x85\xb5\x07\x8f?'
p81
tp82
Rp83
ssS'paralog'
p84
(lp85
S'YER131W'
p86
aS'YGL189C'
p87
asS'alignment_file'
p88
S'../MafftAlignment/YER131W_YGL189C/YER131W_YGL189C_input.fasta'
p89
sS'x_clock'
p90
NsS'x'
p91
cnumpy.core.multiarray
_reconstruct
p92
(cnumpy
ndarray
p93
(I0
tp94
S'b'
p95
tp96
Rp97
(I1
(I17
tp98
g38
I00
S'8G\xa7W\x9et\xe6\xbf\xcd\xa6\xfb\x88\xa6s\xdd\xbf:y\xf6/\x16\xe3\xe4\xbf\te\xdb\x86\x1f\xe4\x01@\x8b \x9d_\xc6Y\x00@)\xac\x81\xaed\x14\x07\xc0\x8c=L\xa6\xe6?-\xc0\xda\tl\xd5Q\xbc\x0c\xc0E\xb4\xf2KIt\t\xc0\x9aL\xb0\xce\x97p\x11\xc0L\xc1\xcbO\xf6\xe3\x11\xc0j\n\x01\x9b\xe0\x00\x13\xc0eS\xc95\xdc\xb0\x11\xc0\xb3\xadt\x05\xac\x02\x17\xc0L}\x19t6\xc2\x10\xc0?\x0c<W\xd0\x8f\x10\xc0s\xdavwv\xee\x12\xc0'
p99
tp100
bsS'Model'
p101
S'HKY'
p102
sS'clock'
p103
I00
s.