(dp0
S'Force'
p1
NsS'ExpectedGeneconv'
p2
(dp3
(S'N1'
p4
S'N2'
p5
tp6
F24.84647591178213
s(S'N5'
p7
S'cerevisiae'
p8
tp9
F6.137378121655153
s(g5
S'N3'
p10
tp11
F7.699711219031107
s(S'N4'
p12
g7
tp13
F17.32928350230129
s(g4
S'castellii'
p14
tp15
F51.824656553113364
s(g5
S'bayanus'
p16
tp17
F30.812377577715534
s(S'N0'
p18
g4
tp19
F52.09918287183428
s(g10
S'kudriavzevii'
p20
tp21
F19.32770734784281
s(g7
S'paradoxus'
p22
tp23
F6.254726502491921
s(g18
S'kluyveri'
p24
tp25
F0.0
s(g10
g12
tp26
F8.864266742997797
s(g12
S'mikatae'
p27
tp28
F9.050337999415973
ssS'ExpectedDwellTime'
p29
(dp30
g6
F78.98072590525864
sg9
F27.990020899133626
sg11
F75.48639691656827
sg13
F47.28888652983188
sg15
F79.33859418878359
sg17
F66.06916914126856
sg19
F49.19342364823689
sg21
F85.94257255036905
sg23
F34.322977709306805
sg25
F0.0
sg26
F68.19827668497773
sg28
F63.07888884715269
ssS'newicktree'
p31
S'../PairsAlignemt/YeastTree.newick'
p32
sS'll'
p33
cnumpy.core.multiarray
scalar
p34
(cnumpy
dtype
p35
(S'f8'
p36
I0
I1
tp37
Rp38
(I3
S'<'
p39
NNNI-1
I-1
I0
tp40
bS'?\xae:y\xbe\x89\xa0\xc0'
p41
tp42
Rp43
sS'edge_list'
p44
(lp45
g19
ag25
ag6
ag15
ag11
ag17
ag26
ag21
ag13
ag28
ag9
ag23
asS'edge_to_blen'
p46
(dp47
g6
g34
(g38
S'\xc2\xbeq\x17\x06\x8a\x94?'
p48
tp49
Rp50
sg9
g34
(g38
S'!\xb5k\x18 _r?'
p51
tp52
Rp53
sg11
g34
(g38
S'5\xa9\x12\xf7\xeb\xa6y?'
p54
tp55
Rp56
sg13
g34
(g38
S'\xf3g\xb1\xae\x15\x16\x87?'
p57
tp58
Rp59
sg21
g34
(g38
S'\x84\x11\xbf\xec\xd8j\x97?'
p60
tp61
Rp62
sg17
g34
(g38
S'\xba\xd6\x81g\x1cv\x98?'
p63
tp64
Rp65
sg19
g34
(g38
S':-,@\xf6\x97\xb3?'
p66
tp67
Rp68
sg15
g34
(g38
S'x\x1fY\xab5\xcb\xa5?'
p69
tp70
Rp71
sg23
g34
(g38
S'\x96\xee\xa8K\xdf\x11\x80?'
p72
tp73
Rp74
sg25
g34
(g38
S'\x8f_\xf48\x0eH\x95>'
p75
tp76
Rp77
sg26
g34
(g38
S'\x9c\xd3PtS\xf0v?'
p78
tp79
Rp80
sg28
g34
(g38
S'\xf1\xd4w\xb7^\x91\x82?'
p81
tp82
Rp83
ssS'paralog'
p84
(lp85
S'YER102W'
p86
aS'YBL072C'
p87
asS'alignment_file'
p88
S'../MafftAlignment/YER102W_YBL072C/YER102W_YBL072C_input.fasta'
p89
sS'x_clock'
p90
NsS'x'
p91
cnumpy.core.multiarray
_reconstruct
p92
(cnumpy
ndarray
p93
(I0
tp94
S'b'
p95
tp96
Rp97
(I1
(I17
tp98
g38
I00
S'\t\xdd\x8c7\xc2\x05\xe7\xbf\xb2T}\xcc\n\x05\xe2\xbf@\xbe\x9aZ"\xa1\xe8\xbf\xf5\x12\x16\xe4\x89P\x01@\xd6\x10e\xdes0\x06@K}\xdb\xbcN\x8f\x04\xc0o\xd4\x0b\x1c\x90\xed-\xc0\x10YV\x85\xeaE\x0f\xc0`\xcf\xf9\xc0\xeb@\t\xc0\xfe\x942\t\xe6J\x14\xc0~\xe9\xba\xda\x00\xe0\r\xc0W\xe9DC`\xbd\x14\xc0\x8c)C\xbbT9\x0e\xc0\xbbj\xcb\xb6\x07\xf1\x11\xc0)\x1e\xd6U\x10\xd0\x12\xc0\xc3\x045g\xba\xa0\x15\xc0/-,I\x05d\x13\xc0'
p99
tp100
bsS'Model'
p101
S'HKY'
p102
sS'clock'
p103
I00
s.