(dp0
S'Force'
p1
NsS'ExpectedGeneconv'
p2
(dp3
(S'N1'
p4
S'N2'
p5
tp6
F28.869479464949265
s(S'N5'
p7
S'cerevisiae'
p8
tp9
F11.815276104177062
s(g5
S'N3'
p10
tp11
F5.3595637815550665
s(S'N4'
p12
g7
tp13
F4.329057210763424
s(g4
S'castellii'
p14
tp15
F68.70984969148013
s(g5
S'bayanus'
p16
tp17
F14.701346029306073
s(S'N0'
p18
g4
tp19
F11.08963229278271
s(g10
S'kudriavzevii'
p20
tp21
F14.132981107109915
s(g7
S'paradoxus'
p22
tp23
F8.249144389634665
s(g18
S'kluyveri'
p24
tp25
F0.0
s(g10
g12
tp26
F6.254027405897663
s(g12
S'mikatae'
p27
tp28
F18.759029599138568
ssS'ExpectedDwellTime'
p29
(dp30
g6
F225.06076995906892
sg9
F318.2117911539465
sg11
F278.23445779312635
sg13
F306.3293757625568
sg15
F232.0538294599453
sg17
F286.8204456449817
sg19
F92.55017750181565
sg21
F283.55074121768564
sg23
F311.8416656132656
sg25
F0.0
sg26
F288.2690572579818
sg28
F292.4139078728113
ssS'newicktree'
p31
S'../PairsAlignemt/YeastTree.newick'
p32
sS'll'
p33
cnumpy.core.multiarray
scalar
p34
(cnumpy
dtype
p35
(S'f8'
p36
I0
I1
tp37
Rp38
(I3
S'<'
p39
NNNI-1
I-1
I0
tp40
bS'\\[\xe9\xecy\x0e\xad\xc0'
p41
tp42
Rp43
sS'edge_list'
p44
(lp45
g19
ag25
ag6
ag15
ag11
ag17
ag26
ag21
ag13
ag28
ag9
ag23
asS'edge_to_blen'
p46
(dp47
g6
g34
(g38
S'\xf1M\x13\x9b\xb6\x7f\xc1?'
p48
tp49
Rp50
sg9
g34
(g38
S'\xad\x9d\xaa(\xa9\xa5\xa8?'
p51
tp52
Rp53
sg11
g34
(g38
S'c\xd3\x0e\x08sp\x95?'
p54
tp55
Rp56
sg13
g34
(g38
S'\x16\xaf\x95\xb5\x82\xc4\x96?'
p57
tp58
Rp59
sg21
g34
(g38
S'\xda|1;\xfb\xd1\xaa?'
p60
tp61
Rp62
sg17
g34
(g38
S'w\xb8\xa7q\xed\x98\xb0?'
p63
tp64
Rp65
sg19
g34
(g38
S'j\x13/\xb68\x16\xbf?'
p66
tp67
Rp68
sg15
g34
(g38
S'\x14NB{\x87@\xd0?'
p69
tp70
Rp71
sg23
g34
(g38
S'\xd8\xed\rw*H\x97?'
p72
tp73
Rp74
sg25
g34
(g38
S'\xedMT\xfc\xb2\x8f\xcc?'
p75
tp76
Rp77
sg26
g34
(g38
S'\x8a\xdf\x98\\\xeeA\x9f?'
p78
tp79
Rp80
sg28
g34
(g38
S')\ta\xd8\x84\xa8\xad?'
p81
tp82
Rp83
ssS'paralog'
p84
(lp85
S'YIL057C'
p86
aS'YER067W'
p87
asS'alignment_file'
p88
S'../MafftAlignment/YIL057C_YER067W/YIL057C_YER067W_input.fasta'
p89
sS'x_clock'
p90
NsS'x'
p91
cnumpy.core.multiarray
_reconstruct
p92
(cnumpy
ndarray
p93
(I0
tp94
S'b'
p95
tp96
Rp97
(I1
(I17
tp98
g38
I00
S'\xb2\xf9\x03\xccFY\xe5\xbf!)\xd9B\xec\xa8\xdd\xbf\xc4\x92)7\xbe\xc6\xe7\xbf#\x83\x90\xe3\x83\xaf\xf6?\x1f}\x8eY\xabs\x8e\xbf\x1d\xc1\x97\xb4\xfd\xdd\x00\xc0\x86\x93\xf0\x9b\xe7\xff\xf7\xbfq\xba\xc7p\x9a\xd6\xff\xbf\xa5\xac\x18J<\xee\xf5\xbf\\\x926\x8a\x13\xee\x0e\xc0\x1a\x87Q\xd80\xe3\x05\xc0"\x13v~\xe7\xe9\x0b\xc0Ro\xc2J\xe5\x97\x07\xc0\xcb\x0e\xa8\x95\xf5r\x0e\xc0\xab\xfe@\x15\xe6\xc9\x06\xc0\x82\x04\x0b\x17\xf2D\x08\xc0\xae~z\xa86E\x0e\xc0'
p99
tp100
bsS'Model'
p101
S'HKY'
p102
sS'clock'
p103
I00
s.