(dp0
S'Force'
p1
NsS'ExpectedGeneconv'
p2
(dp3
(S'N1'
p4
S'N2'
p5
tp6
F35.932895149964445
s(S'N5'
p7
S'cerevisiae'
p8
tp9
F6.298621135807815
s(g5
S'N3'
p10
tp11
F1.3557374840349292
s(S'N4'
p12
g7
tp13
F1.9190701880513918
s(g4
S'castellii'
p14
tp15
F53.955093663338964
s(g5
S'bayanus'
p16
tp17
F11.155333752297032
s(S'N0'
p18
g4
tp19
F44.53209704591771
s(g10
S'kudriavzevii'
p20
tp21
F2.1544518743973375
s(g7
S'paradoxus'
p22
tp23
F2.653310495963419
s(g18
S'kluyveri'
p24
tp25
F0.0
s(g10
g12
tp26
F5.178018324363824
s(g12
S'mikatae'
p27
tp28
F5.280504062974386
ssS'ExpectedDwellTime'
p29
(dp30
g6
F41.96002063964944
sg9
F48.00178818860287
sg11
F32.96186601953728
sg13
F42.43517836247579
sg15
F52.290722220689254
sg17
F25.621331359147725
sg19
F34.63187381019437
sg21
F42.23807408788193
sg23
F52.1766318967778
sg25
F0.0
sg26
F36.41609041769686
sg28
F42.764723907888616
ssS'newicktree'
p31
S'../PairsAlignemt/YeastTree.newick'
p32
sS'll'
p33
cnumpy.core.multiarray
scalar
p34
(cnumpy
dtype
p35
(S'f8'
p36
I0
I1
tp37
Rp38
(I3
S'<'
p39
NNNI-1
I-1
I0
tp40
bS'"|\xc6\xeb\x88\xcc\x94\xc0'
p41
tp42
Rp43
sS'edge_list'
p44
(lp45
g19
ag25
ag6
ag15
ag11
ag17
ag26
ag21
ag13
ag28
ag9
ag23
asS'edge_to_blen'
p46
(dp47
g6
g34
(g38
S'v\xd6\x085\x0e9\xaf?'
p48
tp49
Rp50
sg9
g34
(g38
S'\x12\x9c\xb2t&|\x8a?'
p51
tp52
Rp53
sg11
g34
(g38
S'm\x96\xe1&1>t?'
p54
tp55
Rp56
sg13
g34
(g38
S'\xcd\x1e"\xed\x93\x85~?'
p57
tp58
Rp59
sg21
g34
(g38
S'\xdd\x02T\x0b\x94M\x86?'
p60
tp61
Rp62
sg17
g34
(g38
S'\xf6\xe3\xd458\x83\x95?'
p63
tp64
Rp65
sg19
g34
(g38
S'\xd5\xe2\xdd\xd7\xe3\xe2\xbd?'
p66
tp67
Rp68
sg15
g34
(g38
S'\xe8h\xc2\x95\x00\x0c\xb9?'
p69
tp70
Rp71
sg23
g34
(g38
S'\x1c-2\xa3&\xf2\x82?'
p72
tp73
Rp74
sg25
g34
(g38
S'G\\\x90K\x94\xaa[?'
p75
tp76
Rp77
sg26
g34
(g38
S'X#\x7fh\xda\x11\x89?'
p78
tp79
Rp80
sg28
g34
(g38
S'PaI\xc0L\xb4\x8d?'
p81
tp82
Rp83
ssS'paralog'
p84
(lp85
S'YLR333C'
p86
aS'YGR027C'
p87
asS'alignment_file'
p88
S'../MafftAlignment/YLR333C_YGR027C/YLR333C_YGR027C_input.fasta'
p89
sS'x_clock'
p90
NsS'x'
p91
cnumpy.core.multiarray
_reconstruct
p92
(cnumpy
ndarray
p93
(I0
tp94
S'b'
p95
tp96
Rp97
(I1
(I17
tp98
g38
I00
S'\t\xf1\xc8\xc4\x9d\xad\xe7\xbf+|\r;jV\xe0\xbf\x7f\xa6\xaf<\x15\x16\xe9\xbfT\x91OfwZ\x00@\x8b\xd9\xc8:\xdb?\x03@\x98\xace\t\xa6.\x01\xc0\x0f^\x83\x8b\x0e\x89\x19\xc0iES\x99\x9c`\x06\xc0\xde\xb7\x96\xb7m\x98\x02\xc0\x89\n\xe04f=\x15\xc0\xed\x1d=\x8f\x15\xe7\x0e\xc0\x05yU\xe3\xa0\x9c\x11\xc0\x8d\x17\xe2\x9c_\x14\x12\xc0\x9a\x1d\x83\xbf\xe8\x98\x13\xc0\x81\x08\x0bZ\xed\xee\x10\xc0\xbaa\x1f\x18ed\x11\xc0O\r\x81\x90l\xbb\x12\xc0'
p99
tp100
bsS'Model'
p101
S'HKY'
p102
sS'clock'
p103
I00
s.