(dp0
S'Force'
p1
NsS'ExpectedGeneconv'
p2
(dp3
(S'N1'
p4
S'N2'
p5
tp6
F77.7114144921736
s(S'N5'
p7
S'cerevisiae'
p8
tp9
F41.45054538535772
s(g5
S'N3'
p10
tp11
F20.815302294790474
s(S'N4'
p12
g7
tp13
F15.863023911164913
s(g4
S'castellii'
p14
tp15
F128.53878117027642
s(g5
S'bayanus'
p16
tp17
F36.558109441977585
s(S'N0'
p18
g4
tp19
F4.9263671917691285
s(g10
S'kudriavzevii'
p20
tp21
F41.12553739276882
s(g7
S'paradoxus'
p22
tp23
F26.037395284757757
s(g18
S'kluyveri'
p24
tp25
F0.0
s(g10
g12
tp26
F20.971186533372542
s(g12
S'mikatae'
p27
tp28
F53.98706147784828
ssS'ExpectedDwellTime'
p29
(dp30
g6
F787.8407346929524
sg9
F1279.3642494748708
sg11
F1209.5237722415588
sg13
F1282.3175622841222
sg15
F859.6050200795822
sg17
F1216.9879643909555
sg19
F168.60559011351953
sg21
F1278.963857550101
sg23
F1297.0195379393795
sg25
F0.0
sg26
F1257.5346329018541
sg28
F1280.023310931575
ssS'newicktree'
p31
S'../PairsAlignemt/YeastTree.newick'
p32
sS'll'
p33
cnumpy.core.multiarray
scalar
p34
(cnumpy
dtype
p35
(S'f8'
p36
I0
I1
tp37
Rp38
(I3
S'<'
p39
NNNI-1
I-1
I0
tp40
bS'\xbb\x94VELT\xcd\xc0'
p41
tp42
Rp43
sS'edge_list'
p44
(lp45
g19
ag25
ag6
ag15
ag11
ag17
ag26
ag21
ag13
ag28
ag9
ag23
asS'edge_to_blen'
p46
(dp47
g6
g34
(g38
S't?`\xe1\x04\xd6\xc5?'
p48
tp49
Rp50
sg9
g34
(g38
S'\x11\xf7\xccBH2\xa4?'
p51
tp52
Rp53
sg11
g34
(g38
S'\x00}\x1b\x9a\xf7]\x9d?'
p54
tp55
Rp56
sg13
g34
(g38
S'\xb4\xd79]\xca\x91\x93?'
p57
tp58
Rp59
sg21
g34
(g38
S'B\xdf\x1a\x15\tR\xa9?'
p60
tp61
Rp62
sg17
g34
(g38
S'=&\rt\xff\xf0\xa7?'
p63
tp64
Rp65
sg19
g34
(g38
S'\x04\x06\xd1\x15b\x9c\xa6?'
p66
tp67
Rp68
sg15
g34
(g38
S'\xb0q\x9e\xcc\xd2\xd7\xcc?'
p69
tp70
Rp71
sg23
g34
(g38
S'.#\x96,9\xa4\x9e?'
p72
tp73
Rp74
sg25
g34
(g38
S':\xd1\x99R\xf5%\xbb?'
p75
tp76
Rp77
sg26
g34
(g38
S'\xcfH\x0f_?m\x99?'
p78
tp79
Rp80
sg28
g34
(g38
S'\x96\xc0`o\xd0H\xad?'
p81
tp82
Rp83
ssS'paralog'
p84
(lp85
S'YBR117C'
p86
aS'YPR074C'
p87
asS'alignment_file'
p88
S'../MafftAlignment/YBR117C_YPR074C/YBR117C_YPR074C_input.fasta'
p89
sS'x_clock'
p90
NsS'x'
p91
cnumpy.core.multiarray
_reconstruct
p92
(cnumpy
ndarray
p93
(I0
tp94
S'b'
p95
tp96
Rp97
(I1
(I17
tp98
g38
I00
S'\xe5\xfdJ\xff\x99M\xe8\xbf\xc0\x9b\xda\xb5\xbb;\xe2\xbf5kCL\xbf.\xe9\xbf&\xde\x1f\x0b\x9e\x1d\xf6?\x97\xaa\xc35\x9f\x8c\xda\xbf\x8d\xb8\xc0\xdf\x8a\xf5\x08\xc0k\x18\x87\xf1n\xf3\x01\xc0\xc3\xb2\xe6\xea\xa6K\xfc\xbf\xa5\xe2\xc5\xe5\xb2\xd7\xf7\xbf\x99\x19\xc2O\xaci\x0c\xc0\xa4Q\x8b\x00q\x80\x08\xc0\x7f\x07\x16}\xbb\x90\r\xc0\x8c\x9a\xe8!\xbf\r\x08\xc0\x9b\xc0\xf2\xb1\xf5\xa8\x0f\xc0\xfcX4\xcf\xe0\xe3\x06\xc0Z\xe4\x1fy\xd0\xdc\t\xc0T\xa1\x1d\xb8\xab\x12\x0c\xc0'
p99
tp100
bsS'Model'
p101
S'HKY'
p102
sS'clock'
p103
I00
s.