(dp0
S'Force'
p1
NsS'ExpectedGeneconv'
p2
(dp3
(S'N1'
p4
S'N2'
p5
tp6
F18.574425818518247
s(S'N5'
p7
S'cerevisiae'
p8
tp9
F5.310441759757324
s(g5
S'N3'
p10
tp11
F1.592187216901259
s(S'N4'
p12
g7
tp13
F4.1089525708117725
s(g4
S'castellii'
p14
tp15
F7.363375193873496
s(g5
S'bayanus'
p16
tp17
F7.428568093506826
s(S'N0'
p18
g4
tp19
F0.3150107118333593
s(g10
S'kudriavzevii'
p20
tp21
F7.416970464472787
s(g7
S'paradoxus'
p22
tp23
F3.4155624773762057
s(g18
S'kluyveri'
p24
tp25
F0.0
s(g10
g12
tp26
F2.433108843089291
s(g12
S'mikatae'
p27
tp28
F9.144831574961458
ssS'ExpectedDwellTime'
p29
(dp30
g6
F209.61560678282862
sg9
F352.03857820423656
sg11
F336.38739739786627
sg13
F343.88568421444967
sg15
F118.47349925903028
sg17
F340.2414736509451
sg19
F26.359404548598015
sg21
F342.8953888603429
sg23
F354.4694503286117
sg25
F0.0
sg26
F339.1754809786972
sg28
F337.9870080567754
ssS'newicktree'
p31
S'../PairsAlignemt/YeastTree.newick'
p32
sS'll'
p33
cnumpy.core.multiarray
scalar
p34
(cnumpy
dtype
p35
(S'f8'
p36
I0
I1
tp37
Rp38
(I3
S'<'
p39
NNNI-1
I-1
I0
tp40
bS'1%l],\x91\xa8\xc0'
p41
tp42
Rp43
sS'edge_list'
p44
(lp45
g19
ag25
ag6
ag15
ag11
ag17
ag26
ag21
ag13
ag28
ag9
ag23
asS'edge_to_blen'
p46
(dp47
g6
g34
(g38
S'R\x94A*w\xc3\xd1?'
p48
tp49
Rp50
sg9
g34
(g38
S'Ai\xe3sE5\xa6?'
p51
tp52
Rp53
sg11
g34
(g38
S'[k\xce]\xeb\xb9\x8f?'
p54
tp55
Rp56
sg13
g34
(g38
S'\xc8\xc2\xfd\x9ba\x92\x9e?'
p57
tp58
Rp59
sg21
g34
(g38
S'\x19\xdf*\x19d\xa0\xac?'
p60
tp61
Rp62
sg17
g34
(g38
S'|p\xf1\xf3R\xba\xaf?'
p63
tp64
Rp65
sg19
g34
(g38
S'\xf2\x98\x10\xa8\xd0\x81\xa0?'
p66
tp67
Rp68
sg15
g34
(g38
S'QK\xee\xe6\xce}\xbc?'
p69
tp70
Rp71
sg23
g34
(g38
S'\x0b:\xa6\xf1\x9e\x11\xa0?'
p72
tp73
Rp74
sg25
g34
(g38
S'\xbcZ\x99\xa9\xba\xf7\xc1?'
p75
tp76
Rp77
sg26
g34
(g38
S'\xcc\xb6\xec- j\x8d?'
p78
tp79
Rp80
sg28
g34
(g38
S'\x9b+\x1c\xd0\xd1\xd0\xb0?'
p81
tp82
Rp83
ssS'paralog'
p84
(lp85
S'YPL037C'
p86
aS'YDR252W'
p87
asS'alignment_file'
p88
S'../MafftAlignment/YPL037C_YDR252W/YPL037C_YDR252W_input.fasta'
p89
sS'x_clock'
p90
NsS'x'
p91
cnumpy.core.multiarray
_reconstruct
p92
(cnumpy
ndarray
p93
(I0
tp94
S'b'
p95
tp96
Rp97
(I1
(I17
tp98
g38
I00
S'\x17\xe4\xcb\xb1"\x89\xe5\xbf\xa3\xf7\xad]n\xf1\xdc\xbf"S@\x857I\xe6\xbf\x87\x9dC\xb5}?\xf7?<\x02\xd4&\x9f\xd3\xef\xbf\xb3\xa1DK\xedy\x0b\xc0\xd0\x06i\xccOj\xff\xbf\x83\x98\xa6\xc6\xfc\x81\xf4\xbfz[\xb3\x00\x89\x90\x01\xc0\xbc{?y~\xab\x10\xc0N\xa8oT\xc1?\x06\xc01\xf3\xf4\xea\xf6\xf8\x10\xc06\x98\x9a\xc5i\x12\x07\xc05\x99I\x98U\x17\x0c\xc0\xe34\x00\x1fm\xc8\x05\xc0\xb3\xbc\x00\x82Z\x1a\t\xc0@\xd9S\x1c\t\xb1\x0b\xc0'
p99
tp100
bsS'Model'
p101
S'HKY'
p102
sS'clock'
p103
I00
s.