(dp0
S'Force'
p1
NsS'ExpectedGeneconv'
p2
(dp3
(S'N1'
p4
S'N2'
p5
tp6
F59.62371983722935
s(S'N5'
p7
S'cerevisiae'
p8
tp9
F31.357554260857587
s(g5
S'N3'
p10
tp11
F20.268108487919026
s(S'N4'
p12
g7
tp13
F18.93639502175973
s(g4
S'castellii'
p14
tp15
F87.62524260713177
s(g5
S'bayanus'
p16
tp17
F47.060693376154774
s(S'N0'
p18
g4
tp19
F33.74488350650409
s(g10
S'kudriavzevii'
p20
tp21
F41.05054214973966
s(g7
S'paradoxus'
p22
tp23
F20.910740198920724
s(g18
S'kluyveri'
p24
tp25
F0.0
s(g10
g12
tp26
F25.458872431935553
s(g12
S'mikatae'
p27
tp28
F40.953172678258376
ssS'ExpectedDwellTime'
p29
(dp30
g6
F378.79339278538293
sg9
F467.65237794363816
sg11
F464.37690125887667
sg13
F476.0445973481243
sg15
F343.56239388006765
sg17
F460.5583331952356
sg19
F167.34190393938727
sg21
F481.1543886134986
sg23
F479.0737406034922
sg25
F0.0
sg26
F471.0934695242719
sg28
F476.76694133853675
ssS'newicktree'
p31
S'../PairsAlignemt/YeastTree.newick'
p32
sS'll'
p33
cnumpy.core.multiarray
scalar
p34
(cnumpy
dtype
p35
(S'f8'
p36
I0
I1
tp37
Rp38
(I3
S'<'
p39
NNNI-1
I-1
I0
tp40
bS'\xb3D\xfd\xc9q\xd4\xb9\xc0'
p41
tp42
Rp43
sS'edge_list'
p44
(lp45
g19
ag25
ag6
ag15
ag11
ag17
ag26
ag21
ag13
ag28
ag9
ag23
asS'edge_to_blen'
p46
(dp47
g6
g34
(g38
S'\x1e\xb4\xd4\xf0\xa9\x9e\xb9?'
p48
tp49
Rp50
sg9
g34
(g38
S'\r\xe2\n0!.\xa0?'
p51
tp52
Rp53
sg11
g34
(g38
S'\xb8[\x04\x1c\x12\x0c\x9b?'
p54
tp55
Rp56
sg13
g34
(g38
S'\x1f\x9a\x19\xac\xbcH\x98?'
p57
tp58
Rp59
sg21
g34
(g38
S'\\1\xc0\xee\xc0\xf8\xa9?'
p60
tp61
Rp62
sg17
g34
(g38
S'\xde\xc4\x13\x12\xb9\xbd\xac?'
p63
tp64
Rp65
sg19
g34
(g38
S':\xd0V&q\xa8\xbc?'
p66
tp67
Rp68
sg15
g34
(g38
S'\xed\xd5\r"\x9bQ\xbd?'
p69
tp70
Rp71
sg23
g34
(g38
S'\x1dM\x9bg\xdc2\x9a?'
p72
tp73
Rp74
sg28
g34
(g38
S'y?\x93"\x16\x8f\xa8?'
p75
tp76
Rp77
sg26
g34
(g38
S'\xc8x\r\x99\xb7\xbd\x9f?'
p78
tp79
Rp80
sg25
g34
(g38
S'\xf6\x1b+\x1a\x02\xde\xa9?'
p81
tp82
Rp83
ssS'paralog'
p84
(lp85
S'YHR106W'
p86
aS'YDR353W'
p87
asS'alignment_file'
p88
S'../MafftAlignment/YHR106W_YDR353W/YHR106W_YDR353W_input.fasta'
p89
sS'x_clock'
p90
NsS'x'
p91
cnumpy.core.multiarray
_reconstruct
p92
(cnumpy
ndarray
p93
(I0
tp94
S'b'
p95
tp96
Rp97
(I1
(I17
tp98
g38
I00
S"*\x9c\xa3{\x8e\x0c\xe7\xbf\x07\x87\x8e6\xf1\x0e\xe3\xbf\xf6\xf3b\xe9\xee\xbd\xe8\xbf\x90\x8anP\xb3\xf5\xf9?x\xb2\xe0$\xc04\xe3?Ju\xfbZ\x99\x84\x01\xc0\x85\xda\xca0\xfe\xe1\x07\xc01\x89~\xc8\x1cj\x02\xc0i\x06\xa2\x91\xe9U\x01\xc0\x89\xeeT\xfb4\x12\r\xc0\x12\x86\xad~;\n\x07\xc0\xad\xdb\xb6\x19w\xca\x0b\xc0\x82I\x97\xec\xbc\xd9\x07\xc0R{\xe5\x90\xe5\xee\r\xc0\xb9\xa8\xf07IL\x08\xc0\xd1Z\x1a'\xe4\xa2\x0b\xc0\x11~\xea\x85{S\r\xc0"
p99
tp100
bsS'Model'
p101
S'HKY'
p102
sS'clock'
p103
I00
s.