(dp0
S'Force'
p1
NsS'ExpectedGeneconv'
p2
(dp3
(S'N1'
p4
S'N2'
p5
tp6
F40.388691755057664
s(S'N5'
p7
S'cerevisiae'
p8
tp9
F23.078099671667704
s(g5
S'N3'
p10
tp11
F11.616436394241042
s(S'N4'
p12
g7
tp13
F9.17068860436469
s(g4
S'castellii'
p14
tp15
F77.69959923856833
s(g5
S'bayanus'
p16
tp17
F20.518791432460898
s(S'N0'
p18
g4
tp19
F25.495847142599654
s(g10
S'kudriavzevii'
p20
tp21
F25.190062432060074
s(g7
S'paradoxus'
p22
tp23
F15.143648690621724
s(g18
S'kluyveri'
p24
tp25
F0.0
s(g10
g12
tp26
F9.996865240942453
s(g12
S'mikatae'
p27
tp28
F35.705508067174264
ssS'ExpectedDwellTime'
p29
(dp30
g6
F527.6778339695653
sg9
F649.2693602321701
sg11
F634.68233082155
sg13
F652.7996344484477
sg15
F568.4655301762367
sg17
F634.0268533748417
sg19
F238.2168879757192
sg21
F658.2810977562332
sg23
F657.0826294395589
sg25
F0.0
sg26
F649.4935402010244
sg28
F640.5520092057769
ssS'newicktree'
p31
S'../PairsAlignemt/YeastTree.newick'
p32
sS'll'
p33
cnumpy.core.multiarray
scalar
p34
(cnumpy
dtype
p35
(S'f8'
p36
I0
I1
tp37
Rp38
(I3
S'<'
p39
NNNI-1
I-1
I0
tp40
bS'\x1b.k2-\x11\xbd\xc0'
p41
tp42
Rp43
sS'edge_list'
p44
(lp45
g19
ag25
ag6
ag15
ag11
ag17
ag26
ag21
ag13
ag28
ag9
ag23
asS'edge_to_blen'
p46
(dp47
g6
g34
(g38
S'\x06\xf5\xaeB\xc1\x8f\xbd?'
p48
tp49
Rp50
sg9
g34
(g38
S'O9\xf0A\xaf}\xa4?'
p51
tp52
Rp53
sg11
g34
(g38
S'\xfd\xff\x02\xab^Z\x9c?'
p54
tp55
Rp56
sg13
g34
(g38
S'U\xf4X4\x05/\x95?'
p57
tp58
Rp59
sg21
g34
(g38
S'<\x03\x01\xc5\xda5\xad?'
p60
tp61
Rp62
sg17
g34
(g38
S'\xd4\xf5\xb6tc\xe2\xa6?'
p63
tp64
Rp65
sg19
g34
(g38
S'o`eS\xf0\xe9\xc2?'
p66
tp67
Rp68
sg15
g34
(g38
S'\x9ba\xfaAEP\xc8?'
p69
tp70
Rp71
sg23
g34
(g38
S'\x06\xb4/YT\x16\xa0?'
p72
tp73
Rp74
sg25
g34
(g38
S'\x98\x8d\x14\xdf{\x16\xb1?'
p75
tp76
Rp77
sg26
g34
(g38
S'\x1b\x86O\\\xe5\xea\x95?'
p78
tp79
Rp80
sg28
g34
(g38
S'\x88\xdb\n\x1c\xc2+\xb0?'
p81
tp82
Rp83
ssS'paralog'
p84
(lp85
S'YGR043C'
p86
aS'YLR354C'
p87
asS'alignment_file'
p88
S'../MafftAlignment/YGR043C_YLR354C/YGR043C_YLR354C_input.fasta'
p89
sS'x_clock'
p90
NsS'x'
p91
cnumpy.core.multiarray
_reconstruct
p92
(cnumpy
ndarray
p93
(I0
tp94
S'b'
p95
tp96
Rp97
(I1
(I17
tp98
g38
I00
S'\xdd^\x0b)\xf0\x12\xe7\xbf\xf4\xfaB\xc7\x1d0\xe0\xbf\x1b\xe8AA\xe2o\xea\xbf\xe30\xbe\xcc\x04\xc6\xf7?\xeeX\x05N\xae\x07\xd4\xbfE)\x871\x1d\x98\xfe\xbfMX\xd1\x8f\x8c\xa7\x05\xc0%\xac\xd3)\x06E\x01\xc0\xa5Z\x13\xbap\x93\xfa\xbf\xd2"\t\x11\xa4\xb1\x0c\xc0<\x17\xee\x1c\xec\xdc\x08\xc0\x04\xbfxO\xe3\xc0\x0e\xc0\xff\x19\'m\x10\xe9\x06\xc0x\x13\xf5>\xa3\x06\x0f\xc0\xf2\x8d\xf9\xa5\x7f\x18\x06\xc0\x10\x13^\x95)\xbf\t\xc0i]UU\xb1\xae\x0b\xc0'
p99
tp100
bsS'Model'
p101
S'HKY'
p102
sS'clock'
p103
I00
s.