(dp0
S'Force'
p1
NsS'ExpectedGeneconv'
p2
(dp3
(S'N1'
p4
S'N2'
p5
tp6
F326.35869901143883
s(S'N5'
p7
S'cerevisiae'
p8
tp9
F177.79356967262038
s(g5
S'N3'
p10
tp11
F72.34713129858223
s(S'N4'
p12
g7
tp13
F90.33505448969267
s(g4
S'castellii'
p14
tp15
F406.80217387809427
s(g5
S'bayanus'
p16
tp17
F289.5336205916027
s(S'N0'
p18
g4
tp19
F548.7260361495391
s(g10
S'kudriavzevii'
p20
tp21
F234.2544082979474
s(g7
S'paradoxus'
p22
tp23
F100.19679929759987
s(g18
S'kluyveri'
p24
tp25
F0.0
s(g10
g12
tp26
F97.40542452936971
s(g12
S'mikatae'
p27
tp28
F215.61605078684576
ssS'ExpectedDwellTime'
p29
(dp30
g6
F1111.5411856409855
sg9
F1009.9632670149742
sg11
F1108.5456294062985
sg13
F1084.13031210454
sg15
F1144.586308311334
sg17
F1005.5377219006109
sg19
F714.940353025729
sg21
F1078.9801405863825
sg23
F1065.8805334174274
sg25
F0.0
sg26
F1105.7831627699381
sg28
F1080.2677821780724
ssS'newicktree'
p31
S'../PairsAlignemt/YeastTree.newick'
p32
sS'll'
p33
cnumpy.core.multiarray
scalar
p34
(cnumpy
dtype
p35
(S'f8'
p36
I0
I1
tp37
Rp38
(I3
S'<'
p39
NNNI-1
I-1
I0
tp40
bS'\x8c1/B]\x1a\xd5\xc0'
p41
tp42
Rp43
sS'edge_list'
p44
(lp45
g19
ag25
ag6
ag15
ag11
ag17
ag26
ag21
ag13
ag28
ag9
ag23
asS'edge_to_blen'
p46
(dp47
g6
g34
(g38
S'\xea\x94\x92\x9a\x08 \xb1?'
p48
tp49
Rp50
sg9
g34
(g38
S'8\xc7l\xac\n\x9b\xa1?'
p51
tp52
Rp53
sg11
g34
(g38
S'jO\x17\xac\xc8\xb6\x8f?'
p54
tp55
Rp56
sg13
g34
(g38
S'\xfd{T\xf5E\xe0\x92?'
p57
tp58
Rp59
sg21
g34
(g38
S'\xa9\xf5~\xc5~n\xa9?'
p60
tp61
Rp62
sg17
g34
(g38
S')\xf3\x1a\x18\xe6\xf7\xab?'
p63
tp64
Rp65
sg19
g34
(g38
S"Gb'\x85\xfbT\xc8?"
p66
tp67
Rp68
sg15
g34
(g38
S'\x9dE\x89\x8b$\x86\xb6?'
p69
tp70
Rp71
sg23
g34
(g38
S'\xf4`\xaf{\r&\x98?'
p72
tp73
Rp74
sg28
g34
(g38
S'\xdd\xdb\xde o\xec\xa7?'
p75
tp76
Rp77
sg26
g34
(g38
S'\xae`\x00\x06\xf0\xd1\x95?'
p78
tp79
Rp80
sg25
g34
(g38
S'\x06\xb6\xf3?\xc9:\xd7>'
p81
tp82
Rp83
ssS'paralog'
p84
(lp85
S'YGL062W'
p86
aS'YBR218C'
p87
asS'alignment_file'
p88
S'../MafftAlignment/YGL062W_YBR218C/YGL062W_YBR218C_input.fasta'
p89
sS'x_clock'
p90
NsS'x'
p91
cnumpy.core.multiarray
_reconstruct
p92
(cnumpy
ndarray
p93
(I0
tp94
S'b'
p95
tp96
Rp97
(I1
(I17
tp98
g38
I00
S'&\xd6\xe6L\xe3*\xe8\xbfu\xd3jdH?\xe3\xbfb*M\xc9\xa8X\xe9\xbf\xe6t\xee\x05\xd5\x0b\xfa?};>6\xd5v\xf7?\x91E"9W\x90\xfa\xbf\x0ct\x14{&5(\xc0\x1b\xbd\x95B\x15\xa3\x05\xc0Bu\xc8r\xdcq\x03\xc0h\x9f\x19\xb2\xe3\xab\x10\xc0s\x98K\xc8\x0cB\x07\xc0r\x16\xa1\xa5\x04\xca\x0e\xc04\xb6\xb0A\xc6\x04\x08\xc0?\x92\xbey\xd8\xf2\x0f\xc0\xd7\x10\xdd\x8a\xf7\x81\x08\xc0\xddk\x10\x07\xfa\xf5\n\xc0\x0e\xedK\xdbZ\xfa\r\xc0'
p99
tp100
bsS'Model'
p101
S'HKY'
p102
sS'clock'
p103
I00
s.