(dp0
S'Force'
p1
NsS'ExpectedGeneconv'
p2
(dp3
(S'N1'
p4
S'N2'
p5
tp6
F60.04743383958045
s(S'N5'
p7
S'cerevisiae'
p8
tp9
F27.621951223810022
s(g5
S'N3'
p10
tp11
F9.96349525413891
s(S'N4'
p12
g7
tp13
F14.601646942814977
s(g4
S'castellii'
p14
tp15
F140.04184656161718
s(g5
S'bayanus'
p16
tp17
F33.98087571537229
s(S'N0'
p18
g4
tp19
F9.94842766937959
s(g10
S'kudriavzevii'
p20
tp21
F35.19856786293685
s(g7
S'paradoxus'
p22
tp23
F18.19613821602193
s(g18
S'kluyveri'
p24
tp25
F0.0
s(g10
g12
tp26
F18.367482844341765
s(g12
S'mikatae'
p27
tp28
F32.93728055364453
ssS'ExpectedDwellTime'
p29
(dp30
g6
F614.9973007387867
sg9
F849.6300078203425
sg11
F841.961256122606
sg13
F855.9401646363989
sg15
F739.1724962006682
sg17
F840.2386356095361
sg19
F194.62707207997997
sg21
F871.7677108857281
sg23
F867.0516429696025
sg25
F0.0
sg26
F859.0467910949737
sg28
F860.4069489132975
ssS'newicktree'
p31
S'../PairsAlignemt/YeastTree.newick'
p32
sS'll'
p33
cnumpy.core.multiarray
scalar
p34
(cnumpy
dtype
p35
(S'f8'
p36
I0
I1
tp37
Rp38
(I3
S'<'
p39
NNNI-1
I-1
I0
tp40
bS'\x01h\x95\xb1\x82\x9f\xc4\xc0'
p41
tp42
Rp43
sS'edge_list'
p44
(lp45
g19
ag25
ag6
ag15
ag11
ag17
ag26
ag21
ag13
ag28
ag9
ag23
asS'edge_to_blen'
p46
(dp47
g6
g34
(g38
S'\xf4\xc6\x9c\xd2\xcf7\xc8?'
p48
tp49
Rp50
sg9
g34
(g38
S'\x8e\xcf\xa0\xb1\x9a\xa8\xa9?'
p51
tp52
Rp53
sg11
g34
(g38
S'\xeb\xd4\xa4\xc1\xb6\xc4\x9d?'
p54
tp55
Rp56
sg13
g34
(g38
S's\xbf\x9cr\xc2\xef\x9a?'
p57
tp58
Rp59
sg21
g34
(g38
S'\xf4g\xae\xc8#\xde\xb0?'
p60
tp61
Rp62
sg17
g34
(g38
S'\x81\xb3\xf8~\x9c\xf2\xb1?'
p63
tp64
Rp65
sg19
g34
(g38
S'\x7fE_\xd9\xdet\xb7?'
p66
tp67
Rp68
sg15
g34
(g38
S'_\x08k\tQZ\xd6?'
p69
tp70
Rp71
sg23
g34
(g38
S'\xc8\x9c\xf7sg\x15\xa3?'
p72
tp73
Rp74
sg28
g34
(g38
S'\\\x05\xd5\xabU\xe1\xb1?'
p75
tp76
Rp77
sg26
g34
(g38
S'\xe2I>!\x02\x80\x9f?'
p78
tp79
Rp80
sg25
g34
(g38
S'E\xa2\x16\x1cnC\xcc?'
p81
tp82
Rp83
ssS'paralog'
p84
(lp85
S'YPR157W'
p86
aS'YGR141W'
p87
asS'alignment_file'
p88
S'../MafftAlignment/YPR157W_YGR141W/YPR157W_YGR141W_input.fasta'
p89
sS'x_clock'
p90
NsS'x'
p91
cnumpy.core.multiarray
_reconstruct
p92
(cnumpy
ndarray
p93
(I0
tp94
S'b'
p95
tp96
Rp97
(I1
(I17
tp98
g38
I00
S" \xb6\xd6<A\xd2\xe6\xbfT\xb6\x01C\x19.\xe3\xbf#`A\x96\x0e\xe7\xea\xbf\x87\xa4\x86h\xc2;\xf3?\x97\xbb8\x03\x05\x9c\xe2\xbfQ\xc3\x8f`\xc7\x1e\x03\xc0\x0c\x89\xa3\xda\xda*\xf8\xbf3\xbd\xfdL\x91\xa3\xfa\xbf_^\x10)\xb6\xd4\xf0\xbf\x1dE\t|\xdfM\x0c\xc0\xba'\xf7P\x00C\x05\xc0p{\xf0\xe0\x13\xda\x0b\xc0\xdd\x1f\xa7X\x19\xc2\x05\xc0\x0e\xe4\x88\x16\x99\x1a\r\xc0SI\xc3u\xb7J\x05\xc0\xe7\xb4+\x83\x93\xf2\x07\xc0\xb4%\x0f\xa4\xe2P\n\xc0"
p99
tp100
bsS'Model'
p101
S'HKY'
p102
sS'clock'
p103
I00
s.