(dp0
S'Force'
p1
NsS'ExpectedGeneconv'
p2
(dp3
(S'N1'
p4
S'N2'
p5
tp6
F59.94904924735176
s(S'N5'
p7
S'cerevisiae'
p8
tp9
F21.434021537867643
s(g5
S'N3'
p10
tp11
F14.070559738782004
s(S'N4'
p12
g7
tp13
F10.162833091922078
s(g4
S'castellii'
p14
tp15
F83.00812037123431
s(g5
S'bayanus'
p16
tp17
F19.837183094659693
s(S'N0'
p18
g4
tp19
F1.7514617915253663
s(g10
S'kudriavzevii'
p20
tp21
F23.048126072257375
s(g7
S'paradoxus'
p22
tp23
F27.34775688470948
s(g18
S'kluyveri'
p24
tp25
F0.0
s(g10
g12
tp26
F9.204364743394102
s(g12
S'mikatae'
p27
tp28
F21.290471547708588
ssS'ExpectedDwellTime'
p29
(dp30
g6
F1203.9533574412092
sg9
F1855.6186298371294
sg11
F1799.9656956458043
sg13
F1856.2770179087547
sg15
F1337.8153289502666
sg17
F1814.1466141739052
sg19
F209.93329184528602
sg21
F1883.7091903484709
sg23
F1917.439844889502
sg25
F0.0
sg26
F1843.524424032981
sg28
F1876.6120930682164
ssS'newicktree'
p31
S'../PairsAlignemt/YeastTree.newick'
p32
sS'll'
p33
cnumpy.core.multiarray
scalar
p34
(cnumpy
dtype
p35
(S'f8'
p36
I0
I1
tp37
Rp38
(I3
S'<'
p39
NNNI-1
I-1
I0
tp40
bS'|\x1a\xfe\x172p\xd3\xc0'
p41
tp42
Rp43
sS'edge_list'
p44
(lp45
g19
ag25
ag6
ag15
ag11
ag17
ag26
ag21
ag13
ag28
ag9
ag23
asS'edge_to_blen'
p46
(dp47
g6
g34
(g38
S'\xf4}\x86<"K\xd6?'
p48
tp49
Rp50
sg9
g34
(g38
S'\x0e\xaf-I-\x12\xad?'
p51
tp52
Rp53
sg11
g34
(g38
S'S\xba\xfd\x1c\xf3\x0f\xae?'
p54
tp55
Rp56
sg13
g34
(g38
S'\xecU\xe9\xbc1\xfe\xa1?'
p57
tp58
Rp59
sg21
g34
(g38
S'\xd5\xbdy02\xf8\xb6?'
p60
tp61
Rp62
sg17
g34
(g38
S'P\xf4\x0b\xb7\x9b\xf0\xb4?'
p63
tp64
Rp65
sg19
g34
(g38
S'Z\xb1\x11\x01`U\xad?'
p66
tp67
Rp68
sg15
g34
(g38
S'\x19\xbb?\xddc0\xdc?'
p69
tp70
Rp71
sg23
g34
(g38
S'\x9c^\xbaH\xf6\xd7\xb7?'
p72
tp73
Rp74
sg25
g34
(g38
S'\xc6\xd5K|w\xb2\xe1?'
p75
tp76
Rp77
sg26
g34
(g38
S'\x05a\x81\xa8\xfa\xcd\xa1?'
p78
tp79
Rp80
sg28
g34
(g38
S'\x9e\xf1\xe9oL\xbd\xb3?'
p81
tp82
Rp83
ssS'paralog'
p84
(lp85
S'YAL056W'
p86
aS'YOR371C'
p87
asS'alignment_file'
p88
S'../MafftAlignment/YAL056W_YOR371C/YAL056W_YOR371C_input.fasta'
p89
sS'x_clock'
p90
NsS'x'
p91
cnumpy.core.multiarray
_reconstruct
p92
(cnumpy
ndarray
p93
(I0
tp94
S'b'
p95
tp96
Rp97
(I1
(I17
tp98
g38
I00
S'\x93\x92\x94u\x0e3\xe5\xbf\x9f0\x04\xbb\x0f-\xdf\xbfy%h\x8b\xd9\xbf\xeb\xbfh\xc7\xc2&\xa3\xe5\xf1?\xe0Ax\xfe\xd3\xd9\xfe\xbf\\UJ\x1bs\xe0\x06\xc0\xb1\xf4\x18\x8cd\xf4\xe2\xbf\x07\xb8\x9d\x01\x98\xdf\xf0\xbf\xaa\xf7C\xa3\x08=\xea\xbf\xb6\xc3)\x110\xae\x06\xc0\xf1\x0eD\xa06\x07\x04\xc0\x9fc#\xe4\xf5\xde\n\xc0\x17/#Z\xbfI\x03\xc0\xc2\xbf\xbc\x00i\xc9\n\xc0]\xfe\xac\x9d\x1e\x80\x04\xc0c\xe7F\xd9\xdb\xf2\x06\xc0]$\x18BB\xfd\x02\xc0'
p99
tp100
bsS'Model'
p101
S'HKY'
p102
sS'clock'
p103
I00
s.