(dp0
S'Force'
p1
NsS'ExpectedGeneconv'
p2
(dp3
(S'N1'
p4
S'N2'
p5
tp6
F152.50564732067485
s(S'N5'
p7
S'cerevisiae'
p8
tp9
F43.51067363382043
s(g5
S'N3'
p10
tp11
F32.80079214042158
s(S'N4'
p12
g7
tp13
F28.46738065517378
s(g4
S'castellii'
p14
tp15
F236.10839784552448
s(g5
S'bayanus'
p16
tp17
F81.72676378370531
s(S'N0'
p18
g4
tp19
F44.94775045137239
s(g10
S'kudriavzevii'
p20
tp21
F73.7478957528422
s(g7
S'paradoxus'
p22
tp23
F44.42878700455132
s(g18
S'kluyveri'
p24
tp25
F0.0
s(g10
g12
tp26
F24.81576023062297
s(g12
S'mikatae'
p27
tp28
F85.64681659934058
ssS'ExpectedDwellTime'
p29
(dp30
g6
F901.7918831808331
sg9
F1219.129536321188
sg11
F1141.1106240506276
sg13
F1198.9793316133857
sg15
F945.0992902976652
sg17
F1133.2296956667003
sg19
F361.3481303742498
sg21
F1186.1824921911973
sg23
F1181.373821293189
sg25
F0.0
sg26
F1188.7276800775644
sg28
F1202.296433492603
ssS'newicktree'
p31
S'../PairsAlignemt/YeastTree.newick'
p32
sS'll'
p33
cnumpy.core.multiarray
scalar
p34
(cnumpy
dtype
p35
(S'f8'
p36
I0
I1
tp37
Rp38
(I3
S'<'
p39
NNNI-1
I-1
I0
tp40
bS'\x1a\x00r\x18\x94\r\xcf\xc0'
p41
tp42
Rp43
sS'edge_list'
p44
(lp45
g19
ag25
ag6
ag15
ag11
ag17
ag26
ag21
ag13
ag28
ag9
ag23
asS'edge_to_blen'
p46
(dp47
g6
g34
(g38
S'{\x17\xd1\xe9\x9b\xe4\xc2?'
p48
tp49
Rp50
sg9
g34
(g38
S'B\xc4\xeb[hG\xa3?'
p51
tp52
Rp53
sg11
g34
(g38
S'\x0c>\xf7X\x7ft\x9f?'
p54
tp55
Rp56
sg13
g34
(g38
S'g\xf0u\xef\x03\xcf\x95?'
p57
tp58
Rp59
sg21
g34
(g38
S'Wg\xc8\x04\xac\x8a\xad?'
p60
tp61
Rp62
sg17
g34
(g38
S'\xe2?v\xbe\x92$\xaf?'
p63
tp64
Rp65
sg19
g34
(g38
S'u\xde\xa8W\xdb \xbc?'
p66
tp67
Rp68
sg15
g34
(g38
S'\xdcO&\x9e\x1e\xce\xca?'
p69
tp70
Rp71
sg23
g34
(g38
S'\x02l\xda\x06\x03\x97\x9e?'
p72
tp73
Rp74
sg25
g34
(g38
S'mH\xe8\xa2,\x8d\xc9?'
p75
tp76
Rp77
sg26
g34
(g38
S'\x80\xf9\xa2\xe1M\xb3\x96?'
p78
tp79
Rp80
sg28
g34
(g38
S'@\xb8%\x9d\xce\xe4\xae?'
p81
tp82
Rp83
ssS'paralog'
p84
(lp85
S'YPR159W'
p86
aS'YGR143W'
p87
asS'alignment_file'
p88
S'../MafftAlignment/YPR159W_YGR143W/YPR159W_YGR143W_input.fasta'
p89
sS'x_clock'
p90
NsS'x'
p91
cnumpy.core.multiarray
_reconstruct
p92
(cnumpy
ndarray
p93
(I0
tp94
S'b'
p95
tp96
Rp97
(I1
(I17
tp98
g38
I00
S'\xec\x0f\x91U\xd8\xb3\xe7\xbfd\xe8\x8d~\x7f\x91\xe0\xbf\xff\xc4\xe66\x07\xeb\xe9\xbf\xe0\xac\xa9\xc3Vv\xf4?\x8f\x89\x06<l\x0b\xc0?\xe4\xc0\x81g\xcd\xaa\x01\xc0g\xee5\xf5\x07\xc8\xf9\xbfV\x9b\n\x0b\xa0\x9c\xfe\xbfP\xd9\x8a\x86\xd5\x03\xf9\xbfV\xd1<\xcd\x00\xdd\x0b\xc0t\xe4\xe7\xd0\xdde\x06\xc0/}\x1c\xa0\x03y\x0e\xc0:j\xd9,\xf7\xd1\x06\xc0\x8d\xfbu\xfe\x16\xcb\x0e\xc0]\x85y\x07Pv\x06\xc0\xb1|,\xad\x07<\n\xc0<\xd4\xd9|\x1f\x16\x0c\xc0'
p99
tp100
bsS'Model'
p101
S'HKY'
p102
sS'clock'
p103
I00
s.