(dp0
S'Force'
p1
NsS'ExpectedGeneconv'
p2
(dp3
(S'N1'
p4
S'N2'
p5
tp6
F73.44089292377755
s(S'N5'
p7
S'cerevisiae'
p8
tp9
F7.402026768037342
s(g5
S'N3'
p10
tp11
F2.138141231874974
s(S'N4'
p12
g7
tp13
F2.678911774568077
s(g4
S'castellii'
p14
tp15
F89.70796397383731
s(g5
S'bayanus'
p16
tp17
F8.320400575405818
s(S'N0'
p18
g4
tp19
F7.744409641267093
s(g10
S'kudriavzevii'
p20
tp21
F5.885456941971724
s(g7
S'paradoxus'
p22
tp23
F1.2385674252521137
s(g18
S'kluyveri'
p24
tp25
F0.0
s(g10
g12
tp26
F2.0387980287355494
s(g12
S'mikatae'
p27
tp28
F7.503598414691413
ssS'ExpectedDwellTime'
p29
(dp30
g6
F406.6781114377067
sg9
F470.71948656864834
sg11
F472.1440019715531
sg13
F476.7879828487633
sg15
F411.16584154862824
sg17
F458.77518199547717
sg19
F171.49806270356635
sg21
F476.9661717748708
sg23
F478.97135910513526
sg25
F0.0
sg26
F477.41834686446106
sg28
F476.19498047879244
ssS'newicktree'
p31
S'../PairsAlignemt/YeastTree.newick'
p32
sS'll'
p33
cnumpy.core.multiarray
scalar
p34
(cnumpy
dtype
p35
(S'f8'
p36
I0
I1
tp37
Rp38
(I3
S'<'
p39
NNNI-1
I-1
I0
tp40
bS'E\xa7}\xf3\xc5"\xbc\xc0'
p41
tp42
Rp43
sS'edge_list'
p44
(lp45
g19
ag25
ag6
ag15
ag11
ag17
ag26
ag21
ag13
ag28
ag9
ag23
asS'edge_to_blen'
p46
(dp47
g6
g34
(g38
S')\xcc\x94\xb1SX\x04@'
p48
tp49
Rp50
sg9
g34
(g38
S'\x88%4^\x83 \xcd?'
p51
tp52
Rp53
sg11
g34
(g38
S'.\xa2\x11u&F\xbf?'
p54
tp55
Rp56
sg13
g34
(g38
S'lB\x07\x98bA\xc0?'
p57
tp58
Rp59
sg15
g34
(g38
S'/\xfa\x14\xd8\xcf"\t@'
p60
tp61
Rp62
sg17
g34
(g38
S'\xe0\x8d\xec+\x90\xdf\xd1?'
p63
tp64
Rp65
sg19
g34
(g38
S';N\xd0\x8f^\x12\xdc?'
p66
tp67
Rp68
sg21
g34
(g38
S'\xd3[\xbewM}\xd0?'
p69
tp70
Rp71
sg23
g34
(g38
S'\x8dH\xe56|,\xb2?'
p72
tp73
Rp74
sg28
g34
(g38
S'\x9f;^\xcd\x7f\x14\xd2?'
p75
tp76
Rp77
sg26
g34
(g38
S'\x15\\j/.:\xb6?'
p78
tp79
Rp80
sg25
g34
(g38
S'\xb2\x0bx\xe1?\xca\x03@'
p81
tp82
Rp83
ssS'paralog'
p84
(lp85
S'YPL087W'
p86
aS'YBR183W'
p87
asS'alignment_file'
p88
S'../MafftAlignment/YPL087W_YBR183W/YPL087W_YBR183W_input.fasta'
p89
sS'x_clock'
p90
NsS'x'
p91
cnumpy.core.multiarray
_reconstruct
p92
(cnumpy
ndarray
p93
(I0
tp94
S'b'
p95
tp96
Rp97
(I1
(I18
tp98
g38
I00
S'\xceo\x922\x02h\xe6\xbfc\x8c\x80\xd7yl\xe1\xbf<\xf9\x05\xfd\xaa2\xf1\xbf\x8b\x9a*\xb9\xd4*\xf0?i\xc5\xd0\x0ea\xae\x05\xc0R)a\xd9aj\x00\xc0\x06U7$/_\xea\xbf\xdf"\xd1^\xcc\xfb\xec?&|\xd1 _\xde\xed?\x94#7\x91WQ\xf2?ew\x8f\xa1\xb1\xd1\x00\xc0Q$_\xd0\xc1h\xf4\xbf\xf82\x19>\x05\x8d\x03\xc06n\xe8d\xd6\xb2\xf5\xbf\xb6;>\x0cC\x82\x00\xc0{\xcf\xe2)\xa49\xf4\xbf\xa3\xd6\x9a\xb7\x92\xaf\xf7\xbf\x06\xa9?\x9c])\x05\xc0'
p99
tp100
bsS'Model'
p101
S'MG94'
p102
sS'clock'
p103
I00
s.