(dp0
S'Force'
p1
NsS'ExpectedGeneconv'
p2
(dp3
(S'N1'
p4
S'N2'
p5
tp6
F243.4990567145609
s(S'N5'
p7
S'cerevisiae'
p8
tp9
F11.50158613459916
s(g5
S'N3'
p10
tp11
F13.838142498261757
s(S'N4'
p12
g7
tp13
F6.770752082972666
s(g4
S'castellii'
p14
tp15
F265.6929472162938
s(g5
S'bayanus'
p16
tp17
F18.35743761493307
s(S'N0'
p18
g4
tp19
F36.32551573132516
s(g10
S'kudriavzevii'
p20
tp21
F15.166087404596759
s(g7
S'paradoxus'
p22
tp23
F8.156797531607763
s(g18
S'kluyveri'
p24
tp25
F0.0
s(g10
g12
tp26
F5.954792286615702
s(g12
S'mikatae'
p27
tp28
F17.61087089059726
ssS'ExpectedDwellTime'
p29
(dp30
g6
F1200.6677828381812
sg9
F1315.0349188899
sg11
F1302.3437253800525
sg13
F1314.4594159152798
sg15
F1224.0041749871066
sg17
F1303.9667539187308
sg19
F584.4865798966875
sg21
F1308.7808587382945
sg23
F1325.3699706527775
sg25
F0.0
sg26
F1307.080061336756
sg28
F1327.439510506978
ssS'newicktree'
p31
S'../PairsAlignemt/YeastTree.newick'
p32
sS'll'
p33
cnumpy.core.multiarray
scalar
p34
(cnumpy
dtype
p35
(S'f8'
p36
I0
I1
tp37
Rp38
(I3
S'<'
p39
NNNI-1
I-1
I0
tp40
bS'G\x80\xe0\xd8\xa39\xd5\xc0'
p41
tp42
Rp43
sS'edge_list'
p44
(lp45
g19
ag25
ag6
ag15
ag11
ag17
ag26
ag21
ag13
ag28
ag9
ag23
asS'edge_to_blen'
p46
(dp47
g6
g34
(g38
S' \xb2\xa6\x91H\x1c\x07@'
p48
tp49
Rp50
sg9
g34
(g38
S'#\x00Y\xae\xdf\xed\xc8?'
p51
tp52
Rp53
sg11
g34
(g38
S'\xd8\x9f(\x19p\x9b\xc9?'
p54
tp55
Rp56
sg13
g34
(g38
S'-\x9d\x8c%\xd4E\xc0?'
p57
tp58
Rp59
sg21
g34
(g38
S'\xefl\x80\xe75\xa8\xd0?'
p60
tp61
Rp62
sg17
g34
(g38
S'\xdd\x07\xe5\xfcT\xa1\xd1?'
p63
tp64
Rp65
sg19
g34
(g38
S'\x01I|\x8bI>\xe3?'
p66
tp67
Rp68
sg15
g34
(g38
S'\xf6\x18\xa9\x05\xe0\xed\n@'
p69
tp70
Rp71
sg23
g34
(g38
S'\x81\xc2\x1fEFD\xc2?'
p72
tp73
Rp74
sg25
g34
(g38
S'?d)\xaa>%\x07@'
p75
tp76
Rp77
sg26
g34
(g38
S'J\x89\xc6\xbe~\xb3\xbc?'
p78
tp79
Rp80
sg28
g34
(g38
S'k\xe5\xea\xe7+\x7f\xd4?'
p81
tp82
Rp83
ssS'paralog'
p84
(lp85
S'YIR033W'
p86
aS'YKL020C'
p87
asS'alignment_file'
p88
S'../MafftAlignment/YIR033W_YKL020C/YIR033W_YKL020C_input.fasta'
p89
sS'x_clock'
p90
NsS'x'
p91
cnumpy.core.multiarray
_reconstruct
p92
(cnumpy
ndarray
p93
(I0
tp94
S'b'
p95
tp96
Rp97
(I1
(I18
tp98
g38
I00
S'\xd9\x7f\xafK\x87\x13\xe5\xbf\x956\xcf\xa5s\xa1\xdd\xbf*\xf9\xd7\xfe\xa05\xee\xbf\xf1\x07\x07\xbf\xefF\xef?\xf5\x83O\xe9\x0e\xb0\x03\xc0"lJ#=s\xff\xbf\xc91-\xbb9F\xe0\xbf\x9a1\xbfhk\xff\xf0?\xf0\xd8\xf3X8\xf9\xf0?\x87\xf46\xb7\x99k\xf3?\xf4\xe8\xc1\xf2\x1b\xbf\xf9\xbf\x93\xdb\xab \xd9\xa0\xf4\xbfL\x1aK\x0e\x84\x81\x01\xc0R!e\xd1i\x89\xf5\xbf\n_\xc5\x81\x13\x80\x00\xc0\x07\xfe\x14~\xc57\xf2\xbf\x91}\x16\x91\x04-\xfa\xbf%{\xfb\xc2\xb5&\xff\xbf'
p99
tp100
bsS'Model'
p101
S'MG94'
p102
sS'clock'
p103
I00
s.