(dp0
S'Force'
p1
NsS'ExpectedGeneconv'
p2
(dp3
(S'N1'
p4
S'N2'
p5
tp6
F25.700348926049827
s(S'N5'
p7
S'cerevisiae'
p8
tp9
F8.407937476529144
s(g5
S'N3'
p10
tp11
F6.992216074037301
s(S'N4'
p12
g7
tp13
F4.57382346399967
s(g4
S'castellii'
p14
tp15
F24.635860867327384
s(g5
S'bayanus'
p16
tp17
F11.420682031471571
s(S'N0'
p18
g4
tp19
F0.9127376035271832
s(g10
S'kudriavzevii'
p20
tp21
F9.201925049791443
s(g7
S'paradoxus'
p22
tp23
F5.2791679690284905
s(g18
S'kluyveri'
p24
tp25
F0.0
s(g10
g12
tp26
F6.724527262773739
s(g12
S'mikatae'
p27
tp28
F11.096965090734335
ssS'ExpectedDwellTime'
p29
(dp30
g6
F261.9750768936014
sg9
F377.8280488618979
sg11
F351.84792036388205
sg13
F375.51301520953393
sg15
F251.73341723827832
sg17
F364.04653561549907
sg19
F58.143137209174924
sg21
F379.30448260493915
sg23
F390.23085534336263
sg25
F0.0
sg26
F362.45548077207087
sg28
F383.2998611125219
ssS'newicktree'
p31
S'../PairsAlignemt/YeastTree.newick'
p32
sS'll'
p33
cnumpy.core.multiarray
scalar
p34
(cnumpy
dtype
p35
(S'f8'
p36
I0
I1
tp37
Rp38
(I3
S'<'
p39
NNNI-1
I-1
I0
tp40
bS'\xc0,=\xceL\xa2\xb6\xc0'
p41
tp42
Rp43
sS'edge_list'
p44
(lp45
g19
ag25
ag6
ag15
ag11
ag17
ag26
ag21
ag13
ag28
ag9
ag23
asS'edge_to_blen'
p46
(dp47
g19
g34
(g38
S'\x9e\x89\x11\x904\x04\xba?'
p48
tp49
Rp50
sg9
g34
(g38
S'\x9a\xebtm\xac\x9c\xc0?'
p51
tp52
Rp53
sg11
g34
(g38
S'\xea\xec\xdb\xa5\xb8"\xc1?'
p54
tp55
Rp56
sg13
g34
(g38
S'\xd7|\x9b\xd1u\xb0\xbb?'
p57
tp58
Rp59
sg21
g34
(g38
S'@n\x0cV;"\xcd?'
p60
tp61
Rp62
sg17
g34
(g38
S'd\xfc\xe1=\x0et\xcf?'
p63
tp64
Rp65
sg6
g34
(g38
S'\xe31E\xf4\x88l\xe3?'
p66
tp67
Rp68
sg15
g34
(g38
S'\xe1[\xa8S\xf3\xc6\xe1?'
p69
tp70
Rp71
sg23
g34
(g38
S'\xe8^\x06@\xc9\xfc\xbc?'
p72
tp73
Rp74
sg28
g34
(g38
S'\xfc\x89M\xd4W{\xcd?'
p75
tp76
Rp77
sg26
g34
(g38
S'!\x9a\xddsS\x9c\xc1?'
p78
tp79
Rp80
sg25
g34
(g38
S'6f\xcb\xd3D\xb4\xe1?'
p81
tp82
Rp83
ssS'paralog'
p84
(lp85
S'YHR106W'
p86
aS'YDR353W'
p87
asS'alignment_file'
p88
S'../MafftAlignment/YHR106W_YDR353W/YHR106W_YDR353W_input.fasta'
p89
sS'x_clock'
p90
NsS'x'
p91
cnumpy.core.multiarray
_reconstruct
p92
(cnumpy
ndarray
p93
(I0
tp94
S'b'
p95
tp96
Rp97
(I1
(I18
tp98
g38
I00
S'\xba\x86L}\xe6\x03\xe6\xbf\xb0P\x8f\x83\xa3\xb8\xe1\xbf\x91}\x89t\x18\xdb\xeb\xbf%\r]\xc4\xee\xe0\xf4?\xcd\xcfl\x01Hg\x06\xc0xb\xf2\xce8E\xfb\xbfd\xfa\xc5\xed\xa5J\x02\xc0Xr\x8d\x83"\xf1\xe2\xbf4\\\x0cD[\xf3\xdf\xbf\xac\xb02\xfeo\xcf\xe2\xbfx\x19\xa30C\x16\x00\xc0,\xf3\xc3\xa4\xd6t\xf6\xbf\xc1\xd7\xaaN\x86\xbc\xff\xbf\xc8\xbc\xfc\x0f\xa1\xae\xf7\xbf\xc1qgp\x05\xcb\x01\xc0Y\xa8\xb9\xe1\xfa}\xf7\xbf\x1a\xd8\xd2\x10\xd2U\x00\xc0qZ\xe550m\x01\xc0'
p99
tp100
bsS'Model'
p101
S'MG94'
p102
sS'clock'
p103
I00
s.