(dp0
S'Force'
p1
NsS'ExpectedGeneconv'
p2
(dp3
(S'N1'
p4
S'N2'
p5
tp6
F47.917826962853084
s(S'N5'
p7
S'cerevisiae'
p8
tp9
F3.7426161809723792
s(g5
S'N3'
p10
tp11
F3.6966840881598815
s(S'N4'
p12
g7
tp13
F2.086274925597168
s(g4
S'castellii'
p14
tp15
F53.895430415332505
s(g5
S'bayanus'
p16
tp17
F6.819110361588897
s(S'N0'
p18
g4
tp19
F1.2185123169021048
s(g10
S'kudriavzevii'
p20
tp21
F6.540292624526041
s(g7
S'paradoxus'
p22
tp23
F1.3858220498935292
s(g18
S'kluyveri'
p24
tp25
F0.0
s(g10
g12
tp26
F3.861097534253886
s(g12
S'mikatae'
p27
tp28
F7.261337771511311
ssS'ExpectedDwellTime'
p29
(dp30
g6
F346.3298044842072
sg9
F421.02285251651756
sg11
F416.18249949340674
sg13
F416.162088286134
sg15
F349.69936726518193
sg17
F420.124395769904
sg19
F77.07473143532107
sg21
F425.1414947743556
sg23
F423.9395882005116
sg25
F0.0
sg26
F414.7336788009273
sg28
F411.02519112762707
ssS'newicktree'
p31
S'../PairsAlignemt/YeastTree.newick'
p32
sS'll'
p33
cnumpy.core.multiarray
scalar
p34
(cnumpy
dtype
p35
(S'f8'
p36
I0
I1
tp37
Rp38
(I3
S'<'
p39
NNNI-1
I-1
I0
tp40
bS'\xdf\xc8\x01\xdb\x1ci\xba\xc0'
p41
tp42
Rp43
sS'edge_list'
p44
(lp45
g19
ag25
ag6
ag15
ag11
ag17
ag26
ag21
ag13
ag28
ag9
ag23
asS'edge_to_blen'
p46
(dp47
g6
g34
(g38
S'\xe2\xa6\x9c\x0fc\xbc\xfe?'
p48
tp49
Rp50
sg9
g34
(g38
S'\xe2\xe82`\x94\xe7\xc4?'
p51
tp52
Rp53
sg11
g34
(g38
S'\x80\x8c\xc1\x1e_|\xc1?'
p54
tp55
Rp56
sg13
g34
(g38
S'+\xc5\xff\x9f\xe4\xaf\xbf?'
p57
tp58
Rp59
sg21
g34
(g38
S'\x0f8\xb6\x0c\xd0\xf5\xd2?'
p60
tp61
Rp62
sg17
g34
(g38
S'n\xd4\x14\x16\xda+\xd5?'
p63
tp64
Rp65
sg19
g34
(g38
S'\xa9\xdbI\xc9u\xca\xc5?'
p66
tp67
Rp68
sg15
g34
(g38
S'\xf0sAs\xceC\x02@'
p69
tp70
Rp71
sg23
g34
(g38
S'\x0b!\xbb\xecSY\xb9?'
p72
tp73
Rp74
sg28
g34
(g38
S'\x9b\x92\xba\x15\xe77\xd4?'
p75
tp76
Rp77
sg26
g34
(g38
S'\x15\x1fk\xf9\xad\xa8\xc2?'
p78
tp79
Rp80
sg25
g34
(g38
S'\xa01d\x9b8\xc1\xf7?'
p81
tp82
Rp83
ssS'paralog'
p84
(lp85
S'YBR024W'
p86
aS'YBR037C'
p87
asS'alignment_file'
p88
S'../MafftAlignment/YBR024W_YBR037C/YBR024W_YBR037C_input.fasta'
p89
sS'x_clock'
p90
NsS'x'
p91
cnumpy.core.multiarray
_reconstruct
p92
(cnumpy
ndarray
p93
(I0
tp94
S'b'
p95
tp96
Rp97
(I1
(I18
tp98
g38
I00
S'\xf0A\xa6\xaaB\x00\xe5\xbf<\x95[\x80\x92s\xe2\xbf\xe9\xbb\xca*\x8a\x9e\xec\xbf:\xe69<\xbb\xd4\xeb?\xfe\x80\x04(\xd2M\x03\xc0RV\xe7\x9f\xa2&\x01\xc0=\xc2\x8fd!T\xfc\xbf*j<k\xdeJ\xd9?\xec\xa2aO\x15\xe4\xe4?}\x0e\x1a\x8c\xcej\xea?\x83\\\xd7\xf0\xa8\xd9\xff\xbf#\x8f\xbdP%\xb3\xf1\xbf\x8e\nJ\xe7\xb1\xcf\xfe\xbf\xbc`\xaci\xf3v\xf3\xbf\xbeP\x7fR\xd2\xb6\x00\xc06K\xe14\xc9o\xf2\xbfvo\xdbQ3\xfe\xfc\xbf\xe9\xf5\xca\xe2\xe0\x7f\x02\xc0'
p99
tp100
bsS'Model'
p101
S'MG94'
p102
sS'clock'
p103
I00
s.