(dp0
S'Force'
p1
NsS'ExpectedGeneconv'
p2
(dp3
(S'N1'
p4
S'N2'
p5
tp6
F10.06561921587424
s(S'N5'
p7
S'cerevisiae'
p8
tp9
F4.112428900909701
s(g5
S'N3'
p10
tp11
F1.793397325324269
s(S'N4'
p12
g7
tp13
F2.120066364201633
s(g4
S'castellii'
p14
tp15
F19.105405236155285
s(g5
S'bayanus'
p16
tp17
F3.4799550465059688
s(S'N0'
p18
g4
tp19
F3.0796035803762973
s(g10
S'kudriavzevii'
p20
tp21
F4.223689707844934
s(g7
S'paradoxus'
p22
tp23
F2.1282612433374917
s(g18
S'kluyveri'
p24
tp25
F0.0
s(g10
g12
tp26
F1.5072965908580513
s(g12
S'mikatae'
p27
tp28
F4.97915119396891
ssS'ExpectedDwellTime'
p29
(dp30
g6
F372.23589385819196
sg9
F448.1780546290253
sg11
F437.86575252369494
sg13
F443.3823714703624
sg15
F405.164357966138
sg17
F447.5339017794856
sg19
F164.43837875532756
sg21
F450.6222259058142
sg23
F452.652332428626
sg25
F0.0
sg26
F441.25637035735656
sg28
F450.69366138757346
ssS'newicktree'
p31
S'../PairsAlignemt/YeastTree.newick'
p32
sS'll'
p33
cnumpy.core.multiarray
scalar
p34
(cnumpy
dtype
p35
(S'f8'
p36
I0
I1
tp37
Rp38
(I3
S'<'
p39
NNNI-1
I-1
I0
tp40
bS'\xe4\x1dDl\xbe{\xba\xc0'
p41
tp42
Rp43
sS'edge_list'
p44
(lp45
g19
ag25
ag6
ag15
ag11
ag17
ag26
ag21
ag13
ag28
ag9
ag23
asS'edge_to_blen'
p46
(dp47
g6
g34
(g38
S'\x99Wd\x8b~\x1c\xe2?'
p48
tp49
Rp50
sg9
g34
(g38
S'\xdd:\x06\xd3\xee\x88\xc4?'
p51
tp52
Rp53
sg11
g34
(g38
S'Qs\x80Y\xba\x96\xb9?'
p54
tp55
Rp56
sg13
g34
(g38
S'\x8a#\xc1i\xc2\x1f\xb7?'
p57
tp58
Rp59
sg21
g34
(g38
S'\x04\xe1Q\xf1\xd3\xb6\xcd?'
p60
tp61
Rp62
sg17
g34
(g38
S'\x15\x0fz\xce\rt\xc8?'
p63
tp64
Rp65
sg19
g34
(g38
S'\xfdH}\x19m\xff\xd5?'
p66
tp67
Rp68
sg15
g34
(g38
S'\x0f\xd0.=\xc0\x9f\xee?'
p69
tp70
Rp71
sg23
g34
(g38
S'GP\xe1\x88cr\xbe?'
p72
tp73
Rp74
sg25
g34
(g38
S'\xdbHp\xb1\x08\xb9\xde?'
p75
tp76
Rp77
sg26
g34
(g38
S'\xf1\xa3q\x1d\x9d\x9c\xb3?'
p78
tp79
Rp80
sg28
g34
(g38
S'\x95b\x1a\x82\xd6\x9a\xcf?'
p81
tp82
Rp83
ssS'paralog'
p84
(lp85
S'YGR043C'
p86
aS'YLR354C'
p87
asS'alignment_file'
p88
S'../MafftAlignment/YGR043C_YLR354C/YGR043C_YLR354C_input.fasta'
p89
sS'x_clock'
p90
NsS'x'
p91
cnumpy.core.multiarray
_reconstruct
p92
(cnumpy
ndarray
p93
(I0
tp94
S'b'
p95
tp96
Rp97
(I1
(I18
tp98
g38
I00
S"_\x03\x05^\x93W\xe7\xbf\xf3Q\xa5\x81\x1a\x99\xe0\xbfJ\xf1\xf6E\x03!\xeb\xbf\xb1,`7-(\xf1?\xb3r\xda\x04\t\xa0\x01\xc0\xdbR\x03\x15\xd5\x8b\x04\xc0'^\x08\xe6J\x16\xf1\xbf;p\x1e\x8b\xee{\xe7\xbf7\xdf.\xeb\xe16\xe2\xbf\xdb\xd0\x04\xf2\xbe\x80\xa6\xbf\xac\xac\xa1\x8c\x97l\x02\xc0#F\x0f\xb7\xf5{\xfa\xbf\x99R\xbb\xbch\x8d\x04\xc0 \xb5.\xde\xd2]\xf7\xbf\xb4\xbb_\xa1\x03<\x03\xc0\xe3\xdf\x88[(a\xf6\xbfr\x0b\x93\x1eJG\xfd\xbf\xd9a\x01\xa9\x97\x08\x01\xc0"
p99
tp100
bsS'Model'
p101
S'MG94'
p102
sS'clock'
p103
I00
s.