(dp0
S'Force'
p1
NsS'ExpectedGeneconv'
p2
(dp3
(S'N1'
p4
S'N2'
p5
tp6
F78.31917192060885
s(S'N5'
p7
S'cerevisiae'
p8
tp9
F12.017269712889426
s(g5
S'N3'
p10
tp11
F7.5466423820019095
s(S'N4'
p12
g7
tp13
F3.7174802405527196
s(g4
S'castellii'
p14
tp15
F161.5759335204592
s(g5
S'bayanus'
p16
tp17
F13.732296062170919
s(S'N0'
p18
g4
tp19
F22.85178029488315
s(g10
S'kudriavzevii'
p20
tp21
F10.75418583493026
s(g7
S'paradoxus'
p22
tp23
F3.2086321726805487
s(g18
S'kluyveri'
p24
tp25
F0.0
s(g10
g12
tp26
F4.707219873678109
s(g12
S'mikatae'
p27
tp28
F11.002736332677214
ssS'ExpectedDwellTime'
p29
(dp30
g6
F330.66109322412245
sg9
F374.5088739197392
sg11
F358.5056681812431
sg13
F367.72888172400764
sg15
F343.82360828584797
sg17
F370.2329799809493
sg19
F178.05348189177448
sg21
F368.12155025801167
sg23
F374.6244026281416
sg25
F0.0
sg26
F361.60329703892035
sg28
F378.53584026652464
ssS'newicktree'
p31
S'../PairsAlignemt/YeastTree.newick'
p32
sS'll'
p33
cnumpy.core.multiarray
scalar
p34
(cnumpy
dtype
p35
(S'f8'
p36
I0
I1
tp37
Rp38
(I3
S'<'
p39
NNNI-1
I-1
I0
tp40
bS'.\x13U\x0e\xd8\x8f\xb6\xc0'
p41
tp42
Rp43
sS'edge_list'
p44
(lp45
g19
ag25
ag6
ag15
ag11
ag17
ag26
ag21
ag13
ag28
ag9
ag23
asS'edge_to_blen'
p46
(dp47
g6
g34
(g38
S'\x93\xad;\xc5\x04u\xf3?'
p48
tp49
Rp50
sg9
g34
(g38
S'\xea\x7f\xb0\x9f?d\xc9?'
p51
tp52
Rp53
sg11
g34
(g38
S'c22I[\xa0\xbf?'
p54
tp55
Rp56
sg13
g34
(g38
S'>\x11@V\xd5\xd6\xb4?'
p57
tp58
Rp59
sg21
g34
(g38
S'\x16K\xb6\xbd\x81u\xc8?'
p60
tp61
Rp62
sg17
g34
(g38
S'6NU\xfb\xa8\xa1\xce?'
p63
tp64
Rp65
sg19
g34
(g38
S'\xe1iB\xca\x02\x0b\xe2?'
p66
tp67
Rp68
sg15
g34
(g38
S'T]\x9dZb\xff\x04@'
p69
tp70
Rp71
sg23
g34
(g38
S'\xe3H\x15Ar\x96\xb0?'
p72
tp73
Rp74
sg25
g34
(g38
S'.K><\xcbH\x00@'
p75
tp76
Rp77
sg26
g34
(g38
S'i\xe2\x8b\x1e\x96:\xb8?'
p78
tp79
Rp80
sg28
g34
(g38
S'\x0f~\xc4\xf3\x9c\x01\xcf?'
p81
tp82
Rp83
ssS'paralog'
p84
(lp85
S'YPL232W'
p86
aS'YMR183C'
p87
asS'alignment_file'
p88
S'../MafftAlignment/YPL232W_YMR183C/YPL232W_YMR183C_input.fasta'
p89
sS'x_clock'
p90
NsS'x'
p91
cnumpy.core.multiarray
_reconstruct
p92
(cnumpy
ndarray
p93
(I0
tp94
S'b'
p95
tp96
Rp97
(I1
(I18
tp98
g38
I00
S"\xf3\x862\x99\xc7\xdc\xe3\xbf\xf6\xb7\xa2[\x9d\xab\xe0\xbfVY\x91\xe3\xa1\xba\xe9\xbf{\xfe\x9d\xe3\x9d\x03\xf2?#A\xbd'\x03r\x08\xc0h\xcd\xa3Q\x91\xb1\xf4\xbf\x9a(\xcc\xdc\xd4U\xe2\xbf\xd4\xa1\x91'\x92\xbe\xe6?\xb1jh\x161\n\xc9?\x91|R\x18\x01\xe1\xee?TAmp\xbf\xba\x00\xc0\xb0q\x92\xa4I\xe1\xf6\xbfT\xa4V\xd1n\xdc\x02\xc0n\xc3?b\x02{\xfa\xbf\xe8[]\x97\x15\x11\x04\xc0\x18\xcd\xda\xcdx\xaf\xf6\xbfm\xe9\xa0#\xbd\xe1\xf9\xbf`11\x19c\xe4\x05\xc0"
p99
tp100
bsS'Model'
p101
S'MG94'
p102
sS'clock'
p103
I00
s.