(dp0
S'Force'
p1
NsS'ExpectedGeneconv'
p2
(dp3
(S'N1'
p4
S'N2'
p5
tp6
F27.91923071535115
s(S'N5'
p7
S'cerevisiae'
p8
tp9
F3.3878213307761924
s(g5
S'N3'
p10
tp11
F2.012969870471986
s(S'N4'
p12
g7
tp13
F1.768697639121366
s(g4
S'castellii'
p14
tp15
F46.71765414635447
s(g5
S'bayanus'
p16
tp17
F5.893000106231324
s(S'N0'
p18
g4
tp19
F8.127907560989372e-07
s(g10
S'kudriavzevii'
p20
tp21
F5.099204253346375
s(g7
S'paradoxus'
p22
tp23
F2.497668921173774
s(g18
S'kluyveri'
p24
tp25
F0.0
s(g10
g12
tp26
F2.1850497468706207
s(g12
S'mikatae'
p27
tp28
F4.609072598419794
ssS'ExpectedDwellTime'
p29
(dp30
g6
F435.3712322616727
sg9
F575.4012678014327
sg11
F575.13814514736
sg13
F576.9443820052597
sg15
F498.4518754146615
sg17
F571.909853345883
sg19
F0.11530127342990382
sg21
F580.6266003306475
sg23
F588.3538759615144
sg25
F0.0
sg26
F576.6108377352301
sg28
F570.225916343556
ssS'newicktree'
p31
S'../PairsAlignemt/YeastTree.newick'
p32
sS'll'
p33
cnumpy.core.multiarray
scalar
p34
(cnumpy
dtype
p35
(S'f8'
p36
I0
I1
tp37
Rp38
(I3
S'<'
p39
NNNI-1
I-1
I0
tp40
bS'\x03_\x06q\\v\xc2\xc0'
p41
tp42
Rp43
sS'edge_list'
p44
(lp45
g19
ag25
ag6
ag15
ag11
ag17
ag26
ag21
ag13
ag28
ag9
ag23
asS'edge_to_blen'
p46
(dp47
g19
g34
(g38
S'\xc2\x90\x12\xa9\x98\xbc#?'
p48
tp49
Rp50
sg9
g34
(g38
S'\xa5\x9cqg\xd0\x85\xca?'
p51
tp52
Rp53
sg11
g34
(g38
S'p\x05\xf5\x157\x00\xc3?'
p54
tp55
Rp56
sg13
g34
(g38
S'\x9b\x8c\xa5\x93\xb4\x03\xbc?'
p57
tp58
Rp59
sg21
g34
(g38
S'G\xf4\r\x183\xb7\xd3?'
p60
tp61
Rp62
sg17
g34
(g38
S'<\xa9\xf0^Y\x99\xd3?'
p63
tp64
Rp65
sg6
g34
(g38
S'Jxs\x96,s\xfc?'
p66
tp67
Rp68
sg15
g34
(g38
S'q\xe6t\xd1\x13\xda\x07@'
p69
tp70
Rp71
sg23
g34
(g38
S'n\x844Aj7\xc3?'
p72
tp73
Rp74
sg28
g34
(g38
S'\x1f4\x928n\xdc\xd3?'
p75
tp76
Rp77
sg26
g34
(g38
S'\x19\\\xcdv^\x9c\xbd?'
p78
tp79
Rp80
sg25
g34
(g38
S'\t\xa1\x03\x8dZ\xbb\x03@'
p81
tp82
Rp83
ssS'paralog'
p84
(lp85
S'YPR157W'
p86
aS'YGR141W'
p87
asS'alignment_file'
p88
S'../MafftAlignment/YPR157W_YGR141W/YPR157W_YGR141W_input.fasta'
p89
sS'x_clock'
p90
NsS'x'
p91
cnumpy.core.multiarray
_reconstruct
p92
(cnumpy
ndarray
p93
(I0
tp94
S'b'
p95
tp96
Rp97
(I1
(I18
tp98
g38
I00
S'\x99\xb9l\xe5\x97\x08\xe5\xbf\x1d\r\xc9\xa7\xec$\xe1\xbf\xe0\xca:g\x96\xf0\xee\xbf\x985\xc1W\xeb8\xee?\xb0\xe8\xc1\xb7\xde9\x05\xc0\x8f\x02\xa9\x01\xd8.\x07\xc0`<3\x8e\x1f\x9a!\xc0\x7fzS:\xad\xe3\xec?1\xff\x970\xf4j\xe2?g\x1f/M\x8ez\xf1?\xa6\x90P\rP\x85\xfe\xbf\xb1\xae\xe4\x878\xef\xf2\xbf\xb9\xdcm\xff\x9cA\x01\xc0\xb9\xf0\xde\x8f\xec\xd6\xf2\xbfn_\xae3\x1c\xb3\x01\xc0\x9b\xbez\x11\xd2\xb8\xf2\xbf&\xa1r\xe58/\xf9\xbfi\x1b\x8a\xa8\x17W\xfe\xbf'
p99
tp100
bsS'Model'
p101
S'MG94'
p102
sS'clock'
p103
I00
s.