(dp0
S'Force'
p1
NsS'ExpectedGeneconv'
p2
(dp3
(S'N1'
p4
S'N2'
p5
tp6
F11.529182363253714
s(S'N5'
p7
S'cerevisiae'
p8
tp9
F7.467192318355726
s(g5
S'N3'
p10
tp11
F3.2172418261841287
s(S'N4'
p12
g7
tp13
F0.8696819888948987
s(g4
S'castellii'
p14
tp15
F12.226693254464262
s(g5
S'bayanus'
p16
tp17
F4.430650113482223
s(S'N0'
p18
g4
tp19
F9.225042578654998
s(g10
S'kudriavzevii'
p20
tp21
F3.3377334852465097
s(g7
S'paradoxus'
p22
tp23
F2.0647559274973744
s(g18
S'kluyveri'
p24
tp25
F0.0
s(g10
g12
tp26
F2.4709547550571407
s(g12
S'mikatae'
p27
tp28
F6.437970285650475
ssS'ExpectedDwellTime'
p29
(dp30
g6
F48.46858732145288
sg9
F57.40643310184373
sg11
F53.66938939524375
sg13
F61.017627051668974
sg15
F54.767743537913795
sg17
F54.335210604357215
sg19
F26.32385608195528
sg21
F58.108089200947084
sg23
F66.52775953375938
sg25
F0.0
sg26
F57.929545580238425
sg28
F62.570623010815694
ssS'newicktree'
p31
S'../PairsAlignemt/YeastTree.newick'
p32
sS'll'
p33
cnumpy.core.multiarray
scalar
p34
(cnumpy
dtype
p35
(S'f8'
p36
I0
I1
tp37
Rp38
(I3
S'<'
p39
NNNI-1
I-1
I0
tp40
bS'\xd9\x88\xd2*\x80\xf8\x92\xc0'
p41
tp42
Rp43
sS'edge_list'
p44
(lp45
g19
ag25
ag6
ag15
ag11
ag17
ag26
ag21
ag13
ag28
ag9
ag23
asS'edge_to_blen'
p46
(dp47
g6
g34
(g38
S'\x8c\xa4\x02\xa9\xb7.\xbe?'
p48
tp49
Rp50
sg9
g34
(g38
S':*#xe%\xa9?'
p51
tp52
Rp53
sg11
g34
(g38
S'wgf\xcf2\xf2\xa1?'
p54
tp55
Rp56
sg13
g34
(g38
S'h\xca7\xbf.v\x84?'
p57
tp58
Rp59
sg21
g34
(g38
S'\x14}G\xf4y\x1f\xa6?'
p60
tp61
Rp62
sg17
g34
(g38
S'\x92\xb6\x9d\xdfRb\xaa?'
p63
tp64
Rp65
sg19
g34
(g38
S'\xa1w\xf9\xf1\xf38\xc6?'
p66
tp67
Rp68
sg15
g34
(g38
S'\x84\xc7?1\x82\xb4\xc2?'
p69
tp70
Rp71
sg23
g34
(g38
S'\x1b\x19\xaeU\xaf\xcc\xa1?'
p72
tp73
Rp74
sg25
g34
(g38
S'\xf1!\xe7\xac\x85\x00\xb5>'
p75
tp76
Rp77
sg26
g34
(g38
S'="\xff\xa9\xff\x15\xa0?'
p78
tp79
Rp80
sg28
g34
(g38
S'l}\xa8\x15\xd0D\xad?'
p81
tp82
Rp83
ssS'paralog'
p84
(lp85
S'YER131W'
p86
aS'YGL189C'
p87
asS'alignment_file'
p88
S'../MafftAlignment/YER131W_YGL189C/YER131W_YGL189C_input.fasta'
p89
sS'x_clock'
p90
NsS'x'
p91
cnumpy.core.multiarray
_reconstruct
p92
(cnumpy
ndarray
p93
(I0
tp94
S'b'
p95
tp96
Rp97
(I1
(I18
tp98
g38
I00
S'\x17\t\xb47\x1a=\xe5\xbfi\xc1\xb1\xa6\x15Y\xdc\xbf\xcb8  !\xb0\xe6\xbf8K{\xcd\xf9\x16\xfe?\xda\xc7\x08\x15\xa9\xce\x05\xc0\xa0\xe2hO\xa8Q\xe4?\x1d\xab\x866\xcb\x03\xfc\xbf\x90\xbba\x1e\x8c.+\xc0\x11\xcf\xf7os\x1a\x01\xc0\xd5\xe7\nk\x90\xc5\xfe\xbf\xd3q\xfd,\xc0\xce\n\xc0\xeb\x01\x1f\x96y\xb9\x07\xc0\xa5\xdb\x96r\xdb\xae\x0b\xc0\x93g\x8eD8"\t\xc0\n\x08P\xb5\x9cl\x12\xc0w\x00\x0c\xb8\xf8\xe4\x06\xc0\x9dE\x90-\xe6\x1b\x08\xc0\x159\x82\xc8\x8a\xdf\n\xc0'
p99
tp100
bsS'Model'
p101
S'MG94'
p102
sS'clock'
p103
I00
s.