(dp0
S'Force'
p1
NsS'ExpectedGeneconv'
p2
(dp3
(S'N1'
p4
S'N2'
p5
tp6
F65.88787101361963
s(S'N5'
p7
S'cerevisiae'
p8
tp9
F5.232592971314469
s(g5
S'N3'
p10
tp11
F5.907233611541179
s(S'N4'
p12
g7
tp13
F2.8297743068478187
s(g4
S'castellii'
p14
tp15
F87.26618073545538
s(g5
S'bayanus'
p16
tp17
F8.442150473266462
s(S'N0'
p18
g4
tp19
F3.8043178652547662
s(g10
S'kudriavzevii'
p20
tp21
F6.8920037145763615
s(g7
S'paradoxus'
p22
tp23
F9.088880121472599
s(g18
S'kluyveri'
p24
tp25
F0.0
s(g10
g12
tp26
F2.0568205866668836
s(g12
S'mikatae'
p27
tp28
F5.97105736774534
ssS'ExpectedDwellTime'
p29
(dp30
g6
F913.1502982083462
sg9
F1073.8502299367387
sg11
F1058.3356599828687
sg13
F1074.8315397036233
sg15
F940.5551885951792
sg17
F1058.4387839331241
sg19
F277.37258521064706
sg21
F1073.963726089412
sg23
F1097.2913851102032
sg25
F0.0
sg26
F1067.5259117498845
sg28
F1079.0239788458748
ssS'newicktree'
p31
S'../PairsAlignemt/YeastTree.newick'
p32
sS'll'
p33
cnumpy.core.multiarray
scalar
p34
(cnumpy
dtype
p35
(S'f8'
p36
I0
I1
tp37
Rp38
(I3
S'<'
p39
NNNI-1
I-1
I0
tp40
bS'\x91\xdd\xb1\xb8\x1e\x17\xd2\xc0'
p41
tp42
Rp43
sS'edge_list'
p44
(lp45
g19
ag25
ag6
ag15
ag11
ag17
ag26
ag21
ag13
ag28
ag9
ag23
asS'edge_to_blen'
p46
(dp47
g6
g34
(g38
S'"p\xffP\xa0 \x01@'
p48
tp49
Rp50
sg9
g34
(g38
S'g0\xca$\xc0l\xc8?'
p51
tp52
Rp53
sg11
g34
(g38
S'L\x88{\r\xa3\xdf\xcc?'
p54
tp55
Rp56
sg13
g34
(g38
S'\xdb*:\xf0g\xfc\xbe?'
p57
tp58
Rp59
sg21
g34
(g38
S'\x1e"\xaf\x9a\x01\xba\xd5?'
p60
tp61
Rp62
sg17
g34
(g38
S'\xb1\xf3\xc5X?|\xd5?'
p63
tp64
Rp65
sg19
g34
(g38
S')\xc4:\xdc\x88~\xd1?'
p66
tp67
Rp68
sg15
g34
(g38
S'"e\x1b\x81M\x8a\x06@'
p69
tp70
Rp71
sg23
g34
(g38
S'\xf6SQ\x86/\x0e\xd6?'
p72
tp73
Rp74
sg25
g34
(g38
S'm\xafk\x19\xba\x0c\r@'
p75
tp76
Rp77
sg26
g34
(g38
S'\x0e\xcd\xe9xk\x97\xbb?'
p78
tp79
Rp80
sg28
g34
(g38
S'\xe8\x08u\xf7\xff\x17\xd2?'
p81
tp82
Rp83
ssS'paralog'
p84
(lp85
S'YAL056W'
p86
aS'YOR371C'
p87
asS'alignment_file'
p88
S'../MafftAlignment/YAL056W_YOR371C/YAL056W_YOR371C_input.fasta'
p89
sS'x_clock'
p90
NsS'x'
p91
cnumpy.core.multiarray
_reconstruct
p92
(cnumpy
ndarray
p93
(I0
tp94
S'b'
p95
tp96
Rp97
(I1
(I18
tp98
g38
I00
S'\x8f\xa1\xa3\x076\x0c\xe4\xbf\xe5\xc8\xc7\x9c\xd8\xb0\xdd\xbf\x9d\xd0\x15B\xe0\x01\xf0\xbf\xdf\xc0:dQ|\xed?\xf1\\\xc5\xa9\x02\xd2\x00\xc0\xb7\xae\x8d\xc4Dl\x05\xc0n\xf0\xca\xe0\x8c\xc0\xf4\xbf\xdc=\x97!\x11\xa2\xf4?\x1c\xff\x13i\x15\\\xe8?\xb0\xb0o\xd1\xe2\x92\xf0?R|/\xe4]\xd3\xf7\xbf\xc7\x0cIv\xd5v\xf1\xbf\xe5\x9e\x19\xccD\xd2\x01\xc0\xe0\xf2~E\x19I\xf1\xbf\x1c\xad\x942\xa5\xe4\x00\xc0\xa1\xe7\x9bf\x8b6\xf4\xbfU\x91z\xc3\xbd\x80\xfa\xbfo\xbc\xa6D\x92\x0b\xf1\xbf'
p99
tp100
bsS'Model'
p101
S'MG94'
p102
sS'clock'
p103
I00
s.