(dp0
S'Force'
p1
NsS'ExpectedGeneconv'
p2
(dp3
(S'N1'
p4
S'N2'
p5
tp6
F19.95175820333683
s(S'N5'
p7
S'cerevisiae'
p8
tp9
F10.981380724782314
s(g5
S'N3'
p10
tp11
F5.334067930650131
s(S'N4'
p12
g7
tp13
F0.9470453379239995
s(g4
S'castellii'
p14
tp15
F23.40346010679226
s(g5
S'bayanus'
p16
tp17
F11.141121927021755
s(S'N0'
p18
g4
tp19
F28.808747471019036
s(g10
S'kudriavzevii'
p20
tp21
F7.536518100630213
s(g7
S'paradoxus'
p22
tp23
F3.469238714652586
s(g18
S'kluyveri'
p24
tp25
F0.0
s(g10
g12
tp26
F3.1906986514994196
s(g12
S'mikatae'
p27
tp28
F6.467738188696546
ssS'ExpectedDwellTime'
p29
(dp30
g6
F43.823341161624846
sg9
F53.69356476608565
sg11
F48.46394103526897
sg13
F58.86665792199912
sg15
F42.119691987532356
sg17
F37.74467929505145
sg19
F31.801820428113338
sg21
F55.62350481339746
sg23
F60.074291438245226
sg25
F0.0
sg26
F56.15343550889118
sg28
F68.24791174313414
ssS'newicktree'
p31
S'../PairsAlignemt/YeastTree.newick'
p32
sS'll'
p33
cnumpy.core.multiarray
scalar
p34
(cnumpy
dtype
p35
(S'f8'
p36
I0
I1
tp37
Rp38
(I3
S'<'
p39
NNNI-1
I-1
I0
tp40
bS'\xd9\xd6\x8dO?\x98\x95\xc0'
p41
tp42
Rp43
sS'edge_list'
p44
(lp45
g19
ag25
ag6
ag15
ag11
ag17
ag26
ag21
ag13
ag28
ag9
ag23
asS'edge_to_blen'
p46
(dp47
g19
g34
(g38
S'\xa3\xc0\xad\x03\x83,\xd0?'
p48
tp49
Rp50
sg9
g34
(g38
S'x\x08\n\x96\xa9\x83\xa8?'
p51
tp52
Rp53
sg11
g34
(g38
S'\xcc\n^\xad\xd0\x0b\xa5?'
p54
tp55
Rp56
sg13
g34
(g38
S'^\xf0\xf0\xe4i\xddp?'
p57
tp58
Rp59
sg15
g34
(g38
S'\x9f\xfb\xbcT\x03+\xc2?'
p60
tp61
Rp62
sg17
g34
(g38
S'\xeeau\xe4\xaf\xc2\xaa?'
p63
tp64
Rp65
sg6
g34
(g38
S'Ic\xfe\x99\xeb\x1f\xc0?'
p66
tp67
Rp68
sg21
g34
(g38
S"'A\x8c8\xde\xf4\xa8?"
p69
tp70
Rp71
sg23
g34
(g38
S'k\x81\xf9\xf1.\x85\x96?'
p72
tp73
Rp74
sg28
g34
(g38
S'd\x18d\x93z\x9f\xaa?'
p75
tp76
Rp77
sg26
g34
(g38
S'\x9c\x02u\x9b\xa4\xf8\x98?'
p78
tp79
Rp80
sg25
g34
(g38
S'<\xb6\x199\xc6\xae\xb0>'
p81
tp82
Rp83
ssS'paralog'
p84
(lp85
S'YBL087C'
p86
aS'YER117W'
p87
asS'alignment_file'
p88
S'../MafftAlignment/YBL087C_YER117W/YBL087C_YER117W_input.fasta'
p89
sS'x_clock'
p90
NsS'x'
p91
cnumpy.core.multiarray
_reconstruct
p92
(cnumpy
ndarray
p93
(I0
tp94
S'b'
p95
tp96
Rp97
(I1
(I18
tp98
g38
I00
S'~\x99k\xfd\x9d\xee\xe6\xbf6:Z\xa0\xb2h\xe3\xbf\x11\xa1\xff\x81\x94\x90\xef\xbf\x0b%\x1f.1\x1d\x01@0\x8a\x1b\xda\xfdw\x05\xc0\xe5-\n{\xb0\xcc\xf4?B}\xc7s\xfd\x01\xf6\xbf~F\x9c\xffn\xa4+\xc0\xc0\xd1\xcfH\xcc\x92\x00\xc0D\xd8X\x94\xe5<\xff\xbf\xa6\xa7\xe3*i\x88\t\xc0\x13Fwxv\x9c\x07\xc0\xba\xf0\xcb\x8d\xc0\xb5\r\xc0\xeaX\xf1~e+\x08\xc0\xd1*\xaeAZ\xf8\x15\xc0\xa4\xba\xb7\xee\x03\xa7\x07\xc0\xb6\xd4\x93\xbf\x02P\x08\xc0\xa5\xd2[/U\x89\x0e\xc0'
p99
tp100
bsS'Model'
p101
S'MG94'
p102
sS'clock'
p103
I00
s.