(dp0
S'Force'
p1
NsS'ExpectedGeneconv'
p2
(dp3
(S'N1'
p4
S'N2'
p5
tp6
F7.356932454288318
s(S'N5'
p7
S'cerevisiae'
p8
tp9
F2.8312636263781332
s(g5
S'N3'
p10
tp11
F1.1089057054251024
s(S'N4'
p12
g7
tp13
F0.38281370875025705
s(g4
S'castellii'
p14
tp15
F6.826778013781833
s(g5
S'bayanus'
p16
tp17
F3.9961308868864927
s(S'N0'
p18
g4
tp19
F0.4446810877692346
s(g10
S'kudriavzevii'
p20
tp21
F2.0643195135665904
s(g7
S'paradoxus'
p22
tp23
F3.251715961047201
s(g18
S'kluyveri'
p24
tp25
F0.0
s(g10
g12
tp26
F1.006521685186142
s(g12
S'mikatae'
p27
tp28
F7.519307386943268
ssS'ExpectedDwellTime'
p29
(dp30
g6
F26.619282185073793
sg9
F50.26284904340561
sg11
F36.5849606193121
sg13
F45.90182095935568
sg15
F29.326991236466586
sg17
F39.17344811310066
sg19
F8.174627198092185
sg21
F54.46491745287539
sg23
F47.916220719536
sg25
F0.0
sg26
F43.64025385746191
sg28
F50.87699356433421
ssS'newicktree'
p31
S'../PairsAlignemt/YeastTree.newick'
p32
sS'll'
p33
cnumpy.core.multiarray
scalar
p34
(cnumpy
dtype
p35
(S'f8'
p36
I0
I1
tp37
Rp38
(I3
S'<'
p39
NNNI-1
I-1
I0
tp40
bS'\xa0\x9d*xeh\x92\xc0'
p41
tp42
Rp43
sS'edge_list'
p44
(lp45
g19
ag25
ag6
ag15
ag11
ag17
ag26
ag21
ag13
ag28
ag9
ag23
asS'edge_to_blen'
p46
(dp47
g6
g34
(g38
S'\xde\x93p\xb7\xf2\xe4\xbb?'
p48
tp49
Rp50
sg9
g34
(g38
S'@\xa2j\xee\x7fU\xa5?'
p51
tp52
Rp53
sg11
g34
(g38
S'MY\xbc\xc1\x91\x9b\x9b?'
p54
tp55
Rp56
sg13
g34
(g38
S"\x14\x1b\xdf'\xa5\xd8m?"
p57
tp58
Rp59
sg21
g34
(g38
S'=\x9d?\xff=\x03\xaf?'
p60
tp61
Rp62
sg17
g34
(g38
S'G\xde\r\x90\x1e\x1e\xb3?'
p63
tp64
Rp65
sg19
g34
(g38
S'\xc3\t\x8e\x83I\xc7\xa4?'
p66
tp67
Rp68
sg15
g34
(g38
S'\x1aM\xcf3\x05\xf5\xbd?'
p69
tp70
Rp71
sg23
g34
(g38
S'6\xeb\x96\x87\x98<\xa3?'
p72
tp73
Rp74
sg28
g34
(g38
S'\xbcl\xa5\xa7X\xf7\xb6?'
p75
tp76
Rp77
sg26
g34
(g38
S'\x93\xe9Q\x85\xb5\xa1\x94?'
p78
tp79
Rp80
sg25
g34
(g38
S'^\xed!\x1eoZ\xce?'
p81
tp82
Rp83
ssS'paralog'
p84
(lp85
S'YLR406C'
p86
aS'YDL075W'
p87
asS'alignment_file'
p88
S'../MafftAlignment/YLR406C_YDL075W/YLR406C_YDL075W_input.fasta'
p89
sS'x_clock'
p90
NsS'x'
p91
cnumpy.core.multiarray
_reconstruct
p92
(cnumpy
ndarray
p93
(I0
tp94
S'b'
p95
tp96
Rp97
(I1
(I18
tp98
g38
I00
S'F\xd4\x16\x1b]\x9d\xe4\xbfp[\xf9nX\xd8\xde\xbf-M=\xbf\x9c\xc7\xed\xbf\xaeQ\x7f0\xa6p\xfd?\xb9)\xb8\xcco\xa9\x03\xc0*\xe2\x15g\xf0\x10\xe0?M\xd8\x9ed\xa0\xa2\t\xc0\x91\xa8uh\xa9\x06\xf7\xbf\x11\x8b\x9f\x8c\xe9\xbb\x01\xc0?\x8a\xfc\x19\xcd)\x01\xc0a\x06\xd3a2\xe8\x0c\xc0qE"m\xab\xc1\x04\xc0Jyk\x1e\xb6<\x0f\xc0\xbd\xba\xf9Nrn\x06\xc0\xc4\xb4\xf3%\x9cu\x16\xc0\xbd\x10F\x1f\x0bJ\x03\xc0\xde":\x83\x97l\t\xc0K\x9e\x05z\x85@\n\xc0'
p99
tp100
bsS'Model'
p101
S'MG94'
p102
sS'clock'
p103
I00
s.