(dp0
S'Force'
p1
NsS'ExpectedGeneconv'
p2
(dp3
(S'N1'
p4
S'N2'
p5
tp6
F29.612597099524656
s(S'N5'
p7
S'cerevisiae'
p8
tp9
F4.676621964215983
s(g5
S'N3'
p10
tp11
F3.1782724759832073
s(S'N4'
p12
g7
tp13
F2.410195498187984
s(g4
S'castellii'
p14
tp15
F36.60664535401246
s(g5
S'bayanus'
p16
tp17
F5.267985861765117
s(S'N0'
p18
g4
tp19
F9.070007428155076
s(g10
S'kudriavzevii'
p20
tp21
F5.36224424205565
s(g7
S'paradoxus'
p22
tp23
F2.776595226965996
s(g18
S'kluyveri'
p24
tp25
F0.0
s(g10
g12
tp26
F3.290179589102095
s(g12
S'mikatae'
p27
tp28
F6.880958460830026
ssS'ExpectedDwellTime'
p29
(dp30
g6
F1465.3658152604232
sg9
F1664.0401840468217
sg11
F1619.2029130796248
sg13
F1648.2220705679708
sg15
F1457.0863079120813
sg17
F1624.3324590673076
sg19
F762.6996217974691
sg21
F1646.0458119069572
sg23
F1666.0041995053348
sg25
F0.0
sg26
F1636.5530848708593
sg28
F1642.3919996182203
ssS'newicktree'
p31
S'../PairsAlignemt/YeastTree.newick'
p32
sS'll'
p33
cnumpy.core.multiarray
scalar
p34
(cnumpy
dtype
p35
(S'f8'
p36
I0
I1
tp37
Rp38
(I3
S'<'
p39
NNNI-1
I-1
I0
tp40
bS'[\xd50b\xd8\x99\xdb\xc0'
p41
tp42
Rp43
sS'edge_list'
p44
(lp45
g19
ag25
ag6
ag15
ag11
ag17
ag26
ag21
ag13
ag28
ag9
ag23
asS'edge_to_blen'
p46
(dp47
g6
g34
(g38
S'\x9f\xb2\x87Qi\xc8\xf8?'
p48
tp49
Rp50
sg9
g34
(g38
S'+\xa0 \xd6\xde\xa8\xd4?'
p51
tp52
Rp53
sg11
g34
(g38
S'F\xd4\xf8\x9c\x9e\xd2\xc8?'
p54
tp55
Rp56
sg13
g34
(g38
S'\xfcLE\xc5|\x02\xc2?'
p57
tp58
Rp59
sg21
g34
(g38
S'7\xd87\xa7c\x1a\xdb?'
p60
tp61
Rp62
sg17
g34
(g38
S'\xc3g\xbe\xc1\xab\xd9\xd9?'
p63
tp64
Rp65
sg19
g34
(g38
S'\xec\x03\x1f\x01\xcf8\xe6?'
p66
tp67
Rp68
sg15
g34
(g38
S'\x8c\x10\xba\xae\xa5W\xfd?'
p69
tp70
Rp71
sg23
g34
(g38
S'\x1b\n\x11E\x87g\xc8?'
p72
tp73
Rp74
sg28
g34
(g38
S'G\xed\xd0B\xd8\xc1\xdb?'
p75
tp76
Rp77
sg26
g34
(g38
S'\xd1\xb9\xe2\xe1\x0f\x05\xc8?'
p78
tp79
Rp80
sg25
g34
(g38
S'2\x17\xa1\x15\x18\x15\xf6?'
p81
tp82
Rp83
ssS'paralog'
p84
(lp85
S'YGL133W'
p86
aS'YPL216W'
p87
asS'alignment_file'
p88
S'../MafftAlignment/YGL133W_YPL216W/YGL133W_YPL216W_input.fasta'
p89
sS'x_clock'
p90
NsS'x'
p91
cnumpy.core.multiarray
_reconstruct
p92
(cnumpy
ndarray
p93
(I0
tp94
S'b'
p95
tp96
Rp97
(I1
(I18
tp98
g38
I00
S'\x06N=\xec\xcac\xe3\xbf\xffR\xa3\xb3\xf5\x87\xdb\xbfHV\x12\\\xd7F\xf0\xbf\xff\xa2hH\xbb\x04\xf0?\x9a\x99u@\x81\xa9\xfa\xbf\xa7R\xd6vk\xb2\x0c\xc0^\x8d\xf8A\x8bV\xd7\xbf%v\xd4\xbf\xcb\x9e\xd4?\xd4j\xa2\x19\n\x01\xdc?h\xe5&\x03\xfdg\xe3?<"z)\x8c>\xfa\xbf~%w\xd1\x8d\x02\xed\xbfM\xebi\xf2;\xc5\xfa\xbfM\x0et\xa5\xdb~\xeb\xbf\x9er\xfd)\xbe`\xff\xbfc\x06\xcc\xc4~\xbb\xea\xbf\xce1\xd8uY\x17\xf2\xbf\x88\'\xb6\xe0)\x84\xfa\xbf'
p99
tp100
bsS'Model'
p101
S'MG94'
p102
sS'clock'
p103
I00
s.