(dp0
S'Force'
p1
NsS'ExpectedGeneconv'
p2
(dp3
(S'N1'
p4
S'N2'
p5
tp6
F16.55020709642527
s(S'N5'
p7
S'cerevisiae'
p8
tp9
F1.1387974169386414
s(g5
S'N3'
p10
tp11
F1.2777430925160478
s(S'N4'
p12
g7
tp13
F0.8762084558476224
s(g4
S'castellii'
p14
tp15
F19.897516762239007
s(g5
S'bayanus'
p16
tp17
F1.2198893263175894
s(S'N0'
p18
g4
tp19
F0.21736349283715362
s(g10
S'kudriavzevii'
p20
tp21
F2.3469540499763912
s(g7
S'paradoxus'
p22
tp23
F0.9615853183269393
s(g18
S'kluyveri'
p24
tp25
F0.0
s(g10
g12
tp26
F1.0675637623972516
s(g12
S'mikatae'
p27
tp28
F2.31093195156237
ssS'ExpectedDwellTime'
p29
(dp30
g6
F364.2806258264049
sg9
F441.88927439744333
sg11
F435.3862049321419
sg13
F435.7751960986556
sg15
F378.1544168618449
sg17
F440.4822203901144
sg19
F61.21083402638409
sg21
F434.955234221782
sg23
F433.5020299580829
sg25
F0.0
sg26
F435.3640092605132
sg28
F438.5391073161928
ssS'newicktree'
p31
S'../PairsAlignemt/YeastTree.newick'
p32
sS'll'
p33
cnumpy.core.multiarray
scalar
p34
(cnumpy
dtype
p35
(S'f8'
p36
I0
I1
tp37
Rp38
(I3
S'<'
p39
NNNI-1
I-1
I0
tp40
bS'\xca\xdd1ah\xa4\xbc\xc0'
p41
tp42
Rp43
sS'edge_list'
p44
(lp45
g19
ag25
ag6
ag15
ag11
ag17
ag26
ag21
ag13
ag28
ag9
ag23
asS'edge_to_blen'
p46
(dp47
g19
g34
(g38
S"p'\x10\x11u\x1a\xc1?"
p48
tp49
Rp50
sg9
g34
(g38
S'\x0b;]\x02\xf8\x81\xd1?'
p51
tp52
Rp53
sg11
g34
(g38
S'(.%&\xe0\x0b\xcb?'
p54
tp55
Rp56
sg13
g34
(g38
S'\x88\x881\xcb\xf4\xda\xc2?'
p57
tp58
Rp59
sg21
g34
(g38
S'G\x7f9\xd0\xf2 \xd5?'
p60
tp61
Rp62
sg17
g34
(g38
S'\xfalI\xb6k\x84\xd1?'
p63
tp64
Rp65
sg6
g34
(g38
S'CB\xc8\x17\xc6\x05\x04@'
p66
tp67
Rp68
sg15
g34
(g38
S"\xb1\x81&'E\xd5\x08@"
p69
tp70
Rp71
sg23
g34
(g38
S'\xdf\xb9\xe6\xc9f\xb4\xc6?'
p72
tp73
Rp74
sg25
g34
(g38
S'u\xff%_\xd6\xb2\t@'
p75
tp76
Rp77
sg26
g34
(g38
S'\xa2\xd2\t\xf0ax\xc8?'
p78
tp79
Rp80
sg28
g34
(g38
S'\x9b\xc9X\xeb\xf3\xd7\xda?'
p81
tp82
Rp83
ssS'paralog'
p84
(lp85
S'YLR284C'
p86
aS'YOR180C'
p87
asS'alignment_file'
p88
S'../MafftAlignment/YLR284C_YOR180C/YLR284C_YOR180C_input.fasta'
p89
sS'x_clock'
p90
NsS'x'
p91
cnumpy.core.multiarray
_reconstruct
p92
(cnumpy
ndarray
p93
(I0
tp94
S'b'
p95
tp96
Rp97
(I1
(I18
tp98
g38
I00
S'\xcf\x03@nz\xf8\xe3\xbfzT\x93\xb9\x15\xfa\xe2\xbfp\xd7i\x14\xbe0\xee\xbf\x16\r\x97\xef\xce[\xec?(S\xf0\xbeI\xff\x02\xc0\xde\xdd2\x80](\x0b\xc0\x14\x11#\xcf\x1f\x1a\x00\xc0\x1a\\2@\x02\xac\xf2?\xc20\x9e\x8e|[\xed?\xe0\xc4\x00\x1b\xaf\x1f\xf2?\xb8CF\x06#\xdf\xf8\xbf\x99Z\x9c\xa3+\xbb\xf4\xbf\xac\xb7=\xe8 y\xfa\xbfC\xaa\xd1\xead\xbb\xf1\xbf\x85\xd1\xaa\xdc\xce\xa4\xfe\xbf\xd36\x0f\r\xad\xcd\xeb\xbf\xb8\x8d?!i\xbd\xf4\xbf\x840d\xc8\xdc\xab\xfb\xbf'
p99
tp100
bsS'Model'
p101
S'MG94'
p102
sS'clock'
p103
I00
s.