(dp0
S'Force'
p1
NsS'ExpectedGeneconv'
p2
(dp3
(S'N1'
p4
S'N2'
p5
tp6
F16.660426185066406
s(S'N5'
p7
S'cerevisiae'
p8
tp9
F5.175940172434687
s(g5
S'N3'
p10
tp11
F2.9395964706549726
s(S'N4'
p12
g7
tp13
F2.5299125487991176
s(g4
S'castellii'
p14
tp15
F16.938933626264152
s(g5
S'bayanus'
p16
tp17
F4.132529750528906
s(S'N0'
p18
g4
tp19
F0.09915231421243152
s(g10
S'kudriavzevii'
p20
tp21
F6.596960514984502
s(g7
S'paradoxus'
p22
tp23
F3.296289093831729
s(g18
S'kluyveri'
p24
tp25
F0.0
s(g10
g12
tp26
F1.1659280740689388
s(g12
S'mikatae'
p27
tp28
F6.6994845845124775
ssS'ExpectedDwellTime'
p29
(dp30
g6
F79.12612050927848
sg9
F120.25860759636319
sg11
F115.75199478737746
sg13
F121.04897308796365
sg15
F73.71475756166164
sg17
F115.15537209229846
sg19
F8.05634579653999
sg21
F126.93419476364068
sg23
F123.37688685956935
sg25
F0.0
sg26
F121.01514895724905
sg28
F128.07439176866305
ssS'newicktree'
p31
S'../PairsAlignemt/YeastTree.newick'
p32
sS'll'
p33
cnumpy.core.multiarray
scalar
p34
(cnumpy
dtype
p35
(S'f8'
p36
I0
I1
tp37
Rp38
(I3
S'<'
p39
NNNI-1
I-1
I0
tp40
bS'cq\x1e \x8bL\x9d\xc0'
p41
tp42
Rp43
sS'edge_list'
p44
(lp45
g19
ag25
ag6
ag15
ag11
ag17
ag26
ag21
ag13
ag28
ag9
ag23
asS'edge_to_blen'
p46
(dp47
g6
g34
(g38
S'\xd4We\tW(\xe5?'
p48
tp49
Rp50
sg9
g34
(g38
S'Y\xa5\xceq\xea\x8c\xc3?'
p51
tp52
Rp53
sg11
g34
(g38
S'\xa0\xfb\x8e0\xa2b\xbc?'
p54
tp55
Rp56
sg13
g34
(g38
S'\xe5\xd4\x81kF;\xb2?'
p57
tp58
Rp59
sg21
g34
(g38
S'U\x8eO\x84/\xa7\xcc?'
p60
tp61
Rp62
sg17
g34
(g38
S'\x9f\x08-uPV\xc1?'
p63
tp64
Rp65
sg19
g34
(g38
S'.\x18\xe6\n\x8a\xec\xa4?'
p66
tp67
Rp68
sg15
g34
(g38
S')\xdf\x00\x99o\xd1\xe4?'
p69
tp70
Rp71
sg23
g34
(g38
S'\xdfP[\xdb\xf7\xde\xbb?'
p72
tp73
Rp74
sg28
g34
(g38
S'\x96\x84B\x95\x8f\xae\xc7?'
p75
tp76
Rp77
sg26
g34
(g38
S'\x1e-Q\xbaw\x8e\x9e?'
p78
tp79
Rp80
sg25
g34
(g38
S'\xbc\x9c\xacC\r\x0b\xe1?'
p81
tp82
Rp83
ssS'paralog'
p84
(lp85
S'YJR048W'
p86
aS'YEL039C'
p87
asS'alignment_file'
p88
S'../MafftAlignment/YJR048W_YEL039C/YJR048W_YEL039C_input.fasta'
p89
sS'x_clock'
p90
NsS'x'
p91
cnumpy.core.multiarray
_reconstruct
p92
(cnumpy
ndarray
p93
(I0
tp94
S'b'
p95
tp96
Rp97
(I1
(I18
tp98
g38
I00
S'\xa54\xbfu\xc0r\xe4\xbfz1]/\x93\xa1\xe1\xbf\xef\xc1(\xae^\x9a\xeb\xbf3>JB\x04\xa8\xf0?\xe1\xe8\x80\x93\n\xfb\x05\xc0 \x19\xa2==\xb9\xee\xbfe|?~U\x94\t\xc0\xda\xe4\x9c\x06\xd9(\xe4\xbf3\x11*\xf1\xadz\xda\xbfnPci\xb0\x83\xdb\xbf]\x96\xb0\xff-\x98\x01\xc0\x0e\xb7\xaa\xd9\xa1\xfc\xff\xbf\x129\xf4\xd4[\x18\x0c\xc0\xb8\xf5t\xcc\xc4\xf2\xf7\xbf\xae\x91\xf0\x95\xdd"\x05\xc0v\x1a5eC\xff\xfa\xbf\x14\xcd\xd9\xb0\x83\x10\xfe\xbf\x15hW\xc7\xa0\xbd\x01\xc0'
p99
tp100
bsS'Model'
p101
S'MG94'
p102
sS'clock'
p103
I00
s.