(dp0
S'Force'
p1
NsS'ExpectedGeneconv'
p2
(dp3
(S'N1'
p4
S'N2'
p5
tp6
F10.758852937918062
s(S'N5'
p7
S'cerevisiae'
p8
tp9
F9.96516537044475
s(g5
S'N3'
p10
tp11
F0.0013713454936479502
s(S'N4'
p12
g7
tp13
F2.0119520269208655
s(g4
S'castellii'
p14
tp15
F27.145922785709573
s(g5
S'bayanus'
p16
tp17
F11.271220496489395
s(S'N0'
p18
g4
tp19
F1.2132160112700816e-07
s(g10
S'kudriavzevii'
p20
tp21
F11.259095714083626
s(g7
S'paradoxus'
p22
tp23
F3.2902504520292273
s(g18
S'kluyveri'
p24
tp25
F0.0
s(g10
g12
tp26
F0.003394957328616651
s(g12
S'mikatae'
p27
tp28
F13.681494292192102
ssS'ExpectedDwellTime'
p29
(dp30
g6
F15.487409020648355
sg9
F22.795125935013463
sg11
F22.87882011100428
sg13
F21.971191499007087
sg15
F25.756991693958533
sg17
F21.067513611152002
sg19
F0.0019867085932205445
sg21
F36.7025274167552
sg23
F18.300791333518937
sg25
F0.0
sg26
F22.87921650286906
sg28
F23.63167264432755
ssS'newicktree'
p31
S'../PairsAlignemt/YeastTree.newick'
p32
sS'll'
p33
cnumpy.core.multiarray
scalar
p34
(cnumpy
dtype
p35
(S'f8'
p36
I0
I1
tp37
Rp38
(I3
S'<'
p39
NNNI-1
I-1
I0
tp40
bS'\xb3\xa2\x82J\xe0\x8f\x93\xc0'
p41
tp42
Rp43
sS'edge_list'
p44
(lp45
g19
ag25
ag6
ag15
ag11
ag17
ag26
ag21
ag13
ag28
ag9
ag23
asS'edge_to_blen'
p46
(dp47
g6
g34
(g38
S'\xbd\xb3\x19(\x07\xb9\xb8?'
p48
tp49
Rp50
sg9
g34
(g38
S'z\x93\xceL\x07y\xab?'
p51
tp52
Rp53
sg11
g34
(g38
S'\x0c\x06\x01\xa7{p\xe7>'
p54
tp55
Rp56
sg13
g34
(g38
S'\x95\x9a%\x84l\xb7\x7f?'
p57
tp58
Rp59
sg21
g34
(g38
S'\x05\x01v\t\xbb\xf7\xb2?'
p60
tp61
Rp62
sg17
g34
(g38
S'm\xbd+\xff\xbc\x88\xa8?'
p63
tp64
Rp65
sg19
g34
(g38
S'r5C\x15X\xfc\xe1>'
p66
tp67
Rp68
sg15
g34
(g38
S'\x1e\x1d\xad\xd3\x82\x9e\xc9?'
p69
tp70
Rp71
sg23
g34
(g38
S'\x9d\xaax\x9e\x02\xb1\x88?'
p72
tp73
Rp74
sg25
g34
(g38
S'\tW2\x15\xd4\x1b\xcb?'
p75
tp76
Rp77
sg26
g34
(g38
S'D(\xc7\x0esS\xfb>'
p78
tp79
Rp80
sg28
g34
(g38
S'M\xd9\x0e\xe1\x96B\xae?'
p81
tp82
Rp83
ssS'paralog'
p84
(lp85
S'YER074W'
p86
aS'YIL069C'
p87
asS'alignment_file'
p88
S'../MafftAlignment/YER074W_YIL069C/YER074W_YIL069C_input.fasta'
p89
sS'x_clock'
p90
NsS'x'
p91
cnumpy.core.multiarray
_reconstruct
p92
(cnumpy
ndarray
p93
(I0
tp94
S'b'
p95
tp96
Rp97
(I1
(I18
tp98
g38
I00
S'+[[\x9d\xed\xd2\xe5\xbf\xa0\xa75\x1c\x840\xe0\xbf\x99\xfdy:A\x0c\xeb\xbfDDI@h\xa4\x01@p\x9e64#\x08\x00\xc04\x9d\xb9\x14G\x16\x00@\r\xaeA(AU\'\xc0\x12\xadn\xd8\xb5\xd5\xf8\xbf\xae\xb0\xde\x87\x1a\xb3\x02\xc0Qd\xf6~0\xbd\xf9\xbf<\xfd\xf9\x14\xa8\xcd&\xc0\xe8c\xb8\xdeZN\x08\xc0\xb8\xed\xca\xd76\x1c%\xc0\x04\x07v\x14\xcc\xd1\x04\xc0{J\xe4g\x97q\x13\xc0\xf5z"\x87\xc1\xa0\x06\xc0u;O;\xaaf\x07\xc0\x93\xaf%\xb02\xac\x11\xc0'
p99
tp100
bsS'Model'
p101
S'MG94'
p102
sS'clock'
p103
I00
s.