(dp0
S'Force'
p1
NsS'ExpectedGeneconv'
p2
(dp3
(S'N1'
p4
S'N2'
p5
tp6
F397.2741948965381
s(S'N5'
p7
S'cerevisiae'
p8
tp9
F125.05435431320431
s(g5
S'N3'
p10
tp11
F79.17687787748501
s(S'N4'
p12
g7
tp13
F61.01506219805582
s(g4
S'castellii'
p14
tp15
F460.7140210704097
s(g5
S'bayanus'
p16
tp17
F174.02446000286463
s(S'N0'
p18
g4
tp19
F686.7528632327517
s(g10
S'kudriavzevii'
p20
tp21
F153.42110335829167
s(g7
S'paradoxus'
p22
tp23
F65.33121429338932
s(g18
S'kluyveri'
p24
tp25
F0.0
s(g10
g12
tp26
F85.20002169981014
s(g12
S'mikatae'
p27
tp28
F154.27960237899507
ssS'ExpectedDwellTime'
p29
(dp30
g6
F798.8042229938097
sg9
F845.3571069599127
sg11
F805.9841021968323
sg13
F863.280466016463
sg15
F870.2534610233578
sg17
F795.3335593857372
sg19
F659.7866949346528
sg21
F873.6230861516167
sg23
F899.9160812385335
sg25
F0.0
sg26
F838.3238718085137
sg28
F889.9264478518379
ssS'newicktree'
p31
S'../PairsAlignemt/YeastTree.newick'
p32
sS'll'
p33
cnumpy.core.multiarray
scalar
p34
(cnumpy
dtype
p35
(S'f8'
p36
I0
I1
tp37
Rp38
(I3
S'<'
p39
NNNI-1
I-1
I0
tp40
bS'\xe0N\x8dWR\x94\xd2\xc0'
p41
tp42
Rp43
sS'edge_list'
p44
(lp45
g19
ag25
ag6
ag15
ag11
ag17
ag26
ag21
ag13
ag28
ag9
ag23
asS'edge_to_blen'
p46
(dp47
g19
g34
(g38
S'\xbf\xe2=PR\x81\xed?'
p48
tp49
Rp50
sg9
g34
(g38
S']\x96\x06\xf4\r\x96\xc0?'
p51
tp52
Rp53
sg11
g34
(g38
S"'&\x92c\xf9u\xb7?"
p54
tp55
Rp56
sg13
g34
(g38
S'\xb1\xc9\xdc5\xe2>\xb2?'
p57
tp58
Rp59
sg15
g34
(g38
S"(\xba\x05]8'\xe2?"
p60
tp61
Rp62
sg17
g34
(g38
S'\x13\x91N\xd3\x8c\xae\xc8?'
p63
tp64
Rp65
sg6
g34
(g38
S'i\x14\xf1\xf2t\x19\xdb?'
p66
tp67
Rp68
sg21
g34
(g38
S'h7\x95X\x00v\xc8?'
p69
tp70
Rp71
sg23
g34
(g38
S'T\x0e0\xc3t\x90\xb6?'
p72
tp73
Rp74
sg25
g34
(g38
S'\x98\x0cu\xce\xc8\x96\xf0>'
p75
tp76
Rp77
sg26
g34
(g38
S'\xc4\xdb\x04\x1c\x8e\x95\xb9?'
p78
tp79
Rp80
sg28
g34
(g38
S'\xe7E\x11\x08OC\xc8?'
p81
tp82
Rp83
ssS'paralog'
p84
(lp85
S'YGL062W'
p86
aS'YBR218C'
p87
asS'alignment_file'
p88
S'../MafftAlignment/YGL062W_YBR218C/YGL062W_YBR218C_input.fasta'
p89
sS'x_clock'
p90
NsS'x'
p91
cnumpy.core.multiarray
_reconstruct
p92
(cnumpy
ndarray
p93
(I0
tp94
S'b'
p95
tp96
Rp97
(I1
(I18
tp98
g38
I00
S"\x91\x13;\xac\xc6v\xe7\xbf\xf2\x18\xba\x12J\xf5\xe0\xbf\xb3\xa9\x0c7\x87\x92\xed\xbf\x11M\x12R\r\xde\xf4?RM\xe8=\xe7\xeb\x07\xc0\xf2?9b5\xcc\xd1?\xdac~\xbf\x99\xc7\xb4\xbf\xd3{\x17\x96\xc0\x1b&\xc0\x19\xccw\x7f\xf5\x7f\xeb\xbf\xdd\xdc\xcb\x10\xf4#\xe2\xbfN1%\x06g\x1e\x03\xc0I\xa5\xcc\xf1\xdcU\xfa\xbf'\xf2\x86l\xf5l\x02\xc0\xbf\x13U\x91\xafz\xfa\xbf\x0b2\x15bH!\x05\xc0\xb6\x7f1\xa0\xfa\x9b\xfa\xbf\xcd\xda\xb1\xb9\x02Y\x00\xc06\xce\xc6\x8a3n\x03\xc0"
p99
tp100
bsS'Model'
p101
S'MG94'
p102
sS'clock'
p103
I00
s.