(dp0
S'Force'
p1
NsS'ExpectedGeneconv'
p2
(dp3
(S'N1'
p4
S'N2'
p5
tp6
F15.904918943692172
s(S'N5'
p7
S'cerevisiae'
p8
tp9
F2.430407353055438
s(g5
S'N3'
p10
tp11
F0.7923879394905948
s(S'N4'
p12
g7
tp13
F1.293343643983704
s(g4
S'castellii'
p14
tp15
F4.733137584498076
s(g5
S'bayanus'
p16
tp17
F2.6991415862649433
s(S'N0'
p18
g4
tp19
F0.0988322435826821
s(g10
S'kudriavzevii'
p20
tp21
F1.8757842095403994
s(g7
S'paradoxus'
p22
tp23
F1.8193493293313672
s(g18
S'kluyveri'
p24
tp25
F0.0
s(g10
g12
tp26
F1.0838932668583994
s(g12
S'mikatae'
p27
tp28
F3.258597021329316
ssS'ExpectedDwellTime'
p29
(dp30
g6
F156.40547368816326
sg9
F209.67272028113166
sg11
F209.58083259099615
sg13
F208.7005107230862
sg15
F91.89582016728737
sg17
F219.04369411582354
sg19
F15.18695598911409
sg21
F210.82253553339532
sg23
F212.62546682145634
sg25
F0.0
sg26
F207.84302606027902
sg28
F205.29381307748017
ssS'newicktree'
p31
S'../PairsAlignemt/YeastTree.newick'
p32
sS'll'
p33
cnumpy.core.multiarray
scalar
p34
(cnumpy
dtype
p35
(S'f8'
p36
I0
I1
tp37
Rp38
(I3
S'<'
p39
NNNI-1
I-1
I0
tp40
bS'\x90\xa9m\n\xe2\xca\xa6\xc0'
p41
tp42
Rp43
sS'edge_list'
p44
(lp45
g19
ag25
ag6
ag15
ag11
ag17
ag26
ag21
ag13
ag28
ag9
ag23
asS'edge_to_blen'
p46
(dp47
g19
g34
(g38
S'\x1b\xa1\xf0* 6\xad?'
p48
tp49
Rp50
sg9
g34
(g38
S'\xa3\xbe8\xa7z\x18\xc3?'
p51
tp52
Rp53
sg11
g34
(g38
S'\x0b\xc5\xe4\xfe\xbb\x14\xa6?'
p54
tp55
Rp56
sg13
g34
(g38
S'!\xddKG\x08\xd2\xbd?'
p57
tp58
Rp59
sg21
g34
(g38
S'x4\x87g\xbd\x96\xc9?'
p60
tp61
Rp62
sg17
g34
(g38
S'\x99q\xed\x04\xb8S\xce?'
p63
tp64
Rp65
sg6
g34
(g38
S'|\xa8/\\\xfb\xea\xf3?'
p66
tp67
Rp68
sg15
g34
(g38
S'W\xa5ANoz\xda?'
p69
tp70
Rp71
sg23
g34
(g38
S"'\x97\x90$\xce\xcb\xbb?"
p72
tp73
Rp74
sg28
g34
(g38
S'\xc5wi\xe2\x16\xde\xcd?'
p75
tp76
Rp77
sg26
g34
(g38
S'\x15\xe0\x1f\xbfp\xe8\xa7?'
p78
tp79
Rp80
sg25
g34
(g38
S'\xbb\x85\x1f\xac\x92\x0b\xe2?'
p81
tp82
Rp83
ssS'paralog'
p84
(lp85
S'YPL037C'
p86
aS'YDR252W'
p87
asS'alignment_file'
p88
S'../MafftAlignment/YPL037C_YDR252W/YPL037C_YDR252W_input.fasta'
p89
sS'x_clock'
p90
NsS'x'
p91
cnumpy.core.multiarray
_reconstruct
p92
(cnumpy
ndarray
p93
(I0
tp94
S'b'
p95
tp96
Rp97
(I1
(I18
tp98
g38
I00
S'\xab\x93\xa2}\\\xc4\xe5\xbf\x85\x8c#\xa7\x016\xdc\xbf^a\x8f\x87\xf8\xd1\xe8\xbf\xcd\x14\xbb\xbeG7\xf0?\x8c\xd2\xd7,\xb48\xfe\xbf\x86^\x0e\x85\xb2 \xfe\xbf\xfb\xcd\x96k\xfd\xe8\x06\xc0\x19\x18r\xb2\xd5T\xe2\xbf\x9d\x05\xf8\xce,\t\xcc?\x03;\xc3o\xec=\xec\xbfph\xa8\xa3\x1b&\t\xc0T\xd2W\xfb3\n\xf7\xbfx\x13a\x89M\x83\x08\xc0\xf7D\xcb\xb0\x0b\xc2\xf9\xbf\xae\xee\xd1\x81*3\x01\xc0\xef\x8cn\xb8\xbcH\xf7\xbf\x1d\x0e\x03~\xeep\xfe\xbf\xb8\xd0g\xcb"\xc3\x01\xc0'
p99
tp100
bsS'Model'
p101
S'MG94'
p102
sS'clock'
p103
I00
s.