(dp0
S'Force'
p1
NsS'ExpectedGeneconv'
p2
(dp3
(S'N1'
p4
S'N2'
p5
tp6
F26.61838256272571
s(S'N5'
p7
S'cerevisiae'
p8
tp9
F4.385589762398609
s(g5
S'N3'
p10
tp11
F4.985826039639661
s(S'N4'
p12
g7
tp13
F3.101778011225534
s(g4
S'castellii'
p14
tp15
F30.57506031164047
s(g5
S'bayanus'
p16
tp17
F13.628319609876229
s(S'N0'
p18
g4
tp19
F26.908424045757
s(g10
S'kudriavzevii'
p20
tp21
F9.672523946525303
s(g7
S'paradoxus'
p22
tp23
F1.4352621131935277
s(g18
S'kluyveri'
p24
tp25
F0.0
s(g10
g12
tp26
F1.2739095053238343
s(g12
S'mikatae'
p27
tp28
F6.766544343369381
ssS'ExpectedDwellTime'
p29
(dp30
g6
F110.14207839085033
sg9
F133.42963696528
sg11
F122.00363422060296
sg13
F123.54821311742664
sg15
F104.13650115989549
sg17
F125.15228969309506
sg19
F63.46616077891964
sg21
F130.57166012889203
sg23
F125.86871145823056
sg25
F0.0
sg26
F121.7905848474469
sg28
F130.8592752746239
ssS'newicktree'
p31
S'../PairsAlignemt/YeastTree.newick'
p32
sS'll'
p33
cnumpy.core.multiarray
scalar
p34
(cnumpy
dtype
p35
(S'f8'
p36
I0
I1
tp37
Rp38
(I3
S'<'
p39
NNNI-1
I-1
I0
tp40
bS'\xe6\xfb\xf5\xb0\xe89\xa2\xc0'
p41
tp42
Rp43
sS'edge_list'
p44
(lp45
g19
ag25
ag6
ag15
ag11
ag17
ag26
ag21
ag13
ag28
ag9
ag23
asS'edge_to_blen'
p46
(dp47
g19
g34
(g38
S'\xbf\xee\xa6\x11\xaf\xe7\xd0?'
p48
tp49
Rp50
sg9
g34
(g38
S'\x12\xe1O\x1b\x16\xcb\xa2?'
p51
tp52
Rp53
sg11
g34
(g38
S'4/\xddOH\x14\x98?'
p54
tp55
Rp56
sg13
g34
(g38
S'\x92\xdbLsh|\x94?'
p57
tp58
Rp59
sg21
g34
(g38
S'pW!\xe3hk\xb3?'
p60
tp61
Rp62
sg17
g34
(g38
S'\xf5p\xaf\x15\x15-\xb2?'
p63
tp64
Rp65
sg6
g34
(g38
S'p\x91\\\xban=\xc5?'
p66
tp67
Rp68
sg15
g34
(g38
S"\x1f\xa2'8\xecf\xc5?"
p69
tp70
Rp71
sg23
g34
(g38
S'a\x1a\xcf\x83\xe0R\x84?'
p72
tp73
Rp74
sg28
g34
(g38
S'\x9e\x95\xf3\xa0e\xf2\xae?'
p75
tp76
Rp77
sg26
g34
(g38
S'/\x84\xcf\xf44\xeev?'
p78
tp79
Rp80
sg25
g34
(g38
S'\xaa\x9fL\x18\x15\x12\x07?'
p81
tp82
Rp83
ssS'paralog'
p84
(lp85
S'YNL069C'
p86
aS'YIL133C'
p87
asS'alignment_file'
p88
S'../MafftAlignment/YNL069C_YIL133C/YNL069C_YIL133C_input.fasta'
p89
sS'x_clock'
p90
NsS'x'
p91
cnumpy.core.multiarray
_reconstruct
p92
(cnumpy
ndarray
p93
(I0
tp94
S'b'
p95
tp96
Rp97
(I1
(I18
tp98
g38
I00
S'^u\xdc\xaa<?\xe7\xbf\x97\x8f\xc6{\x96G\xe1\xbf]\xbc\xcf7L\xcb\xed\xbf4v\x99GP8\xfb?e\x81w\xb4Q*\xfa\xbf\xe8\xc2\xe8\xadJ\xae\xe4?\xa2\xa6\xed\xa8\xe4L\xf5\xbf)\xf4\x8f%\xfe\x0f$\xc0]\x1c\x89\x00\x03\xbd\xfc\xbfJ\xbaN=\xe0\x9d\xfc\xbf5\x95Q\x15@\x00\x0e\xc0\xba\xe7kR\x1a)\x05\xc0\xee\x8f\x10\xe1\xbe\xbd\x14\xc0v\x18\x06P\x94\xa1\x04\xc0[\x0fU\xf09K\x0f\xc0\xd9L\xb4\xe7\xcbr\x06\xc0\xe5\x99n\x80Gp\n\xc0\x95\xf3_\x8d\x89s\x12\xc0'
p99
tp100
bsS'Model'
p101
S'MG94'
p102
sS'clock'
p103
I00
s.