(dp0
S'Force'
p1
NsS'ExpectedGeneconv'
p2
(dp3
(S'N1'
p4
S'N2'
p5
tp6
F147.63812531498192
s(S'N5'
p7
S'cerevisiae'
p8
tp9
F8.045626464181897
s(g5
S'N3'
p10
tp11
F5.096145659274602
s(S'N4'
p12
g7
tp13
F4.659418943028376
s(g4
S'castellii'
p14
tp15
F136.82756095902448
s(g5
S'bayanus'
p16
tp17
F13.436790640182286
s(S'N0'
p18
g4
tp19
F3.7377810505485085
s(g10
S'kudriavzevii'
p20
tp21
F10.220597478500318
s(g7
S'paradoxus'
p22
tp23
F5.725668671258275
s(g18
S'kluyveri'
p24
tp25
F0.0
s(g10
g12
tp26
F5.910002980358394
s(g12
S'mikatae'
p27
tp28
F11.642467350400084
ssS'ExpectedDwellTime'
p29
(dp30
g6
F677.3875058614832
sg9
F821.5230974052163
sg11
F817.152186782021
sg13
F825.2910646595948
sg15
F648.351973055919
sg17
F807.712507147198
sg19
F150.50883607402616
sg21
F820.9431568309778
sg23
F827.9593205115024
sg25
F0.0
sg26
F822.6080275777074
sg28
F815.6261166108197
ssS'newicktree'
p31
S'../PairsAlignemt/YeastTree.newick'
p32
sS'll'
p33
cnumpy.core.multiarray
scalar
p34
(cnumpy
dtype
p35
(S'f8'
p36
I0
I1
tp37
Rp38
(I3
S'<'
p39
NNNI-1
I-1
I0
tp40
bS'\x13\xe5"\xe4,\xb8\xc8\xc0'
p41
tp42
Rp43
sS'edge_list'
p44
(lp45
g19
ag25
ag6
ag15
ag11
ag17
ag26
ag21
ag13
ag28
ag9
ag23
asS'edge_to_blen'
p46
(dp47
g6
g34
(g38
S'\x81h\x88\x98\xf7\xb3\x04@'
p48
tp49
Rp50
sg9
g34
(g38
S'\x0f\x820~[\xff\xc4?'
p51
tp52
Rp53
sg11
g34
(g38
S' \x00\x87\xa7\xb4\xf3\xc0?'
p54
tp55
Rp56
sg13
g34
(g38
S' <\r\x17\xcd\x89\xba?'
p57
tp58
Rp59
sg21
g34
(g38
S"\xf4'\x18#_\xed\xcf?"
p60
tp61
Rp62
sg17
g34
(g38
S'\xd2\xab\xe3\xa3z=\xd3?'
p63
tp64
Rp65
sg19
g34
(g38
S'\x05\xb2\x91\x1e\r"\xc8?'
p66
tp67
Rp68
sg15
g34
(g38
S'\xd1Y;#\x1f<\x02@'
p69
tp70
Rp71
sg23
g34
(g38
S'\xcb_\xa1\xf6\x8f\x89\xc1?'
p72
tp73
Rp74
sg25
g34
(g38
S'{\xe2\xb7\xfe\xa9\xe7\xf8?'
p75
tp76
Rp77
sg26
g34
(g38
S'\xac\xc2\x1b\xda\xe7\x7f\xc0?'
p78
tp79
Rp80
sg28
g34
(g38
S'\xda\xa4P\xe6\xe8c\xd0?'
p81
tp82
Rp83
ssS'paralog'
p84
(lp85
S'YDR518W'
p86
aS'YCL043C'
p87
asS'alignment_file'
p88
S'../MafftAlignment/YDR518W_YCL043C/YDR518W_YCL043C_input.fasta'
p89
sS'x_clock'
p90
NsS'x'
p91
cnumpy.core.multiarray
_reconstruct
p92
(cnumpy
ndarray
p93
(I0
tp94
S'b'
p95
tp96
Rp97
(I1
(I18
tp98
g38
I00
S'\xa0\xb1\xa5<$\x9d\xe7\xbf=>\x86\xfe:\xcf\xe0\xbfQ\xcf\x19\x1c\x0b\xac\xe7\xbf\x1c\xc1\xcb\n\xcaz\xed?+\x88\xe4\xa0y)\x01\xc0\xf6\x87pk:\xf0\xfb\xbfZ\xeb\x04%\xf8\xb1\xfa\xbf\xaa#2\x91\x8cQ\xdc?\xcax\x00\x8cAm\xee?[\xe5K\xfcT]\xea?\x8f\xbba\xafT,\x00\xc0\x89\xdc\x02i\xea:\xf3\xbf\x0b,o\xbe\xb8c\x00\xc0\xc2?\x84$\x967\xf6\xbf\xc9\xd3sk\xf9!\x02\xc0\\$\x17\r\x8d\xcb\xf5\xbf\x1a\xde-\xac\n\xec\xfc\xbf\xdcP\x14\x95\x9b\xcd\xff\xbf'
p99
tp100
bsS'Model'
p101
S'MG94'
p102
sS'clock'
p103
I00
s.