(dp0
S'Force'
p1
NsS'ExpectedGeneconv'
p2
(dp3
(S'N1'
p4
S'N2'
p5
tp6
F85.12064992910123
s(S'N5'
p7
S'cerevisiae'
p8
tp9
F4.9365281532686645
s(g5
S'N3'
p10
tp11
F4.884442823267016
s(S'N4'
p12
g7
tp13
F1.8859381073267323
s(g4
S'castellii'
p14
tp15
F137.06205404157555
s(g5
S'bayanus'
p16
tp17
F8.355368852207452
s(S'N0'
p18
g4
tp19
F10.316745712615008
s(g10
S'kudriavzevii'
p20
tp21
F7.067011895331769
s(g7
S'paradoxus'
p22
tp23
F3.9682772747897075
s(g18
S'kluyveri'
p24
tp25
F0.0
s(g10
g12
tp26
F3.2715975120721805
s(g12
S'mikatae'
p27
tp28
F8.573481159898547
ssS'ExpectedDwellTime'
p29
(dp30
g6
F177.9554975693321
sg9
F226.5383855486707
sg11
F200.47112649768812
sg13
F218.10515707311686
sg15
F184.58710115641514
sg17
F200.8416225673107
sg19
F83.07448745303137
sg21
F203.38275751451982
sg23
F220.78943496134445
sg25
F0.0
sg26
F207.3027528050883
sg28
F211.66542790875127
ssS'newicktree'
p31
S'../PairsAlignemt/YeastTree.newick'
p32
sS'll'
p33
cnumpy.core.multiarray
scalar
p34
(cnumpy
dtype
p35
(S'f8'
p36
I0
I1
tp37
Rp38
(I3
S'<'
p39
NNNI-1
I-1
I0
tp40
bS'\xb8j\xa9\xb7\x1d\xd7\xa9\xc0'
p41
tp42
Rp43
sS'edge_list'
p44
(lp45
g19
ag25
ag6
ag15
ag11
ag17
ag26
ag21
ag13
ag28
ag9
ag23
asS'edge_to_blen'
p46
(dp47
g6
g34
(g38
S'\x94\xae\xc6\x80\xabY\x04@'
p48
tp49
Rp50
sg9
g34
(g38
S'\xedz\x9f-\x8d\x0e\xcc?'
p51
tp52
Rp53
sg11
g34
(g38
S'\x0c\x08\xd0\xa4\xe3\x86\xc4?'
p54
tp55
Rp56
sg13
g34
(g38
S'1x\xab\x92\x1b+\xb8?'
p57
tp58
Rp59
sg21
g34
(g38
S'\x13T\xaf\x1b\x99\x1e\xd0?'
p60
tp61
Rp62
sg17
g34
(g38
S'A\xbf\xfd\xc9\xbf\x98\xd2?'
p63
tp64
Rp65
sg19
g34
(g38
S'D\x17\x1f\xac\x0b\xd6\xdf?'
p66
tp67
Rp68
sg15
g34
(g38
S'M\xc2\xd3U\xfbN\x10@'
p69
tp70
Rp71
sg23
g34
(g38
S'\xfb\xd0\xe68\x97\x8a\xb8?'
p72
tp73
Rp74
sg25
g34
(g38
S'\xc4Y\x1bo\x16;\x14@'
p75
tp76
Rp77
sg26
g34
(g38
S'\x02\x15E=mi\xc1?'
p78
tp79
Rp80
sg28
g34
(g38
S'nP\x84\xa0U9\xd1?'
p81
tp82
Rp83
ssS'paralog'
p84
(lp85
S'YIL057C'
p86
aS'YER067W'
p87
asS'alignment_file'
p88
S'../MafftAlignment/YIL057C_YER067W/YIL057C_YER067W_input.fasta'
p89
sS'x_clock'
p90
NsS'x'
p91
cnumpy.core.multiarray
_reconstruct
p92
(cnumpy
ndarray
p93
(I0
tp94
S'b'
p95
tp96
Rp97
(I1
(I18
tp98
g38
I00
S'D\xf3\xf8w\x7f;\xe5\xbf`g\xd4\xd9?&\xe3\xbf\xb2\xa7^v\xff\x17\xea\xbf\xd8"\'6\x8ef\xe9?\xd8hC\xbb\xd9\x07\x0b\xc0\xc7\xd9n\x00\xde\xb0\xf3\xbf\x00\x01\xad\xebRX\xe6\xbf\xe9\xbaB\xd2A\xef\xf9?\t\x1e\x13\xd3{\xe0\xed?\xa4\x19;\xdc}|\xf6?\\\xa5@\xd7\xe1H\xfd\xbf\xa7M\x97J?\xc6\xf3\xbf\xc3G\x0b!\x08\xeb\xff\xbfy{#\x00\xc7\x0f\xf6\xbf9Jc\xd3\x8c\xe1\x02\xc0.\x15\xb8pU\x00\xf5\xbf\x90JFK\xe6H\xf8\xbf\x10W\x95\x82/\xc2\x02\xc0'
p99
tp100
bsS'Model'
p101
S'MG94'
p102
sS'clock'
p103
I00
s.