(dp0
S'Force'
p1
NsS'ExpectedGeneconv'
p2
(dp3
(S'N1'
p4
S'N2'
p5
tp6
F33.5221320306942
s(S'N5'
p7
S'cerevisiae'
p8
tp9
F1.6449392618007228
s(g5
S'N3'
p10
tp11
F1.4013180112170585
s(S'N4'
p12
g7
tp13
F1.0526300674932225
s(g4
S'castellii'
p14
tp15
F27.82617697388847
s(g5
S'bayanus'
p16
tp17
F4.2550502471090486
s(S'N0'
p18
g4
tp19
F15.743335151443302
s(g10
S'kudriavzevii'
p20
tp21
F1.9990495220104794
s(g7
S'paradoxus'
p22
tp23
F1.3999775788727318
s(g18
S'kluyveri'
p24
tp25
F0.0
s(g10
g12
tp26
F1.2108405561833042
s(g12
S'mikatae'
p27
tp28
F2.521396179653547
ssS'ExpectedDwellTime'
p29
(dp30
g6
F514.1103923142426
sg9
F559.1324492029203
sg11
F539.4968525889301
sg13
F548.5191867432378
sg15
F497.1663872297998
sg17
F540.2043323089213
sg19
F328.9573637033139
sg21
F544.9826740865363
sg23
F555.2331675250218
sg25
F0.0
sg26
F542.9561939908618
sg28
F542.3564098689901
ssS'newicktree'
p31
S'../PairsAlignemt/YeastTree.newick'
p32
sS'll'
p33
cnumpy.core.multiarray
scalar
p34
(cnumpy
dtype
p35
(S'f8'
p36
I0
I1
tp37
Rp38
(I3
S'<'
p39
NNNI-1
I-1
I0
tp40
bS'\xd3:\x8aK\x00p\xc0\xc0'
p41
tp42
Rp43
sS'edge_list'
p44
(lp45
g19
ag25
ag6
ag15
ag11
ag17
ag26
ag21
ag13
ag28
ag9
ag23
asS'edge_to_blen'
p46
(dp47
g19
g34
(g38
S'\x91\x07\x9c\xbc\x90x\xf2?'
p48
tp49
Rp50
sg9
g34
(g38
S'\xd1\xcfyD\x11\xfa\xcc?'
p51
tp52
Rp53
sg11
g34
(g38
S'\x13\xccY\x10\x06>\xc0?'
p54
tp55
Rp56
sg13
g34
(g38
S'\x1f)\xd4\x89\xb5\x04\xbe?'
p57
tp58
Rp59
sg21
g34
(g38
S'\x8c"+\x08\xb8:\xcd?'
p60
tp61
Rp62
sg17
g34
(g38
S'z\xf2LN\xa1\x00\xd7?'
p63
tp64
Rp65
sg6
g34
(g38
S"\x95\xdb'J6\x1a\x01@"
p66
tp67
Rp68
sg15
g34
(g38
S'D\xd02\x0b\x9fT\xfb?'
p69
tp70
Rp71
sg23
g34
(g38
S'T\x06S<\xbb\xe9\xbf?'
p72
tp73
Rp74
sg28
g34
(g38
S'\xfb\xce\xd6\xd9\r\xcb\xcf?'
p75
tp76
Rp77
sg26
g34
(g38
S'c\x15x\xa5\xa5\x1d\xc2?'
p78
tp79
Rp80
sg25
g34
(g38
S'\xa7\xedU\x93D\xaa\xf0?'
p81
tp82
Rp83
ssS'paralog'
p84
(lp85
S'YDR438W'
p86
aS'YML018C'
p87
asS'alignment_file'
p88
S'../MafftAlignment/YDR438W_YML018C/YDR438W_YML018C_input.fasta'
p89
sS'x_clock'
p90
NsS'x'
p91
cnumpy.core.multiarray
_reconstruct
p92
(cnumpy
ndarray
p93
(I0
tp94
S'b'
p95
tp96
Rp97
(I1
(I18
tp98
g38
I00
S'^\x99\x93\xa2\xf5\xcd\xe6\xbf\xb0d/\x0b\x9c\xa8\xe2\xbf\x10\x7fs[Hw\xee\xbf\x96\xae7=\xfc\xb1\xf0?\xef>S\xdf;\xfb\x01\xc0a\xd1\xe8^\x1eD\x06\xc0b\xfd)\x19\xd8a\xc2?\xe6\xa0\xf3s^\xda\xa4?U\x122J\x17P\xe8?y;\xa4\xb7!"\xe1?q_6\xb9\xea\x83\x00\xc0\xc2l\\\xcc\\_\xf0\xbf\x96B}I\xafH\xff\xbfL\x1a5\xfc3\xa1\xf7\xbf\xad\xbe\n\xa4\x9d%\x01\xc0*I\xde\x10\xd2H\xf6\xbfB\x9dp&\xbf\xc4\xf7\xbfm\x8b\xf1`E\xa8\x00\xc0'
p99
tp100
bsS'Model'
p101
S'MG94'
p102
sS'clock'
p103
I00
s.