(dp0
S'Force'
p1
NsS'ExpectedGeneconv'
p2
(dp3
(S'N1'
p4
S'N2'
p5
tp6
F16.506575564418704
s(S'N5'
p7
S'cerevisiae'
p8
tp9
F8.212046431171121
s(g5
S'N3'
p10
tp11
F0.00020536723888479782
s(S'N4'
p12
g7
tp13
F1.8382190178835924
s(g4
S'castellii'
p14
tp15
F23.27711491033126
s(g5
S'bayanus'
p16
tp17
F11.807252910803824
s(S'N0'
p18
g4
tp19
F34.56417075255045
s(g10
S'kudriavzevii'
p20
tp21
F15.333992965528216
s(g7
S'paradoxus'
p22
tp23
F3.955460060980679
s(g18
S'kluyveri'
p24
tp25
F0.0
s(g10
g12
tp26
F3.495459231754798e-06
s(g12
S'mikatae'
p27
tp28
F13.252404392774032
ssS'ExpectedDwellTime'
p29
(dp30
g6
F47.88498436167085
sg9
F48.4771321039029
sg11
F52.87383887003554
sg13
F52.803568832572964
sg15
F41.43098569905888
sg17
F51.69406659305883
sg19
F32.44470224378145
sg21
F51.897668735672454
sg23
F52.07440964481613
sg25
F0.0
sg26
F52.873901242050806
sg28
F54.2927947114164
ssS'newicktree'
p31
S'../PairsAlignemt/YeastTree.newick'
p32
sS'll'
p33
cnumpy.core.multiarray
scalar
p34
(cnumpy
dtype
p35
(S'f8'
p36
I0
I1
tp37
Rp38
(I3
S'<'
p39
NNNI-1
I-1
I0
tp40
bS'\xb0\x1e\xb7:X\xaf\x95\xc0'
p41
tp42
Rp43
sS'edge_list'
p44
(lp45
g19
ag25
ag6
ag15
ag11
ag17
ag26
ag21
ag13
ag28
ag9
ag23
asS'edge_to_blen'
p46
(dp47
g6
g34
(g38
S'\xd42$J\x8d\xa1\xb6?'
p48
tp49
Rp50
sg9
g34
(g38
S'&\rH\x98j\xca\xa0?'
p51
tp52
Rp53
sg11
g34
(g38
S'\x97\xdd\x12\xc4\xa9A\xb1>'
p54
tp55
Rp56
sg13
g34
(g38
S'\xafI\x19\xf8<\x83\x80?'
p57
tp58
Rp59
sg21
g34
(g38
S'#\xf8\xa8\x19g\xa5\xb2?'
p60
tp61
Rp62
sg17
g34
(g38
S'\xbc\xebb\xbb\xf2=\xaa?'
p63
tp64
Rp65
sg19
g34
(g38
S'\xda\x0e-\xd6]\xc4\xd0?'
p66
tp67
Rp68
sg15
g34
(g38
S'\x8b^e[\x91\xde\xbc?'
p69
tp70
Rp71
sg23
g34
(g38
S'\x9a$gS U\x93?'
p72
tp73
Rp74
sg28
g34
(g38
S'\x0fg\xc4Dz\xc1\xb0?'
p75
tp76
Rp77
sg26
g34
(g38
S'\xab&(5\xc5\xb4d>'
p78
tp79
Rp80
sg25
g34
(g38
S'\x94\xdbP\x11\xa4\xcbQ>'
p81
tp82
Rp83
ssS'paralog'
p84
(lp85
S'YML026C'
p86
aS'YDR450W'
p87
asS'alignment_file'
p88
S'../MafftAlignment/YML026C_YDR450W/YML026C_YDR450W_input.fasta'
p89
sS'x_clock'
p90
NsS'x'
p91
cnumpy.core.multiarray
_reconstruct
p92
(cnumpy
ndarray
p93
(I0
tp94
S'b'
p95
tp96
Rp97
(I1
(I18
tp98
g38
I00
S'\xae,i\xa4\x8e\xf3\xe5\xbf\xa8\x96\xad\xee\xae\x97\xe0\xbfb\x07\xa7P\xe7\xa8\xeb\xbf\xfd\xb5(\xe8\xb9\xc7\xfb?\xe2\xe8\x9b\xc8H\xcb\x02\xc0Qu\xcb10K\xf8?\x9a\xb0\x9a\xf9tn\xf5\xbf\xf9N\xc5T\\\xea1\xc0\xa9\xac\x0f+&h\x03\xc0C\x9eq\x88\x8bu\x01\xc0?\xc7\xb3\xb4\x1e\x93+\xc0\x94\xca\xf4\xc7\x88\xc4\x07\xc0s\xd2\x85t"\x121\xc0\xff\x7f\xbd}\xd1\xf4\x04\xc0\x98kn!/H\x13\xc0^\x85\xb3\xf8\xbc\xcf\x05\xc0\xe5\xe4EM\nW\x0b\xc0f\\~\x1e\xe9\xc1\x0f\xc0'
p99
tp100
bsS'Model'
p101
S'MG94'
p102
sS'clock'
p103
I00
s.