(dp0
S'Force'
p1
NsS'ExpectedGeneconv'
p2
(dp3
(S'N1'
p4
S'N2'
p5
tp6
F14.576155916759435
s(S'N5'
p7
S'cerevisiae'
p8
tp9
F3.512488496599003
s(g5
S'N3'
p10
tp11
F3.096579260290711
s(S'N4'
p12
g7
tp13
F2.346635738908498
s(g4
S'castellii'
p14
tp15
F11.925106563716648
s(g5
S'bayanus'
p16
tp17
F4.5461188504876064
s(S'N0'
p18
g4
tp19
F1.8918506642900694e-08
s(g10
S'kudriavzevii'
p20
tp21
F4.217129118071852
s(g7
S'paradoxus'
p22
tp23
F5.861923732634344
s(g18
S'kluyveri'
p24
tp25
F0.0
s(g10
g12
tp26
F3.1536713322048535
s(g12
S'mikatae'
p27
tp28
F6.695417574402435
ssS'ExpectedDwellTime'
p29
(dp30
g6
F43.149182465339074
sg9
F80.17765976194734
sg11
F74.97221737158847
sg13
F78.73302096933257
sg15
F46.849589988528905
sg17
F66.98412746560294
sg19
F0.002135484201816677
sg21
F93.66254240766496
sg23
F76.65108460704892
sg25
F0.0
sg26
F80.50616415592418
sg28
F82.83757044785686
ssS'newicktree'
p31
S'../PairsAlignemt/YeastTree.newick'
p32
sS'll'
p33
cnumpy.core.multiarray
scalar
p34
(cnumpy
dtype
p35
(S'f8'
p36
I0
I1
tp37
Rp38
(I3
S'<'
p39
NNNI-1
I-1
I0
tp40
bS'B_\xd4\x8b;\xb4\x9c\xc0'
p41
tp42
Rp43
sS'edge_list'
p44
(lp45
g19
ag25
ag6
ag15
ag11
ag17
ag26
ag21
ag13
ag28
ag9
ag23
asS'edge_to_blen'
p46
(dp47
g6
g34
(g38
S'ye\xb1\xe7\x96\x16\xc7?'
p48
tp49
Rp50
sg9
g34
(g38
S'Vz\xd9c\xef:\x9b?'
p51
tp52
Rp53
sg11
g34
(g38
S'\xbbLD\xd0\xf9\x8a\x9f?'
p54
tp55
Rp56
sg13
g34
(g38
S'h\x90\x8c\xc3\x97N\x82?'
p57
tp58
Rp59
sg21
g34
(g38
S'f\xb7\x14\x13L\xfc\xab?'
p60
tp61
Rp62
sg17
g34
(g38
S'\x0fh\x1f\x9e\xd1\xd1\x9b?'
p63
tp64
Rp65
sg19
g34
(g38
S'f\xd3\x07/\xae7\xd9>'
p66
tp67
Rp68
sg15
g34
(g38
S'\xfc\xa7[\r7\x10\xc7?'
p69
tp70
Rp71
sg23
g34
(g38
S'`3\xfd\x1d\x07\x87\xa3?'
p72
tp73
Rp74
sg28
g34
(g38
S'\x16\xdd\x95\xce3\xc2\xa5?'
p75
tp76
Rp77
sg26
g34
(g38
S'FZ\x92~)U\x94?'
p78
tp79
Rp80
sg25
g34
(g38
S'\x168\x81^5\xa7\xcc?'
p81
tp82
Rp83
ssS'paralog'
p84
(lp85
S'YJL177W'
p86
aS'YKL180W'
p87
asS'alignment_file'
p88
S'../MafftAlignment/YJL177W_YKL180W/YJL177W_YKL180W_input.fasta'
p89
sS'x_clock'
p90
NsS'x'
p91
cnumpy.core.multiarray
_reconstruct
p92
(cnumpy
ndarray
p93
(I0
tp94
S'b'
p95
tp96
Rp97
(I1
(I18
tp98
g38
I00
S'\xae\rL]d\x01\xe7\xbf\xbb4\x1ev\xe4\n\xdd\xbfi\x98\x86\xeer\x0b\xea\xbf\x1f\x9a\x92f.\x9a\xfd?\x98\xb73\x10\xc7\xcf\x02\xc0\xf1\xf7\xca\xaa40\xe2?Ls\x7f9\x1c\x0b(\xc0\xb9+\xdc\x87\xc1\xf2\xf7\xbf\x05\xbaSO?g\xfb\xbf\x98\xf6\x94\xc8\xaak\xfb\xbf9\xf4$MK\xd7\x0b\xc0\x918Eg\x89\xd8\x0c\xc0\xb6\x179$\x9cZ\x0f\xc02\xe2\x00\xcf\xca@\x07\xc0v-\xb5%\x8d\xde\x12\xc0*w\xf5\xdd:D\t\xc08\x1dIbd\x04\r\xc0\xeb\x8f\\\x80\xcc!\n\xc0'
p99
tp100
bsS'Model'
p101
S'MG94'
p102
sS'clock'
p103
I00
s.