(dp0
S'Force'
p1
NsS'ExpectedGeneconv'
p2
(dp3
(S'N1'
p4
S'N2'
p5
tp6
F35.084336328411084
s(S'N5'
p7
S'cerevisiae'
p8
tp9
F5.851178541117336
s(g5
S'N3'
p10
tp11
F4.66121774602622
s(S'N4'
p12
g7
tp13
F1.5676662735059956
s(g4
S'castellii'
p14
tp15
F36.61925236143382
s(g5
S'bayanus'
p16
tp17
F7.315361598082202
s(S'N0'
p18
g4
tp19
F3.63967779715668
s(g10
S'kudriavzevii'
p20
tp21
F8.084283905688462
s(g7
S'paradoxus'
p22
tp23
F2.6865819664633244
s(g18
S'kluyveri'
p24
tp25
F0.0
s(g10
g12
tp26
F1.8139668086601577
s(g12
S'mikatae'
p27
tp28
F9.332173509219874
ssS'ExpectedDwellTime'
p29
(dp30
g6
F451.4313460988376
sg9
F565.1793319873854
sg11
F529.054453581028
sg13
F552.2629047605975
sg15
F442.8208496130772
sg17
F524.0934799088008
sg19
F167.26464044592086
sg21
F551.7344685422087
sg23
F559.4051486674131
sg25
F0.0
sg26
F540.5415178041075
sg28
F547.7434644974476
ssS'newicktree'
p31
S'../PairsAlignemt/YeastTree.newick'
p32
sS'll'
p33
cnumpy.core.multiarray
scalar
p34
(cnumpy
dtype
p35
(S'f8'
p36
I0
I1
tp37
Rp38
(I3
S'<'
p39
NNNI-1
I-1
I0
tp40
bS'\xad\x8f\x96\x80\xc3\x02\xc1\xc0'
p41
tp42
Rp43
sS'edge_list'
p44
(lp45
g19
ag25
ag6
ag15
ag11
ag17
ag26
ag21
ag13
ag28
ag9
ag23
asS'edge_to_blen'
p46
(dp47
g19
g34
(g38
S'^\x13C\xcc\xd1\x10\xd3?'
p48
tp49
Rp50
sg9
g34
(g38
S'KBO\x1a\xe0\xca\xca?'
p51
tp52
Rp53
sg11
g34
(g38
S'\xd8\x15\xd2\x84>@\xc7?'
p54
tp55
Rp56
sg13
g34
(g38
S'\x8b%\xf7\x01\xb9v\xb5?'
p57
tp58
Rp59
sg15
g34
(g38
S'!-\xc55\xdc\xea\xf2?'
p60
tp61
Rp62
sg17
g34
(g38
S'U\xb7\xf4\xc9\xc9\xe9\xcf?'
p63
tp64
Rp65
sg6
g34
(g38
S'#\x06Hy\xc4&\xf2?'
p66
tp67
Rp68
sg21
g34
(g38
S'M\x96?\x96\xfc\x1d\xd5?'
p69
tp70
Rp71
sg23
g34
(g38
S'\x0e\xb6{\x0e\xfb\xee\xbd?'
p72
tp73
Rp74
sg25
g34
(g38
S'\x8a\x7f\xb2\x87S\xc8\xf1?'
p75
tp76
Rp77
sg26
g34
(g38
S';\xd3K\x93L\xc5\xb4?'
p78
tp79
Rp80
sg28
g34
(g38
S'\x13(\xeb\xe1<:\xd5?'
p81
tp82
Rp83
ssS'paralog'
p84
(lp85
S'YMR243C'
p86
aS'YOR316C'
p87
asS'alignment_file'
p88
S'../MafftAlignment/YMR243C_YOR316C/YMR243C_YOR316C_input.fasta'
p89
sS'x_clock'
p90
NsS'x'
p91
cnumpy.core.multiarray
_reconstruct
p92
(cnumpy
ndarray
p93
(I0
tp94
S'b'
p95
tp96
Rp97
(I1
(I18
tp98
g38
I00
S'\xc4/&/2\xb0\xe7\xbf\x9d\xf0\x1a\x15\xc3l\xe1\xbfvE\xc2\xad\xff\x04\xee\xbf\xaf\x9c\x89\xae\xcc\xc0\xee?\xf0\xd5\xebQ\xd6?\x02\xc0\xa4K\xae\xbc<\xc7\x02\xc0b\x15\xbcB9`\xf3\xbf\x01\x07\x02*g\n\xbb?}\x9dj\x88\n&\xc0?Vn\xa6\x9bvp\xc5?^\x8f\xbei{J\xfb\xbf*\xf0\x82\xf6a9\xf6\xbfO,\x0e\xa1\xd3\x17\x04\xc0\x19\xa0y@\xa3\xbd\xf1\xbf\xd9\x85R\x1e\x9b\xd4\x03\xc0\xd6\x8e\xf4\xc3I\xa8\xf1\xbfXX\x95`\xc5\x05\xf9\xbf\x80M\xf7(j+\x01\xc0'
p99
tp100
bsS'Model'
p101
S'MG94'
p102
sS'clock'
p103
I00
s.