(dp0
S'Force'
p1
NsS'ExpectedGeneconv'
p2
(dp3
(S'N1'
p4
S'N2'
p5
tp6
F19.47073298466557
s(S'N5'
p7
S'cerevisiae'
p8
tp9
F7.002546546240225
s(g5
S'N3'
p10
tp11
F4.330027232671257e-05
s(S'N4'
p12
g7
tp13
F10.007642350323186
s(g4
S'castellii'
p14
tp15
F45.3258577488556
s(g5
S'bayanus'
p16
tp17
F18.135699592442066
s(S'N0'
p18
g4
tp19
F44.51117230022026
s(g10
S'kudriavzevii'
p20
tp21
F27.00630853793814
s(g7
S'paradoxus'
p22
tp23
F4.728998724952938
s(g18
S'kluyveri'
p24
tp25
F0.0
s(g10
g12
tp26
F7.0519943218773795
s(g12
S'mikatae'
p27
tp28
F15.707004072868447
ssS'ExpectedDwellTime'
p29
(dp30
g6
F61.383982263966885
sg9
F69.01640307170979
sg11
F65.38302380125165
sg13
F61.88122684222702
sg15
F54.46092932777709
sg17
F55.29582934497916
sg19
F42.20016168008343
sg21
F59.86183869512748
sg23
F57.51498984601346
sg25
F0.0
sg26
F65.07130050554798
sg28
F73.21799926794607
ssS'newicktree'
p31
S'../PairsAlignemt/YeastTree.newick'
p32
sS'll'
p33
cnumpy.core.multiarray
scalar
p34
(cnumpy
dtype
p35
(S'f8'
p36
I0
I1
tp37
Rp38
(I3
S'<'
p39
NNNI-1
I-1
I0
tp40
bS'T=T\xd2\xa1\x13\xa0\xc0'
p41
tp42
Rp43
sS'edge_list'
p44
(lp45
g19
ag25
ag6
ag15
ag11
ag17
ag26
ag21
ag13
ag28
ag9
ag23
asS'edge_to_blen'
p46
(dp47
g6
g34
(g38
S'\x81\x97\xf9\xeaHc\xb1?'
p48
tp49
Rp50
sg9
g34
(g38
S'\x93\xdbT\xf0/\x80\xa0?'
p51
tp52
Rp53
sg11
g34
(g38
S'\x81QL\xe2e\x82x>'
p54
tp55
Rp56
sg13
g34
(g38
S'v\x99{\x1a:\xea\x99?'
p57
tp58
Rp59
sg15
g34
(g38
S'j\xa7}f\x82g\xc4?'
p60
tp61
Rp62
sg17
g34
(g38
S'\xa9\x9a(\x10\x8c\xf9\xa5?'
p63
tp64
Rp65
sg19
g34
(g38
S'\xb7\x0f}\xc6\xa8\x12\xce?'
p66
tp67
Rp68
sg21
g34
(g38
S'\x04\t\xc7s\xd0\xa2\xb2?'
p69
tp70
Rp71
sg23
g34
(g38
S'\\%\x9a\xbd\xc8\x10\x8c?'
p72
tp73
Rp74
sg25
g34
(g38
S'\x1c\x17\xc57\xf2\x10g>'
p75
tp76
Rp77
sg26
g34
(g38
S'\xc0k\x8b!\xe4l\x94?'
p78
tp79
Rp80
sg28
g34
(g38
S'?\xf6\xea\xe0\xc8\xfe\xaa?'
p81
tp82
Rp83
ssS'paralog'
p84
(lp85
S'YMR142C'
p86
aS'YDL082W'
p87
asS'alignment_file'
p88
S'../MafftAlignment/YMR142C_YDL082W/YMR142C_YDL082W_input.fasta'
p89
sS'x_clock'
p90
NsS'x'
p91
cnumpy.core.multiarray
_reconstruct
p92
(cnumpy
ndarray
p93
(I0
tp94
S'b'
p95
tp96
Rp97
(I1
(I18
tp98
g38
I00
S'(\xe2\xdb\xa5\xe3\x89\xe5\xbf.\xbb\xbb(\xab\x9e\xde\xbf\x1a\x17\x9d\x17\x1f\xaf\xe9\xbfs\xf8\xf5\xaa\xd4.\x00@\xe4T=\x10v\x00\xf5\xbf\xfc\x82\xd3\x8b.\x1b\xfe?\x15\xa7C\x04\xac,\xf7\xbf\xb4\xaer\x9e\x80\xf60\xc0\xf9<-\xba\xe7\x83\x05\xc0\x0e\x81w=ja\xfd\xbf\xe5@\x10T\x8550\xc0\xac\xa8\xedR\xfb/\t\xc0\xbd\xd1,yKQ\x0f\xc0h\x92\x9a\xdf\xed\xf5\x04\xc0\x16\xc9\xbam\xc8i\r\xc0\xe3Y\xe56\x93\x8a\x07\xc0\x13\xf3\x84J\xb7z\x0b\xc0\xde\xf6\n\x99\t)\x11\xc0'
p99
tp100
bsS'Model'
p101
S'MG94'
p102
sS'clock'
p103
I00
s.