(iCodonBased2Repeats
Codon2RepeatsPhy
p0
(dp1
S'nbranch'
p2
I12
sS'Tao'
p3
F2.1021924677
sS'SpecAfterDupli_node'
p4
S'N1'
p5
sS'tree_phy'
p6
ccopy_reg
_reconstructor
p7
(cBio.Phylo.PhyloXML
Phylogeny
p8
c__builtin__
object
p9
Ntp10
Rp11
(dp12
S'confidences'
p13
(lp14
sS'rerootable'
p15
NsS'clade_relations'
p16
(lp17
sS'rooted'
p18
S'True'
p19
sS'type'
p20
NsS'description'
p21
NsS'properties'
p22
(lp23
sS'branch_length_unit'
p24
NsS'other'
p25
(lp26
sS'date'
p27
NsS'sequence_relations'
p28
(lp29
sS'root'
p30
g7
(cBio.Phylo.PhyloXML
Clade
p31
g9
Ntp32
Rp33
(dp34
g13
(lp35
sS'branch_length'
p36
F1.0
sS'taxonomies'
p37
(lp38
sS'name'
p39
S'N0'
p40
sS'clades'
p41
(lp42
g7
(g31
g9
Ntp43
Rp44
(dp45
g13
(lp46
sg36
F1.0
sg37
(lp47
sg39
S'N1'
p48
sg41
(lp49
g7
(g31
g9
Ntp50
Rp51
(dp52
g13
(lp53
sg36
F1.0
sg37
(lp54
sg39
S'N2'
p55
sg41
(lp56
g7
(g31
g9
Ntp57
Rp58
(dp59
g13
(lp60
sg36
F1.0
sg37
(lp61
sg39
S'N3'
p62
sg41
(lp63
g7
(g31
g9
Ntp64
Rp65
(dp66
g13
(lp67
sg36
F1.0
sg37
(lp68
sg39
S'N4'
p69
sg41
(lp70
g7
(g31
g9
Ntp71
Rp72
(dp73
g13
(lp74
sg36
F1.0
sg37
(lp75
sg39
S'N5'
p76
sg41
(lp77
g7
(g31
g9
Ntp78
Rp79
(dp80
g13
(lp81
sg36
F1.0
sg37
(lp82
sg39
S'cerevisiae'
p83
sg41
(lp84
sg22
(lp85
sS'id_source'
p86
NsS'width'
p87
NsS'node_id'
p88
NsS'references'
p89
(lp90
sS'_color'
p91
NsS'sequences'
p92
(lp93
S'ATGACTGAATTCAAGGCCGGTTCTGCTAAGAAAGGTGCTACACTTTTCAAGACTAGATGTCTACAATGCCACACCGTGGAAAAGGGTGGCCCACATAAGGTTGGTCCAAACTTGCATGGTATCTTTGGCAGACACTCTGGTCAAGCTGAAGGGTATTCGTACACAGATGCCAATATCAAGAAAAACGTGTTGTGGGACGAAAATAACATGTCAGAGTACTTGACTAACCCAAAGAAATATATTCCTGGTACCAAGATGGCCTTTGGTGGGTTGAAGAAGGAAAAAGACAGAAACGACTTAATTACCTACTTGAAAAAAGCCTGTGAG'
p94
aS'AGTACGGGATTCAAACCAGGCTCTGCAAAAAAGGGTGCTACATTGTTTAAAACGAGGTGTCAGCAGTGTCATACAATAGAAGAGGGTGGTCCTAACAAAGTTGGACCTAATTTACATGGTATTTTTGGTAGACATTCAGGTCAGGTAAAGGGTTATTCTTACACAGATGCAAACATCAACAAGAACGTCAAATGGGATGAGGATAGTATGTCCGAGTACTTGACGAACCCAAAGAAATATATTCCTGGTACCAAGATGGCGTTTGCCGGGTTGAAGAAGGAAAAGGACAGAAACGATTTAATTACTTATATGACAAAGGCTGCCAAA'
p95
asg27
Nsg25
(lp96
sS'binary_characters'
p97
NsS'distributions'
p98
(lp99
sS'events'
p100
Nsbag7
(g31
g9
Ntp101
Rp102
(dp103
g13
(lp104
sg36
F1.0
sg37
(lp105
sg39
S'paradoxus'
p106
sg41
(lp107
sg22
(lp108
sg86
Nsg87
Nsg88
Nsg89
(lp109
sg91
Nsg92
(lp110
S'ATGACTGAATTCAAGGCCGGTTCCGCTAAGAAAGGTGCTACACTTTTCAAGACTAGATGTCTACAATGCCACACAGTGGAAAAAGGTGGCCCACACAAGGTTGGTCCAAACTTGCACGGTATCTTTGGAAGACACTCTGGTCAAGCTGAAGGGTACTCATATACAGATGCCAACATCAAGAAGAATGTGCTATGGGACGAAAATAACATGTCCGAGTACTTGACTAACCCAAAGAAATATATTCCGGGTACCAAGATGGCCTTTGGCGGATTGAAGAAGGAAAAAGATAGAAACGACCTTATTACCTACTTGAAAAAAGCTTGTGAG'
p111
aS'AGTACGGGATTCAAAGCAGGCTCTGCAAAGAAAGGTGCAACATTGTTCAAAACGAGGTGTCAACAGTGTCATACAATAGAAGAAGGTGGTCCCAACAAGGTGGGACCTAATCTACACGGTATATTTGGTAGACATTCAGGCCAAGTGAAGGGCTATTCTTACACAGATGCAAACATTAACAAGAATGTCAAGTGGGATGAGGATAGTATGTCAGAGTACTTAACCAACCCAAAGAAGTATATTCCTGGTACTAAGATGGCCTTTGCCGGGTTGAAGAAGGAAAAAGACAGAAACGATTTGATTACTTATATGACCAAAGCCGCCAAA'
p112
asg27
Nsg25
(lp113
sg97
Nsg98
(lp114
sg100
Nsbasg22
(lp115
sg86
Nsg87
Nsg88
Nsg89
(lp116
sg91
Nsg92
(lp117
sg27
Nsg25
(lp118
sg97
Nsg98
(lp119
sg100
Nsbag7
(g31
g9
Ntp120
Rp121
(dp122
g13
(lp123
sg36
F1.0
sg37
(lp124
sg39
S'mikatae'
p125
sg41
(lp126
sg22
(lp127
sg86
Nsg87
Nsg88
Nsg89
(lp128
sg91
Nsg92
(lp129
S'ATGACTGAATTCAAAGCCGGATCCGCTAAGAAAGGTGCTACACTTTTCAAGACCAGATGTCTACAATGCCACACAGTGGAAGAAGGCGGCCCACACAAGGTTGGTCCAAACTTGCACGGTATCTTTGGCAGACACTCCGGTCAAGCTGAAGGGTACTCTTACACGGACGCTAATATTAAGAAAAATGTGCTATGGGACGAAAATAACATGTCGGACTATTTGACCAATCCAAAAAAGTACATTCCCGGTACTAAAATGGCGTTTGGTGGGTTGAAGAAGGAAAAAGACAGAAACGATCTGATTACCTACTTGAAAAAAGCTTGTGAA'
p130
aS'AGTACAGAATTCAAACCAGGCTCTGCAAAGAAAGGCGCTACATTGTTTAAAACGAGGTGCCAACAGTGTCATACAATAGAAGAAGGTGGTCCCAACAAAGTGGGGCCTAACCTACATGGTATCTTTGGTAGACATTCTGGACAAGTGAAGGGCTATTCTTACACAGACGCAAACATTAACAAAAAAGTCAAGTGGGATGAGAATAACATGTCCGAGTACTTGACCAATCCAAAGAAATATATTCCTGGTACTAAGATGGCCTTCGCAGGGTTAAAAAAAGAAAAAGATAGAAATGATTTGATTACTTATATGACGAAAGCCGCCAAA'
p131
asg27
Nsg25
(lp132
sg97
Nsg98
(lp133
sg100
Nsbasg22
(lp134
sg86
Nsg87
Nsg88
Nsg89
(lp135
sg91
Nsg92
(lp136
sg27
Nsg25
(lp137
sg97
Nsg98
(lp138
sg100
Nsbag7
(g31
g9
Ntp139
Rp140
(dp141
g13
(lp142
sg36
F1.0
sg37
(lp143
sg39
S'kudriavzevii'
p144
sg41
(lp145
sg22
(lp146
sg86
Nsg87
Nsg88
Nsg89
(lp147
sg91
Nsg92
(lp148
S'ATGACTGAATTCAAGGCCGGTTCCGCAAAGAAGGGCGCTACTCTTTTCAAGACCAGATGTCTCCAATGCCACACCGTAGAAAAGGGCGGTCCACACAAGGTTGGTCCAAACTTGCACGGTGTTTTTGGCAGAAACTCCGGCCAAGCCGAAGGGTACTCTTACACAGACGCTAACATCAAGAAAAATGTGCTATGGGACGAAAATAACATGTCCGACTACCTGACCAACCCGAAGAAGTATATTCCTGGCACCAAGATGGCCTTCGGTGGTTTGAAGAAGGAGAAGGACAGAAACGACCTGATTACCTACTTGAAAAAAGCTTGTGAA'
p149
aS'AGCACGGGATCCAAAGCAGGCTCTTCGAAGAAAGGTGCCACATTATTTAAAACGAGATGTCAACAGTGCCATACAATAGAAGAAGGTGGTCCAAACAAAGTAGGTCCTAATCTGCATGGTATTTTTGGTAGGCATTCCGGTCAAGTGAAGGGCTATTCATACACAGATGCTAACATCAACAAGAACGTCAAATGGGACGAGAGTAACATGTCCGAGTACTTAACTAACCCTAAGAAGTATATTCCTGGTACTAAGATGGCCTTTGCTGGGTTGAAGAAGGAAAAGGACAGAAACGATTTGATTGCGTATATGACGAAGGCTGCAAAA'
p150
asg27
Nsg25
(lp151
sg97
Nsg98
(lp152
sg100
Nsbasg22
(lp153
sg86
Nsg87
Nsg88
Nsg89
(lp154
sg91
Nsg92
(lp155
sg27
Nsg25
(lp156
sg97
Nsg98
(lp157
sg100
Nsbag7
(g31
g9
Ntp158
Rp159
(dp160
g13
(lp161
sg36
F1.0
sg37
(lp162
sg39
S'bayanus'
p163
sg41
(lp164
sg22
(lp165
sg86
Nsg87
Nsg88
Nsg89
(lp166
sg91
Nsg92
(lp167
S'ATGACTGAATTCAAAGCCGGTTCCGCAAAGAAAGGTGCTACTCTGTTCAAGACCAGATGTTTGCAATGCCATACCGTCGAAAAGGGCGGCCCACACAAGGTCGGTCCAAACTTGCACGGGATCTTCGGCAGACACTCCGGCCAGGCTGAAGGGTACTCTTACACAGACGCCAACATCAAGAAGAACGTGCAATGGGACGAAAACAACATGTCCGATTACTTGACCAACCCAAAGAAATACATCCCTGGTACCAAGATGGCCTTCGGTGGGTTGAAGAAGGAAAAGGACAGAAACGACTTGATCACTTACTTGAAGAAAGCCTGTGAA'
p168
aS'AGTGCAGAGTTCAAACCAGGTTCTGGAAAGAAAGGTGCTACACTGTTTAAAACCAGATGTCAACAGTGCCACACAATAGAAGAGGGAGGTCCCAATAAAGTGGGGCCTAATCTGCATGGTATTTTTGGTAGACACTCTGGTCAAGTGAAGGGCTACTCCTACACAGATGCAAACATAAAAAAGAACGTCCTGTGGGACGAGAATAATATGTCCGAGTACTTGACTAACCCAAAGAAATATATTCCTGGTACCAAGATGGCCTTTGCCGGGTTGAAAAAGGAAAAAGACAGAAACGATCTGATTACTTATATGTCGAAAGCCGCCAAA'
p169
asg27
Nsg25
(lp170
sg97
Nsg98
(lp171
sg100
Nsbasg22
(lp172
sg86
Nsg87
Nsg88
Nsg89
(lp173
sg91
Nsg92
(lp174
sg27
Nsg25
(lp175
sg97
Nsg98
(lp176
sg100
Nsbag7
(g31
g9
Ntp177
Rp178
(dp179
g13
(lp180
sg36
F1.0
sg37
(lp181
sg39
S'castellii'
p182
sg41
(lp183
sg22
(lp184
sg86
Nsg87
Nsg88
Nsg89
(lp185
sg91
Nsg92
(lp186
S'AGCAGTGAATATAAACCAGGTAATGAAAAGAAAGGTGCCACCCTTTTCAAAACCAGATGTCTACAATGTCATACCGTAGAGGAAGGTGGTCCTCATAAAGTGGGTCCCAACTTACATGGTGTATTCGGTCGTCACTCTGGGAAAGCTCCAGGTTACTCCTACACTGATGCTAACGTGAAAAAGGATGTAGAGTGGAATGAACAGAATATGTCTGATTATTTAACAAACCCAAAGAAATATATCCCAGGCACTAAGATGGCGTTTGGTGGATTAAAGAAGGATAAGGATAGAAACGATTTGATTACTTATTTGAAGAAGGCCACTGAT'
p187
aS'ATGGGTGAATATAAACCAGGTAACGAAAAGAAAGGTGCTACCTTATTCAAGACTAGATGTCTACAATGTCACACTGTTGAAGAAGGTGGTCCACATAAAGTTGGTCCAAATTTGCACGGCATCTTTGGTCGTAATTCTGGGCAAGCTCCAGGTTATTCTTACACTGATGCTAATATTAAGAAGAATGTTAAATGGGATGAGCAAAAGATGTCTGATTATTTGACCAATCCAAAGAAATATATACCAGGTACCAAGATGGCATTCGGTGGGTTGAAGAAGGAGAAGGATAGAAATGATTTGATTGCTTACATGAAGAAAGCCTGTGAG'
p188
asg27
Nsg25
(lp189
sg97
Nsg98
(lp190
sg100
Nsbasg22
(lp191
sg86
Nsg87
Nsg88
Nsg89
(lp192
sg91
Nsg92
(lp193
sg27
Nsg25
(lp194
sg97
Nsg98
(lp195
sg100
Nsbag7
(g31
g9
Ntp196
Rp197
(dp198
g13
(lp199
sg36
F1.0
sg37
(lp200
sg39
S'kluyveri'
p201
sg41
(lp202
sg22
(lp203
sg86
Nsg87
Nsg88
Nsg89
(lp204
sg91
Nsg92
(lp205
S'CCAGCTCCATATAAGAAGGGTTCCGAAAAAAAGGGTGCTACTCTATTCAAGACCAGATGTTTGCAATGCCACACTGTCGAAAAAGGTGGTCCACACAAGGTCGGTCCAAACTTGCACGGTGTCTTTGGCCGTAGCTCTGGTCAAGCTGAAGGTTACTCTTACACCGATGCCAACATCAAGAAGAACGTCACATGGTCTGAACAAACCATGTCTGACTACTTGGAAAACCCAAAGAAGTACATTCCAGGTACCAAGATGGCCTTTGGTGGTTTGAAGAAGGAAAAGGACAGAAACGATTTGATTACCTACATGTTGAAGGCTTGTAAA'
p206
asg27
Nsg25
(lp207
sg97
Nsg98
(lp208
sg100
Nsbasg22
(lp209
sg86
Nsg87
Nsg88
Nsg89
(lp210
sg91
Nsg92
(lp211
sg27
Nsg25
(lp212
sg97
Nsg98
(lp213
sg100
NsbsS'id'
p214
Nsg39
NsbsS'para'
p215
(lp216
F0.517969255498
aF0.599536789597
aF0.457707907822
aF4.59579509765
asS'err'
p217
F1e-10
sS'newicktree'
p218
S'./YeastTree.newick'
p219
sS'models'
p220
(dp221
S'HKY'
p222
I3
sS'F81'
p223
I2
sS'Codon'
p224
I6
sS'GTR'
p225
I4
sS'Codon_corrected'
p226
I7
sS'K80'
p227
I1
sS'Jukes-Cantor'
p228
I0
ssS'data'
p229
(dp230
(g144
S'YEL039C'
p231
tp232
(lp233
S'AGC'
p234
aS'ACG'
p235
aS'GGA'
p236
aS'TCC'
p237
aS'AAA'
p238
aS'GCA'
p239
aS'GGC'
p240
aS'TCT'
p241
aS'TCG'
p242
aS'AAG'
p243
aS'AAA'
p244
aS'GGT'
p245
aS'GCC'
p246
aS'ACA'
p247
aS'TTA'
p248
aS'TTT'
p249
aS'AAA'
p250
aS'ACG'
p251
aS'AGA'
p252
aS'TGT'
p253
aS'CAA'
p254
aS'CAG'
p255
aS'TGC'
p256
aS'CAT'
p257
aS'ACA'
p258
aS'ATA'
p259
aS'GAA'
p260
aS'GAA'
p261
aS'GGT'
p262
aS'GGT'
p263
aS'CCA'
p264
aS'AAC'
p265
aS'AAA'
p266
aS'GTA'
p267
aS'GGT'
p268
aS'CCT'
p269
aS'AAT'
p270
aS'CTG'
p271
aS'CAT'
p272
aS'GGT'
p273
aS'ATT'
p274
aS'TTT'
p275
aS'GGT'
p276
aS'AGG'
p277
aS'CAT'
p278
aS'TCC'
p279
aS'GGT'
p280
aS'CAA'
p281
aS'GTG'
p282
aS'AAG'
p283
aS'GGC'
p284
aS'TAT'
p285
aS'TCA'
p286
aS'TAC'
p287
aS'ACA'
p288
aS'GAT'
p289
aS'GCT'
p290
aS'AAC'
p291
aS'ATC'
p292
aS'AAC'
p293
aS'AAG'
p294
aS'AAC'
p295
aS'GTC'
p296
aS'AAA'
p297
aS'TGG'
p298
aS'GAC'
p299
aS'GAG'
p300
aS'AGT'
p301
aS'AAC'
p302
aS'ATG'
p303
aS'TCC'
p304
aS'GAG'
p305
aS'TAC'
p306
aS'TTA'
p307
aS'ACT'
p308
aS'AAC'
p309
aS'CCT'
p310
aS'AAG'
p311
aS'AAG'
p312
aS'TAT'
p313
aS'ATT'
p314
aS'CCT'
p315
aS'GGT'
p316
aS'ACT'
p317
aS'AAG'
p318
aS'ATG'
p319
aS'GCC'
p320
aS'TTT'
p321
aS'GCT'
p322
aS'GGG'
p323
aS'TTG'
p324
aS'AAG'
p325
aS'AAG'
p326
aS'GAA'
p327
aS'AAG'
p328
aS'GAC'
p329
aS'AGA'
p330
aS'AAC'
p331
aS'GAT'
p332
aS'TTG'
p333
aS'ATT'
p334
aS'GCG'
p335
aS'TAT'
p336
aS'ATG'
p337
aS'ACG'
p338
aS'AAG'
p339
aS'GCT'
p340
aS'GCA'
p341
aS'AAA'
p342
as(g163
g231
tp343
(lp344
S'AGT'
p345
aS'GCA'
p346
aS'GAG'
p347
aS'TTC'
p348
aS'AAA'
p349
aS'CCA'
p350
aS'GGT'
p351
aS'TCT'
p352
aS'GGA'
p353
aS'AAG'
p354
aS'AAA'
p355
aS'GGT'
p356
aS'GCT'
p357
aS'ACA'
p358
aS'CTG'
p359
aS'TTT'
p360
aS'AAA'
p361
aS'ACC'
p362
aS'AGA'
p363
aS'TGT'
p364
aS'CAA'
p365
aS'CAG'
p366
aS'TGC'
p367
aS'CAC'
p368
aS'ACA'
p369
aS'ATA'
p370
aS'GAA'
p371
aS'GAG'
p372
aS'GGA'
p373
aS'GGT'
p374
aS'CCC'
p375
aS'AAT'
p376
aS'AAA'
p377
aS'GTG'
p378
aS'GGG'
p379
aS'CCT'
p380
aS'AAT'
p381
aS'CTG'
p382
aS'CAT'
p383
aS'GGT'
p384
aS'ATT'
p385
aS'TTT'
p386
aS'GGT'
p387
aS'AGA'
p388
aS'CAC'
p389
aS'TCT'
p390
aS'GGT'
p391
aS'CAA'
p392
aS'GTG'
p393
aS'AAG'
p394
aS'GGC'
p395
aS'TAC'
p396
aS'TCC'
p397
aS'TAC'
p398
aS'ACA'
p399
aS'GAT'
p400
aS'GCA'
p401
aS'AAC'
p402
aS'ATA'
p403
aS'AAA'
p404
aS'AAG'
p405
aS'AAC'
p406
aS'GTC'
p407
aS'CTG'
p408
aS'TGG'
p409
aS'GAC'
p410
aS'GAG'
p411
aS'AAT'
p412
aS'AAT'
p413
aS'ATG'
p414
aS'TCC'
p415
aS'GAG'
p416
aS'TAC'
p417
aS'TTG'
p418
aS'ACT'
p419
aS'AAC'
p420
aS'CCA'
p421
aS'AAG'
p422
aS'AAA'
p423
aS'TAT'
p424
aS'ATT'
p425
aS'CCT'
p426
aS'GGT'
p427
aS'ACC'
p428
aS'AAG'
p429
aS'ATG'
p430
aS'GCC'
p431
aS'TTT'
p432
aS'GCC'
p433
aS'GGG'
p434
aS'TTG'
p435
aS'AAA'
p436
aS'AAG'
p437
aS'GAA'
p438
aS'AAA'
p439
aS'GAC'
p440
aS'AGA'
p441
aS'AAC'
p442
aS'GAT'
p443
aS'CTG'
p444
aS'ATT'
p445
aS'ACT'
p446
aS'TAT'
p447
aS'ATG'
p448
aS'TCG'
p449
aS'AAA'
p450
aS'GCC'
p451
aS'GCC'
p452
aS'AAA'
p453
as(g83
S'YJR048W'
p454
tp455
(lp456
S'ATG'
p457
aS'ACT'
p458
aS'GAA'
p459
aS'TTC'
p460
aS'AAG'
p461
aS'GCC'
p462
aS'GGT'
p463
aS'TCT'
p464
aS'GCT'
p465
aS'AAG'
p466
aS'AAA'
p467
aS'GGT'
p468
aS'GCT'
p469
aS'ACA'
p470
aS'CTT'
p471
aS'TTC'
p472
aS'AAG'
p473
aS'ACT'
p474
aS'AGA'
p475
aS'TGT'
p476
aS'CTA'
p477
aS'CAA'
p478
aS'TGC'
p479
aS'CAC'
p480
aS'ACC'
p481
aS'GTG'
p482
aS'GAA'
p483
aS'AAG'
p484
aS'GGT'
p485
aS'GGC'
p486
aS'CCA'
p487
aS'CAT'
p488
aS'AAG'
p489
aS'GTT'
p490
aS'GGT'
p491
aS'CCA'
p492
aS'AAC'
p493
aS'TTG'
p494
aS'CAT'
p495
aS'GGT'
p496
aS'ATC'
p497
aS'TTT'
p498
aS'GGC'
p499
aS'AGA'
p500
aS'CAC'
p501
aS'TCT'
p502
aS'GGT'
p503
aS'CAA'
p504
aS'GCT'
p505
aS'GAA'
p506
aS'GGG'
p507
aS'TAT'
p508
aS'TCG'
p509
aS'TAC'
p510
aS'ACA'
p511
aS'GAT'
p512
aS'GCC'
p513
aS'AAT'
p514
aS'ATC'
p515
aS'AAG'
p516
aS'AAA'
p517
aS'AAC'
p518
aS'GTG'
p519
aS'TTG'
p520
aS'TGG'
p521
aS'GAC'
p522
aS'GAA'
p523
aS'AAT'
p524
aS'AAC'
p525
aS'ATG'
p526
aS'TCA'
p527
aS'GAG'
p528
aS'TAC'
p529
aS'TTG'
p530
aS'ACT'
p531
aS'AAC'
p532
aS'CCA'
p533
aS'AAG'
p534
aS'AAA'
p535
aS'TAT'
p536
aS'ATT'
p537
aS'CCT'
p538
aS'GGT'
p539
aS'ACC'
p540
aS'AAG'
p541
aS'ATG'
p542
aS'GCC'
p543
aS'TTT'
p544
aS'GGT'
p545
aS'GGG'
p546
aS'TTG'
p547
aS'AAG'
p548
aS'AAG'
p549
aS'GAA'
p550
aS'AAA'
p551
aS'GAC'
p552
aS'AGA'
p553
aS'AAC'
p554
aS'GAC'
p555
aS'TTA'
p556
aS'ATT'
p557
aS'ACC'
p558
aS'TAC'
p559
aS'TTG'
p560
aS'AAA'
p561
aS'AAA'
p562
aS'GCC'
p563
aS'TGT'
p564
aS'GAG'
p565
as(g83
g231
tp566
(lp567
S'AGT'
p568
aS'ACG'
p569
aS'GGA'
p570
aS'TTC'
p571
aS'AAA'
p572
aS'CCA'
p573
aS'GGC'
p574
aS'TCT'
p575
aS'GCA'
p576
aS'AAA'
p577
aS'AAG'
p578
aS'GGT'
p579
aS'GCT'
p580
aS'ACA'
p581
aS'TTG'
p582
aS'TTT'
p583
aS'AAA'
p584
aS'ACG'
p585
aS'AGG'
p586
aS'TGT'
p587
aS'CAG'
p588
aS'CAG'
p589
aS'TGT'
p590
aS'CAT'
p591
aS'ACA'
p592
aS'ATA'
p593
aS'GAA'
p594
aS'GAG'
p595
aS'GGT'
p596
aS'GGT'
p597
aS'CCT'
p598
aS'AAC'
p599
aS'AAA'
p600
aS'GTT'
p601
aS'GGA'
p602
aS'CCT'
p603
aS'AAT'
p604
aS'TTA'
p605
aS'CAT'
p606
aS'GGT'
p607
aS'ATT'
p608
aS'TTT'
p609
aS'GGT'
p610
aS'AGA'
p611
aS'CAT'
p612
aS'TCA'
p613
aS'GGT'
p614
aS'CAG'
p615
aS'GTA'
p616
aS'AAG'
p617
aS'GGT'
p618
aS'TAT'
p619
aS'TCT'
p620
aS'TAC'
p621
aS'ACA'
p622
aS'GAT'
p623
aS'GCA'
p624
aS'AAC'
p625
aS'ATC'
p626
aS'AAC'
p627
aS'AAG'
p628
aS'AAC'
p629
aS'GTC'
p630
aS'AAA'
p631
aS'TGG'
p632
aS'GAT'
p633
aS'GAG'
p634
aS'GAT'
p635
aS'AGT'
p636
aS'ATG'
p637
aS'TCC'
p638
aS'GAG'
p639
aS'TAC'
p640
aS'TTG'
p641
aS'ACG'
p642
aS'AAC'
p643
aS'CCA'
p644
aS'AAG'
p645
aS'AAA'
p646
aS'TAT'
p647
aS'ATT'
p648
aS'CCT'
p649
aS'GGT'
p650
aS'ACC'
p651
aS'AAG'
p652
aS'ATG'
p653
aS'GCG'
p654
aS'TTT'
p655
aS'GCC'
p656
aS'GGG'
p657
aS'TTG'
p658
aS'AAG'
p659
aS'AAG'
p660
aS'GAA'
p661
aS'AAG'
p662
aS'GAC'
p663
aS'AGA'
p664
aS'AAC'
p665
aS'GAT'
p666
aS'TTA'
p667
aS'ATT'
p668
aS'ACT'
p669
aS'TAT'
p670
aS'ATG'
p671
aS'ACA'
p672
aS'AAG'
p673
aS'GCT'
p674
aS'GCC'
p675
aS'AAA'
p676
as(g201
g231
tp677
(lp678
S'CCA'
p679
aS'GCT'
p680
aS'CCA'
p681
aS'TAT'
p682
aS'AAG'
p683
aS'AAG'
p684
aS'GGT'
p685
aS'TCC'
p686
aS'GAA'
p687
aS'AAA'
p688
aS'AAG'
p689
aS'GGT'
p690
aS'GCT'
p691
aS'ACT'
p692
aS'CTA'
p693
aS'TTC'
p694
aS'AAG'
p695
aS'ACC'
p696
aS'AGA'
p697
aS'TGT'
p698
aS'TTG'
p699
aS'CAA'
p700
aS'TGC'
p701
aS'CAC'
p702
aS'ACT'
p703
aS'GTC'
p704
aS'GAA'
p705
aS'AAA'
p706
aS'GGT'
p707
aS'GGT'
p708
aS'CCA'
p709
aS'CAC'
p710
aS'AAG'
p711
aS'GTC'
p712
aS'GGT'
p713
aS'CCA'
p714
aS'AAC'
p715
aS'TTG'
p716
aS'CAC'
p717
aS'GGT'
p718
aS'GTC'
p719
aS'TTT'
p720
aS'GGC'
p721
aS'CGT'
p722
aS'AGC'
p723
aS'TCT'
p724
aS'GGT'
p725
aS'CAA'
p726
aS'GCT'
p727
aS'GAA'
p728
aS'GGT'
p729
aS'TAC'
p730
aS'TCT'
p731
aS'TAC'
p732
aS'ACC'
p733
aS'GAT'
p734
aS'GCC'
p735
aS'AAC'
p736
aS'ATC'
p737
aS'AAG'
p738
aS'AAG'
p739
aS'AAC'
p740
aS'GTC'
p741
aS'ACA'
p742
aS'TGG'
p743
aS'TCT'
p744
aS'GAA'
p745
aS'CAA'
p746
aS'ACC'
p747
aS'ATG'
p748
aS'TCT'
p749
aS'GAC'
p750
aS'TAC'
p751
aS'TTG'
p752
aS'GAA'
p753
aS'AAC'
p754
aS'CCA'
p755
aS'AAG'
p756
aS'AAG'
p757
aS'TAC'
p758
aS'ATT'
p759
aS'CCA'
p760
aS'GGT'
p761
aS'ACC'
p762
aS'AAG'
p763
aS'ATG'
p764
aS'GCC'
p765
aS'TTT'
p766
aS'GGT'
p767
aS'GGT'
p768
aS'TTG'
p769
aS'AAG'
p770
aS'AAG'
p771
aS'GAA'
p772
aS'AAG'
p773
aS'GAC'
p774
aS'AGA'
p775
aS'AAC'
p776
aS'GAT'
p777
aS'TTG'
p778
aS'ATT'
p779
aS'ACC'
p780
aS'TAC'
p781
aS'ATG'
p782
aS'TTG'
p783
aS'AAG'
p784
aS'GCT'
p785
aS'TGT'
p786
aS'AAA'
p787
as(g201
g454
tp788
g678
s(g144
g454
tp789
(lp790
S'ATG'
p791
aS'ACT'
p792
aS'GAA'
p793
aS'TTC'
p794
aS'AAG'
p795
aS'GCC'
p796
aS'GGT'
p797
aS'TCC'
p798
aS'GCA'
p799
aS'AAG'
p800
aS'AAG'
p801
aS'GGC'
p802
aS'GCT'
p803
aS'ACT'
p804
aS'CTT'
p805
aS'TTC'
p806
aS'AAG'
p807
aS'ACC'
p808
aS'AGA'
p809
aS'TGT'
p810
aS'CTC'
p811
aS'CAA'
p812
aS'TGC'
p813
aS'CAC'
p814
aS'ACC'
p815
aS'GTA'
p816
aS'GAA'
p817
aS'AAG'
p818
aS'GGC'
p819
aS'GGT'
p820
aS'CCA'
p821
aS'CAC'
p822
aS'AAG'
p823
aS'GTT'
p824
aS'GGT'
p825
aS'CCA'
p826
aS'AAC'
p827
aS'TTG'
p828
aS'CAC'
p829
aS'GGT'
p830
aS'GTT'
p831
aS'TTT'
p832
aS'GGC'
p833
aS'AGA'
p834
aS'AAC'
p835
aS'TCC'
p836
aS'GGC'
p837
aS'CAA'
p838
aS'GCC'
p839
aS'GAA'
p840
aS'GGG'
p841
aS'TAC'
p842
aS'TCT'
p843
aS'TAC'
p844
aS'ACA'
p845
aS'GAC'
p846
aS'GCT'
p847
aS'AAC'
p848
aS'ATC'
p849
aS'AAG'
p850
aS'AAA'
p851
aS'AAT'
p852
aS'GTG'
p853
aS'CTA'
p854
aS'TGG'
p855
aS'GAC'
p856
aS'GAA'
p857
aS'AAT'
p858
aS'AAC'
p859
aS'ATG'
p860
aS'TCC'
p861
aS'GAC'
p862
aS'TAC'
p863
aS'CTG'
p864
aS'ACC'
p865
aS'AAC'
p866
aS'CCG'
p867
aS'AAG'
p868
aS'AAG'
p869
aS'TAT'
p870
aS'ATT'
p871
aS'CCT'
p872
aS'GGC'
p873
aS'ACC'
p874
aS'AAG'
p875
aS'ATG'
p876
aS'GCC'
p877
aS'TTC'
p878
aS'GGT'
p879
aS'GGT'
p880
aS'TTG'
p881
aS'AAG'
p882
aS'AAG'
p883
aS'GAG'
p884
aS'AAG'
p885
aS'GAC'
p886
aS'AGA'
p887
aS'AAC'
p888
aS'GAC'
p889
aS'CTG'
p890
aS'ATT'
p891
aS'ACC'
p892
aS'TAC'
p893
aS'TTG'
p894
aS'AAA'
p895
aS'AAA'
p896
aS'GCT'
p897
aS'TGT'
p898
aS'GAA'
p899
as(g163
g454
tp900
(lp901
S'ATG'
p902
aS'ACT'
p903
aS'GAA'
p904
aS'TTC'
p905
aS'AAA'
p906
aS'GCC'
p907
aS'GGT'
p908
aS'TCC'
p909
aS'GCA'
p910
aS'AAG'
p911
aS'AAA'
p912
aS'GGT'
p913
aS'GCT'
p914
aS'ACT'
p915
aS'CTG'
p916
aS'TTC'
p917
aS'AAG'
p918
aS'ACC'
p919
aS'AGA'
p920
aS'TGT'
p921
aS'TTG'
p922
aS'CAA'
p923
aS'TGC'
p924
aS'CAT'
p925
aS'ACC'
p926
aS'GTC'
p927
aS'GAA'
p928
aS'AAG'
p929
aS'GGC'
p930
aS'GGC'
p931
aS'CCA'
p932
aS'CAC'
p933
aS'AAG'
p934
aS'GTC'
p935
aS'GGT'
p936
aS'CCA'
p937
aS'AAC'
p938
aS'TTG'
p939
aS'CAC'
p940
aS'GGG'
p941
aS'ATC'
p942
aS'TTC'
p943
aS'GGC'
p944
aS'AGA'
p945
aS'CAC'
p946
aS'TCC'
p947
aS'GGC'
p948
aS'CAG'
p949
aS'GCT'
p950
aS'GAA'
p951
aS'GGG'
p952
aS'TAC'
p953
aS'TCT'
p954
aS'TAC'
p955
aS'ACA'
p956
aS'GAC'
p957
aS'GCC'
p958
aS'AAC'
p959
aS'ATC'
p960
aS'AAG'
p961
aS'AAG'
p962
aS'AAC'
p963
aS'GTG'
p964
aS'CAA'
p965
aS'TGG'
p966
aS'GAC'
p967
aS'GAA'
p968
aS'AAC'
p969
aS'AAC'
p970
aS'ATG'
p971
aS'TCC'
p972
aS'GAT'
p973
aS'TAC'
p974
aS'TTG'
p975
aS'ACC'
p976
aS'AAC'
p977
aS'CCA'
p978
aS'AAG'
p979
aS'AAA'
p980
aS'TAC'
p981
aS'ATC'
p982
aS'CCT'
p983
aS'GGT'
p984
aS'ACC'
p985
aS'AAG'
p986
aS'ATG'
p987
aS'GCC'
p988
aS'TTC'
p989
aS'GGT'
p990
aS'GGG'
p991
aS'TTG'
p992
aS'AAG'
p993
aS'AAG'
p994
aS'GAA'
p995
aS'AAG'
p996
aS'GAC'
p997
aS'AGA'
p998
aS'AAC'
p999
aS'GAC'
p1000
aS'TTG'
p1001
aS'ATC'
p1002
aS'ACT'
p1003
aS'TAC'
p1004
aS'TTG'
p1005
aS'AAG'
p1006
aS'AAA'
p1007
aS'GCC'
p1008
aS'TGT'
p1009
aS'GAA'
p1010
as(g182
g231
tp1011
(lp1012
S'ATG'
p1013
aS'GGT'
p1014
aS'GAA'
p1015
aS'TAT'
p1016
aS'AAA'
p1017
aS'CCA'
p1018
aS'GGT'
p1019
aS'AAC'
p1020
aS'GAA'
p1021
aS'AAG'
p1022
aS'AAA'
p1023
aS'GGT'
p1024
aS'GCT'
p1025
aS'ACC'
p1026
aS'TTA'
p1027
aS'TTC'
p1028
aS'AAG'
p1029
aS'ACT'
p1030
aS'AGA'
p1031
aS'TGT'
p1032
aS'CTA'
p1033
aS'CAA'
p1034
aS'TGT'
p1035
aS'CAC'
p1036
aS'ACT'
p1037
aS'GTT'
p1038
aS'GAA'
p1039
aS'GAA'
p1040
aS'GGT'
p1041
aS'GGT'
p1042
aS'CCA'
p1043
aS'CAT'
p1044
aS'AAA'
p1045
aS'GTT'
p1046
aS'GGT'
p1047
aS'CCA'
p1048
aS'AAT'
p1049
aS'TTG'
p1050
aS'CAC'
p1051
aS'GGC'
p1052
aS'ATC'
p1053
aS'TTT'
p1054
aS'GGT'
p1055
aS'CGT'
p1056
aS'AAT'
p1057
aS'TCT'
p1058
aS'GGG'
p1059
aS'CAA'
p1060
aS'GCT'
p1061
aS'CCA'
p1062
aS'GGT'
p1063
aS'TAT'
p1064
aS'TCT'
p1065
aS'TAC'
p1066
aS'ACT'
p1067
aS'GAT'
p1068
aS'GCT'
p1069
aS'AAT'
p1070
aS'ATT'
p1071
aS'AAG'
p1072
aS'AAG'
p1073
aS'AAT'
p1074
aS'GTT'
p1075
aS'AAA'
p1076
aS'TGG'
p1077
aS'GAT'
p1078
aS'GAG'
p1079
aS'CAA'
p1080
aS'AAG'
p1081
aS'ATG'
p1082
aS'TCT'
p1083
aS'GAT'
p1084
aS'TAT'
p1085
aS'TTG'
p1086
aS'ACC'
p1087
aS'AAT'
p1088
aS'CCA'
p1089
aS'AAG'
p1090
aS'AAA'
p1091
aS'TAT'
p1092
aS'ATA'
p1093
aS'CCA'
p1094
aS'GGT'
p1095
aS'ACC'
p1096
aS'AAG'
p1097
aS'ATG'
p1098
aS'GCA'
p1099
aS'TTC'
p1100
aS'GGT'
p1101
aS'GGG'
p1102
aS'TTG'
p1103
aS'AAG'
p1104
aS'AAG'
p1105
aS'GAG'
p1106
aS'AAG'
p1107
aS'GAT'
p1108
aS'AGA'
p1109
aS'AAT'
p1110
aS'GAT'
p1111
aS'TTG'
p1112
aS'ATT'
p1113
aS'GCT'
p1114
aS'TAC'
p1115
aS'ATG'
p1116
aS'AAG'
p1117
aS'AAA'
p1118
aS'GCC'
p1119
aS'TGT'
p1120
aS'GAG'
p1121
as(g125
g231
tp1122
(lp1123
S'AGT'
p1124
aS'ACA'
p1125
aS'GAA'
p1126
aS'TTC'
p1127
aS'AAA'
p1128
aS'CCA'
p1129
aS'GGC'
p1130
aS'TCT'
p1131
aS'GCA'
p1132
aS'AAG'
p1133
aS'AAA'
p1134
aS'GGC'
p1135
aS'GCT'
p1136
aS'ACA'
p1137
aS'TTG'
p1138
aS'TTT'
p1139
aS'AAA'
p1140
aS'ACG'
p1141
aS'AGG'
p1142
aS'TGC'
p1143
aS'CAA'
p1144
aS'CAG'
p1145
aS'TGT'
p1146
aS'CAT'
p1147
aS'ACA'
p1148
aS'ATA'
p1149
aS'GAA'
p1150
aS'GAA'
p1151
aS'GGT'
p1152
aS'GGT'
p1153
aS'CCC'
p1154
aS'AAC'
p1155
aS'AAA'
p1156
aS'GTG'
p1157
aS'GGG'
p1158
aS'CCT'
p1159
aS'AAC'
p1160
aS'CTA'
p1161
aS'CAT'
p1162
aS'GGT'
p1163
aS'ATC'
p1164
aS'TTT'
p1165
aS'GGT'
p1166
aS'AGA'
p1167
aS'CAT'
p1168
aS'TCT'
p1169
aS'GGA'
p1170
aS'CAA'
p1171
aS'GTG'
p1172
aS'AAG'
p1173
aS'GGC'
p1174
aS'TAT'
p1175
aS'TCT'
p1176
aS'TAC'
p1177
aS'ACA'
p1178
aS'GAC'
p1179
aS'GCA'
p1180
aS'AAC'
p1181
aS'ATT'
p1182
aS'AAC'
p1183
aS'AAA'
p1184
aS'AAA'
p1185
aS'GTC'
p1186
aS'AAG'
p1187
aS'TGG'
p1188
aS'GAT'
p1189
aS'GAG'
p1190
aS'AAT'
p1191
aS'AAC'
p1192
aS'ATG'
p1193
aS'TCC'
p1194
aS'GAG'
p1195
aS'TAC'
p1196
aS'TTG'
p1197
aS'ACC'
p1198
aS'AAT'
p1199
aS'CCA'
p1200
aS'AAG'
p1201
aS'AAA'
p1202
aS'TAT'
p1203
aS'ATT'
p1204
aS'CCT'
p1205
aS'GGT'
p1206
aS'ACT'
p1207
aS'AAG'
p1208
aS'ATG'
p1209
aS'GCC'
p1210
aS'TTC'
p1211
aS'GCA'
p1212
aS'GGG'
p1213
aS'TTA'
p1214
aS'AAA'
p1215
aS'AAA'
p1216
aS'GAA'
p1217
aS'AAA'
p1218
aS'GAT'
p1219
aS'AGA'
p1220
aS'AAT'
p1221
aS'GAT'
p1222
aS'TTG'
p1223
aS'ATT'
p1224
aS'ACT'
p1225
aS'TAT'
p1226
aS'ATG'
p1227
aS'ACG'
p1228
aS'AAA'
p1229
aS'GCC'
p1230
aS'GCC'
p1231
aS'AAA'
p1232
as(g125
g454
tp1233
(lp1234
S'ATG'
p1235
aS'ACT'
p1236
aS'GAA'
p1237
aS'TTC'
p1238
aS'AAA'
p1239
aS'GCC'
p1240
aS'GGA'
p1241
aS'TCC'
p1242
aS'GCT'
p1243
aS'AAG'
p1244
aS'AAA'
p1245
aS'GGT'
p1246
aS'GCT'
p1247
aS'ACA'
p1248
aS'CTT'
p1249
aS'TTC'
p1250
aS'AAG'
p1251
aS'ACC'
p1252
aS'AGA'
p1253
aS'TGT'
p1254
aS'CTA'
p1255
aS'CAA'
p1256
aS'TGC'
p1257
aS'CAC'
p1258
aS'ACA'
p1259
aS'GTG'
p1260
aS'GAA'
p1261
aS'GAA'
p1262
aS'GGC'
p1263
aS'GGC'
p1264
aS'CCA'
p1265
aS'CAC'
p1266
aS'AAG'
p1267
aS'GTT'
p1268
aS'GGT'
p1269
aS'CCA'
p1270
aS'AAC'
p1271
aS'TTG'
p1272
aS'CAC'
p1273
aS'GGT'
p1274
aS'ATC'
p1275
aS'TTT'
p1276
aS'GGC'
p1277
aS'AGA'
p1278
aS'CAC'
p1279
aS'TCC'
p1280
aS'GGT'
p1281
aS'CAA'
p1282
aS'GCT'
p1283
aS'GAA'
p1284
aS'GGG'
p1285
aS'TAC'
p1286
aS'TCT'
p1287
aS'TAC'
p1288
aS'ACG'
p1289
aS'GAC'
p1290
aS'GCT'
p1291
aS'AAT'
p1292
aS'ATT'
p1293
aS'AAG'
p1294
aS'AAA'
p1295
aS'AAT'
p1296
aS'GTG'
p1297
aS'CTA'
p1298
aS'TGG'
p1299
aS'GAC'
p1300
aS'GAA'
p1301
aS'AAT'
p1302
aS'AAC'
p1303
aS'ATG'
p1304
aS'TCG'
p1305
aS'GAC'
p1306
aS'TAT'
p1307
aS'TTG'
p1308
aS'ACC'
p1309
aS'AAT'
p1310
aS'CCA'
p1311
aS'AAA'
p1312
aS'AAG'
p1313
aS'TAC'
p1314
aS'ATT'
p1315
aS'CCC'
p1316
aS'GGT'
p1317
aS'ACT'
p1318
aS'AAA'
p1319
aS'ATG'
p1320
aS'GCG'
p1321
aS'TTT'
p1322
aS'GGT'
p1323
aS'GGG'
p1324
aS'TTG'
p1325
aS'AAG'
p1326
aS'AAG'
p1327
aS'GAA'
p1328
aS'AAA'
p1329
aS'GAC'
p1330
aS'AGA'
p1331
aS'AAC'
p1332
aS'GAT'
p1333
aS'CTG'
p1334
aS'ATT'
p1335
aS'ACC'
p1336
aS'TAC'
p1337
aS'TTG'
p1338
aS'AAA'
p1339
aS'AAA'
p1340
aS'GCT'
p1341
aS'TGT'
p1342
aS'GAA'
p1343
as(g182
g454
tp1344
(lp1345
S'AGC'
p1346
aS'AGT'
p1347
aS'GAA'
p1348
aS'TAT'
p1349
aS'AAA'
p1350
aS'CCA'
p1351
aS'GGT'
p1352
aS'AAT'
p1353
aS'GAA'
p1354
aS'AAG'
p1355
aS'AAA'
p1356
aS'GGT'
p1357
aS'GCC'
p1358
aS'ACC'
p1359
aS'CTT'
p1360
aS'TTC'
p1361
aS'AAA'
p1362
aS'ACC'
p1363
aS'AGA'
p1364
aS'TGT'
p1365
aS'CTA'
p1366
aS'CAA'
p1367
aS'TGT'
p1368
aS'CAT'
p1369
aS'ACC'
p1370
aS'GTA'
p1371
aS'GAG'
p1372
aS'GAA'
p1373
aS'GGT'
p1374
aS'GGT'
p1375
aS'CCT'
p1376
aS'CAT'
p1377
aS'AAA'
p1378
aS'GTG'
p1379
aS'GGT'
p1380
aS'CCC'
p1381
aS'AAC'
p1382
aS'TTA'
p1383
aS'CAT'
p1384
aS'GGT'
p1385
aS'GTA'
p1386
aS'TTC'
p1387
aS'GGT'
p1388
aS'CGT'
p1389
aS'CAC'
p1390
aS'TCT'
p1391
aS'GGG'
p1392
aS'AAA'
p1393
aS'GCT'
p1394
aS'CCA'
p1395
aS'GGT'
p1396
aS'TAC'
p1397
aS'TCC'
p1398
aS'TAC'
p1399
aS'ACT'
p1400
aS'GAT'
p1401
aS'GCT'
p1402
aS'AAC'
p1403
aS'GTG'
p1404
aS'AAA'
p1405
aS'AAG'
p1406
aS'GAT'
p1407
aS'GTA'
p1408
aS'GAG'
p1409
aS'TGG'
p1410
aS'AAT'
p1411
aS'GAA'
p1412
aS'CAG'
p1413
aS'AAT'
p1414
aS'ATG'
p1415
aS'TCT'
p1416
aS'GAT'
p1417
aS'TAT'
p1418
aS'TTA'
p1419
aS'ACA'
p1420
aS'AAC'
p1421
aS'CCA'
p1422
aS'AAG'
p1423
aS'AAA'
p1424
aS'TAT'
p1425
aS'ATC'
p1426
aS'CCA'
p1427
aS'GGC'
p1428
aS'ACT'
p1429
aS'AAG'
p1430
aS'ATG'
p1431
aS'GCG'
p1432
aS'TTT'
p1433
aS'GGT'
p1434
aS'GGA'
p1435
aS'TTA'
p1436
aS'AAG'
p1437
aS'AAG'
p1438
aS'GAT'
p1439
aS'AAG'
p1440
aS'GAT'
p1441
aS'AGA'
p1442
aS'AAC'
p1443
aS'GAT'
p1444
aS'TTG'
p1445
aS'ATT'
p1446
aS'ACT'
p1447
aS'TAT'
p1448
aS'TTG'
p1449
aS'AAG'
p1450
aS'AAG'
p1451
aS'GCC'
p1452
aS'ACT'
p1453
aS'GAT'
p1454
as(g106
g454
tp1455
(lp1456
S'ATG'
p1457
aS'ACT'
p1458
aS'GAA'
p1459
aS'TTC'
p1460
aS'AAG'
p1461
aS'GCC'
p1462
aS'GGT'
p1463
aS'TCC'
p1464
aS'GCT'
p1465
aS'AAG'
p1466
aS'AAA'
p1467
aS'GGT'
p1468
aS'GCT'
p1469
aS'ACA'
p1470
aS'CTT'
p1471
aS'TTC'
p1472
aS'AAG'
p1473
aS'ACT'
p1474
aS'AGA'
p1475
aS'TGT'
p1476
aS'CTA'
p1477
aS'CAA'
p1478
aS'TGC'
p1479
aS'CAC'
p1480
aS'ACA'
p1481
aS'GTG'
p1482
aS'GAA'
p1483
aS'AAA'
p1484
aS'GGT'
p1485
aS'GGC'
p1486
aS'CCA'
p1487
aS'CAC'
p1488
aS'AAG'
p1489
aS'GTT'
p1490
aS'GGT'
p1491
aS'CCA'
p1492
aS'AAC'
p1493
aS'TTG'
p1494
aS'CAC'
p1495
aS'GGT'
p1496
aS'ATC'
p1497
aS'TTT'
p1498
aS'GGA'
p1499
aS'AGA'
p1500
aS'CAC'
p1501
aS'TCT'
p1502
aS'GGT'
p1503
aS'CAA'
p1504
aS'GCT'
p1505
aS'GAA'
p1506
aS'GGG'
p1507
aS'TAC'
p1508
aS'TCA'
p1509
aS'TAT'
p1510
aS'ACA'
p1511
aS'GAT'
p1512
aS'GCC'
p1513
aS'AAC'
p1514
aS'ATC'
p1515
aS'AAG'
p1516
aS'AAG'
p1517
aS'AAT'
p1518
aS'GTG'
p1519
aS'CTA'
p1520
aS'TGG'
p1521
aS'GAC'
p1522
aS'GAA'
p1523
aS'AAT'
p1524
aS'AAC'
p1525
aS'ATG'
p1526
aS'TCC'
p1527
aS'GAG'
p1528
aS'TAC'
p1529
aS'TTG'
p1530
aS'ACT'
p1531
aS'AAC'
p1532
aS'CCA'
p1533
aS'AAG'
p1534
aS'AAA'
p1535
aS'TAT'
p1536
aS'ATT'
p1537
aS'CCG'
p1538
aS'GGT'
p1539
aS'ACC'
p1540
aS'AAG'
p1541
aS'ATG'
p1542
aS'GCC'
p1543
aS'TTT'
p1544
aS'GGC'
p1545
aS'GGA'
p1546
aS'TTG'
p1547
aS'AAG'
p1548
aS'AAG'
p1549
aS'GAA'
p1550
aS'AAA'
p1551
aS'GAT'
p1552
aS'AGA'
p1553
aS'AAC'
p1554
aS'GAC'
p1555
aS'CTT'
p1556
aS'ATT'
p1557
aS'ACC'
p1558
aS'TAC'
p1559
aS'TTG'
p1560
aS'AAA'
p1561
aS'AAA'
p1562
aS'GCT'
p1563
aS'TGT'
p1564
aS'GAG'
p1565
as(g106
g231
tp1566
(lp1567
S'AGT'
p1568
aS'ACG'
p1569
aS'GGA'
p1570
aS'TTC'
p1571
aS'AAA'
p1572
aS'GCA'
p1573
aS'GGC'
p1574
aS'TCT'
p1575
aS'GCA'
p1576
aS'AAG'
p1577
aS'AAA'
p1578
aS'GGT'
p1579
aS'GCA'
p1580
aS'ACA'
p1581
aS'TTG'
p1582
aS'TTC'
p1583
aS'AAA'
p1584
aS'ACG'
p1585
aS'AGG'
p1586
aS'TGT'
p1587
aS'CAA'
p1588
aS'CAG'
p1589
aS'TGT'
p1590
aS'CAT'
p1591
aS'ACA'
p1592
aS'ATA'
p1593
aS'GAA'
p1594
aS'GAA'
p1595
aS'GGT'
p1596
aS'GGT'
p1597
aS'CCC'
p1598
aS'AAC'
p1599
aS'AAG'
p1600
aS'GTG'
p1601
aS'GGA'
p1602
aS'CCT'
p1603
aS'AAT'
p1604
aS'CTA'
p1605
aS'CAC'
p1606
aS'GGT'
p1607
aS'ATA'
p1608
aS'TTT'
p1609
aS'GGT'
p1610
aS'AGA'
p1611
aS'CAT'
p1612
aS'TCA'
p1613
aS'GGC'
p1614
aS'CAA'
p1615
aS'GTG'
p1616
aS'AAG'
p1617
aS'GGC'
p1618
aS'TAT'
p1619
aS'TCT'
p1620
aS'TAC'
p1621
aS'ACA'
p1622
aS'GAT'
p1623
aS'GCA'
p1624
aS'AAC'
p1625
aS'ATT'
p1626
aS'AAC'
p1627
aS'AAG'
p1628
aS'AAT'
p1629
aS'GTC'
p1630
aS'AAG'
p1631
aS'TGG'
p1632
aS'GAT'
p1633
aS'GAG'
p1634
aS'GAT'
p1635
aS'AGT'
p1636
aS'ATG'
p1637
aS'TCA'
p1638
aS'GAG'
p1639
aS'TAC'
p1640
aS'TTA'
p1641
aS'ACC'
p1642
aS'AAC'
p1643
aS'CCA'
p1644
aS'AAG'
p1645
aS'AAG'
p1646
aS'TAT'
p1647
aS'ATT'
p1648
aS'CCT'
p1649
aS'GGT'
p1650
aS'ACT'
p1651
aS'AAG'
p1652
aS'ATG'
p1653
aS'GCC'
p1654
aS'TTT'
p1655
aS'GCC'
p1656
aS'GGG'
p1657
aS'TTG'
p1658
aS'AAG'
p1659
aS'AAG'
p1660
aS'GAA'
p1661
aS'AAA'
p1662
aS'GAC'
p1663
aS'AGA'
p1664
aS'AAC'
p1665
aS'GAT'
p1666
aS'TTG'
p1667
aS'ATT'
p1668
aS'ACT'
p1669
aS'TAT'
p1670
aS'ATG'
p1671
aS'ACC'
p1672
aS'AAA'
p1673
aS'GCC'
p1674
aS'GCC'
p1675
aS'AAA'
p1676
assS'duplication_node'
p1677
S'N0'
p1678
sS'nsites'
p1679
I327
sS'root_branch'
p1680
(g1678
S'kluyveri'
p1681
tp1682
sS'nleaf'
p1683
I7
sS'modelnum'
p1684
I3
sS'paralog'
p1685
(lp1686
g454
ag231
asS'treetopo'
p1687
g7
(cnetworkx.classes.digraph
DiGraph
p1688
g9
Ntp1689
Rp1690
(dp1691
S'node'
p1692
(dp1693
g182
(dp1694
sg125
(dp1695
sg83
(dp1696
sg201
(dp1697
sg106
(dp1698
sg144
(dp1699
sg163
(dp1700
sg40
(dp1701
sg48
(dp1702
sg55
(dp1703
sg62
(dp1704
sg69
(dp1705
sg76
(dp1706
ssS'graph'
p1707
(dp1708
sS'succ'
p1709
(dp1710
g182
(dp1711
sg125
(dp1712
sg83
(dp1713
sg201
(dp1714
sg106
(dp1715
sg144
(dp1716
sg163
(dp1717
sg40
(dp1718
g48
(dp1719
sg201
(dp1720
ssg48
(dp1721
g55
(dp1722
sg182
(dp1723
ssg55
(dp1724
g62
(dp1725
sg163
(dp1726
ssg62
(dp1727
g69
(dp1728
sg144
(dp1729
ssg69
(dp1730
g76
(dp1731
sg125
(dp1732
ssg76
(dp1733
g83
(dp1734
sg106
(dp1735
sssS'edge'
p1736
g1710
sS'pred'
p1737
(dp1738
g182
(dp1739
g48
g1723
ssg125
(dp1740
g69
g1732
ssg83
(dp1741
g76
g1734
ssg201
(dp1742
g40
g1720
ssg106
(dp1743
g76
g1735
ssg144
(dp1744
g62
g1729
ssg163
(dp1745
g55
g1726
ssg40
(dp1746
sg48
(dp1747
g40
g1719
ssg55
(dp1748
g48
g1722
ssg62
(dp1749
g55
g1725
ssg69
(dp1750
g62
g1728
ssg76
(dp1751
g69
g1731
sssS'adj'
p1752
g1710
sbsS'seqloc'
p1753
S'./YJR048W_YEL039C/YJR048W_YEL039C_input.fasta'
p1754
sS'blen'
p1755
(lp1756
F0.0691086986389
aF0.0353878639452
aF0.0232621015695
aF0.0167796500021
aF0.0501711333706
aF0.0326470068817
aF0.129797283459
aF0.155681973602
aF0.0251237262495
aF0.0420683479989
aF0.00981880570251
aF0.0833597577169
asg30
g40
sS'edge_to_blen'
p1757
(dp1758
(g40
g48
tp1759
F0.0691086986389
s(g76
g83
tp1760
F0.0353878639452
s(g55
g62
tp1761
F0.0232621015695
s(g69
g76
tp1762
F0.0167796500021
s(g62
g144
tp1763
F0.0501711333706
s(g55
g163
tp1764
F0.0326470068817
s(g48
g55
tp1765
F0.129797283459
s(g48
g182
tp1766
F0.155681973602
s(g76
g106
tp1767
F0.0251237262495
s(g69
g125
tp1768
F0.0420683479989
s(g62
g69
tp1769
F0.00981880570251
s(g40
g201
tp1770
F0.0833597577169
ssb.