(dp0
(S'N0'
p1
S'N1'
p2
tp3
cnumpy.core.multiarray
scalar
p4
(cnumpy
dtype
p5
(S'f8'
p6
I0
I1
tp7
Rp8
(I3
S'<'
p9
NNNI-1
I-1
I0
tp10
bS'n\xc2i#\xfc\xf6\x98?'
p11
tp12
Rp13
s(S'N5'
p14
S'cerevisiae'
p15
tp16
g4
(g8
S'`G1\\f\xfd\x97?'
p17
tp18
Rp19
s(S'N2'
p20
S'N3'
p21
tp22
g4
(g8
S'\x15\xf4\xea\xae\xac\xd8\x86?'
p23
tp24
Rp25
s(S'N4'
p26
g14
tp27
g4
(g8
S'\xf6\xef\x1d\x1b/\xf4\x82?'
p28
tp29
Rp30
s(g21
S'kudriavzevii'
p31
tp32
g4
(g8
S'}\x07\x04z\xa3\x9f\x99?'
p33
tp34
Rp35
s(g20
S'bayanus'
p36
tp37
g4
(g8
S'.Cl\xee\xd2\xfa\x95?'
p38
tp39
Rp40
s(g2
g20
tp41
g4
(g8
S'\x9bj\xb5\x98\xd6s\xa4?'
p42
tp43
Rp44
s(g2
S'castellii'
p45
tp46
g4
(g8
S"ZY&v'\xa0\xb3?"
p47
tp48
Rp49
s(g14
S'paradoxus'
p50
tp51
g4
(g8
S'\xac\xf6\x1f\x94\x07\xd4\x8e?'
p52
tp53
Rp54
s(g26
S'mikatae'
p55
tp56
g4
(g8
S'\\\x92\xd8\xae\x97.\xa2?'
p57
tp58
Rp59
s(g21
g26
tp60
g4
(g8
S'\x07\xfa\x17+y\x86\x84?'
p61
tp62
Rp63
s(g1
S'kluyveri'
p64
tp65
g4
(g8
S'\x00\x00\x00\x00\x00\x00\x00\x00'
p66
tp67
Rp68
s.