(dp0
(S'N0'
p1
S'N1'
p2
tp3
cnumpy.core.multiarray
scalar
p4
(cnumpy
dtype
p5
(S'f8'
p6
I0
I1
tp7
Rp8
(I3
S'<'
p9
NNNI-1
I-1
I0
tp10
bS'\x82\x01,\x11\xd8\x94\xc1?'
p11
tp12
Rp13
s(S'N5'
p14
S'cerevisiae'
p15
tp16
g4
(g8
S'~\xcd\x96^@O\xb9?'
p17
tp18
Rp19
s(S'N2'
p20
S'N3'
p21
tp22
g4
(g8
S'rJ\xb3(\xc7|\xb0?'
p23
tp24
Rp25
s(S'N4'
p26
g14
tp27
g4
(g8
S'\xbb\x0ea\xf6\xa7\xd4\xab?'
p28
tp29
Rp30
s(g21
S'kudriavzevii'
p31
tp32
g4
(g8
S'\xca[T\x80\t\xbd\xc1?'
p33
tp34
Rp35
s(g20
S'bayanus'
p36
tp37
g4
(g8
S'\xff\x7f\x8b\xc6lv\xbe?'
p38
tp39
Rp40
s(g2
g20
tp41
g4
(g8
S'/U\x06J\xe8\x90\xd0?'
p42
tp43
Rp44
s(g2
S'castellii'
p45
tp46
g4
(g8
S'Gw\xd2:H\xcc\xdb?'
p47
tp48
Rp49
s(g14
S'paradoxus'
p50
tp51
g4
(g8
S'\x85(P\x1e\xe6\x96\xb3?'
p52
tp53
Rp54
s(g26
S'mikatae'
p55
tp56
g4
(g8
S'\x14\x98\x80S*+\xc3?'
p57
tp58
Rp59
s(g21
g26
tp60
g4
(g8
S'\xde\x17\xcd2\x1e\xd9\xaa?'
p61
tp62
Rp63
s(g1
S'kluyveri'
p64
tp65
g4
(g8
S'\xff\\\xe7\x10\xa1\xec\xc0?'
p66
tp67
Rp68
s.