(dp0
(S'N0'
p1
S'N1'
p2
tp3
cnumpy.core.multiarray
scalar
p4
(cnumpy
dtype
p5
(S'f8'
p6
I0
I1
tp7
Rp8
(I3
S'<'
p9
NNNI-1
I-1
I0
tp10
bS'\x03]:j\x9b\xb4\xd2?'
p11
tp12
Rp13
s(S'N5'
p14
S'cerevisiae'
p15
tp16
g4
(g8
S'\xd4\x1e*c\xba~\xb3?'
p17
tp18
Rp19
s(S'N2'
p20
S'N3'
p21
tp22
g4
(g8
S'F/w\xb7K\x80\xac?'
p23
tp24
Rp25
s(S'N4'
p26
g14
tp27
g4
(g8
S'L\xc11\xa8\r\xc2\xa5?'
p28
tp29
Rp30
s(g21
S'kudriavzevii'
p31
tp32
g4
(g8
S'\x96\xee\xd4\x91)\x8a\xbd?'
p33
tp34
Rp35
s(g20
S'bayanus'
p36
tp37
g4
(g8
S'u#[\x89K{\xb8?'
p38
tp39
Rp40
s(g2
g20
tp41
g4
(g8
S'@\xd1\xaf\x00KX\xce?'
p42
tp43
Rp44
s(g2
S'castellii'
p45
tp46
g4
(g8
S'H=\xc3\x9c[\xa6\xd8?'
p47
tp48
Rp49
s(g14
S'paradoxus'
p50
tp51
g4
(g8
S'M\xeb)\xeeGM\xb0?'
p52
tp53
Rp54
s(g26
S'mikatae'
p55
tp56
g4
(g8
S'\xbbl9k@\x03\xbf?'
p57
tp58
Rp59
s(g21
g26
tp60
g4
(g8
S'\x92q\xf8)/\xb5\xa6?'
p61
tp62
Rp63
s(g1
S'kluyveri'
p64
tp65
g4
(g8
S'I\x02}0\x98\xc2\xb1?'
p66
tp67
Rp68
s.