(iCodonBased2Repeats
Codon2RepeatsPhy
p0
(dp1
S'nbranch'
p2
I12
sS'Tao'
p3
F0.0
sS'SpecAfterDupli_node'
p4
S'N1'
p5
sS'tree_phy'
p6
ccopy_reg
_reconstructor
p7
(cBio.Phylo.PhyloXML
Phylogeny
p8
c__builtin__
object
p9
Ntp10
Rp11
(dp12
S'confidences'
p13
(lp14
sS'rerootable'
p15
NsS'clade_relations'
p16
(lp17
sS'rooted'
p18
S'True'
p19
sS'type'
p20
NsS'description'
p21
NsS'properties'
p22
(lp23
sS'branch_length_unit'
p24
NsS'other'
p25
(lp26
sS'date'
p27
NsS'sequence_relations'
p28
(lp29
sS'root'
p30
g7
(cBio.Phylo.PhyloXML
Clade
p31
g9
Ntp32
Rp33
(dp34
g13
(lp35
sS'branch_length'
p36
F1.0
sS'taxonomies'
p37
(lp38
sS'name'
p39
S'N0'
p40
sS'clades'
p41
(lp42
g7
(g31
g9
Ntp43
Rp44
(dp45
g13
(lp46
sg36
F1.0
sg37
(lp47
sg39
S'N1'
p48
sg41
(lp49
g7
(g31
g9
Ntp50
Rp51
(dp52
g13
(lp53
sg36
F1.0
sg37
(lp54
sg39
S'N2'
p55
sg41
(lp56
g7
(g31
g9
Ntp57
Rp58
(dp59
g13
(lp60
sg36
F1.0
sg37
(lp61
sg39
S'N3'
p62
sg41
(lp63
g7
(g31
g9
Ntp64
Rp65
(dp66
g13
(lp67
sg36
F1.0
sg37
(lp68
sg39
S'N4'
p69
sg41
(lp70
g7
(g31
g9
Ntp71
Rp72
(dp73
g13
(lp74
sg36
F1.0
sg37
(lp75
sg39
S'N5'
p76
sg41
(lp77
g7
(g31
g9
Ntp78
Rp79
(dp80
g13
(lp81
sg36
F1.0
sg37
(lp82
sg39
S'cerevisiae'
p83
sg41
(lp84
sg22
(lp85
sS'id_source'
p86
NsS'width'
p87
NsS'node_id'
p88
NsS'references'
p89
(lp90
sS'_color'
p91
NsS'sequences'
p92
(lp93
S'ATGTCCGGTAACGGTGCTCAAGGTACTAAGTTTAGAATCTCATTAGGTCTACCAGTCGGTGCCATCATGAACTGTGCTGACAACAGTGGTGCCAGAAACTTGTACATTATCGCCGTCAAAGGCTCTGGTTCCAGATTGAACAGATTGCCAGCCGCCTCTCTAGGTGATATGGTTATGGCCACCGTTAAGAAGGGTAAGCCAGAATTGAGAAAGAAGGTTATGCCAGCTATTGTTGTCCGTCAAGCTAAGTCTTGGAGAAGAAGAGACGGTGTCTTTTTGTACTTCGAAGACAATGCTGGTGTCATCGCTAATCCTAAGGGTGAAATGAAGGGTTCCGCCATCACTGGTCCAGTCGGTAAGGAATGTGCCGATTTATGGCCAAGAGTTGCATCTAACTCCGGTGTTGTTGTG'
p94
aS'ATGTCAGGTAACGGTGCTCAAGGTACAAAATTCAGAATTTCTTTAGGTTTACCAGTTGGTGCTATCATGAACTGTGCTGACAACAGTGGTGCCAGAAACTTGTACATCATTGCCGTCAAAGGTTCTGGTTCTAGATTGAACAGATTACCAGCCGCCTCTTTAGGTGACATGGTTATGGCCACTGTTAAAAAGGGTAAGCCAGAATTGAGAAAGAAGGTTATGCCAGCTATTGTTGTCCGTCAAGCTAAGTCTTGGAGAAGAAGAGACGGTGTCTTTTTGTACTTCGAGGACAATGCTGGTGTCATCGCTAATCCTAAGGGTGAAATGAAGGGTTCTGCCATTACTGGTCCAGTCGGTAAGGAATGTGCCGACTTATGGCCAAGAGTTGCTTCCAACTCTGGTGTTGTTGTT'
p95
asg27
Nsg25
(lp96
sS'binary_characters'
p97
NsS'distributions'
p98
(lp99
sS'events'
p100
Nsbag7
(g31
g9
Ntp101
Rp102
(dp103
g13
(lp104
sg36
F1.0
sg37
(lp105
sg39
S'paradoxus'
p106
sg41
(lp107
sg22
(lp108
sg86
Nsg87
Nsg88
Nsg89
(lp109
sg91
Nsg92
(lp110
S'ATGTCCGGTAACGGTGCTCAAGGTACTAAGTTTAGAATCTCATTAGGTCTACCAGTCGGTGCCATCATGAACTGTGCTGACAACAGTGGTGCTAGAAACTTGTACATTATTGCCGTCAAAGGTTCTGGTTCCAGATTGAACAGATTGCCAGCCGCCTCCCTAGGTGATATGGTTATGGCTACTGTTAAGAAGGGTAAGCCAGAATTAAGAAAGAAGGTTATGCCAGCAATCGTTGTTCGTCAAGCCAAGTCTTGGAGAAGAAGAGACGGTGTCTTCTTGTATTTCGAAGACAATGCTGGTGTCATCGCCAATCCAAAGGGTGAAATGAAGGGTTCAGCTATCACTGGTCCAGTCGGTAAAGAATGTGCCGATTTATGGCCAAGAGTTGCATCTAACTCCGGTGTTGTTGTG'
p111
aS'ATGTCAGGTAACGGTGCTCAAGGTACAAAATTCAGAATTTCTTTAGGTTTACCAGTTGGTGCCATCATGAACTGTGCTGACAACAGTGGTGCCAGAAACTTGTACATCATCGCCGTCAAAGGTTCTGGTTCTAGATTGAACAGATTACCAGCCGCCTCCTTAGGTGATATGGTTATGGCCACTGTTAAGAAGGGTAAGCCAGAATTGAGAAAGAAGGTTATGCCAGCTATTGTTGTCCGTCAAGCTAAGTCTTGGAGAAGAAGAGACGGTGTCTTTTTGTACTTCGAAGACAATGCTGGTGTCATCGCCAATCCTAAGGGTGAAATGAAGGGTTCCGCCATCACTGGTCCAGTCGGTAAGGAATGTGCCGACTTATGGCCAAGAGTTGCTTCCAACTCTGGTGTCGTTGTT'
p112
asg27
Nsg25
(lp113
sg97
Nsg98
(lp114
sg100
Nsbasg22
(lp115
sg86
Nsg87
Nsg88
Nsg89
(lp116
sg91
Nsg92
(lp117
sg27
Nsg25
(lp118
sg97
Nsg98
(lp119
sg100
Nsbag7
(g31
g9
Ntp120
Rp121
(dp122
g13
(lp123
sg36
F1.0
sg37
(lp124
sg39
S'mikatae'
p125
sg41
(lp126
sg22
(lp127
sg86
Nsg87
Nsg88
Nsg89
(lp128
sg91
Nsg92
(lp129
S'ATGTCCGGTAACGGTGCTCAAGGTACTAAGTTTAGAATCTCATTAGGTCTACCAGTCGGTGCCATCATGAACTGCGCTGACAACAGTGGTGCCAGAAACTTGTACATTATTGCCGTCAAGGGTTCTGGTTCCAGATTGAACAGATTGCCTGCCGCCTCCCTAGGTGATATGGTTATGGCCACTGTTAAGAAAGGTAAGCCAGAATTAAGAAAGAAGGTTATGCCAGCTATTGTTGTTCGTCAAGCCAAGTCCTGGAGAAGAAGGGATGGTGTCTTCTTGTATTTTGAAGACAATGCTGGTGTCATCGCCAATCCAAAGGGTGAAATGAAGGGTTCTGCTATTACCGGCCCAGTCGGTAAGGAATGTGCCGATTTGTGGCCAAGAGTTGCATCTAACTCCGGTGTCGTTGTG'
p130
aS'ATGTCAGGTAACGGTGCTCAAGGTACAAAATTCAGAATTTCTTTAGGTTTACCAGTTGGTGCCATCATGAACTGTGCTGACAACAGTGGTGCCAGAAACTTGTACATCATCGCAGTCAAAGGTTCTGGTTCTAGATTGAACAGATTGCCAGCTGCTTCTTTGGGTGACATGGTTATGGCCACTGTTAAGAAGGGTAAGCCAGAATTGAGAAAGAAGGTTATGCCAGCTATTGTCGTCCGTCAAGCTAAGTCTTGGAGAAGAAGAGACGGTGTCTTCTTGTACTTTGAAGACAATGCTGGTGTCATCGCCAATCCAAAGGGTGAAATGAAGGGTTCTGCCATCACTGGTCCAGTCGGTAAGGAATGTGCTGACTTATGGCCAAGAGTTGCTTCCAACTCTGGTGTTGTTGTT'
p131
asg27
Nsg25
(lp132
sg97
Nsg98
(lp133
sg100
Nsbasg22
(lp134
sg86
Nsg87
Nsg88
Nsg89
(lp135
sg91
Nsg92
(lp136
sg27
Nsg25
(lp137
sg97
Nsg98
(lp138
sg100
Nsbag7
(g31
g9
Ntp139
Rp140
(dp141
g13
(lp142
sg36
F1.0
sg37
(lp143
sg39
S'kudriavzevii'
p144
sg41
(lp145
sg22
(lp146
sg86
Nsg87
Nsg88
Nsg89
(lp147
sg91
Nsg92
(lp148
S'ATGTCTGGTAACGGTGCTCAAGGTACTAAGTTTAGAATTTCATTAGGTCTACCAGTCGGTGCCATCATGAACTGTGCTGACAACAGTGGTGCCAGAAACTTGTACGTTATTGCCGTCAAAGGTTCCGGCTCTAGATTGAACAGATTACCAGCCGCCTCCTTAGGTGATATGGTTATGGCCACTGTTAAAAAGGGTAAGCCAGAATTAAGAAAGAAGGTTATGCCAGCTATCGTTGTCCGTCAAGCCAAGTCCTGGAGAAGAAGGGACGGTGTCTTCTTGTACTTCGAAGATAACGCCGGTGTCATTGCCAATCCAAAGGGTGAAATGAAGGGTTCTGCCATCACTGGTCCAGTCGGTAAGGAATGTGCCGATTTATGGCCAAGAGTTGCATCCAACTCCGGTGTTGTTGTG'
p149
aS'ATGTCAGGTAACGGTGCTCAAGGTACAAAATTCAGAATTTCTTTAGGTTTACCAGTTGGTGCCATCATGAACTGTGCTGACAACAGTGGTGCCAGAAACTTGTACGTCATTGCCGTTAAAGGTTCTGGTTCTAGATTGAACAGATTACCAGCCGCTTCCTTAGGTGACATGGTTATGGCCACTGTTAAGAAAGGTAAGCCAGAATTGAGAAAGAAGGTTATGCCAGCTATTGTTGTCCGTCAAGCTAAGTCTTGGAGAAGAAGAGACGGTGTCTTTTTGTACTTCGAAGACAACGCTGGTGTTATCGCCAATCCAAAGGGTGAAATGAAGGGTTCTGCCATTACTGGTCCAGTCGGTAAGGAATGTGCCGACTTATGGCCAAGAGTTGCCTCCAACTCCGGTGTCGTTGTT'
p150
asg27
Nsg25
(lp151
sg97
Nsg98
(lp152
sg100
Nsbasg22
(lp153
sg86
Nsg87
Nsg88
Nsg89
(lp154
sg91
Nsg92
(lp155
sg27
Nsg25
(lp156
sg97
Nsg98
(lp157
sg100
Nsbag7
(g31
g9
Ntp158
Rp159
(dp160
g13
(lp161
sg36
F1.0
sg37
(lp162
sg39
S'bayanus'
p163
sg41
(lp164
sg22
(lp165
sg86
Nsg87
Nsg88
Nsg89
(lp166
sg91
Nsg92
(lp167
S'ATGTCCGGTAACGGTGCTCAAGGTACTAAGTTTAGAATTTCTTTAGGTCTACCAGTCGGTGCCATCATGAACTGTGCTGACAACAGTGGTGCCAGAAACTTGTACGTCATCGCCGTCAAAGGTTCTGGTTCCAGATTGAACAGATTGCCAGCCGCCTCTTTAGGTGATATGGTTATGGCCACTGTTAAGAAAGGTAAGCCAGAATTGAGAAAGAAGGTTATGCCAGCTATTGTTGTCCGTCAAGCTAAGTCTTGGAGAAGAAGAGACGGTGTCTTTTTGTACTTTGAAGACAATGCCGGTGTCATCGCCAACCCAAAGGGTGAAATGAAGGGTTCTGCCATCACTGGTCCAGTCGGTAAAGAATGTGCCGATTTGTGGCCAAGAGTTGCATCCAACTCCGGTGTTGTCGTG'
p168
aS'ATGTCAGGTAACGGTGCTCAAGGTACAAAATTCAGAATTTCTTTAGGTCTACCAGTCGGTGCCATCATGAACTGTGCTGACAACAGTGGTGCTAGAAACTTGTACGTCATTGCTGTCAAAGGTTCTGGTTCTAGATTAAACAGATTGCCAGCCGCCTCTTTAGGTGATATGGTTATGGCCACTGTTAAGAAAGGTAAGCCAGAATTGAGAAAGAAGGTTATGCCAGCTATTGTTGTCCGTCAAGCTAAGTCTTGGAGAAGAAGAGACGGTGTCTTTTTGTACTTCGAAGACAATGCCGGTGTCATCGCCAACCCAAAGGGTGAAATGAAGGGTTCTGCCATTACCGGTCCAGTCGGTAAGGAATGTGCCGATTTGTGGCCAAGAGTTGCTTCAAACTCCGGTGTTGTTGTT'
p169
asg27
Nsg25
(lp170
sg97
Nsg98
(lp171
sg100
Nsbasg22
(lp172
sg86
Nsg87
Nsg88
Nsg89
(lp173
sg91
Nsg92
(lp174
sg27
Nsg25
(lp175
sg97
Nsg98
(lp176
sg100
Nsbag7
(g31
g9
Ntp177
Rp178
(dp179
g13
(lp180
sg36
F1.0
sg37
(lp181
sg39
S'castellii'
p182
sg41
(lp183
sg22
(lp184
sg86
Nsg87
Nsg88
Nsg89
(lp185
sg91
Nsg92
(lp186
S'ATGTCAGGTAACGGTGCTCAAGGTACTAAATTCAGAATTTCTTTAGGTTTGCCAACCGGTGCTATCATGAACTGTGCCGATAACACTGGTGCTAGAAACTTGTACATCTTAGCTGTCAAGGGTTCTGGTTCTAGATTAAACAGATTGCCAGCTGCCTCCTTAGGTGATATGGTTATGGCCACTGTTAAGAAGGGTAAGCCAGAATTGAGAAAGAAGGTTATGCCAGCTATCGTTGTTCGTCAATCCAAGTCTTGGAGAAGAAAGGACGGTGTCTACTTATACTTTGAAGATAATGCTGGTGTCATTGCTAACCCAAAGGGTGAAATGAAGGGTTCTGCCATTACCGGTCCAGTTGGTAAGGAATGTGCCGATTTATGGCCAAGAGTTGCTTCCAACTCCGGTGTTGTTGTT'
p187
aS'ATGTCTGGTAACGGTGCTCAAGGTACAAAATTCAGAATTTCTTTAGGTCTACCAACTGGTGCCATCATGAACTGTGCTGATAACACAGGTGCTAGAAACTTGTACATCTTAGCTGTCAAGGGTTCTGGTTCCAGATTAAACAGATTGCCAGCTGCCTCTCTAGGTGATATGGTTATGGCTACCGTTAAGAAGGGTAAGCCAGAATTAAGAAAGAAGGTTATGCCAGCTATTGTTGTTCGTCAATCTAAGTCATGGAGAAGAAAGGACGGTGTCTACTTATATTTCGAAGATAATGCCGGTGTCATTGCTAACCCAAAGGGTGAAATGAAGGGTTCTGCCATTACTGGTCCAGTCGGTAAGGAATGTGCCGATTTATGGCCAAGAGTTGCTTCCAACTCCGGTGTTGTTGTG'
p188
asg27
Nsg25
(lp189
sg97
Nsg98
(lp190
sg100
Nsbasg22
(lp191
sg86
Nsg87
Nsg88
Nsg89
(lp192
sg91
Nsg92
(lp193
sg27
Nsg25
(lp194
sg97
Nsg98
(lp195
sg100
Nsbag7
(g31
g9
Ntp196
Rp197
(dp198
g13
(lp199
sg36
F1.0
sg37
(lp200
sg39
S'kluyveri'
p201
sg41
(lp202
sg22
(lp203
sg86
Nsg87
Nsg88
Nsg89
(lp204
sg91
Nsg92
(lp205
S'ATGTCCGGTAACGGTGCTCAAGGTACTAAATTCAGAATTTCTCTAGGTTTGCCAACTGGTGCCATCATGAACTGTGCTGACAACTCTGGTGCCAGAAACTTGTACATCTTGGCTGTCAAGGGTGTTGGTGCTAGATTGAACAGATTGCCAGCCGCTTCTTTGGGTGACATGGTTATGGCCACTGTCAAGAAGGGTAAGCCAGAATTGAGAAAGAAGGTTATGCCAGCTATCGTTGTTCGTCAAGCTAAGGCTTGGAGAAGAAAGGACGGTGTCTTCTTGTACTTTGAAGACAACGCTGGTGTCATTGCCAACCCTAAGGGTGAAATGAAGGGTTCCGCTATCACTGGTCCAGTCGGTAAGGAATGTGCTGACTTGTGGCCAAGAATTGCTTCCAACTCTGGTGTTGTTGTT'
p206
asg27
Nsg25
(lp207
sg97
Nsg98
(lp208
sg100
Nsbasg22
(lp209
sg86
Nsg87
Nsg88
Nsg89
(lp210
sg91
Nsg92
(lp211
sg27
Nsg25
(lp212
sg97
Nsg98
(lp213
sg100
NsbsS'id'
p214
Nsg39
NsbsS'para'
p215
(lp216
F0.441004121792
aF0.509937590681
aF0.399387485398
aF12.379723891
asS'err'
p217
F1e-10
sS'newicktree'
p218
S'./YeastTree.newick'
p219
sS'models'
p220
(dp221
S'HKY'
p222
I3
sS'F81'
p223
I2
sS'Codon'
p224
I6
sS'GTR'
p225
I4
sS'Codon_corrected'
p226
I7
sS'K80'
p227
I1
sS'Jukes-Cantor'
p228
I0
ssS'data'
p229
(dp230
(g144
S'YER117W'
p231
tp232
(lp233
S'ATG'
p234
aS'TCA'
p235
aS'GGT'
p236
aS'AAC'
p237
aS'GGT'
p238
aS'GCT'
p239
aS'CAA'
p240
aS'GGT'
p241
aS'ACA'
p242
aS'AAA'
p243
aS'TTC'
p244
aS'AGA'
p245
aS'ATT'
p246
aS'TCT'
p247
aS'TTA'
p248
aS'GGT'
p249
aS'TTA'
p250
aS'CCA'
p251
aS'GTT'
p252
aS'GGT'
p253
aS'GCC'
p254
aS'ATC'
p255
aS'ATG'
p256
aS'AAC'
p257
aS'TGT'
p258
aS'GCT'
p259
aS'GAC'
p260
aS'AAC'
p261
aS'AGT'
p262
aS'GGT'
p263
aS'GCC'
p264
aS'AGA'
p265
aS'AAC'
p266
aS'TTG'
p267
aS'TAC'
p268
aS'GTC'
p269
aS'ATT'
p270
aS'GCC'
p271
aS'GTT'
p272
aS'AAA'
p273
aS'GGT'
p274
aS'TCT'
p275
aS'GGT'
p276
aS'TCT'
p277
aS'AGA'
p278
aS'TTG'
p279
aS'AAC'
p280
aS'AGA'
p281
aS'TTA'
p282
aS'CCA'
p283
aS'GCC'
p284
aS'GCT'
p285
aS'TCC'
p286
aS'TTA'
p287
aS'GGT'
p288
aS'GAC'
p289
aS'ATG'
p290
aS'GTT'
p291
aS'ATG'
p292
aS'GCC'
p293
aS'ACT'
p294
aS'GTT'
p295
aS'AAG'
p296
aS'AAA'
p297
aS'GGT'
p298
aS'AAG'
p299
aS'CCA'
p300
aS'GAA'
p301
aS'TTG'
p302
aS'AGA'
p303
aS'AAG'
p304
aS'AAG'
p305
aS'GTT'
p306
aS'ATG'
p307
aS'CCA'
p308
aS'GCT'
p309
aS'ATT'
p310
aS'GTT'
p311
aS'GTC'
p312
aS'CGT'
p313
aS'CAA'
p314
aS'GCT'
p315
aS'AAG'
p316
aS'TCT'
p317
aS'TGG'
p318
aS'AGA'
p319
aS'AGA'
p320
aS'AGA'
p321
aS'GAC'
p322
aS'GGT'
p323
aS'GTC'
p324
aS'TTT'
p325
aS'TTG'
p326
aS'TAC'
p327
aS'TTC'
p328
aS'GAA'
p329
aS'GAC'
p330
aS'AAC'
p331
aS'GCT'
p332
aS'GGT'
p333
aS'GTT'
p334
aS'ATC'
p335
aS'GCC'
p336
aS'AAT'
p337
aS'CCA'
p338
aS'AAG'
p339
aS'GGT'
p340
aS'GAA'
p341
aS'ATG'
p342
aS'AAG'
p343
aS'GGT'
p344
aS'TCT'
p345
aS'GCC'
p346
aS'ATT'
p347
aS'ACT'
p348
aS'GGT'
p349
aS'CCA'
p350
aS'GTC'
p351
aS'GGT'
p352
aS'AAG'
p353
aS'GAA'
p354
aS'TGT'
p355
aS'GCC'
p356
aS'GAC'
p357
aS'TTA'
p358
aS'TGG'
p359
aS'CCA'
p360
aS'AGA'
p361
aS'GTT'
p362
aS'GCC'
p363
aS'TCC'
p364
aS'AAC'
p365
aS'TCC'
p366
aS'GGT'
p367
aS'GTC'
p368
aS'GTT'
p369
aS'GTT'
p370
as(g163
S'YBL087C'
p371
tp372
(lp373
S'ATG'
p374
aS'TCC'
p375
aS'GGT'
p376
aS'AAC'
p377
aS'GGT'
p378
aS'GCT'
p379
aS'CAA'
p380
aS'GGT'
p381
aS'ACT'
p382
aS'AAG'
p383
aS'TTT'
p384
aS'AGA'
p385
aS'ATT'
p386
aS'TCT'
p387
aS'TTA'
p388
aS'GGT'
p389
aS'CTA'
p390
aS'CCA'
p391
aS'GTC'
p392
aS'GGT'
p393
aS'GCC'
p394
aS'ATC'
p395
aS'ATG'
p396
aS'AAC'
p397
aS'TGT'
p398
aS'GCT'
p399
aS'GAC'
p400
aS'AAC'
p401
aS'AGT'
p402
aS'GGT'
p403
aS'GCC'
p404
aS'AGA'
p405
aS'AAC'
p406
aS'TTG'
p407
aS'TAC'
p408
aS'GTC'
p409
aS'ATC'
p410
aS'GCC'
p411
aS'GTC'
p412
aS'AAA'
p413
aS'GGT'
p414
aS'TCT'
p415
aS'GGT'
p416
aS'TCC'
p417
aS'AGA'
p418
aS'TTG'
p419
aS'AAC'
p420
aS'AGA'
p421
aS'TTG'
p422
aS'CCA'
p423
aS'GCC'
p424
aS'GCC'
p425
aS'TCT'
p426
aS'TTA'
p427
aS'GGT'
p428
aS'GAT'
p429
aS'ATG'
p430
aS'GTT'
p431
aS'ATG'
p432
aS'GCC'
p433
aS'ACT'
p434
aS'GTT'
p435
aS'AAG'
p436
aS'AAA'
p437
aS'GGT'
p438
aS'AAG'
p439
aS'CCA'
p440
aS'GAA'
p441
aS'TTG'
p442
aS'AGA'
p443
aS'AAG'
p444
aS'AAG'
p445
aS'GTT'
p446
aS'ATG'
p447
aS'CCA'
p448
aS'GCT'
p449
aS'ATT'
p450
aS'GTT'
p451
aS'GTC'
p452
aS'CGT'
p453
aS'CAA'
p454
aS'GCT'
p455
aS'AAG'
p456
aS'TCT'
p457
aS'TGG'
p458
aS'AGA'
p459
aS'AGA'
p460
aS'AGA'
p461
aS'GAC'
p462
aS'GGT'
p463
aS'GTC'
p464
aS'TTT'
p465
aS'TTG'
p466
aS'TAC'
p467
aS'TTT'
p468
aS'GAA'
p469
aS'GAC'
p470
aS'AAT'
p471
aS'GCC'
p472
aS'GGT'
p473
aS'GTC'
p474
aS'ATC'
p475
aS'GCC'
p476
aS'AAC'
p477
aS'CCA'
p478
aS'AAG'
p479
aS'GGT'
p480
aS'GAA'
p481
aS'ATG'
p482
aS'AAG'
p483
aS'GGT'
p484
aS'TCT'
p485
aS'GCC'
p486
aS'ATC'
p487
aS'ACT'
p488
aS'GGT'
p489
aS'CCA'
p490
aS'GTC'
p491
aS'GGT'
p492
aS'AAA'
p493
aS'GAA'
p494
aS'TGT'
p495
aS'GCC'
p496
aS'GAT'
p497
aS'TTG'
p498
aS'TGG'
p499
aS'CCA'
p500
aS'AGA'
p501
aS'GTT'
p502
aS'GCA'
p503
aS'TCC'
p504
aS'AAC'
p505
aS'TCC'
p506
aS'GGT'
p507
aS'GTT'
p508
aS'GTC'
p509
aS'GTG'
p510
as(g144
g371
tp511
(lp512
S'ATG'
p513
aS'TCT'
p514
aS'GGT'
p515
aS'AAC'
p516
aS'GGT'
p517
aS'GCT'
p518
aS'CAA'
p519
aS'GGT'
p520
aS'ACT'
p521
aS'AAG'
p522
aS'TTT'
p523
aS'AGA'
p524
aS'ATT'
p525
aS'TCA'
p526
aS'TTA'
p527
aS'GGT'
p528
aS'CTA'
p529
aS'CCA'
p530
aS'GTC'
p531
aS'GGT'
p532
aS'GCC'
p533
aS'ATC'
p534
aS'ATG'
p535
aS'AAC'
p536
aS'TGT'
p537
aS'GCT'
p538
aS'GAC'
p539
aS'AAC'
p540
aS'AGT'
p541
aS'GGT'
p542
aS'GCC'
p543
aS'AGA'
p544
aS'AAC'
p545
aS'TTG'
p546
aS'TAC'
p547
aS'GTT'
p548
aS'ATT'
p549
aS'GCC'
p550
aS'GTC'
p551
aS'AAA'
p552
aS'GGT'
p553
aS'TCC'
p554
aS'GGC'
p555
aS'TCT'
p556
aS'AGA'
p557
aS'TTG'
p558
aS'AAC'
p559
aS'AGA'
p560
aS'TTA'
p561
aS'CCA'
p562
aS'GCC'
p563
aS'GCC'
p564
aS'TCC'
p565
aS'TTA'
p566
aS'GGT'
p567
aS'GAT'
p568
aS'ATG'
p569
aS'GTT'
p570
aS'ATG'
p571
aS'GCC'
p572
aS'ACT'
p573
aS'GTT'
p574
aS'AAA'
p575
aS'AAG'
p576
aS'GGT'
p577
aS'AAG'
p578
aS'CCA'
p579
aS'GAA'
p580
aS'TTA'
p581
aS'AGA'
p582
aS'AAG'
p583
aS'AAG'
p584
aS'GTT'
p585
aS'ATG'
p586
aS'CCA'
p587
aS'GCT'
p588
aS'ATC'
p589
aS'GTT'
p590
aS'GTC'
p591
aS'CGT'
p592
aS'CAA'
p593
aS'GCC'
p594
aS'AAG'
p595
aS'TCC'
p596
aS'TGG'
p597
aS'AGA'
p598
aS'AGA'
p599
aS'AGG'
p600
aS'GAC'
p601
aS'GGT'
p602
aS'GTC'
p603
aS'TTC'
p604
aS'TTG'
p605
aS'TAC'
p606
aS'TTC'
p607
aS'GAA'
p608
aS'GAT'
p609
aS'AAC'
p610
aS'GCC'
p611
aS'GGT'
p612
aS'GTC'
p613
aS'ATT'
p614
aS'GCC'
p615
aS'AAT'
p616
aS'CCA'
p617
aS'AAG'
p618
aS'GGT'
p619
aS'GAA'
p620
aS'ATG'
p621
aS'AAG'
p622
aS'GGT'
p623
aS'TCT'
p624
aS'GCC'
p625
aS'ATC'
p626
aS'ACT'
p627
aS'GGT'
p628
aS'CCA'
p629
aS'GTC'
p630
aS'GGT'
p631
aS'AAG'
p632
aS'GAA'
p633
aS'TGT'
p634
aS'GCC'
p635
aS'GAT'
p636
aS'TTA'
p637
aS'TGG'
p638
aS'CCA'
p639
aS'AGA'
p640
aS'GTT'
p641
aS'GCA'
p642
aS'TCC'
p643
aS'AAC'
p644
aS'TCC'
p645
aS'GGT'
p646
aS'GTT'
p647
aS'GTT'
p648
aS'GTG'
p649
as(g163
g231
tp650
(lp651
S'ATG'
p652
aS'TCA'
p653
aS'GGT'
p654
aS'AAC'
p655
aS'GGT'
p656
aS'GCT'
p657
aS'CAA'
p658
aS'GGT'
p659
aS'ACA'
p660
aS'AAA'
p661
aS'TTC'
p662
aS'AGA'
p663
aS'ATT'
p664
aS'TCT'
p665
aS'TTA'
p666
aS'GGT'
p667
aS'CTA'
p668
aS'CCA'
p669
aS'GTC'
p670
aS'GGT'
p671
aS'GCC'
p672
aS'ATC'
p673
aS'ATG'
p674
aS'AAC'
p675
aS'TGT'
p676
aS'GCT'
p677
aS'GAC'
p678
aS'AAC'
p679
aS'AGT'
p680
aS'GGT'
p681
aS'GCT'
p682
aS'AGA'
p683
aS'AAC'
p684
aS'TTG'
p685
aS'TAC'
p686
aS'GTC'
p687
aS'ATT'
p688
aS'GCT'
p689
aS'GTC'
p690
aS'AAA'
p691
aS'GGT'
p692
aS'TCT'
p693
aS'GGT'
p694
aS'TCT'
p695
aS'AGA'
p696
aS'TTA'
p697
aS'AAC'
p698
aS'AGA'
p699
aS'TTG'
p700
aS'CCA'
p701
aS'GCC'
p702
aS'GCC'
p703
aS'TCT'
p704
aS'TTA'
p705
aS'GGT'
p706
aS'GAT'
p707
aS'ATG'
p708
aS'GTT'
p709
aS'ATG'
p710
aS'GCC'
p711
aS'ACT'
p712
aS'GTT'
p713
aS'AAG'
p714
aS'AAA'
p715
aS'GGT'
p716
aS'AAG'
p717
aS'CCA'
p718
aS'GAA'
p719
aS'TTG'
p720
aS'AGA'
p721
aS'AAG'
p722
aS'AAG'
p723
aS'GTT'
p724
aS'ATG'
p725
aS'CCA'
p726
aS'GCT'
p727
aS'ATT'
p728
aS'GTT'
p729
aS'GTC'
p730
aS'CGT'
p731
aS'CAA'
p732
aS'GCT'
p733
aS'AAG'
p734
aS'TCT'
p735
aS'TGG'
p736
aS'AGA'
p737
aS'AGA'
p738
aS'AGA'
p739
aS'GAC'
p740
aS'GGT'
p741
aS'GTC'
p742
aS'TTT'
p743
aS'TTG'
p744
aS'TAC'
p745
aS'TTC'
p746
aS'GAA'
p747
aS'GAC'
p748
aS'AAT'
p749
aS'GCC'
p750
aS'GGT'
p751
aS'GTC'
p752
aS'ATC'
p753
aS'GCC'
p754
aS'AAC'
p755
aS'CCA'
p756
aS'AAG'
p757
aS'GGT'
p758
aS'GAA'
p759
aS'ATG'
p760
aS'AAG'
p761
aS'GGT'
p762
aS'TCT'
p763
aS'GCC'
p764
aS'ATT'
p765
aS'ACC'
p766
aS'GGT'
p767
aS'CCA'
p768
aS'GTC'
p769
aS'GGT'
p770
aS'AAG'
p771
aS'GAA'
p772
aS'TGT'
p773
aS'GCC'
p774
aS'GAT'
p775
aS'TTG'
p776
aS'TGG'
p777
aS'CCA'
p778
aS'AGA'
p779
aS'GTT'
p780
aS'GCT'
p781
aS'TCA'
p782
aS'AAC'
p783
aS'TCC'
p784
aS'GGT'
p785
aS'GTT'
p786
aS'GTT'
p787
aS'GTT'
p788
as(g125
g231
tp789
(lp790
S'ATG'
p791
aS'TCA'
p792
aS'GGT'
p793
aS'AAC'
p794
aS'GGT'
p795
aS'GCT'
p796
aS'CAA'
p797
aS'GGT'
p798
aS'ACA'
p799
aS'AAA'
p800
aS'TTC'
p801
aS'AGA'
p802
aS'ATT'
p803
aS'TCT'
p804
aS'TTA'
p805
aS'GGT'
p806
aS'TTA'
p807
aS'CCA'
p808
aS'GTT'
p809
aS'GGT'
p810
aS'GCC'
p811
aS'ATC'
p812
aS'ATG'
p813
aS'AAC'
p814
aS'TGT'
p815
aS'GCT'
p816
aS'GAC'
p817
aS'AAC'
p818
aS'AGT'
p819
aS'GGT'
p820
aS'GCC'
p821
aS'AGA'
p822
aS'AAC'
p823
aS'TTG'
p824
aS'TAC'
p825
aS'ATC'
p826
aS'ATC'
p827
aS'GCA'
p828
aS'GTC'
p829
aS'AAA'
p830
aS'GGT'
p831
aS'TCT'
p832
aS'GGT'
p833
aS'TCT'
p834
aS'AGA'
p835
aS'TTG'
p836
aS'AAC'
p837
aS'AGA'
p838
aS'TTG'
p839
aS'CCA'
p840
aS'GCT'
p841
aS'GCT'
p842
aS'TCT'
p843
aS'TTG'
p844
aS'GGT'
p845
aS'GAC'
p846
aS'ATG'
p847
aS'GTT'
p848
aS'ATG'
p849
aS'GCC'
p850
aS'ACT'
p851
aS'GTT'
p852
aS'AAG'
p853
aS'AAG'
p854
aS'GGT'
p855
aS'AAG'
p856
aS'CCA'
p857
aS'GAA'
p858
aS'TTG'
p859
aS'AGA'
p860
aS'AAG'
p861
aS'AAG'
p862
aS'GTT'
p863
aS'ATG'
p864
aS'CCA'
p865
aS'GCT'
p866
aS'ATT'
p867
aS'GTC'
p868
aS'GTC'
p869
aS'CGT'
p870
aS'CAA'
p871
aS'GCT'
p872
aS'AAG'
p873
aS'TCT'
p874
aS'TGG'
p875
aS'AGA'
p876
aS'AGA'
p877
aS'AGA'
p878
aS'GAC'
p879
aS'GGT'
p880
aS'GTC'
p881
aS'TTC'
p882
aS'TTG'
p883
aS'TAC'
p884
aS'TTT'
p885
aS'GAA'
p886
aS'GAC'
p887
aS'AAT'
p888
aS'GCT'
p889
aS'GGT'
p890
aS'GTC'
p891
aS'ATC'
p892
aS'GCC'
p893
aS'AAT'
p894
aS'CCA'
p895
aS'AAG'
p896
aS'GGT'
p897
aS'GAA'
p898
aS'ATG'
p899
aS'AAG'
p900
aS'GGT'
p901
aS'TCT'
p902
aS'GCC'
p903
aS'ATC'
p904
aS'ACT'
p905
aS'GGT'
p906
aS'CCA'
p907
aS'GTC'
p908
aS'GGT'
p909
aS'AAG'
p910
aS'GAA'
p911
aS'TGT'
p912
aS'GCT'
p913
aS'GAC'
p914
aS'TTA'
p915
aS'TGG'
p916
aS'CCA'
p917
aS'AGA'
p918
aS'GTT'
p919
aS'GCT'
p920
aS'TCC'
p921
aS'AAC'
p922
aS'TCT'
p923
aS'GGT'
p924
aS'GTT'
p925
aS'GTT'
p926
aS'GTT'
p927
as(g201
g371
tp928
(lp929
S'ATG'
p930
aS'TCC'
p931
aS'GGT'
p932
aS'AAC'
p933
aS'GGT'
p934
aS'GCT'
p935
aS'CAA'
p936
aS'GGT'
p937
aS'ACT'
p938
aS'AAA'
p939
aS'TTC'
p940
aS'AGA'
p941
aS'ATT'
p942
aS'TCT'
p943
aS'CTA'
p944
aS'GGT'
p945
aS'TTG'
p946
aS'CCA'
p947
aS'ACT'
p948
aS'GGT'
p949
aS'GCC'
p950
aS'ATC'
p951
aS'ATG'
p952
aS'AAC'
p953
aS'TGT'
p954
aS'GCT'
p955
aS'GAC'
p956
aS'AAC'
p957
aS'TCT'
p958
aS'GGT'
p959
aS'GCC'
p960
aS'AGA'
p961
aS'AAC'
p962
aS'TTG'
p963
aS'TAC'
p964
aS'ATC'
p965
aS'TTG'
p966
aS'GCT'
p967
aS'GTC'
p968
aS'AAG'
p969
aS'GGT'
p970
aS'GTT'
p971
aS'GGT'
p972
aS'GCT'
p973
aS'AGA'
p974
aS'TTG'
p975
aS'AAC'
p976
aS'AGA'
p977
aS'TTG'
p978
aS'CCA'
p979
aS'GCC'
p980
aS'GCT'
p981
aS'TCT'
p982
aS'TTG'
p983
aS'GGT'
p984
aS'GAC'
p985
aS'ATG'
p986
aS'GTT'
p987
aS'ATG'
p988
aS'GCC'
p989
aS'ACT'
p990
aS'GTC'
p991
aS'AAG'
p992
aS'AAG'
p993
aS'GGT'
p994
aS'AAG'
p995
aS'CCA'
p996
aS'GAA'
p997
aS'TTG'
p998
aS'AGA'
p999
aS'AAG'
p1000
aS'AAG'
p1001
aS'GTT'
p1002
aS'ATG'
p1003
aS'CCA'
p1004
aS'GCT'
p1005
aS'ATC'
p1006
aS'GTT'
p1007
aS'GTT'
p1008
aS'CGT'
p1009
aS'CAA'
p1010
aS'GCT'
p1011
aS'AAG'
p1012
aS'GCT'
p1013
aS'TGG'
p1014
aS'AGA'
p1015
aS'AGA'
p1016
aS'AAG'
p1017
aS'GAC'
p1018
aS'GGT'
p1019
aS'GTC'
p1020
aS'TTC'
p1021
aS'TTG'
p1022
aS'TAC'
p1023
aS'TTT'
p1024
aS'GAA'
p1025
aS'GAC'
p1026
aS'AAC'
p1027
aS'GCT'
p1028
aS'GGT'
p1029
aS'GTC'
p1030
aS'ATT'
p1031
aS'GCC'
p1032
aS'AAC'
p1033
aS'CCT'
p1034
aS'AAG'
p1035
aS'GGT'
p1036
aS'GAA'
p1037
aS'ATG'
p1038
aS'AAG'
p1039
aS'GGT'
p1040
aS'TCC'
p1041
aS'GCT'
p1042
aS'ATC'
p1043
aS'ACT'
p1044
aS'GGT'
p1045
aS'CCA'
p1046
aS'GTC'
p1047
aS'GGT'
p1048
aS'AAG'
p1049
aS'GAA'
p1050
aS'TGT'
p1051
aS'GCT'
p1052
aS'GAC'
p1053
aS'TTG'
p1054
aS'TGG'
p1055
aS'CCA'
p1056
aS'AGA'
p1057
aS'ATT'
p1058
aS'GCT'
p1059
aS'TCC'
p1060
aS'AAC'
p1061
aS'TCT'
p1062
aS'GGT'
p1063
aS'GTT'
p1064
aS'GTT'
p1065
aS'GTT'
p1066
as(g106
g231
tp1067
(lp1068
S'ATG'
p1069
aS'TCA'
p1070
aS'GGT'
p1071
aS'AAC'
p1072
aS'GGT'
p1073
aS'GCT'
p1074
aS'CAA'
p1075
aS'GGT'
p1076
aS'ACA'
p1077
aS'AAA'
p1078
aS'TTC'
p1079
aS'AGA'
p1080
aS'ATT'
p1081
aS'TCT'
p1082
aS'TTA'
p1083
aS'GGT'
p1084
aS'TTA'
p1085
aS'CCA'
p1086
aS'GTT'
p1087
aS'GGT'
p1088
aS'GCC'
p1089
aS'ATC'
p1090
aS'ATG'
p1091
aS'AAC'
p1092
aS'TGT'
p1093
aS'GCT'
p1094
aS'GAC'
p1095
aS'AAC'
p1096
aS'AGT'
p1097
aS'GGT'
p1098
aS'GCC'
p1099
aS'AGA'
p1100
aS'AAC'
p1101
aS'TTG'
p1102
aS'TAC'
p1103
aS'ATC'
p1104
aS'ATC'
p1105
aS'GCC'
p1106
aS'GTC'
p1107
aS'AAA'
p1108
aS'GGT'
p1109
aS'TCT'
p1110
aS'GGT'
p1111
aS'TCT'
p1112
aS'AGA'
p1113
aS'TTG'
p1114
aS'AAC'
p1115
aS'AGA'
p1116
aS'TTA'
p1117
aS'CCA'
p1118
aS'GCC'
p1119
aS'GCC'
p1120
aS'TCC'
p1121
aS'TTA'
p1122
aS'GGT'
p1123
aS'GAT'
p1124
aS'ATG'
p1125
aS'GTT'
p1126
aS'ATG'
p1127
aS'GCC'
p1128
aS'ACT'
p1129
aS'GTT'
p1130
aS'AAG'
p1131
aS'AAG'
p1132
aS'GGT'
p1133
aS'AAG'
p1134
aS'CCA'
p1135
aS'GAA'
p1136
aS'TTG'
p1137
aS'AGA'
p1138
aS'AAG'
p1139
aS'AAG'
p1140
aS'GTT'
p1141
aS'ATG'
p1142
aS'CCA'
p1143
aS'GCT'
p1144
aS'ATT'
p1145
aS'GTT'
p1146
aS'GTC'
p1147
aS'CGT'
p1148
aS'CAA'
p1149
aS'GCT'
p1150
aS'AAG'
p1151
aS'TCT'
p1152
aS'TGG'
p1153
aS'AGA'
p1154
aS'AGA'
p1155
aS'AGA'
p1156
aS'GAC'
p1157
aS'GGT'
p1158
aS'GTC'
p1159
aS'TTT'
p1160
aS'TTG'
p1161
aS'TAC'
p1162
aS'TTC'
p1163
aS'GAA'
p1164
aS'GAC'
p1165
aS'AAT'
p1166
aS'GCT'
p1167
aS'GGT'
p1168
aS'GTC'
p1169
aS'ATC'
p1170
aS'GCC'
p1171
aS'AAT'
p1172
aS'CCT'
p1173
aS'AAG'
p1174
aS'GGT'
p1175
aS'GAA'
p1176
aS'ATG'
p1177
aS'AAG'
p1178
aS'GGT'
p1179
aS'TCC'
p1180
aS'GCC'
p1181
aS'ATC'
p1182
aS'ACT'
p1183
aS'GGT'
p1184
aS'CCA'
p1185
aS'GTC'
p1186
aS'GGT'
p1187
aS'AAG'
p1188
aS'GAA'
p1189
aS'TGT'
p1190
aS'GCC'
p1191
aS'GAC'
p1192
aS'TTA'
p1193
aS'TGG'
p1194
aS'CCA'
p1195
aS'AGA'
p1196
aS'GTT'
p1197
aS'GCT'
p1198
aS'TCC'
p1199
aS'AAC'
p1200
aS'TCT'
p1201
aS'GGT'
p1202
aS'GTC'
p1203
aS'GTT'
p1204
aS'GTT'
p1205
as(g83
g371
tp1206
(lp1207
S'ATG'
p1208
aS'TCC'
p1209
aS'GGT'
p1210
aS'AAC'
p1211
aS'GGT'
p1212
aS'GCT'
p1213
aS'CAA'
p1214
aS'GGT'
p1215
aS'ACT'
p1216
aS'AAG'
p1217
aS'TTT'
p1218
aS'AGA'
p1219
aS'ATC'
p1220
aS'TCA'
p1221
aS'TTA'
p1222
aS'GGT'
p1223
aS'CTA'
p1224
aS'CCA'
p1225
aS'GTC'
p1226
aS'GGT'
p1227
aS'GCC'
p1228
aS'ATC'
p1229
aS'ATG'
p1230
aS'AAC'
p1231
aS'TGT'
p1232
aS'GCT'
p1233
aS'GAC'
p1234
aS'AAC'
p1235
aS'AGT'
p1236
aS'GGT'
p1237
aS'GCC'
p1238
aS'AGA'
p1239
aS'AAC'
p1240
aS'TTG'
p1241
aS'TAC'
p1242
aS'ATT'
p1243
aS'ATC'
p1244
aS'GCC'
p1245
aS'GTC'
p1246
aS'AAA'
p1247
aS'GGC'
p1248
aS'TCT'
p1249
aS'GGT'
p1250
aS'TCC'
p1251
aS'AGA'
p1252
aS'TTG'
p1253
aS'AAC'
p1254
aS'AGA'
p1255
aS'TTG'
p1256
aS'CCA'
p1257
aS'GCC'
p1258
aS'GCC'
p1259
aS'TCT'
p1260
aS'CTA'
p1261
aS'GGT'
p1262
aS'GAT'
p1263
aS'ATG'
p1264
aS'GTT'
p1265
aS'ATG'
p1266
aS'GCC'
p1267
aS'ACC'
p1268
aS'GTT'
p1269
aS'AAG'
p1270
aS'AAG'
p1271
aS'GGT'
p1272
aS'AAG'
p1273
aS'CCA'
p1274
aS'GAA'
p1275
aS'TTG'
p1276
aS'AGA'
p1277
aS'AAG'
p1278
aS'AAG'
p1279
aS'GTT'
p1280
aS'ATG'
p1281
aS'CCA'
p1282
aS'GCT'
p1283
aS'ATT'
p1284
aS'GTT'
p1285
aS'GTC'
p1286
aS'CGT'
p1287
aS'CAA'
p1288
aS'GCT'
p1289
aS'AAG'
p1290
aS'TCT'
p1291
aS'TGG'
p1292
aS'AGA'
p1293
aS'AGA'
p1294
aS'AGA'
p1295
aS'GAC'
p1296
aS'GGT'
p1297
aS'GTC'
p1298
aS'TTT'
p1299
aS'TTG'
p1300
aS'TAC'
p1301
aS'TTC'
p1302
aS'GAA'
p1303
aS'GAC'
p1304
aS'AAT'
p1305
aS'GCT'
p1306
aS'GGT'
p1307
aS'GTC'
p1308
aS'ATC'
p1309
aS'GCT'
p1310
aS'AAT'
p1311
aS'CCT'
p1312
aS'AAG'
p1313
aS'GGT'
p1314
aS'GAA'
p1315
aS'ATG'
p1316
aS'AAG'
p1317
aS'GGT'
p1318
aS'TCC'
p1319
aS'GCC'
p1320
aS'ATC'
p1321
aS'ACT'
p1322
aS'GGT'
p1323
aS'CCA'
p1324
aS'GTC'
p1325
aS'GGT'
p1326
aS'AAG'
p1327
aS'GAA'
p1328
aS'TGT'
p1329
aS'GCC'
p1330
aS'GAT'
p1331
aS'TTA'
p1332
aS'TGG'
p1333
aS'CCA'
p1334
aS'AGA'
p1335
aS'GTT'
p1336
aS'GCA'
p1337
aS'TCT'
p1338
aS'AAC'
p1339
aS'TCC'
p1340
aS'GGT'
p1341
aS'GTT'
p1342
aS'GTT'
p1343
aS'GTG'
p1344
as(g201
g231
tp1345
g929
s(g83
g231
tp1346
(lp1347
S'ATG'
p1348
aS'TCA'
p1349
aS'GGT'
p1350
aS'AAC'
p1351
aS'GGT'
p1352
aS'GCT'
p1353
aS'CAA'
p1354
aS'GGT'
p1355
aS'ACA'
p1356
aS'AAA'
p1357
aS'TTC'
p1358
aS'AGA'
p1359
aS'ATT'
p1360
aS'TCT'
p1361
aS'TTA'
p1362
aS'GGT'
p1363
aS'TTA'
p1364
aS'CCA'
p1365
aS'GTT'
p1366
aS'GGT'
p1367
aS'GCT'
p1368
aS'ATC'
p1369
aS'ATG'
p1370
aS'AAC'
p1371
aS'TGT'
p1372
aS'GCT'
p1373
aS'GAC'
p1374
aS'AAC'
p1375
aS'AGT'
p1376
aS'GGT'
p1377
aS'GCC'
p1378
aS'AGA'
p1379
aS'AAC'
p1380
aS'TTG'
p1381
aS'TAC'
p1382
aS'ATC'
p1383
aS'ATT'
p1384
aS'GCC'
p1385
aS'GTC'
p1386
aS'AAA'
p1387
aS'GGT'
p1388
aS'TCT'
p1389
aS'GGT'
p1390
aS'TCT'
p1391
aS'AGA'
p1392
aS'TTG'
p1393
aS'AAC'
p1394
aS'AGA'
p1395
aS'TTA'
p1396
aS'CCA'
p1397
aS'GCC'
p1398
aS'GCC'
p1399
aS'TCT'
p1400
aS'TTA'
p1401
aS'GGT'
p1402
aS'GAC'
p1403
aS'ATG'
p1404
aS'GTT'
p1405
aS'ATG'
p1406
aS'GCC'
p1407
aS'ACT'
p1408
aS'GTT'
p1409
aS'AAA'
p1410
aS'AAG'
p1411
aS'GGT'
p1412
aS'AAG'
p1413
aS'CCA'
p1414
aS'GAA'
p1415
aS'TTG'
p1416
aS'AGA'
p1417
aS'AAG'
p1418
aS'AAG'
p1419
aS'GTT'
p1420
aS'ATG'
p1421
aS'CCA'
p1422
aS'GCT'
p1423
aS'ATT'
p1424
aS'GTT'
p1425
aS'GTC'
p1426
aS'CGT'
p1427
aS'CAA'
p1428
aS'GCT'
p1429
aS'AAG'
p1430
aS'TCT'
p1431
aS'TGG'
p1432
aS'AGA'
p1433
aS'AGA'
p1434
aS'AGA'
p1435
aS'GAC'
p1436
aS'GGT'
p1437
aS'GTC'
p1438
aS'TTT'
p1439
aS'TTG'
p1440
aS'TAC'
p1441
aS'TTC'
p1442
aS'GAG'
p1443
aS'GAC'
p1444
aS'AAT'
p1445
aS'GCT'
p1446
aS'GGT'
p1447
aS'GTC'
p1448
aS'ATC'
p1449
aS'GCT'
p1450
aS'AAT'
p1451
aS'CCT'
p1452
aS'AAG'
p1453
aS'GGT'
p1454
aS'GAA'
p1455
aS'ATG'
p1456
aS'AAG'
p1457
aS'GGT'
p1458
aS'TCT'
p1459
aS'GCC'
p1460
aS'ATT'
p1461
aS'ACT'
p1462
aS'GGT'
p1463
aS'CCA'
p1464
aS'GTC'
p1465
aS'GGT'
p1466
aS'AAG'
p1467
aS'GAA'
p1468
aS'TGT'
p1469
aS'GCC'
p1470
aS'GAC'
p1471
aS'TTA'
p1472
aS'TGG'
p1473
aS'CCA'
p1474
aS'AGA'
p1475
aS'GTT'
p1476
aS'GCT'
p1477
aS'TCC'
p1478
aS'AAC'
p1479
aS'TCT'
p1480
aS'GGT'
p1481
aS'GTT'
p1482
aS'GTT'
p1483
aS'GTT'
p1484
as(g182
g231
tp1485
(lp1486
S'ATG'
p1487
aS'TCT'
p1488
aS'GGT'
p1489
aS'AAC'
p1490
aS'GGT'
p1491
aS'GCT'
p1492
aS'CAA'
p1493
aS'GGT'
p1494
aS'ACA'
p1495
aS'AAA'
p1496
aS'TTC'
p1497
aS'AGA'
p1498
aS'ATT'
p1499
aS'TCT'
p1500
aS'TTA'
p1501
aS'GGT'
p1502
aS'CTA'
p1503
aS'CCA'
p1504
aS'ACT'
p1505
aS'GGT'
p1506
aS'GCC'
p1507
aS'ATC'
p1508
aS'ATG'
p1509
aS'AAC'
p1510
aS'TGT'
p1511
aS'GCT'
p1512
aS'GAT'
p1513
aS'AAC'
p1514
aS'ACA'
p1515
aS'GGT'
p1516
aS'GCT'
p1517
aS'AGA'
p1518
aS'AAC'
p1519
aS'TTG'
p1520
aS'TAC'
p1521
aS'ATC'
p1522
aS'TTA'
p1523
aS'GCT'
p1524
aS'GTC'
p1525
aS'AAG'
p1526
aS'GGT'
p1527
aS'TCT'
p1528
aS'GGT'
p1529
aS'TCC'
p1530
aS'AGA'
p1531
aS'TTA'
p1532
aS'AAC'
p1533
aS'AGA'
p1534
aS'TTG'
p1535
aS'CCA'
p1536
aS'GCT'
p1537
aS'GCC'
p1538
aS'TCT'
p1539
aS'CTA'
p1540
aS'GGT'
p1541
aS'GAT'
p1542
aS'ATG'
p1543
aS'GTT'
p1544
aS'ATG'
p1545
aS'GCT'
p1546
aS'ACC'
p1547
aS'GTT'
p1548
aS'AAG'
p1549
aS'AAG'
p1550
aS'GGT'
p1551
aS'AAG'
p1552
aS'CCA'
p1553
aS'GAA'
p1554
aS'TTA'
p1555
aS'AGA'
p1556
aS'AAG'
p1557
aS'AAG'
p1558
aS'GTT'
p1559
aS'ATG'
p1560
aS'CCA'
p1561
aS'GCT'
p1562
aS'ATT'
p1563
aS'GTT'
p1564
aS'GTT'
p1565
aS'CGT'
p1566
aS'CAA'
p1567
aS'TCT'
p1568
aS'AAG'
p1569
aS'TCA'
p1570
aS'TGG'
p1571
aS'AGA'
p1572
aS'AGA'
p1573
aS'AAG'
p1574
aS'GAC'
p1575
aS'GGT'
p1576
aS'GTC'
p1577
aS'TAC'
p1578
aS'TTA'
p1579
aS'TAT'
p1580
aS'TTC'
p1581
aS'GAA'
p1582
aS'GAT'
p1583
aS'AAT'
p1584
aS'GCC'
p1585
aS'GGT'
p1586
aS'GTC'
p1587
aS'ATT'
p1588
aS'GCT'
p1589
aS'AAC'
p1590
aS'CCA'
p1591
aS'AAG'
p1592
aS'GGT'
p1593
aS'GAA'
p1594
aS'ATG'
p1595
aS'AAG'
p1596
aS'GGT'
p1597
aS'TCT'
p1598
aS'GCC'
p1599
aS'ATT'
p1600
aS'ACT'
p1601
aS'GGT'
p1602
aS'CCA'
p1603
aS'GTC'
p1604
aS'GGT'
p1605
aS'AAG'
p1606
aS'GAA'
p1607
aS'TGT'
p1608
aS'GCC'
p1609
aS'GAT'
p1610
aS'TTA'
p1611
aS'TGG'
p1612
aS'CCA'
p1613
aS'AGA'
p1614
aS'GTT'
p1615
aS'GCT'
p1616
aS'TCC'
p1617
aS'AAC'
p1618
aS'TCC'
p1619
aS'GGT'
p1620
aS'GTT'
p1621
aS'GTT'
p1622
aS'GTG'
p1623
as(g106
g371
tp1624
(lp1625
S'ATG'
p1626
aS'TCC'
p1627
aS'GGT'
p1628
aS'AAC'
p1629
aS'GGT'
p1630
aS'GCT'
p1631
aS'CAA'
p1632
aS'GGT'
p1633
aS'ACT'
p1634
aS'AAG'
p1635
aS'TTT'
p1636
aS'AGA'
p1637
aS'ATC'
p1638
aS'TCA'
p1639
aS'TTA'
p1640
aS'GGT'
p1641
aS'CTA'
p1642
aS'CCA'
p1643
aS'GTC'
p1644
aS'GGT'
p1645
aS'GCC'
p1646
aS'ATC'
p1647
aS'ATG'
p1648
aS'AAC'
p1649
aS'TGT'
p1650
aS'GCT'
p1651
aS'GAC'
p1652
aS'AAC'
p1653
aS'AGT'
p1654
aS'GGT'
p1655
aS'GCT'
p1656
aS'AGA'
p1657
aS'AAC'
p1658
aS'TTG'
p1659
aS'TAC'
p1660
aS'ATT'
p1661
aS'ATT'
p1662
aS'GCC'
p1663
aS'GTC'
p1664
aS'AAA'
p1665
aS'GGT'
p1666
aS'TCT'
p1667
aS'GGT'
p1668
aS'TCC'
p1669
aS'AGA'
p1670
aS'TTG'
p1671
aS'AAC'
p1672
aS'AGA'
p1673
aS'TTG'
p1674
aS'CCA'
p1675
aS'GCC'
p1676
aS'GCC'
p1677
aS'TCC'
p1678
aS'CTA'
p1679
aS'GGT'
p1680
aS'GAT'
p1681
aS'ATG'
p1682
aS'GTT'
p1683
aS'ATG'
p1684
aS'GCT'
p1685
aS'ACT'
p1686
aS'GTT'
p1687
aS'AAG'
p1688
aS'AAG'
p1689
aS'GGT'
p1690
aS'AAG'
p1691
aS'CCA'
p1692
aS'GAA'
p1693
aS'TTA'
p1694
aS'AGA'
p1695
aS'AAG'
p1696
aS'AAG'
p1697
aS'GTT'
p1698
aS'ATG'
p1699
aS'CCA'
p1700
aS'GCA'
p1701
aS'ATC'
p1702
aS'GTT'
p1703
aS'GTT'
p1704
aS'CGT'
p1705
aS'CAA'
p1706
aS'GCC'
p1707
aS'AAG'
p1708
aS'TCT'
p1709
aS'TGG'
p1710
aS'AGA'
p1711
aS'AGA'
p1712
aS'AGA'
p1713
aS'GAC'
p1714
aS'GGT'
p1715
aS'GTC'
p1716
aS'TTC'
p1717
aS'TTG'
p1718
aS'TAT'
p1719
aS'TTC'
p1720
aS'GAA'
p1721
aS'GAC'
p1722
aS'AAT'
p1723
aS'GCT'
p1724
aS'GGT'
p1725
aS'GTC'
p1726
aS'ATC'
p1727
aS'GCC'
p1728
aS'AAT'
p1729
aS'CCA'
p1730
aS'AAG'
p1731
aS'GGT'
p1732
aS'GAA'
p1733
aS'ATG'
p1734
aS'AAG'
p1735
aS'GGT'
p1736
aS'TCA'
p1737
aS'GCT'
p1738
aS'ATC'
p1739
aS'ACT'
p1740
aS'GGT'
p1741
aS'CCA'
p1742
aS'GTC'
p1743
aS'GGT'
p1744
aS'AAA'
p1745
aS'GAA'
p1746
aS'TGT'
p1747
aS'GCC'
p1748
aS'GAT'
p1749
aS'TTA'
p1750
aS'TGG'
p1751
aS'CCA'
p1752
aS'AGA'
p1753
aS'GTT'
p1754
aS'GCA'
p1755
aS'TCT'
p1756
aS'AAC'
p1757
aS'TCC'
p1758
aS'GGT'
p1759
aS'GTT'
p1760
aS'GTT'
p1761
aS'GTG'
p1762
as(g182
g371
tp1763
(lp1764
S'ATG'
p1765
aS'TCA'
p1766
aS'GGT'
p1767
aS'AAC'
p1768
aS'GGT'
p1769
aS'GCT'
p1770
aS'CAA'
p1771
aS'GGT'
p1772
aS'ACT'
p1773
aS'AAA'
p1774
aS'TTC'
p1775
aS'AGA'
p1776
aS'ATT'
p1777
aS'TCT'
p1778
aS'TTA'
p1779
aS'GGT'
p1780
aS'TTG'
p1781
aS'CCA'
p1782
aS'ACC'
p1783
aS'GGT'
p1784
aS'GCT'
p1785
aS'ATC'
p1786
aS'ATG'
p1787
aS'AAC'
p1788
aS'TGT'
p1789
aS'GCC'
p1790
aS'GAT'
p1791
aS'AAC'
p1792
aS'ACT'
p1793
aS'GGT'
p1794
aS'GCT'
p1795
aS'AGA'
p1796
aS'AAC'
p1797
aS'TTG'
p1798
aS'TAC'
p1799
aS'ATC'
p1800
aS'TTA'
p1801
aS'GCT'
p1802
aS'GTC'
p1803
aS'AAG'
p1804
aS'GGT'
p1805
aS'TCT'
p1806
aS'GGT'
p1807
aS'TCT'
p1808
aS'AGA'
p1809
aS'TTA'
p1810
aS'AAC'
p1811
aS'AGA'
p1812
aS'TTG'
p1813
aS'CCA'
p1814
aS'GCT'
p1815
aS'GCC'
p1816
aS'TCC'
p1817
aS'TTA'
p1818
aS'GGT'
p1819
aS'GAT'
p1820
aS'ATG'
p1821
aS'GTT'
p1822
aS'ATG'
p1823
aS'GCC'
p1824
aS'ACT'
p1825
aS'GTT'
p1826
aS'AAG'
p1827
aS'AAG'
p1828
aS'GGT'
p1829
aS'AAG'
p1830
aS'CCA'
p1831
aS'GAA'
p1832
aS'TTG'
p1833
aS'AGA'
p1834
aS'AAG'
p1835
aS'AAG'
p1836
aS'GTT'
p1837
aS'ATG'
p1838
aS'CCA'
p1839
aS'GCT'
p1840
aS'ATC'
p1841
aS'GTT'
p1842
aS'GTT'
p1843
aS'CGT'
p1844
aS'CAA'
p1845
aS'TCC'
p1846
aS'AAG'
p1847
aS'TCT'
p1848
aS'TGG'
p1849
aS'AGA'
p1850
aS'AGA'
p1851
aS'AAG'
p1852
aS'GAC'
p1853
aS'GGT'
p1854
aS'GTC'
p1855
aS'TAC'
p1856
aS'TTA'
p1857
aS'TAC'
p1858
aS'TTT'
p1859
aS'GAA'
p1860
aS'GAT'
p1861
aS'AAT'
p1862
aS'GCT'
p1863
aS'GGT'
p1864
aS'GTC'
p1865
aS'ATT'
p1866
aS'GCT'
p1867
aS'AAC'
p1868
aS'CCA'
p1869
aS'AAG'
p1870
aS'GGT'
p1871
aS'GAA'
p1872
aS'ATG'
p1873
aS'AAG'
p1874
aS'GGT'
p1875
aS'TCT'
p1876
aS'GCC'
p1877
aS'ATT'
p1878
aS'ACC'
p1879
aS'GGT'
p1880
aS'CCA'
p1881
aS'GTT'
p1882
aS'GGT'
p1883
aS'AAG'
p1884
aS'GAA'
p1885
aS'TGT'
p1886
aS'GCC'
p1887
aS'GAT'
p1888
aS'TTA'
p1889
aS'TGG'
p1890
aS'CCA'
p1891
aS'AGA'
p1892
aS'GTT'
p1893
aS'GCT'
p1894
aS'TCC'
p1895
aS'AAC'
p1896
aS'TCC'
p1897
aS'GGT'
p1898
aS'GTT'
p1899
aS'GTT'
p1900
aS'GTT'
p1901
as(g125
g371
tp1902
(lp1903
S'ATG'
p1904
aS'TCC'
p1905
aS'GGT'
p1906
aS'AAC'
p1907
aS'GGT'
p1908
aS'GCT'
p1909
aS'CAA'
p1910
aS'GGT'
p1911
aS'ACT'
p1912
aS'AAG'
p1913
aS'TTT'
p1914
aS'AGA'
p1915
aS'ATC'
p1916
aS'TCA'
p1917
aS'TTA'
p1918
aS'GGT'
p1919
aS'CTA'
p1920
aS'CCA'
p1921
aS'GTC'
p1922
aS'GGT'
p1923
aS'GCC'
p1924
aS'ATC'
p1925
aS'ATG'
p1926
aS'AAC'
p1927
aS'TGC'
p1928
aS'GCT'
p1929
aS'GAC'
p1930
aS'AAC'
p1931
aS'AGT'
p1932
aS'GGT'
p1933
aS'GCC'
p1934
aS'AGA'
p1935
aS'AAC'
p1936
aS'TTG'
p1937
aS'TAC'
p1938
aS'ATT'
p1939
aS'ATT'
p1940
aS'GCC'
p1941
aS'GTC'
p1942
aS'AAG'
p1943
aS'GGT'
p1944
aS'TCT'
p1945
aS'GGT'
p1946
aS'TCC'
p1947
aS'AGA'
p1948
aS'TTG'
p1949
aS'AAC'
p1950
aS'AGA'
p1951
aS'TTG'
p1952
aS'CCT'
p1953
aS'GCC'
p1954
aS'GCC'
p1955
aS'TCC'
p1956
aS'CTA'
p1957
aS'GGT'
p1958
aS'GAT'
p1959
aS'ATG'
p1960
aS'GTT'
p1961
aS'ATG'
p1962
aS'GCC'
p1963
aS'ACT'
p1964
aS'GTT'
p1965
aS'AAG'
p1966
aS'AAA'
p1967
aS'GGT'
p1968
aS'AAG'
p1969
aS'CCA'
p1970
aS'GAA'
p1971
aS'TTA'
p1972
aS'AGA'
p1973
aS'AAG'
p1974
aS'AAG'
p1975
aS'GTT'
p1976
aS'ATG'
p1977
aS'CCA'
p1978
aS'GCT'
p1979
aS'ATT'
p1980
aS'GTT'
p1981
aS'GTT'
p1982
aS'CGT'
p1983
aS'CAA'
p1984
aS'GCC'
p1985
aS'AAG'
p1986
aS'TCC'
p1987
aS'TGG'
p1988
aS'AGA'
p1989
aS'AGA'
p1990
aS'AGG'
p1991
aS'GAT'
p1992
aS'GGT'
p1993
aS'GTC'
p1994
aS'TTC'
p1995
aS'TTG'
p1996
aS'TAT'
p1997
aS'TTT'
p1998
aS'GAA'
p1999
aS'GAC'
p2000
aS'AAT'
p2001
aS'GCT'
p2002
aS'GGT'
p2003
aS'GTC'
p2004
aS'ATC'
p2005
aS'GCC'
p2006
aS'AAT'
p2007
aS'CCA'
p2008
aS'AAG'
p2009
aS'GGT'
p2010
aS'GAA'
p2011
aS'ATG'
p2012
aS'AAG'
p2013
aS'GGT'
p2014
aS'TCT'
p2015
aS'GCT'
p2016
aS'ATT'
p2017
aS'ACC'
p2018
aS'GGC'
p2019
aS'CCA'
p2020
aS'GTC'
p2021
aS'GGT'
p2022
aS'AAG'
p2023
aS'GAA'
p2024
aS'TGT'
p2025
aS'GCC'
p2026
aS'GAT'
p2027
aS'TTG'
p2028
aS'TGG'
p2029
aS'CCA'
p2030
aS'AGA'
p2031
aS'GTT'
p2032
aS'GCA'
p2033
aS'TCT'
p2034
aS'AAC'
p2035
aS'TCC'
p2036
aS'GGT'
p2037
aS'GTC'
p2038
aS'GTT'
p2039
aS'GTG'
p2040
assS'duplication_node'
p2041
S'N0'
p2042
sS'nsites'
p2043
I411
sS'root_branch'
p2044
(g30
S'kluyveri'
p2045
tp2046
sS'nleaf'
p2047
I7
sS'modelnum'
p2048
I3
sS'paralog'
p2049
(lp2050
g371
ag231
asS'treetopo'
p2051
g7
(cnetworkx.classes.digraph
DiGraph
p2052
g9
Ntp2053
Rp2054
(dp2055
S'node'
p2056
(dp2057
g30
(dp2058
sg182
(dp2059
sg125
(dp2060
sg69
(dp2061
sg201
(dp2062
sg106
(dp2063
sg144
(dp2064
sg163
(dp2065
sg40
(dp2066
sg48
(dp2067
sg55
(dp2068
sg62
(dp2069
sg83
(dp2070
sg76
(dp2071
ssS'graph'
p2072
(dp2073
sS'succ'
p2074
(dp2075
g30
(dp2076
g2042
(dp2077
sg2045
(dp2078
ssg182
(dp2079
sg125
(dp2080
sg69
(dp2081
g76
(dp2082
sg125
(dp2083
ssg201
(dp2084
sg106
(dp2085
sg144
(dp2086
sg163
(dp2087
sg40
(dp2088
g48
(dp2089
ssg48
(dp2090
g55
(dp2091
sg182
(dp2092
ssg55
(dp2093
g62
(dp2094
sg163
(dp2095
ssg62
(dp2096
g69
(dp2097
sg144
(dp2098
ssg83
(dp2099
sg76
(dp2100
g83
(dp2101
sg106
(dp2102
sssS'edge'
p2103
g2075
sS'pred'
p2104
(dp2105
g30
(dp2106
sg182
(dp2107
g48
g2092
ssg125
(dp2108
g69
g2083
ssg69
(dp2109
g62
g2097
ssg201
(dp2110
g30
g2078
ssg106
(dp2111
g76
g2102
ssg144
(dp2112
g62
g2098
ssg163
(dp2113
g55
g2095
ssg40
(dp2114
g30
g2077
ssg48
(dp2115
g40
g2089
ssg55
(dp2116
g48
g2091
ssg62
(dp2117
g55
g2094
ssg83
(dp2118
g76
g2101
ssg76
(dp2119
g69
g2082
sssS'adj'
p2120
g2075
sbsS'seqloc'
p2121
S'./YBL087C_YER117W/YBL087C_YER117W_input.fasta'
p2122
sS'blen'
p2123
(lp2124
F0.00504917074219
aF0.016864104496
aF0.0106802828314
aF0.060699202757
aF0.00319606132778
aF0.0547175116442
aF0.0501659187677
aF0.0239884418322
aF0.0281729189372
aF0.016864104496
aF0.00674732261138
aF0.0221749276748
aF0.00598169111277
asg30
g30
sS'edge_to_blen'
p2125
(dp2126
(g48
g55
tp2127
F0.00504917074219
s(g76
g83
tp2128
F0.016864104496
s(g55
g62
tp2129
F0.0106802828314
s(g30
g2045
tp2130
F0.060699202757
s(g69
g76
tp2131
F0.00319606132778
s(g48
g182
tp2132
F0.0547175116442
s(g55
g163
tp2133
F0.0501659187677
s(g40
g48
tp2134
F0.0239884418322
s(g62
g144
tp2135
F0.0281729189372
s(g76
g106
tp2136
F0.016864104496
s(g62
g69
tp2137
F0.00674732261138
s(g69
g125
tp2138
F0.0221749276748
s(g30
g2042
tp2139
F0.00598169111277
ssb.