(dp0
S'Force'
p1
NsS'ExpectedGeneconv'
p2
(dp3
(S'N0'
p4
S'N1'
p5
tp6
(lp7
F0.617090934048979
aF0.06446658546773446
as(g5
S'Carp'
p8
tp9
(lp10
F19.099950203153497
aF1.9966382006724972
as(g4
S'Gar'
p11
tp12
(lp13
F0.0
aF0.0
as(g5
S'Zebrafish'
p14
tp15
(lp16
F22.07614460828457
aF2.3048800778186167
assS'ExpectedDwellTime'
p17
(dp18
g6
F2.4226456639876823
sg9
F9.096010380384442
sg12
F0.0
sg15
F8.609561356662823
ssS'newicktree'
p19
S'./ZebraFish/FishTree.newick'
p20
sS'll'
p21
cnumpy.core.multiarray
scalar
p22
(cnumpy
dtype
p23
(S'f8'
p24
I0
I1
tp25
Rp26
(I3
S'<'
p27
NNNI-1
I-1
I0
tp28
bS'\x1a\xac\xe97c5\x81\xc0'
p29
tp30
Rp31
sS'edge_list'
p32
(lp33
g6
ag12
ag9
ag15
asS'edge_to_blen'
p34
(dp35
g6
g22
(g26
S'\x950\x0bY\x00\xd4\x80?'
p36
tp37
Rp38
sg9
g22
(g26
S'\x16\x8dj_\xbd\x0c\xb2?'
p39
tp40
Rp41
sg12
g22
(g26
S'\xbd\x15\r\x93\xbbs\xdd?'
p42
tp43
Rp44
sg15
g22
(g26
S'\x8a\xe0\xbb\x03\xf8O\xb4?'
p45
tp46
Rp47
ssS'paralog'
p48
(lp49
S'TLR5a'
p50
aS'TLR5b'
p51
asS'alignment_file'
p52
S'./ZebraFish/TLR5a_TLR5b_input.fasta'
p53
sS'x_clock'
p54
NsS'x'
p55
cnumpy.core.multiarray
_reconstruct
p56
(cnumpy
ndarray
p57
(I0
tp58
S'b'
p59
tp60
Rp61
(I1
(I10
tp62
g26
I00
S'\x15\x88\x14\xb7\xb7w\xe8\xbf\xa2\xdd\x168"\x15\xe4\xbf\xb5*9\x84$\xdd\xea\xbf\xd1A\xf4\xc1s\xd1\xf8?|Y\xfe\xf1\x14\x85\x10@\xc5=~\x95\xff\xef\xfd?\xb4\x98\xf4\xff\xcd4\x13\xc0\xca$\xe5\x7f\xf6\xd5\xe8\xbfS;\xcdCc7\x05\xc0\x8e\x8a\xf0\xfe\x85E\x04\xc0'
p63
tp64
bsS'Model'
p65
S'HKY'
p66
sS'clock'
p67
I00
s.