(dp0
S'Force'
p1
NsS'ExpectedGeneconv'
p2
(dp3
(S'N0'
p4
S'N1'
p5
tp6
(lp7
F5.235741587225495e-09
aF2.307230564754423e-09
as(g5
S'Carp'
p8
tp9
(lp10
F6.628835302636616
aF2.921125163872469
as(g4
S'Gar'
p11
tp12
(lp13
F0.0
aF0.0
as(g5
S'Zebrafish'
p14
tp15
(lp16
F26.742732747984988
aF11.784706686448091
assS'ExpectedDwellTime'
p17
(dp18
g6
F0.00019163693489577155
sg9
F5.832130120404801
sg12
F0.0
sg15
F7.5755091835979265
ssS'newicktree'
p19
S'./ZebraFish/FishTree.newick'
p20
sS'll'
p21
cnumpy.core.multiarray
scalar
p22
(cnumpy
dtype
p23
(S'f8'
p24
I0
I1
tp25
Rp26
(I3
S'<'
p27
NNNI-1
I-1
I0
tp28
bS'\xbe\xf7\xb9\xaci\x15\x80\xc0'
p29
tp30
Rp31
sS'edge_list'
p32
(lp33
g6
ag12
ag9
ag15
asS'edge_to_blen'
p34
(dp35
g9
g22
(g26
S'\x87\x06\x9b\x06\x03+\xc0?'
p36
tp37
Rp38
sg6
g22
(g26
S'\xf8!\xab\r+\x1d\xbf>'
p39
tp40
Rp41
sg12
g22
(g26
S'\xd5e\xe5M\xa2\xb3\x02@'
p42
tp43
Rp44
sg15
g22
(g26
S'\x84\xa4_\x98\xaf \xdb?'
p45
tp46
Rp47
ssS'paralog'
p48
(lp49
S'TLR5a'
p50
aS'TLR5b'
p51
asS'alignment_file'
p52
S'./ZebraFish/TLR5a_TLR5b_input.fasta'
p53
sS'x_clock'
p54
NsS'x'
p55
cnumpy.core.multiarray
_reconstruct
p56
(cnumpy
ndarray
p57
(I0
tp58
S'b'
p59
tp60
Rp61
(I1
(I11
tp62
g26
I00
S'(\xc2\xa5\xc8e\xf5\xe6\xbf\x9fH\x90R\xa6\r\xe5\xbf*\xac\x86\x1d\x98\x91\xea\xbf2\x90;\x0e\xa8\xae\xf0?\x0b\xf0\xe3\x11J\xb6\x01\xc0\xe6\xd5\xf9\xa1W3\x0c@\xbd\xc9\xb4B\x16\xa5\x05@\x14\xb1\x97\x0fPe*\xc0\x9e\\\xec\x17l,\xeb?k\xa8\x98pM\x8d\x00\xc0\xfb\xfbaSmw\xeb\xbf'
p63
tp64
bsS'Model'
p65
S'MG94'
p66
sS'clock'
p67
I00
s.