(dp0
S'Force'
p1
NsS'ExpectedGeneconv'
p2
(dp3
(S'N0'
p4
S'N1'
p5
tp6
F5.8975178095865934e-09
s(g5
S'Carp'
p7
tp8
F23.586482757356908
s(g4
S'Gar'
p9
tp10
F0.0
s(g5
S'Zebrafish'
p11
tp12
F17.50739340056399
ssS'ExpectedDwellTime'
p13
(dp14
g6
F0.00024562667064923003
sg8
F8.502867061013099
sg10
F0.0
sg12
F7.45463620371699
ssS'newicktree'
p15
S'./ZebraFish/FishTree.newick'
p16
sS'll'
p17
cnumpy.core.multiarray
scalar
p18
(cnumpy
dtype
p19
(S'f8'
p20
I0
I1
tp21
Rp22
(I3
S'<'
p23
NNNI-1
I-1
I0
tp24
bS'\xd4\xf0\xd7\xba\x894\x81\xc0'
p25
tp26
Rp27
sS'edge_list'
p28
(lp29
g6
ag10
ag8
ag12
asS'edge_to_blen'
p30
(dp31
g6
g18
(g22
S'\xfc\xfdY\xf7\xe6\xd4\xa7>'
p32
tp33
Rp34
sg8
g18
(g22
S']\x17\xba4\xed\x88\xb5?'
p35
tp36
Rp37
sg10
g18
(g22
S'6\xffL\x8b\xe9\x13\xde?'
p38
tp39
Rp40
sg12
g18
(g22
S'\x7f\xbfU4\xc1\xb7\xb0?'
p41
tp42
Rp43
ssS'paralog'
p44
(lp45
S'TLR5a'
p46
aS'TLR5b'
p47
asS'alignment_file'
p48
S'./ZebraFish/TLR5a_TLR5b_input.fasta'
p49
sS'x_clock'
p50
NsS'x'
p51
cnumpy.core.multiarray
_reconstruct
p52
(cnumpy
ndarray
p53
(I0
tp54
S'b'
p55
tp56
Rp57
(I1
(I10
tp58
g22
I00
S'p\x99\xf7\x15b~\xe8\xbf\xda\xe7\xa6\x82\xc5\xb6\xe4\xbfo\xaa\xfdtkC\xea\xbfb\xb0\xff\xf92\xcf\xf8?:\x08\xba\x87\xe9\xf6\x0b@\x14kR\x84YE\xe7\xbf\x0b(\x0cx\xb9P,\xc0\x12\xa6\xb0\xbd\xbf)\xe8\xbfJ\xeb\xca\x08\xd5\xcd\x03\xc0\x0f;\xb8\xb7b\xd4\x05\xc0'
p59
tp60
bsS'Model'
p61
S'HKY'
p62
sS'clock'
p63
I00
s.