(dp0
S'Force'
p1
NsS'ExpectedGeneconv'
p2
(dp3
(S'N0'
p4
S'N1'
p5
tp6
(lp7
F0.3448944147047071
aF0.2283688540938851
as(g5
S'Carp'
p8
tp9
(lp10
F11.532540611751879
aF9.364017296551891
as(g4
S'Gar'
p11
tp12
(lp13
F0.0
aF0.0
as(g5
S'Zebrafish'
p14
tp15
(lp16
F24.89184648701036
aF20.33462367449947
assS'ExpectedDwellTime'
p17
(dp18
g6
F1.4337700461286305
sg9
F6.436206026478076
sg12
F0.0
sg15
F7.528938675923206
ssS'newicktree'
p19
S'./ZebraFish/FishTree.newick'
p20
sS'll'
p21
cnumpy.core.multiarray
scalar
p22
(cnumpy
dtype
p23
(S'f8'
p24
I0
I1
tp25
Rp26
(I3
S'<'
p27
NNNI-1
I-1
I0
tp28
bS"+'\xec\xd7\x8c\xe7\x7f\xc0"
p29
tp30
Rp31
sS'edge_list'
p32
(lp33
g6
ag12
ag9
ag15
asS'edge_to_blen'
p34
(dp35
g9
g22
(g26
S'\xd2\x14 `\x19O\xcc?'
p36
tp37
Rp38
sg6
g22
(g26
S'+\x1a8w\xe8!\x91?'
p39
tp40
Rp41
sg12
g22
(g26
S'Y\x1b\x83\x17\x81p\x06@'
p42
tp43
Rp44
sg15
g22
(g26
S'*oM\xdfp\x8e\xdd?'
p45
tp46
Rp47
ssS'paralog'
p48
(lp49
S'TLR5a'
p50
aS'TLR5b'
p51
asS'alignment_file'
p52
S'./ZebraFish/TLR5a_TLR5b_input.fasta'
p53
sS'x_clock'
p54
NsS'x'
p55
cnumpy.core.multiarray
_reconstruct
p56
(cnumpy
ndarray
p57
(I0
tp58
S'b'
p59
tp60
Rp61
(I1
(I12
tp62
g26
I00
S'\x96b\xb1\xf8\x8a\xd0\xe6\xbf\x13CQ\xabp\xc3\xe2\xbf\x98{\x9f\x026\x08\xee\xbf\x9f\xfd\xde]l\xc8\xf1?}3\xba\xe4n\xe1\x03\xc0\xe8\xcf.m\xdd\xbc\t@re\xbf\xff\xde\x9b\x05@\xc1\xcb\x121d$\x04@\x86\xc6\xbfQ\xab\\\x10\xc0H}\x9b8\x88\x80\xf0?\xe6\x9e\x98\x1dA$\xf8\xbfY\xc2D\xd4\xfe\xb8\xe8\xbf'
p63
tp64
bsS'Model'
p65
S'MG94'
p66
sS'clock'
p67
I00
s.