(dp0
S'Force'
p1
NsS'ExpectedGeneconv'
p2
(dp3
(S'N0'
p4
S'N1'
p5
tp6
F6.928081445325694
s(g5
S'Carp'
p7
tp8
F20.274161911451664
s(g4
S'Gar'
p9
tp10
F0.0
s(g5
S'Zebrafish'
p11
tp12
F46.95844582560533
ssS'ExpectedDwellTime'
p13
(dp14
g6
F3.7896783442890096
sg8
F6.978900910715783
sg10
F0.0
sg12
F7.928990870652498
ssS'newicktree'
p15
S'./ZebraFish/FishTree.newick'
p16
sS'll'
p17
cnumpy.core.multiarray
scalar
p18
(cnumpy
dtype
p19
(S'f8'
p20
I0
I1
tp21
Rp22
(I3
S'<'
p23
NNNI-1
I-1
I0
tp24
bS't\xdf\x9a{\xc0\xe8\x7f\xc0'
p25
tp26
Rp27
sS'edge_list'
p28
(lp29
g6
ag10
ag8
ag12
asS'edge_to_blen'
p30
(dp31
g8
g18
(g22
S'S)I\x87[\xd3\xc9?'
p32
tp33
Rp34
sg6
g18
(g22
S'\x93P\x82S\x81\t\xb7?'
p35
tp36
Rp37
sg10
g18
(g22
S'T(Z~ \xe7\x05@'
p38
tp39
Rp40
sg12
g18
(g22
S'qdz\x94\xc7\x9e\xdd?'
p41
tp42
Rp43
ssS'paralog'
p44
(lp45
S'TLR5a'
p46
aS'TLR5b'
p47
asS'alignment_file'
p48
S'./ZebraFish/TLR5a_TLR5b_input.fasta'
p49
sS'x_clock'
p50
NsS'x'
p51
cnumpy.core.multiarray
_reconstruct
p52
(cnumpy
ndarray
p53
(I0
tp54
S'b'
p55
tp56
Rp57
(I1
(I11
tp58
g22
I00
S'\xb8z\xfb\xa6\xb1\xd1\xe6\xbfv\xb4"]\x8c\x83\xe2\xbf\xe7}\xfd\x9e\xd2}\xee\xbf\x98!\xce\x93\xb7\xfa\xf1?\xcf#\xcf\x02*\xd0\x03\xc0\xf1\xd6\x9c\x82X\xd1\x08@\x1e\xd6\x8e\x9a\xdc\x97\x01@H/\x02O\xbaC\x03\xc0\xb2\xf3\x83Dc\x1d\xf0?\xd1\xe3P?Q\x9c\xf9\xbf\xd7\xf5I2S\xa7\xe8\xbf'
p59
tp60
bsS'Model'
p61
S'MG94'
p62
sS'clock'
p63
I00
s.