(dp0
S'Force'
p1
NsS'ExpectedGeneconv'
p2
(dp3
(S'N0'
p4
S'N1'
p5
tp6
(lp7
F97.55141769646553
aF57.712729681372764
as(g5
S'Carp'
p8
tp9
(lp10
F13.57905599295559
aF7.9092825713537485
as(g4
S'Gar'
p11
tp12
(lp13
F0.0
aF0.0
as(g5
S'Zebrafish'
p14
tp15
(lp16
F16.46077872092761
aF9.824314098920937
assS'ExpectedDwellTime'
p17
(dp18
g6
F9.585165269697145
sg9
F10.303591816942916
sg12
F0.0
sg15
F9.581886395123838
ssS'newicktree'
p19
S'./ZebraFish/FishTree.newick'
p20
sS'll'
p21
cnumpy.core.multiarray
scalar
p22
(cnumpy
dtype
p23
(S'f8'
p24
I0
I1
tp25
Rp26
(I3
S'<'
p27
NNNI-1
I-1
I0
tp28
bS'\x16\xfd\x1d\xc2\xa3.\x81\xc0'
p29
tp30
Rp31
sS'edge_list'
p32
(lp33
g6
ag12
ag9
ag15
asS'edge_to_blen'
p34
(dp35
g6
g22
(g26
S'oE[\xe5c%\xde?'
p36
tp37
Rp38
sg9
g22
(g26
S'^\x92\x19\xb6\xbeB\xb0?'
p39
tp40
Rp41
sg12
g22
(g26
S'ZT&%\xf2, ?'
p42
tp43
Rp44
sg15
g22
(g26
S'q\xfa\xe2\xe5\xbf\x95\xb3?'
p45
tp46
Rp47
ssS'paralog'
p48
(lp49
S'TLR5a'
p50
aS'TLR5b'
p51
asS'alignment_file'
p52
S'./ZebraFish/TLR5a_TLR5b_input.fasta'
p53
sS'x_clock'
p54
NsS'x'
p55
cnumpy.core.multiarray
_reconstruct
p56
(cnumpy
ndarray
p57
(I0
tp58
S'b'
p59
tp60
Rp61
(I1
(I11
tp62
g26
I00
S'\xef\x80\xe7\x98\xaey\xe8\xbf\xca\xb7\xf3\xff>\x8f\xe2\xbf\xa9\x00\xb8\x91\x0c\xc3\xec\xbf^\xeb\xb9\x98n\xe1\xf8?0\xc8\xd3(:\x1d\x0e@\x0eK\x10R\x06\xcc\t@\xb5\xc1zU\xc7\xd1\xd7?\xf0\x18\xf9\xd5,\x17\xe8\xbf\x00\x00\x00\x00\x00\x00"\xc0\x83B>\x80(\r\x06\xc0\xedZQ\x076\x90\x04\xc0'
p63
tp64
bsS'Model'
p65
S'HKY'
p66
sS'clock'
p67
I00
s.