(dp0
S'Force'
p1
NsS'ExpectedGeneconv'
p2
(dp3
(S'N0'
p4
S'N1'
p5
tp6
F17.06443162958409
s(g5
S'Carp'
p7
tp8
F21.83093311874166
s(g4
S'Gar'
p9
tp10
F0.0
s(g5
S'Zebrafish'
p11
tp12
F24.76085162122175
ssS'ExpectedDwellTime'
p13
(dp14
g6
F7.771086469030184
sg8
F10.172326331047817
sg10
F0.0
sg12
F9.559690971682848
ssS'newicktree'
p15
S'./ZebraFish/FishTree.newick'
p16
sS'll'
p17
cnumpy.core.multiarray
scalar
p18
(cnumpy
dtype
p19
(S'f8'
p20
I0
I1
tp21
Rp22
(I3
S'<'
p23
NNNI-1
I-1
I0
tp24
bS'D\xac\x98\x13P5\x81\xc0'
p25
tp26
Rp27
sS'edge_list'
p28
(lp29
g6
ag10
ag8
ag12
asS'edge_to_blen'
p30
(dp31
g8
g18
(g22
S'\xcb\x975\xd5q\xad\xb0?'
p32
tp33
Rp34
sg6
g18
(g22
S'\xf6\xc3x\x8f\x8bk\xb0?'
p35
tp36
Rp37
sg10
g18
(g22
S'n\xc3\xd6>\xd5>\xda?'
p38
tp39
Rp40
sg12
g18
(g22
S'6\xe8M\x97 \xa2\xb2?'
p41
tp42
Rp43
ssS'paralog'
p44
(lp45
S'TLR5a'
p46
aS'TLR5b'
p47
asS'alignment_file'
p48
S'./ZebraFish/TLR5a_TLR5b_input.fasta'
p49
sS'x_clock'
p50
NsS'x'
p51
cnumpy.core.multiarray
_reconstruct
p52
(cnumpy
ndarray
p53
(I0
tp54
S'b'
p55
tp56
Rp57
(I1
(I9
tp58
g22
I00
S'J\xe4\x93\x95dw\xe8\xbf\xd9\xaf\xcf\xd9\xa0\x14\xe4\xbf\xf5kqp\xb3\xdd\xea\xbfN\xfc\xa2\x83\x84\xd4\xf8?\x8cJ5\x0c\xc8F\x0c@\x10\xdb\xe5\xd4.\xf9\x05\xc0R\x17~\xf0E\x86\xec\xbf.\xdf\xf4CS\xd9\x05\xc00\xb9=_9\xf6\x04\xc0'
p59
tp60
bsS'Model'
p61
S'HKY'
p62
sS'clock'
p63
I00
s.