(dp0
S'Force'
p1
NsS'ExpectedGeneconv'
p2
(dp3
(S'N0'
p4
S'N1'
p5
tp6
F1.925110898963697e-10
s(g5
S'Carp'
p7
tp8
F9.535305383059363
s(g4
S'Gar'
p9
tp10
F0.0
s(g5
S'Zebrafish'
p11
tp12
F38.54084008392163
ssS'ExpectedDwellTime'
p13
(dp14
g6
F3.1275338500774334e-05
sg8
F5.832202332719157
sg10
F0.0
sg12
F7.577073367693796
ssS'newicktree'
p15
S'./ZebraFish/FishTree.newick'
p16
sS'll'
p17
cnumpy.core.multiarray
scalar
p18
(cnumpy
dtype
p19
(S'f8'
p20
I0
I1
tp21
Rp22
(I3
S'<'
p23
NNNI-1
I-1
I0
tp24
bS'\x989\x82\xa4i\x15\x80\xc0'
p25
tp26
Rp27
sS'edge_list'
p28
(lp29
g6
ag10
ag8
ag12
asS'edge_to_blen'
p30
(dp31
g8
g18
(g22
S'\x0c\xd9\x88\xa0%&\xc0?'
p32
tp33
Rp34
sg6
g18
(g22
S'\xa7x\x84\x92\x95\xe2\x93>'
p35
tp36
Rp37
sg10
g18
(g22
S'\x18\x83\x0e\x10\xd3\xb3\x02@'
p38
tp39
Rp40
sg12
g18
(g22
S'\xfd\xa5\xcb\xe7\x81#\xdb?'
p41
tp42
Rp43
ssS'paralog'
p44
(lp45
S'TLR5a'
p46
aS'TLR5b'
p47
asS'alignment_file'
p48
S'./ZebraFish/TLR5a_TLR5b_input.fasta'
p49
sS'x_clock'
p50
NsS'x'
p51
cnumpy.core.multiarray
_reconstruct
p52
(cnumpy
ndarray
p53
(I0
tp54
S'b'
p55
tp56
Rp57
(I1
(I10
tp58
g22
I00
S'Rlw\\:\xf5\xe6\xbf\xc05z?\x9b\r\xe5\xbf\xda\x84\xc1\xe45\x91\xea\xbf.\x05><\x1d\xad\xf0?\x1d\xf7D\x19\xba\xb6\x01\xc0\xe4\x10W\xb6\xf5\x92\t@2\x19VvO\x10.\xc0\xe2\xc1h\x85\xbf,\xeb?\xa3H\xd8\x07\xb6\x8f\x00\xc0 ]\xe0t\x19t\xeb\xbf'
p59
tp60
bsS'Model'
p61
S'MG94'
p62
sS'clock'
p63
I00
s.