(dp0
S'Force'
p1
NsS'ExpectedGeneconv'
p2
(dp3
(S'N0'
p4
S'N1'
p5
tp6
(lp7
F0.0
aF0.0
as(g5
S'Carp'
p8
tp9
(lp10
F3.5912403052709395e-16
aF7.546377326644856e-13
as(g4
S'Gar'
p11
tp12
(lp13
F0.0
aF0.0
as(g5
S'Zebrafish'
p14
tp15
(lp16
F4.404460881784888e-16
aF7.9100154935687e-13
assS'ExpectedDwellTime'
p17
(dp18
g6
F5.254531838754668e-07
sg9
F23.20514742160748
sg12
F0.0
sg15
F24.16545194999918
ssS'newicktree'
p19
S'./ZebraFish/FishTree.newick'
p20
sS'll'
p21
cnumpy.core.multiarray
scalar
p22
(cnumpy
dtype
p23
(S'f8'
p24
I0
I1
tp25
Rp26
(I3
S'<'
p27
NNNI-1
I-1
I0
tp28
bS'\xb6\t\xf9\xa2\xdf\xce\x81\xc0'
p29
tp30
Rp31
sS'edge_list'
p32
(lp33
g6
ag12
ag9
ag15
asS'edge_to_blen'
p34
(dp35
g9
g22
(g26
S'\x0fD\xe7\xe3\xc7&\xce?'
p36
tp37
Rp38
sg6
g22
(g26
S'\xfa\xfe\xb1\xb1e\x1fY>'
p39
tp40
Rp41
sg12
g22
(g26
S'\xe2\x8e"\x8d\x10[\x02@'
p42
tp43
Rp44
sg15
g22
(g26
S'\x89\xfdMv\x1dR\xcf?'
p45
tp46
Rp47
ssS'paralog'
p48
(lp49
S'TLR5a'
p50
aS'TLR5b'
p51
asS'alignment_file'
p52
S'./ZebraFish/TLR5a_TLR5b_switched.fasta'
p53
sS'x_clock'
p54
NsS'x'
p55
cnumpy.core.multiarray
_reconstruct
p56
(cnumpy
ndarray
p57
(I0
tp58
S'b'
p59
tp60
Rp61
(I1
(I11
tp62
g26
I00
S'\xa5\x0e}w\xfd\xaa\xe7\xbf1y]\xa29*\xe5\xbfi\xc0rvY\xa6\xe9\xbf\xeb\x81\xf0\x83J\x05\xec?\xb6"W\xa2\xb4\xb3\x01\xc0^\x1eG\xcb\xe4\x06B\xc0\x1e\xe4T\xba\xd2\xf4;\xc0}8K\xd7\x15\x921\xc0~\xdd\xedAt\x93\xea?\xad\xae:\xfd\xfa!\xf7\xbf\x90\xd9U\xe1#\x86\xf6\xbf'
p63
tp64
bsS'Model'
p65
S'MG94'
p66
sS'clock'
p67
I00
s.