(dp0
S'Force'
p1
NsS'ExpectedGeneconv'
p2
(dp3
(S'N0'
p4
S'N1'
p5
tp6
F0.0
s(g5
S'Carp'
p7
tp8
F2.784931877283325e-06
s(g4
S'Gar'
p9
tp10
F0.0
s(g5
S'Zebrafish'
p11
tp12
F2.8838702153330518e-06
ssS'ExpectedDwellTime'
p13
(dp14
g6
F0.0
sg8
F23.442366308964328
sg10
F0.0
sg12
F24.428944940805852
ssS'newicktree'
p15
S'./ZebraFish/FishTree.newick'
p16
sS'll'
p17
cnumpy.core.multiarray
scalar
p18
(cnumpy
dtype
p19
(S'f8'
p20
I0
I1
tp21
Rp22
(I3
S'<'
p23
NNNI-1
I-1
I0
tp24
bS'\xf5S\xecZ\xb6<\x83\xc0'
p25
tp26
Rp27
sS'edge_list'
p28
(lp29
g6
ag10
ag8
ag12
asS'edge_to_blen'
p30
(dp31
g8
g18
(g22
S'55\x10\xc3\x12\xa4\xb1?'
p32
tp33
Rp34
sg6
g18
(g22
S'\x1eA\xb6O\x98\xa5\x14;'
p35
tp36
Rp37
sg10
g18
(g22
S'\xbd?\xa6\xdd\t\x12\xde?'
p38
tp39
Rp40
sg12
g18
(g22
S'&\xe8{}pW\xb2?'
p41
tp42
Rp43
ssS'paralog'
p44
(lp45
S'TLR5a'
p46
aS'TLR5b'
p47
asS'alignment_file'
p48
S'./ZebraFish/TLR5a_TLR5b_switched.fasta'
p49
sS'x_clock'
p50
NsS'x'
p51
cnumpy.core.multiarray
_reconstruct
p52
(cnumpy
ndarray
p53
(I0
tp54
S'b'
p55
tp56
Rp57
(I1
(I9
tp58
g22
I00
S"\x9aD\xbf\x84\xf5?\xe9\xbf\xdc\xc4Z\xdc\x08\xa9\xe3\xbf\xcc\xbc3Mi~\xea\xbf\xe6\xe3\x93\xb6O\xac\xf7?B\x81\xf8\rR6)\xc0\xb0\x7fI\xa7\xbe\xe7J\xc0x\x11\x05#\xbe+\xe8\xbf:\x91{\xb7Of\x05\xc0'\xfd\x9eP\x8b\x16\x05\xc0"
p59
tp60
bsS'Model'
p61
S'HKY'
p62
sS'clock'
p63
I00
s.