(dp0
S'Force'
p1
NsS'ExpectedGeneconv'
p2
(dp3
(S'N0'
p4
S'N1'
p5
tp6
F3.387397582282024e-19
s(g5
S'Carp'
p7
tp8
F8.869703495887506e-06
s(g4
S'Gar'
p9
tp10
F0.0
s(g5
S'Zebrafish'
p11
tp12
F9.27239589570266e-06
ssS'ExpectedDwellTime'
p13
(dp14
g6
F7.277570017653733e-07
sg8
F23.205053955756817
sg10
F0.0
sg12
F24.16548470994398
ssS'newicktree'
p15
S'./ZebraFish/FishTree.newick'
p16
sS'll'
p17
cnumpy.core.multiarray
scalar
p18
(cnumpy
dtype
p19
(S'f8'
p20
I0
I1
tp21
Rp22
(I3
S'<'
p23
NNNI-1
I-1
I0
tp24
bS'\xe6>\xb7\xad\xdf\xce\x81\xc0'
p25
tp26
Rp27
sS'edge_list'
p28
(lp29
g6
ag10
ag8
ag12
asS'edge_to_blen'
p30
(dp31
g8
g18
(g22
S'Z\xc0\x06Cc&\xce?'
p32
tp33
Rp34
sg6
g18
(g22
S'\xbb\x90\xbd9y\xf8`>'
p35
tp36
Rp37
sg10
g18
(g22
S"\xeat\x9aG'Z\x02@"
p38
tp39
Rp40
sg12
g18
(g22
S'@\x11N\x8byR\xcf?'
p41
tp42
Rp43
ssS'paralog'
p44
(lp45
S'TLR5a'
p46
aS'TLR5b'
p47
asS'alignment_file'
p48
S'./ZebraFish/TLR5a_TLR5b_switched.fasta'
p49
sS'x_clock'
p50
NsS'x'
p51
cnumpy.core.multiarray
_reconstruct
p52
(cnumpy
ndarray
p53
(I0
tp54
S'b'
p55
tp56
Rp57
(I1
(I10
tp58
g22
I00
S'}\xa7\x9d/\xf5\xab\xe7\xbf\xc5h\xfb\xbc\xd2)\xe5\xbf\x9f\xf8\x83s6\xa6\xe9\xbf\x7f\xd8\x91\xe4\xd7\x04\xec?\xee\xd6{3\xd2\xb3\x01\xc0\x12\x8f\x14\xe6\xf3\xbd(\xc0\x03\xa9\xe6\xae\x10E1\xc0\xb1~\xba\x8c\xdd\x91\xea?\x95\xef\xaec0"\xf7\xbf^M\x7f\xd7\xf4\x85\xf6\xbf'
p59
tp60
bsS'Model'
p61
S'MG94'
p62
sS'clock'
p63
I00
s.