(dp0
S'Force'
p1
NsS'ExpectedGeneconv'
p2
(dp3
(S'N0'
p4
S'N1'
p5
tp6
F2.194496504630199e-17
s(g5
S'Carp'
p7
tp8
F2.6910314885454162e-05
s(g4
S'Gar'
p9
tp10
F0.0
s(g5
S'Zebrafish'
p11
tp12
F2.781472978926128e-05
ssS'ExpectedDwellTime'
p13
(dp14
g6
F2.2335331815293476e-06
sg8
F23.442554945046577
sg10
F0.0
sg12
F24.429096137483477
ssS'newicktree'
p15
S'./ZebraFish/FishTree.newick'
p16
sS'll'
p17
cnumpy.core.multiarray
scalar
p18
(cnumpy
dtype
p19
(S'f8'
p20
I0
I1
tp21
Rp22
(I3
S'<'
p23
NNNI-1
I-1
I0
tp24
bS'\xa4~\n\x83\xb6<\x83\xc0'
p25
tp26
Rp27
sS'edge_list'
p28
(lp29
g6
ag10
ag8
ag12
asS'edge_to_blen'
p30
(dp31
g8
g18
(g22
S'\xe1\xe7\xa6\xe6\xc6\xa4\xb1?'
p32
tp33
Rp34
sg6
g18
(g22
S'&\x9fH\x1d\xa8\x8fq>'
p35
tp36
Rp37
sg10
g18
(g22
S'b\xa5#\x1d\x0e\x14\xde?'
p38
tp39
Rp40
sg12
g18
(g22
S'\xc6H\xa5\x95 X\xb2?'
p41
tp42
Rp43
ssS'paralog'
p44
(lp45
S'TLR5a'
p46
aS'TLR5b'
p47
asS'alignment_file'
p48
S'./ZebraFish/TLR5a_TLR5b_switched.fasta'
p49
sS'x_clock'
p50
NsS'x'
p51
cnumpy.core.multiarray
_reconstruct
p52
(cnumpy
ndarray
p53
(I0
tp54
S'b'
p55
tp56
Rp57
(I1
(I10
tp58
g22
I00
S'\xb3\xe6N\x03\x08B\xe9\xbf\xa0\x9e\x959\x96\xa9\xe3\xbf\xef\xab\x07\t\x14\x81\xea\xbf\x95E{\x10\xef\xad\xf7?\x9c<oI8\xad$\xc0\xc22\x84\x07}\x95\xb7\xbfu\x87\xeb\xc9\xdc\x8a0\xc0J>\xa5\xd5\x98)\xe8\xbf,\xce\x17\x08\xfee\x05\xc0\xe4\x8e\x8a\x83>\x16\x05\xc0'
p59
tp60
bsS'Model'
p61
S'HKY'
p62
sS'clock'
p63
I00
s.