(dp0
S'Force'
p1
NsS'ExpectedGeneconv'
p2
(dp3
(S'N0'
p4
S'N1'
p5
tp6
F0.0
s(g5
S'Carp'
p7
tp8
F3.411378862053178e-24
s(g4
S'Gar'
p9
tp10
F0.0
s(g5
S'Zebrafish'
p11
tp12
F1.210264884461272e-25
ssS'ExpectedDwellTime'
p13
(dp14
g6
F4.92696126491947e-07
sg8
F23.205047490462544
sg10
F0.0
sg12
F24.165421412781317
ssS'newicktree'
p15
S'./ZebraFish/FishTree.newick'
p16
sS'll'
p17
cnumpy.core.multiarray
scalar
p18
(cnumpy
dtype
p19
(S'f8'
p20
I0
I1
tp21
Rp22
(I3
S'<'
p23
NNNI-1
I-1
I0
tp24
bS'\xc6\x98\xa7\xa2\xdf\xce\x81\xc0'
p25
tp26
Rp27
sS'edge_list'
p28
(lp29
g6
ag10
ag8
ag12
asS'edge_to_blen'
p30
(dp31
g8
g18
(g22
S'v\xab\xe0\xe4\xb0&\xce?'
p32
tp33
Rp34
sg6
g18
(g22
S'\x8fI@\x0c\xdb-V>'
p35
tp36
Rp37
sg10
g18
(g22
S')\xe8Z3\xecY\x02@'
p38
tp39
Rp40
sg12
g18
(g22
S'\x8bv!\xe4_R\xcf?'
p41
tp42
Rp43
ssS'paralog'
p44
(lp45
S'TLR5a'
p46
aS'TLR5b'
p47
asS'alignment_file'
p48
S'./ZebraFish/TLR5a_TLR5b_switched.fasta'
p49
sS'x_clock'
p50
NsS'x'
p51
cnumpy.core.multiarray
_reconstruct
p52
(cnumpy
ndarray
p53
(I0
tp54
S'b'
p55
tp56
Rp57
(I1
(I11
tp58
g22
I00
S'\'\x18\xe9FL\xab\xe7\xbf\x0f-j3\xaf)\xe5\xbf\xe8\xc8=\x81\xd8\xa5\xe9\xbf\x8b\xa66C]\x04\xec?G\x94\xe1\x14`\xb3\x01\xc0\xf0\xca<\xd8\x81\x9cD\xc0\x81D\x11R\x04\xb1\xdf\xbf\xe8;g\xd1\xfc\xb11\xc0\xfa\x12z\x88v\x91\xea?,?81\x07"\xf7\xbf!\x16*\xf2\x01\x86\xf6\xbf'
p59
tp60
bsS'Model'
p61
S'MG94'
p62
sS'clock'
p63
I00
s.