(dp0
S'Force'
p1
NsS'ExpectedGeneconv'
p2
(dp3
(S'N0'
p4
S'N1'
p5
tp6
(lp7
F0.0
aF0.0
as(g5
S'Carp'
p8
tp9
(lp10
F1.9886641585040548e-18
aF1.8527158990878017e-15
as(g4
S'Gar'
p11
tp12
(lp13
F0.0
aF0.0
as(g5
S'Zebrafish'
p14
tp15
(lp16
F6.131072407645132e-20
aF1.8988293118436786e-15
assS'ExpectedDwellTime'
p17
(dp18
g6
F4.010166311117172e-07
sg9
F23.2050611081598
sg12
F0.0
sg15
F24.165352381103386
ssS'newicktree'
p19
S'./ZebraFish/FishTree.newick'
p20
sS'll'
p21
cnumpy.core.multiarray
scalar
p22
(cnumpy
dtype
p23
(S'f8'
p24
I0
I1
tp25
Rp26
(I3
S'<'
p27
NNNI-1
I-1
I0
tp28
bS'\xe3wJ\xa2\xdf\xce\x81\xc0'
p29
tp30
Rp31
sS'edge_list'
p32
(lp33
g6
ag12
ag9
ag15
asS'edge_to_blen'
p34
(dp35
g6
g22
(g26
S'\x1e\xa9\x05\xbb\x95\x94P>'
p36
tp37
Rp38
sg9
g22
(g26
S't\xb6(\xf6\xb0&\xce?'
p39
tp40
Rp41
sg12
g22
(g26
S'\xfa\x92=`\xe1Z\x02@'
p42
tp43
Rp44
sg15
g22
(g26
S'\xc1bM3\xebQ\xcf?'
p45
tp46
Rp47
ssS'paralog'
p48
(lp49
S'TLR5a'
p50
aS'TLR5b'
p51
asS'alignment_file'
p52
S'./ZebraFish/TLR5a_TLR5b_switched.fasta'
p53
sS'x_clock'
p54
NsS'x'
p55
cnumpy.core.multiarray
_reconstruct
p56
(cnumpy
ndarray
p57
(I0
tp58
S'b'
p59
tp60
Rp61
(I1
(I12
tp62
g26
I00
S'5^\x03Bt\xab\xe7\xbf\xc6&4\xd7\xad*\xe5\xbf\xce\xb1\xe2Y\xfa\xa5\xe9\xbf\xe0\xb8/\x9b\x85\x04\xec?\xaah\xddi\xb1\xb3\x01\xc0t\xd5ObXCC\xc0\xa3\xd0\x98^Q\x99=\xc07\x0f\x80\xd5\x8a\xf9\xfa\xbf\x1e\x9eP.w\xfc1\xc0\xefg\x8e\x03"\x93\xea?\xa2\x95\x0c(\x07"\xf7\xbf\n\xebo\x8e=\x86\xf6\xbf'
p63
tp64
bsS'Model'
p65
S'MG94'
p66
sS'clock'
p67
I00
s.