(dp0
S'Force'
p1
NsS'ExpectedGeneconv'
p2
(dp3
(S'N0'
p4
S'N1'
p5
tp6
(lp7
F0.0
aF0.0
as(g5
S'Carp'
p8
tp9
(lp10
F1.8297625119383785e-07
aF5.470025336682996e-06
as(g4
S'Gar'
p11
tp12
(lp13
F0.0
aF0.0
as(g5
S'Zebrafish'
p14
tp15
(lp16
F1.840127537356695e-07
aF5.811767950299224e-06
assS'ExpectedDwellTime'
p17
(dp18
g6
F0.0
sg9
F23.442471800986052
sg12
F0.0
sg15
F24.428928306257145
ssS'newicktree'
p19
S'./ZebraFish/FishTree.newick'
p20
sS'll'
p21
cnumpy.core.multiarray
scalar
p22
(cnumpy
dtype
p23
(S'f8'
p24
I0
I1
tp25
Rp26
(I3
S'<'
p27
NNNI-1
I-1
I0
tp28
bS'\xd00\x92]\xb6<\x83\xc0'
p29
tp30
Rp31
sS'edge_list'
p32
(lp33
g6
ag12
ag9
ag15
asS'edge_to_blen'
p34
(dp35
g9
g22
(g26
S'\xe619\xd2\xac\xa4\xb1?'
p36
tp37
Rp38
sg6
g22
(g26
S'Zu\xa0\xff\xb4z\xb3<'
p39
tp40
Rp41
sg12
g22
(g26
S' \r!\xf6y\x10\xde?'
p42
tp43
Rp44
sg15
g22
(g26
S'\xf6\xb51\xc2YW\xb2?'
p45
tp46
Rp47
ssS'paralog'
p48
(lp49
S'TLR5a'
p50
aS'TLR5b'
p51
asS'alignment_file'
p52
S'./ZebraFish/TLR5a_TLR5b_switched.fasta'
p53
sS'x_clock'
p54
NsS'x'
p55
cnumpy.core.multiarray
_reconstruct
p56
(cnumpy
ndarray
p57
(I0
tp58
S'b'
p59
tp60
Rp61
(I1
(I11
tp62
g26
I00
S'\xb0\x16^\x08\x07@\xe9\xbf\xf4\x81\x87=n\xa9\xe3\xbf\x7f/\x9a\x90t\x7f\xea\xbf\x8ft\xff\xef\x1b\xac\xf7?\x943\n.\xee\x95-\xc0\x9c\xf9@\x1dA\xd0&\xc0\xe3\t\x9d@\xde\xdf\xf9\xbf\xdb\xac\xa4\xd7f\xecA\xc03\x8d\xbe\xbeg-\xe8\xbf\r\x98[\xdb\tf\x05\xc0+!\xd5:\x95\x16\x05\xc0'
p63
tp64
bsS'Model'
p65
S'HKY'
p66
sS'clock'
p67
I00
s.