(dp0
S'Force'
p1
NsS'ExpectedGeneconv'
p2
(dp3
(S'N0'
p4
S'N1'
p5
tp6
(lp7
F0.0
aF0.0
as(g5
S'Carp'
p8
tp9
(lp10
F4.7171245963681e-07
aF1.4900499392843116e-05
as(g4
S'Gar'
p11
tp12
(lp13
F0.0
aF0.0
as(g5
S'Zebrafish'
p14
tp15
(lp16
F4.876500983207767e-07
aF1.5403937635761153e-05
assS'ExpectedDwellTime'
p17
(dp18
g6
F0.0
sg9
F23.442937703782004
sg12
F0.0
sg15
F24.428854994508523
ssS'newicktree'
p19
S'./ZebraFish/FishTree.newick'
p20
sS'll'
p21
cnumpy.core.multiarray
scalar
p22
(cnumpy
dtype
p23
(S'f8'
p24
I0
I1
tp25
Rp26
(I3
S'<'
p27
NNNI-1
I-1
I0
tp28
bS'\xdaE\x90~\xb6<\x83\xc0'
p29
tp30
Rp31
sS'edge_list'
p32
(lp33
g6
ag12
ag9
ag15
asS'edge_to_blen'
p34
(dp35
g9
g22
(g26
S'\xa8U\x84\x10S\xa7\xb1?'
p36
tp37
Rp38
sg6
g22
(g26
S'\xa9\xdfI\x06+9\xdb<'
p39
tp40
Rp41
sg12
g22
(g26
S'Id\xd9<}\x13\xde?'
p42
tp43
Rp44
sg15
g22
(g26
S'\xeef\xc7\x96\xdeV\xb2?'
p45
tp46
Rp47
ssS'paralog'
p48
(lp49
S'TLR5a'
p50
aS'TLR5b'
p51
asS'alignment_file'
p52
S'./ZebraFish/TLR5a_TLR5b_switched.fasta'
p53
sS'x_clock'
p54
NsS'x'
p55
cnumpy.core.multiarray
_reconstruct
p56
(cnumpy
ndarray
p57
(I0
tp58
S'b'
p59
tp60
Rp61
(I1
(I10
tp62
g26
I00
S'I\xd2\xf57\xe0A\xe9\xbf\xaa\xff\\\xf9\xe6\xa9\xe3\xbf\xa0\xc7N\xa2\x97\x85\xea\xbf\xa8\xefFcz\xab\xf7?\xee\xf6\xc3\xbdLa+\xc0\xf6\x92\xb4\xe9yy$\xc0X> \xa4\x1c\x10A\xc0={\xe6\xf82*\xe8\xbf\xe8\xd0\x19i\xd6d\x05\xc0\x8f\xf1\xc9\xf4\xca\x16\x05\xc0'
p63
tp64
bsS'Model'
p65
S'HKY'
p66
sS'clock'
p67
I00
s.