(iCodonBased2Repeats
Codon2RepeatsPhy
p0
(dp1
S'nbranch'
p2
I12
sS'Tao'
p3
F0.0
sS'SpecAfterDupli_node'
p4
S'N1'
p5
sS'tree_phy'
p6
ccopy_reg
_reconstructor
p7
(cBio.Phylo.PhyloXML
Phylogeny
p8
c__builtin__
object
p9
Ntp10
Rp11
(dp12
S'confidences'
p13
(lp14
sS'rerootable'
p15
NsS'clade_relations'
p16
(lp17
sS'rooted'
p18
S'True'
p19
sS'type'
p20
NsS'description'
p21
NsS'properties'
p22
(lp23
sS'branch_length_unit'
p24
NsS'other'
p25
(lp26
sS'date'
p27
NsS'sequence_relations'
p28
(lp29
sS'root'
p30
g7
(cBio.Phylo.PhyloXML
Clade
p31
g9
Ntp32
Rp33
(dp34
g13
(lp35
sS'branch_length'
p36
F1.0
sS'taxonomies'
p37
(lp38
sS'name'
p39
S'N0'
p40
sS'clades'
p41
(lp42
g7
(g31
g9
Ntp43
Rp44
(dp45
g13
(lp46
sg36
F1.0
sg37
(lp47
sg39
S'N1'
p48
sg41
(lp49
g7
(g31
g9
Ntp50
Rp51
(dp52
g13
(lp53
sg36
F1.0
sg37
(lp54
sg39
S'N2'
p55
sg41
(lp56
g7
(g31
g9
Ntp57
Rp58
(dp59
g13
(lp60
sg36
F1.0
sg37
(lp61
sg39
S'N3'
p62
sg41
(lp63
g7
(g31
g9
Ntp64
Rp65
(dp66
g13
(lp67
sg36
F1.0
sg37
(lp68
sg39
S'N4'
p69
sg41
(lp70
g7
(g31
g9
Ntp71
Rp72
(dp73
g13
(lp74
sg36
F1.0
sg37
(lp75
sg39
S'N5'
p76
sg41
(lp77
g7
(g31
g9
Ntp78
Rp79
(dp80
g13
(lp81
sg36
F1.0
sg37
(lp82
sg39
S'cerevisiae'
p83
sg41
(lp84
sg22
(lp85
sS'id_source'
p86
NsS'width'
p87
NsS'node_id'
p88
NsS'references'
p89
(lp90
sS'_color'
p91
NsS'sequences'
p92
(lp93
S'ATGGCCGGTTTAAAAGACGTTGTCACTCGTGAATACACCATCAACTTGCACAAAAGACTACATGGTGTCAGTTTCAAAAAGAGAGCTCCAAGAGCTGTGAAGGAAATCAAGAAATTCGCCAAATTACACATGGGTACTGAAGATGTCCGTCTAGCCCCAGAATTGAACCAAGCTATCTGGAAAAGAGGTGTTAAGGGTGTTGAATACAGATTGAGATTGAGAATCTCCAGAAAGAGAAACGAAGAAGAAGATGCCAAGAACCCATTGTTTTCCTACGTCGAACCAGTTTTGGTTGCCTCTGCTAAGGGTCTACAAACCGTTGTCGTTGAAGAAGATGCT'
p94
aS'ATGGCCGGTTTGAAAGACGTTGTCACTCGTGAATACACCATTAACTTGCACAAAAGATTGCACGGTGTCTCCTTCAAGAAGAGAGCTCCAAGAGCTGTCAAGGAAATTAAGAAGTTCGCCAAGTTACACATGGGTACTGATGATGTCCGTCTAGCTCCAGAATTGAACCAAGCTATCTGGAAGAGAGGTGTCAAGGGTGTTGAATACAGATTAAGATTGAGAATTTCCAGAAAGAGAAACGAAGAAGAAGACGCCAAGAACCCATTGTTCTCCTACGTTGAACCTGTCTTAGTTGCTTCTGCCAAGGGTCTACAAACTGTTGTTGTCGAAGAAGATGCT'
p95
asg27
Nsg25
(lp96
sS'binary_characters'
p97
NsS'distributions'
p98
(lp99
sS'events'
p100
Nsbag7
(g31
g9
Ntp101
Rp102
(dp103
g13
(lp104
sg36
F1.0
sg37
(lp105
sg39
S'paradoxus'
p106
sg41
(lp107
sg22
(lp108
sg86
Nsg87
Nsg88
Nsg89
(lp109
sg91
Nsg92
(lp110
S'ATGGCCGGTTTAAAAGACGTTGTCACTCGTGAATACACCATCAACTTGCACAAAAGATTACATGGTGTCAGTTTCAAGAAGAGAGCTCCAAGAGCTGTCAAGGAAATCAAGAAGTTCGCCAAATTACACATGGGTACCGATGATGTCCGTCTAGCCCCAGAATTGAACCAGGCCATCTGGAAGAGAGGTGTTAAGGGTGTTGAATATAGATTAAGATTGAGAATCTCAAGAAAGAGAAACGAAGAAGAAGACGCCAAGAACCCATTGTTCTCTTACGTCGAACCTGTCCTGGTCGCCTCTGCTAAGGGTTTACAAACCGTCGTCGTTGAAGAAGATGCT'
p111
aS'ATGGCCGGTTTGAAAGACGTTGTCACTCGTGAATACACCATTAACTTGCACAAAAGATTGCACGGTGTCTCCTTCAAGAAGAGAGCTCCAAGAGCTGTCAAGGAAATTAAGAAGTTCGCCAAGTTACACATGGGTACTGATGATGTCCGTCTAGCTCCAGAATTGAACCAAGCTATCTGGAAGAGAGGTGTCAAGGGTGTTGAATACAGATTAAGATTGAGAATTTCCAGAAAGAGAAACGAAGAAGAAGACGCCAAGAACCCATTGTTCTCTTACGTTGAACCTGTCTTAGTTGCTTCTGCCAAGGGTCTACAAACTGTTGTTGTCGAAGAAGATGCT'
p112
asg27
Nsg25
(lp113
sg97
Nsg98
(lp114
sg100
Nsbasg22
(lp115
sg86
Nsg87
Nsg88
Nsg89
(lp116
sg91
Nsg92
(lp117
sg27
Nsg25
(lp118
sg97
Nsg98
(lp119
sg100
Nsbag7
(g31
g9
Ntp120
Rp121
(dp122
g13
(lp123
sg36
F1.0
sg37
(lp124
sg39
S'mikatae'
p125
sg41
(lp126
sg22
(lp127
sg86
Nsg87
Nsg88
Nsg89
(lp128
sg91
Nsg92
(lp129
S'ATGGCCGGTTTAAAAGATGTTGTCACTCGTGAATACACCATCAATTTACACAAAAGATTGCATGGTGTCAGTTTCAAGAAAAGAGCCCCAAGAGCTGTCAAAGAGATCAAAAAGTTCGCTAAGTTACATATGGGCACTGAAGATGTCCGTCTAGCTCCAGAATTGAACCAAGCCATCTGGAAGAGAGGTGTCAAGGGTGTTGAATACAGGTTAAGATTGAGAATCTCCAGAAAGAGAAACGAAGAAGAAGATGCAAAGAACCCATTGTTCTCCTACGTCGAACCTGTTTTGGTTGCTTCTGCTAAGGGTTTACAAACCGTTGTCGTTGAAGAAGATGCT'
p130
aS'ATGGCCGGTTTGAAAGACGTTGTCACTCGTGAATACACCATTAACTTGCACAAAAGATTGCACGGTGTCTCCTTCAAGAAGAGAGCTCCAAGAGCTGTCAAGGAAATTAAGAAGTTCGCCAAGTTACACATGGGTACTGATGATGTCCGTCTAGCTCCAGAATTGAACCAAGCTATCTGGAAGAGAGGTGTCAAGGGTGTTGAATACAGATTAAGATTGAGAATTTCTAGAAAGAGAAACGAAGAAGAAGACGCCAAGAACCCATTGTTCTCTTACGTTGAACCTGTTCTAGTTGCTTCTGCCAAGGGTTTACAAACCGTTGTTGTTGAAGAAGATGCT'
p131
asg27
Nsg25
(lp132
sg97
Nsg98
(lp133
sg100
Nsbasg22
(lp134
sg86
Nsg87
Nsg88
Nsg89
(lp135
sg91
Nsg92
(lp136
sg27
Nsg25
(lp137
sg97
Nsg98
(lp138
sg100
Nsbag7
(g31
g9
Ntp139
Rp140
(dp141
g13
(lp142
sg36
F1.0
sg37
(lp143
sg39
S'kudriavzevii'
p144
sg41
(lp145
sg22
(lp146
sg86
Nsg87
Nsg88
Nsg89
(lp147
sg91
Nsg92
(lp148
S'ATGGCCGGTTTAAAAGACGTTGTCACTCGTGAATATACCATCAATTTACACAAAAGGTTACATGGTGTCAGCTTCAAGAAAAGAGCTCCAAGAGCTGTCAAGGAAATCAAAAAGTTCGCCAAATTGCACATGGGTACTGAAGATGTTCGTCTAGCCCCAGAATTGAACCAAGCCATCTGGAAGAGAGGTGTTAAGGGTGTTGAATACAGATTGAGATTGAGAATCTCCAGAAAGAGAAACGAAGAGGAAGATGCCAAGAATCCATTGTTCTCTTACGTCGAACCTGTCTTGGTTGCCACTGCTAAGGGTTTACAAACCGTTGTCGTTGAAGAAGATGCT'
p149
aS'ATGGCCGGTTTGAAAGACGTTGTCACTCGTGAATACACCATTAACTTGCACAAAAGATTGCACGGTGTCTCCTTTAAGAAGAGAGCTCCAAGAGCCGTCAAGGAAATTAAGAAGTTCGCCAAGTTACACATGGGTACTGATGATGTCCGTCTAGCTCCAGAATTGAATCAAGCTATCTGGAAGAGAGGTGTCAAGGGTGTTGAATACAGATTAAGATTGAGAATCTCCAGAAAGAGAAATGAAGAAGAAGATGCCAAGAACCCATTATTTTCTTACGTCGAACCTGTCTTAGTTGCCTCTGCCAAGGGTCTACAAACCGTTGTTGTCGAAGAAGATGCT'
p150
asg27
Nsg25
(lp151
sg97
Nsg98
(lp152
sg100
Nsbasg22
(lp153
sg86
Nsg87
Nsg88
Nsg89
(lp154
sg91
Nsg92
(lp155
sg27
Nsg25
(lp156
sg97
Nsg98
(lp157
sg100
Nsbag7
(g31
g9
Ntp158
Rp159
(dp160
g13
(lp161
sg36
F1.0
sg37
(lp162
sg39
S'bayanus'
p163
sg41
(lp164
sg22
(lp165
sg86
Nsg87
Nsg88
Nsg89
(lp166
sg91
Nsg92
(lp167
S'ATGGCCGGTTTAAAAGACGTTGTCACTCGTGAATACACTATCAACTTACACAAAAGATTACATGGTGTTAGCTTCAAGAAGAGAGCTCCAAGAGCTGTCAAGGAAATCAAGAAGTTCGCCAAATTGCACATGGGTACCGAAGATGTCCGTCTAGCTCCAGAATTAAACCAAGCTATCTGGAAGAGAGGTGTCAAGGGTGTTGAATACAGACTAAGATTGAGAATTTCTAGAAAGAGAAACGAAGAAGAAGACGCCAAGAACCCATTGTTCTCTTACGTTGAACCTGTCTTGGTTGCCTCTGCCAAGGGTTTACAAACCGTTGTCGTTGAAGAAGATGCT'
p168
aS'ATGGCCGGTTTGAAAGACGTTGTCACTCGTGAATACACCATTAACTTGCACAAAAGATTTAATAGTTTCTCCTTCAAGAAGAGAGCTCCAAGAGCTGTCAAGGAAATCAAGAAGTTCGCCAAGTTACACATGGGTACTGAAGATGTCCGTCTAGCCCCAGAATTGAACCAAGCTATCTGGAAGAGAGGTGTCAAGGGTGTTGAATACAGATTAAGATTGAGAATCTCCAGAAAGAGAAACGAAGAAGAAGACGCCAAGAACCCATTGTTCTCTTACGTCGAACCTGTCTTAGTCGCCTCTGCTAAGGGTCTACAAACCGTTGTTGTCGAAGAAGATGCT'
p169
asg27
Nsg25
(lp170
sg97
Nsg98
(lp171
sg100
Nsbasg22
(lp172
sg86
Nsg87
Nsg88
Nsg89
(lp173
sg91
Nsg92
(lp174
sg27
Nsg25
(lp175
sg97
Nsg98
(lp176
sg100
Nsbag7
(g31
g9
Ntp177
Rp178
(dp179
g13
(lp180
sg36
F1.0
sg37
(lp181
sg39
S'castellii'
p182
sg41
(lp183
sg22
(lp184
sg86
Nsg87
Nsg88
Nsg89
(lp185
sg91
Nsg92
(lp186
S'ATGGCTGGTTTAAAGGACGTCGTTACTCGTGAATACACCATTAACATGCACAAGAGATTGCATGGTGTCAGTTTCAAGAAGAGAGCTCCAAGAGCTGTCAAGGAAATCAAGAAGTTCGCCAAATTACACATGGGTACTGAAGATGTCCGTTTGGCTCCAGAATTGAACCAAGCTATCTGGAAGAGAGGTATCAAGGGTGTTGAATACAGATTGAGATTGAGAATCTCCAGAAAGAGAAACGAAGAAGAAGATGCTAAGAACCCATTATTCTCTTACGTCGAACCAGTCTTCGTTGCTTCTGCCAAGGGTTTACAAACCGTTGTTGTTGAAGAAGAAGCT'
p187
aS'ATGGCCGGTTTGAAAGACGTTGTCACTCGTGAATACACTATCAACATGCACAAGAGATTGCATGGTGTTTCCTTCAAGAAGAGAGCTCCAAGAGCTGTCAAGGAAATCAAGAAGTTCGCCAAGTTACACATGGGTACTGAAGATGTCCGTTTGGCTCCAGAATTAAACCAAGCTATCTGGAAGAGAGGTATCAAGGGTGTCGAATACAGACTAAGATTGAGAATCTCTAGAAAGAGAAACGAAGAAGAAGATGCTAAGAACCCATTATTCTCTTACGTCGAACCAGTTTTCGTTGCCTCTGCTAAGGGTTTGCAAACTGTTGTTGTTGAAGAAGAAGCT'
p188
asg27
Nsg25
(lp189
sg97
Nsg98
(lp190
sg100
Nsbasg22
(lp191
sg86
Nsg87
Nsg88
Nsg89
(lp192
sg91
Nsg92
(lp193
sg27
Nsg25
(lp194
sg97
Nsg98
(lp195
sg100
Nsbag7
(g31
g9
Ntp196
Rp197
(dp198
g13
(lp199
sg36
F1.0
sg37
(lp200
sg39
S'kluyveri'
p201
sg41
(lp202
sg22
(lp203
sg86
Nsg87
Nsg88
Nsg89
(lp204
sg91
Nsg92
(lp205
S'ATGGCCGGTTTGAAAGACGTTGTTACTCGTGAGTACACCATTAACTTGCACAAGAGATTGCACGGTGTTTCCTTCAAGAAGAGAGCTCCAAGAGCCGTCAAGGAAATCAAGAAGTTCGCCAAGTTGCACATGGGTACTGAAGAAGTCCGTTTGGACCCAAGATTGAACCAAGAAATCTGGAAGAGAGGTATCAAGGGTGTTCCATTCAGATTGAGATTGAGAATCTCCAGAAGAAGAAATGAAGAAGAAGACGCTAAGAACCCATTGTTCTCTTACGTTGAACCAGTCGTTGTTGCTTCTGCCAAGGGTTTGCAAACCGTTGTTGTTGAAGAAGATGAA'
p206
asg27
Nsg25
(lp207
sg97
Nsg98
(lp208
sg100
Nsbasg22
(lp209
sg86
Nsg87
Nsg88
Nsg89
(lp210
sg91
Nsg92
(lp211
sg27
Nsg25
(lp212
sg97
Nsg98
(lp213
sg100
NsbsS'id'
p214
Nsg39
NsbsS'para'
p215
(lp216
F0.491260873157
aF0.5995895024
aF0.402387554631
aF10.3178326365
asS'err'
p217
F1e-10
sS'newicktree'
p218
S'./YeastTree.newick'
p219
sS'models'
p220
(dp221
S'HKY'
p222
I3
sS'F81'
p223
I2
sS'Codon'
p224
I6
sS'GTR'
p225
I4
sS'Codon_corrected'
p226
I7
sS'K80'
p227
I1
sS'Jukes-Cantor'
p228
I0
ssS'data'
p229
(dp230
(g182
S'YLR406C'
p231
tp232
(lp233
S'ATG'
p234
aS'GCT'
p235
aS'GGT'
p236
aS'TTA'
p237
aS'AAG'
p238
aS'GAC'
p239
aS'GTC'
p240
aS'GTT'
p241
aS'ACT'
p242
aS'CGT'
p243
aS'GAA'
p244
aS'TAC'
p245
aS'ACC'
p246
aS'ATT'
p247
aS'AAC'
p248
aS'ATG'
p249
aS'CAC'
p250
aS'AAG'
p251
aS'AGA'
p252
aS'TTG'
p253
aS'CAT'
p254
aS'GGT'
p255
aS'GTC'
p256
aS'AGT'
p257
aS'TTC'
p258
aS'AAG'
p259
aS'AAG'
p260
aS'AGA'
p261
aS'GCT'
p262
aS'CCA'
p263
aS'AGA'
p264
aS'GCT'
p265
aS'GTC'
p266
aS'AAG'
p267
aS'GAA'
p268
aS'ATC'
p269
aS'AAG'
p270
aS'AAG'
p271
aS'TTC'
p272
aS'GCC'
p273
aS'AAA'
p274
aS'TTA'
p275
aS'CAC'
p276
aS'ATG'
p277
aS'GGT'
p278
aS'ACT'
p279
aS'GAA'
p280
aS'GAT'
p281
aS'GTC'
p282
aS'CGT'
p283
aS'TTG'
p284
aS'GCT'
p285
aS'CCA'
p286
aS'GAA'
p287
aS'TTG'
p288
aS'AAC'
p289
aS'CAA'
p290
aS'GCT'
p291
aS'ATC'
p292
aS'TGG'
p293
aS'AAG'
p294
aS'AGA'
p295
aS'GGT'
p296
aS'ATC'
p297
aS'AAG'
p298
aS'GGT'
p299
aS'GTT'
p300
aS'GAA'
p301
aS'TAC'
p302
aS'AGA'
p303
aS'TTG'
p304
aS'AGA'
p305
aS'TTG'
p306
aS'AGA'
p307
aS'ATC'
p308
aS'TCC'
p309
aS'AGA'
p310
aS'AAG'
p311
aS'AGA'
p312
aS'AAC'
p313
aS'GAA'
p314
aS'GAA'
p315
aS'GAA'
p316
aS'GAT'
p317
aS'GCT'
p318
aS'AAG'
p319
aS'AAC'
p320
aS'CCA'
p321
aS'TTA'
p322
aS'TTC'
p323
aS'TCT'
p324
aS'TAC'
p325
aS'GTC'
p326
aS'GAA'
p327
aS'CCA'
p328
aS'GTC'
p329
aS'TTC'
p330
aS'GTT'
p331
aS'GCT'
p332
aS'TCT'
p333
aS'GCC'
p334
aS'AAG'
p335
aS'GGT'
p336
aS'TTA'
p337
aS'CAA'
p338
aS'ACC'
p339
aS'GTT'
p340
aS'GTT'
p341
aS'GTT'
p342
aS'GAA'
p343
aS'GAA'
p344
aS'GAA'
p345
aS'GCT'
p346
as(g144
S'YDL075W'
p347
tp348
(lp349
S'ATG'
p350
aS'GCC'
p351
aS'GGT'
p352
aS'TTG'
p353
aS'AAA'
p354
aS'GAC'
p355
aS'GTT'
p356
aS'GTC'
p357
aS'ACT'
p358
aS'CGT'
p359
aS'GAA'
p360
aS'TAC'
p361
aS'ACC'
p362
aS'ATT'
p363
aS'AAC'
p364
aS'TTG'
p365
aS'CAC'
p366
aS'AAA'
p367
aS'AGA'
p368
aS'TTG'
p369
aS'CAC'
p370
aS'GGT'
p371
aS'GTC'
p372
aS'TCC'
p373
aS'TTT'
p374
aS'AAG'
p375
aS'AAG'
p376
aS'AGA'
p377
aS'GCT'
p378
aS'CCA'
p379
aS'AGA'
p380
aS'GCC'
p381
aS'GTC'
p382
aS'AAG'
p383
aS'GAA'
p384
aS'ATT'
p385
aS'AAG'
p386
aS'AAG'
p387
aS'TTC'
p388
aS'GCC'
p389
aS'AAG'
p390
aS'TTA'
p391
aS'CAC'
p392
aS'ATG'
p393
aS'GGT'
p394
aS'ACT'
p395
aS'GAT'
p396
aS'GAT'
p397
aS'GTC'
p398
aS'CGT'
p399
aS'CTA'
p400
aS'GCT'
p401
aS'CCA'
p402
aS'GAA'
p403
aS'TTG'
p404
aS'AAT'
p405
aS'CAA'
p406
aS'GCT'
p407
aS'ATC'
p408
aS'TGG'
p409
aS'AAG'
p410
aS'AGA'
p411
aS'GGT'
p412
aS'GTC'
p413
aS'AAG'
p414
aS'GGT'
p415
aS'GTT'
p416
aS'GAA'
p417
aS'TAC'
p418
aS'AGA'
p419
aS'TTA'
p420
aS'AGA'
p421
aS'TTG'
p422
aS'AGA'
p423
aS'ATC'
p424
aS'TCC'
p425
aS'AGA'
p426
aS'AAG'
p427
aS'AGA'
p428
aS'AAT'
p429
aS'GAA'
p430
aS'GAA'
p431
aS'GAA'
p432
aS'GAT'
p433
aS'GCC'
p434
aS'AAG'
p435
aS'AAC'
p436
aS'CCA'
p437
aS'TTA'
p438
aS'TTT'
p439
aS'TCT'
p440
aS'TAC'
p441
aS'GTC'
p442
aS'GAA'
p443
aS'CCT'
p444
aS'GTC'
p445
aS'TTA'
p446
aS'GTT'
p447
aS'GCC'
p448
aS'TCT'
p449
aS'GCC'
p450
aS'AAG'
p451
aS'GGT'
p452
aS'CTA'
p453
aS'CAA'
p454
aS'ACC'
p455
aS'GTT'
p456
aS'GTT'
p457
aS'GTC'
p458
aS'GAA'
p459
aS'GAA'
p460
aS'GAT'
p461
aS'GCT'
p462
as(g163
g347
tp463
(lp464
S'ATG'
p465
aS'GCC'
p466
aS'GGT'
p467
aS'TTG'
p468
aS'AAA'
p469
aS'GAC'
p470
aS'GTT'
p471
aS'GTC'
p472
aS'ACT'
p473
aS'CGT'
p474
aS'GAA'
p475
aS'TAC'
p476
aS'ACC'
p477
aS'ATT'
p478
aS'AAC'
p479
aS'TTG'
p480
aS'CAC'
p481
aS'AAA'
p482
aS'AGA'
p483
aS'TTT'
p484
aS'AAT'
p485
aS'AGT'
p486
aS'TTC'
p487
aS'TCC'
p488
aS'TTC'
p489
aS'AAG'
p490
aS'AAG'
p491
aS'AGA'
p492
aS'GCT'
p493
aS'CCA'
p494
aS'AGA'
p495
aS'GCT'
p496
aS'GTC'
p497
aS'AAG'
p498
aS'GAA'
p499
aS'ATC'
p500
aS'AAG'
p501
aS'AAG'
p502
aS'TTC'
p503
aS'GCC'
p504
aS'AAG'
p505
aS'TTA'
p506
aS'CAC'
p507
aS'ATG'
p508
aS'GGT'
p509
aS'ACT'
p510
aS'GAA'
p511
aS'GAT'
p512
aS'GTC'
p513
aS'CGT'
p514
aS'CTA'
p515
aS'GCC'
p516
aS'CCA'
p517
aS'GAA'
p518
aS'TTG'
p519
aS'AAC'
p520
aS'CAA'
p521
aS'GCT'
p522
aS'ATC'
p523
aS'TGG'
p524
aS'AAG'
p525
aS'AGA'
p526
aS'GGT'
p527
aS'GTC'
p528
aS'AAG'
p529
aS'GGT'
p530
aS'GTT'
p531
aS'GAA'
p532
aS'TAC'
p533
aS'AGA'
p534
aS'TTA'
p535
aS'AGA'
p536
aS'TTG'
p537
aS'AGA'
p538
aS'ATC'
p539
aS'TCC'
p540
aS'AGA'
p541
aS'AAG'
p542
aS'AGA'
p543
aS'AAC'
p544
aS'GAA'
p545
aS'GAA'
p546
aS'GAA'
p547
aS'GAC'
p548
aS'GCC'
p549
aS'AAG'
p550
aS'AAC'
p551
aS'CCA'
p552
aS'TTG'
p553
aS'TTC'
p554
aS'TCT'
p555
aS'TAC'
p556
aS'GTC'
p557
aS'GAA'
p558
aS'CCT'
p559
aS'GTC'
p560
aS'TTA'
p561
aS'GTC'
p562
aS'GCC'
p563
aS'TCT'
p564
aS'GCT'
p565
aS'AAG'
p566
aS'GGT'
p567
aS'CTA'
p568
aS'CAA'
p569
aS'ACC'
p570
aS'GTT'
p571
aS'GTT'
p572
aS'GTC'
p573
aS'GAA'
p574
aS'GAA'
p575
aS'GAT'
p576
aS'GCT'
p577
as(g201
g231
tp578
(lp579
S'ATG'
p580
aS'GCC'
p581
aS'GGT'
p582
aS'TTG'
p583
aS'AAA'
p584
aS'GAC'
p585
aS'GTT'
p586
aS'GTT'
p587
aS'ACT'
p588
aS'CGT'
p589
aS'GAG'
p590
aS'TAC'
p591
aS'ACC'
p592
aS'ATT'
p593
aS'AAC'
p594
aS'TTG'
p595
aS'CAC'
p596
aS'AAG'
p597
aS'AGA'
p598
aS'TTG'
p599
aS'CAC'
p600
aS'GGT'
p601
aS'GTT'
p602
aS'TCC'
p603
aS'TTC'
p604
aS'AAG'
p605
aS'AAG'
p606
aS'AGA'
p607
aS'GCT'
p608
aS'CCA'
p609
aS'AGA'
p610
aS'GCC'
p611
aS'GTC'
p612
aS'AAG'
p613
aS'GAA'
p614
aS'ATC'
p615
aS'AAG'
p616
aS'AAG'
p617
aS'TTC'
p618
aS'GCC'
p619
aS'AAG'
p620
aS'TTG'
p621
aS'CAC'
p622
aS'ATG'
p623
aS'GGT'
p624
aS'ACT'
p625
aS'GAA'
p626
aS'GAA'
p627
aS'GTC'
p628
aS'CGT'
p629
aS'TTG'
p630
aS'GAC'
p631
aS'CCA'
p632
aS'AGA'
p633
aS'TTG'
p634
aS'AAC'
p635
aS'CAA'
p636
aS'GAA'
p637
aS'ATC'
p638
aS'TGG'
p639
aS'AAG'
p640
aS'AGA'
p641
aS'GGT'
p642
aS'ATC'
p643
aS'AAG'
p644
aS'GGT'
p645
aS'GTT'
p646
aS'CCA'
p647
aS'TTC'
p648
aS'AGA'
p649
aS'TTG'
p650
aS'AGA'
p651
aS'TTG'
p652
aS'AGA'
p653
aS'ATC'
p654
aS'TCC'
p655
aS'AGA'
p656
aS'AGA'
p657
aS'AGA'
p658
aS'AAT'
p659
aS'GAA'
p660
aS'GAA'
p661
aS'GAA'
p662
aS'GAC'
p663
aS'GCT'
p664
aS'AAG'
p665
aS'AAC'
p666
aS'CCA'
p667
aS'TTG'
p668
aS'TTC'
p669
aS'TCT'
p670
aS'TAC'
p671
aS'GTT'
p672
aS'GAA'
p673
aS'CCA'
p674
aS'GTC'
p675
aS'GTT'
p676
aS'GTT'
p677
aS'GCT'
p678
aS'TCT'
p679
aS'GCC'
p680
aS'AAG'
p681
aS'GGT'
p682
aS'TTG'
p683
aS'CAA'
p684
aS'ACC'
p685
aS'GTT'
p686
aS'GTT'
p687
aS'GTT'
p688
aS'GAA'
p689
aS'GAA'
p690
aS'GAT'
p691
aS'GAA'
p692
as(g125
g347
tp693
(lp694
S'ATG'
p695
aS'GCC'
p696
aS'GGT'
p697
aS'TTG'
p698
aS'AAA'
p699
aS'GAC'
p700
aS'GTT'
p701
aS'GTC'
p702
aS'ACT'
p703
aS'CGT'
p704
aS'GAA'
p705
aS'TAC'
p706
aS'ACC'
p707
aS'ATT'
p708
aS'AAC'
p709
aS'TTG'
p710
aS'CAC'
p711
aS'AAA'
p712
aS'AGA'
p713
aS'TTG'
p714
aS'CAC'
p715
aS'GGT'
p716
aS'GTC'
p717
aS'TCC'
p718
aS'TTC'
p719
aS'AAG'
p720
aS'AAG'
p721
aS'AGA'
p722
aS'GCT'
p723
aS'CCA'
p724
aS'AGA'
p725
aS'GCT'
p726
aS'GTC'
p727
aS'AAG'
p728
aS'GAA'
p729
aS'ATT'
p730
aS'AAG'
p731
aS'AAG'
p732
aS'TTC'
p733
aS'GCC'
p734
aS'AAG'
p735
aS'TTA'
p736
aS'CAC'
p737
aS'ATG'
p738
aS'GGT'
p739
aS'ACT'
p740
aS'GAT'
p741
aS'GAT'
p742
aS'GTC'
p743
aS'CGT'
p744
aS'CTA'
p745
aS'GCT'
p746
aS'CCA'
p747
aS'GAA'
p748
aS'TTG'
p749
aS'AAC'
p750
aS'CAA'
p751
aS'GCT'
p752
aS'ATC'
p753
aS'TGG'
p754
aS'AAG'
p755
aS'AGA'
p756
aS'GGT'
p757
aS'GTC'
p758
aS'AAG'
p759
aS'GGT'
p760
aS'GTT'
p761
aS'GAA'
p762
aS'TAC'
p763
aS'AGA'
p764
aS'TTA'
p765
aS'AGA'
p766
aS'TTG'
p767
aS'AGA'
p768
aS'ATT'
p769
aS'TCT'
p770
aS'AGA'
p771
aS'AAG'
p772
aS'AGA'
p773
aS'AAC'
p774
aS'GAA'
p775
aS'GAA'
p776
aS'GAA'
p777
aS'GAC'
p778
aS'GCC'
p779
aS'AAG'
p780
aS'AAC'
p781
aS'CCA'
p782
aS'TTG'
p783
aS'TTC'
p784
aS'TCT'
p785
aS'TAC'
p786
aS'GTT'
p787
aS'GAA'
p788
aS'CCT'
p789
aS'GTT'
p790
aS'CTA'
p791
aS'GTT'
p792
aS'GCT'
p793
aS'TCT'
p794
aS'GCC'
p795
aS'AAG'
p796
aS'GGT'
p797
aS'TTA'
p798
aS'CAA'
p799
aS'ACC'
p800
aS'GTT'
p801
aS'GTT'
p802
aS'GTT'
p803
aS'GAA'
p804
aS'GAA'
p805
aS'GAT'
p806
aS'GCT'
p807
as(g83
g231
tp808
(lp809
S'ATG'
p810
aS'GCC'
p811
aS'GGT'
p812
aS'TTA'
p813
aS'AAA'
p814
aS'GAC'
p815
aS'GTT'
p816
aS'GTC'
p817
aS'ACT'
p818
aS'CGT'
p819
aS'GAA'
p820
aS'TAC'
p821
aS'ACC'
p822
aS'ATC'
p823
aS'AAC'
p824
aS'TTG'
p825
aS'CAC'
p826
aS'AAA'
p827
aS'AGA'
p828
aS'CTA'
p829
aS'CAT'
p830
aS'GGT'
p831
aS'GTC'
p832
aS'AGT'
p833
aS'TTC'
p834
aS'AAA'
p835
aS'AAG'
p836
aS'AGA'
p837
aS'GCT'
p838
aS'CCA'
p839
aS'AGA'
p840
aS'GCT'
p841
aS'GTG'
p842
aS'AAG'
p843
aS'GAA'
p844
aS'ATC'
p845
aS'AAG'
p846
aS'AAA'
p847
aS'TTC'
p848
aS'GCC'
p849
aS'AAA'
p850
aS'TTA'
p851
aS'CAC'
p852
aS'ATG'
p853
aS'GGT'
p854
aS'ACT'
p855
aS'GAA'
p856
aS'GAT'
p857
aS'GTC'
p858
aS'CGT'
p859
aS'CTA'
p860
aS'GCC'
p861
aS'CCA'
p862
aS'GAA'
p863
aS'TTG'
p864
aS'AAC'
p865
aS'CAA'
p866
aS'GCT'
p867
aS'ATC'
p868
aS'TGG'
p869
aS'AAA'
p870
aS'AGA'
p871
aS'GGT'
p872
aS'GTT'
p873
aS'AAG'
p874
aS'GGT'
p875
aS'GTT'
p876
aS'GAA'
p877
aS'TAC'
p878
aS'AGA'
p879
aS'TTG'
p880
aS'AGA'
p881
aS'TTG'
p882
aS'AGA'
p883
aS'ATC'
p884
aS'TCC'
p885
aS'AGA'
p886
aS'AAG'
p887
aS'AGA'
p888
aS'AAC'
p889
aS'GAA'
p890
aS'GAA'
p891
aS'GAA'
p892
aS'GAT'
p893
aS'GCC'
p894
aS'AAG'
p895
aS'AAC'
p896
aS'CCA'
p897
aS'TTG'
p898
aS'TTT'
p899
aS'TCC'
p900
aS'TAC'
p901
aS'GTC'
p902
aS'GAA'
p903
aS'CCA'
p904
aS'GTT'
p905
aS'TTG'
p906
aS'GTT'
p907
aS'GCC'
p908
aS'TCT'
p909
aS'GCT'
p910
aS'AAG'
p911
aS'GGT'
p912
aS'CTA'
p913
aS'CAA'
p914
aS'ACC'
p915
aS'GTT'
p916
aS'GTC'
p917
aS'GTT'
p918
aS'GAA'
p919
aS'GAA'
p920
aS'GAT'
p921
aS'GCT'
p922
as(g182
g347
tp923
(lp924
S'ATG'
p925
aS'GCC'
p926
aS'GGT'
p927
aS'TTG'
p928
aS'AAA'
p929
aS'GAC'
p930
aS'GTT'
p931
aS'GTC'
p932
aS'ACT'
p933
aS'CGT'
p934
aS'GAA'
p935
aS'TAC'
p936
aS'ACT'
p937
aS'ATC'
p938
aS'AAC'
p939
aS'ATG'
p940
aS'CAC'
p941
aS'AAG'
p942
aS'AGA'
p943
aS'TTG'
p944
aS'CAT'
p945
aS'GGT'
p946
aS'GTT'
p947
aS'TCC'
p948
aS'TTC'
p949
aS'AAG'
p950
aS'AAG'
p951
aS'AGA'
p952
aS'GCT'
p953
aS'CCA'
p954
aS'AGA'
p955
aS'GCT'
p956
aS'GTC'
p957
aS'AAG'
p958
aS'GAA'
p959
aS'ATC'
p960
aS'AAG'
p961
aS'AAG'
p962
aS'TTC'
p963
aS'GCC'
p964
aS'AAG'
p965
aS'TTA'
p966
aS'CAC'
p967
aS'ATG'
p968
aS'GGT'
p969
aS'ACT'
p970
aS'GAA'
p971
aS'GAT'
p972
aS'GTC'
p973
aS'CGT'
p974
aS'TTG'
p975
aS'GCT'
p976
aS'CCA'
p977
aS'GAA'
p978
aS'TTA'
p979
aS'AAC'
p980
aS'CAA'
p981
aS'GCT'
p982
aS'ATC'
p983
aS'TGG'
p984
aS'AAG'
p985
aS'AGA'
p986
aS'GGT'
p987
aS'ATC'
p988
aS'AAG'
p989
aS'GGT'
p990
aS'GTC'
p991
aS'GAA'
p992
aS'TAC'
p993
aS'AGA'
p994
aS'CTA'
p995
aS'AGA'
p996
aS'TTG'
p997
aS'AGA'
p998
aS'ATC'
p999
aS'TCT'
p1000
aS'AGA'
p1001
aS'AAG'
p1002
aS'AGA'
p1003
aS'AAC'
p1004
aS'GAA'
p1005
aS'GAA'
p1006
aS'GAA'
p1007
aS'GAT'
p1008
aS'GCT'
p1009
aS'AAG'
p1010
aS'AAC'
p1011
aS'CCA'
p1012
aS'TTA'
p1013
aS'TTC'
p1014
aS'TCT'
p1015
aS'TAC'
p1016
aS'GTC'
p1017
aS'GAA'
p1018
aS'CCA'
p1019
aS'GTT'
p1020
aS'TTC'
p1021
aS'GTT'
p1022
aS'GCC'
p1023
aS'TCT'
p1024
aS'GCT'
p1025
aS'AAG'
p1026
aS'GGT'
p1027
aS'TTG'
p1028
aS'CAA'
p1029
aS'ACT'
p1030
aS'GTT'
p1031
aS'GTT'
p1032
aS'GTT'
p1033
aS'GAA'
p1034
aS'GAA'
p1035
aS'GAA'
p1036
aS'GCT'
p1037
as(g106
g347
tp1038
(lp1039
S'ATG'
p1040
aS'GCC'
p1041
aS'GGT'
p1042
aS'TTG'
p1043
aS'AAA'
p1044
aS'GAC'
p1045
aS'GTT'
p1046
aS'GTC'
p1047
aS'ACT'
p1048
aS'CGT'
p1049
aS'GAA'
p1050
aS'TAC'
p1051
aS'ACC'
p1052
aS'ATT'
p1053
aS'AAC'
p1054
aS'TTG'
p1055
aS'CAC'
p1056
aS'AAA'
p1057
aS'AGA'
p1058
aS'TTG'
p1059
aS'CAC'
p1060
aS'GGT'
p1061
aS'GTC'
p1062
aS'TCC'
p1063
aS'TTC'
p1064
aS'AAG'
p1065
aS'AAG'
p1066
aS'AGA'
p1067
aS'GCT'
p1068
aS'CCA'
p1069
aS'AGA'
p1070
aS'GCT'
p1071
aS'GTC'
p1072
aS'AAG'
p1073
aS'GAA'
p1074
aS'ATT'
p1075
aS'AAG'
p1076
aS'AAG'
p1077
aS'TTC'
p1078
aS'GCC'
p1079
aS'AAG'
p1080
aS'TTA'
p1081
aS'CAC'
p1082
aS'ATG'
p1083
aS'GGT'
p1084
aS'ACT'
p1085
aS'GAT'
p1086
aS'GAT'
p1087
aS'GTC'
p1088
aS'CGT'
p1089
aS'CTA'
p1090
aS'GCT'
p1091
aS'CCA'
p1092
aS'GAA'
p1093
aS'TTG'
p1094
aS'AAC'
p1095
aS'CAA'
p1096
aS'GCT'
p1097
aS'ATC'
p1098
aS'TGG'
p1099
aS'AAG'
p1100
aS'AGA'
p1101
aS'GGT'
p1102
aS'GTC'
p1103
aS'AAG'
p1104
aS'GGT'
p1105
aS'GTT'
p1106
aS'GAA'
p1107
aS'TAC'
p1108
aS'AGA'
p1109
aS'TTA'
p1110
aS'AGA'
p1111
aS'TTG'
p1112
aS'AGA'
p1113
aS'ATT'
p1114
aS'TCC'
p1115
aS'AGA'
p1116
aS'AAG'
p1117
aS'AGA'
p1118
aS'AAC'
p1119
aS'GAA'
p1120
aS'GAA'
p1121
aS'GAA'
p1122
aS'GAC'
p1123
aS'GCC'
p1124
aS'AAG'
p1125
aS'AAC'
p1126
aS'CCA'
p1127
aS'TTG'
p1128
aS'TTC'
p1129
aS'TCT'
p1130
aS'TAC'
p1131
aS'GTT'
p1132
aS'GAA'
p1133
aS'CCT'
p1134
aS'GTC'
p1135
aS'TTA'
p1136
aS'GTT'
p1137
aS'GCT'
p1138
aS'TCT'
p1139
aS'GCC'
p1140
aS'AAG'
p1141
aS'GGT'
p1142
aS'CTA'
p1143
aS'CAA'
p1144
aS'ACT'
p1145
aS'GTT'
p1146
aS'GTT'
p1147
aS'GTC'
p1148
aS'GAA'
p1149
aS'GAA'
p1150
aS'GAT'
p1151
aS'GCT'
p1152
as(g163
g231
tp1153
(lp1154
S'ATG'
p1155
aS'GCC'
p1156
aS'GGT'
p1157
aS'TTA'
p1158
aS'AAA'
p1159
aS'GAC'
p1160
aS'GTT'
p1161
aS'GTC'
p1162
aS'ACT'
p1163
aS'CGT'
p1164
aS'GAA'
p1165
aS'TAC'
p1166
aS'ACT'
p1167
aS'ATC'
p1168
aS'AAC'
p1169
aS'TTA'
p1170
aS'CAC'
p1171
aS'AAA'
p1172
aS'AGA'
p1173
aS'TTA'
p1174
aS'CAT'
p1175
aS'GGT'
p1176
aS'GTT'
p1177
aS'AGC'
p1178
aS'TTC'
p1179
aS'AAG'
p1180
aS'AAG'
p1181
aS'AGA'
p1182
aS'GCT'
p1183
aS'CCA'
p1184
aS'AGA'
p1185
aS'GCT'
p1186
aS'GTC'
p1187
aS'AAG'
p1188
aS'GAA'
p1189
aS'ATC'
p1190
aS'AAG'
p1191
aS'AAG'
p1192
aS'TTC'
p1193
aS'GCC'
p1194
aS'AAA'
p1195
aS'TTG'
p1196
aS'CAC'
p1197
aS'ATG'
p1198
aS'GGT'
p1199
aS'ACC'
p1200
aS'GAA'
p1201
aS'GAT'
p1202
aS'GTC'
p1203
aS'CGT'
p1204
aS'CTA'
p1205
aS'GCT'
p1206
aS'CCA'
p1207
aS'GAA'
p1208
aS'TTA'
p1209
aS'AAC'
p1210
aS'CAA'
p1211
aS'GCT'
p1212
aS'ATC'
p1213
aS'TGG'
p1214
aS'AAG'
p1215
aS'AGA'
p1216
aS'GGT'
p1217
aS'GTC'
p1218
aS'AAG'
p1219
aS'GGT'
p1220
aS'GTT'
p1221
aS'GAA'
p1222
aS'TAC'
p1223
aS'AGA'
p1224
aS'CTA'
p1225
aS'AGA'
p1226
aS'TTG'
p1227
aS'AGA'
p1228
aS'ATT'
p1229
aS'TCT'
p1230
aS'AGA'
p1231
aS'AAG'
p1232
aS'AGA'
p1233
aS'AAC'
p1234
aS'GAA'
p1235
aS'GAA'
p1236
aS'GAA'
p1237
aS'GAC'
p1238
aS'GCC'
p1239
aS'AAG'
p1240
aS'AAC'
p1241
aS'CCA'
p1242
aS'TTG'
p1243
aS'TTC'
p1244
aS'TCT'
p1245
aS'TAC'
p1246
aS'GTT'
p1247
aS'GAA'
p1248
aS'CCT'
p1249
aS'GTC'
p1250
aS'TTG'
p1251
aS'GTT'
p1252
aS'GCC'
p1253
aS'TCT'
p1254
aS'GCC'
p1255
aS'AAG'
p1256
aS'GGT'
p1257
aS'TTA'
p1258
aS'CAA'
p1259
aS'ACC'
p1260
aS'GTT'
p1261
aS'GTC'
p1262
aS'GTT'
p1263
aS'GAA'
p1264
aS'GAA'
p1265
aS'GAT'
p1266
aS'GCT'
p1267
as(g144
g231
tp1268
(lp1269
S'ATG'
p1270
aS'GCC'
p1271
aS'GGT'
p1272
aS'TTA'
p1273
aS'AAA'
p1274
aS'GAC'
p1275
aS'GTT'
p1276
aS'GTC'
p1277
aS'ACT'
p1278
aS'CGT'
p1279
aS'GAA'
p1280
aS'TAT'
p1281
aS'ACC'
p1282
aS'ATC'
p1283
aS'AAT'
p1284
aS'TTA'
p1285
aS'CAC'
p1286
aS'AAA'
p1287
aS'AGG'
p1288
aS'TTA'
p1289
aS'CAT'
p1290
aS'GGT'
p1291
aS'GTC'
p1292
aS'AGC'
p1293
aS'TTC'
p1294
aS'AAG'
p1295
aS'AAA'
p1296
aS'AGA'
p1297
aS'GCT'
p1298
aS'CCA'
p1299
aS'AGA'
p1300
aS'GCT'
p1301
aS'GTC'
p1302
aS'AAG'
p1303
aS'GAA'
p1304
aS'ATC'
p1305
aS'AAA'
p1306
aS'AAG'
p1307
aS'TTC'
p1308
aS'GCC'
p1309
aS'AAA'
p1310
aS'TTG'
p1311
aS'CAC'
p1312
aS'ATG'
p1313
aS'GGT'
p1314
aS'ACT'
p1315
aS'GAA'
p1316
aS'GAT'
p1317
aS'GTT'
p1318
aS'CGT'
p1319
aS'CTA'
p1320
aS'GCC'
p1321
aS'CCA'
p1322
aS'GAA'
p1323
aS'TTG'
p1324
aS'AAC'
p1325
aS'CAA'
p1326
aS'GCC'
p1327
aS'ATC'
p1328
aS'TGG'
p1329
aS'AAG'
p1330
aS'AGA'
p1331
aS'GGT'
p1332
aS'GTT'
p1333
aS'AAG'
p1334
aS'GGT'
p1335
aS'GTT'
p1336
aS'GAA'
p1337
aS'TAC'
p1338
aS'AGA'
p1339
aS'TTG'
p1340
aS'AGA'
p1341
aS'TTG'
p1342
aS'AGA'
p1343
aS'ATC'
p1344
aS'TCC'
p1345
aS'AGA'
p1346
aS'AAG'
p1347
aS'AGA'
p1348
aS'AAC'
p1349
aS'GAA'
p1350
aS'GAG'
p1351
aS'GAA'
p1352
aS'GAT'
p1353
aS'GCC'
p1354
aS'AAG'
p1355
aS'AAT'
p1356
aS'CCA'
p1357
aS'TTG'
p1358
aS'TTC'
p1359
aS'TCT'
p1360
aS'TAC'
p1361
aS'GTC'
p1362
aS'GAA'
p1363
aS'CCT'
p1364
aS'GTC'
p1365
aS'TTG'
p1366
aS'GTT'
p1367
aS'GCC'
p1368
aS'ACT'
p1369
aS'GCT'
p1370
aS'AAG'
p1371
aS'GGT'
p1372
aS'TTA'
p1373
aS'CAA'
p1374
aS'ACC'
p1375
aS'GTT'
p1376
aS'GTC'
p1377
aS'GTT'
p1378
aS'GAA'
p1379
aS'GAA'
p1380
aS'GAT'
p1381
aS'GCT'
p1382
as(g83
g347
tp1383
(lp1384
S'ATG'
p1385
aS'GCC'
p1386
aS'GGT'
p1387
aS'TTG'
p1388
aS'AAA'
p1389
aS'GAC'
p1390
aS'GTT'
p1391
aS'GTC'
p1392
aS'ACT'
p1393
aS'CGT'
p1394
aS'GAA'
p1395
aS'TAC'
p1396
aS'ACC'
p1397
aS'ATT'
p1398
aS'AAC'
p1399
aS'TTG'
p1400
aS'CAC'
p1401
aS'AAA'
p1402
aS'AGA'
p1403
aS'TTG'
p1404
aS'CAC'
p1405
aS'GGT'
p1406
aS'GTC'
p1407
aS'TCC'
p1408
aS'TTC'
p1409
aS'AAG'
p1410
aS'AAG'
p1411
aS'AGA'
p1412
aS'GCT'
p1413
aS'CCA'
p1414
aS'AGA'
p1415
aS'GCT'
p1416
aS'GTC'
p1417
aS'AAG'
p1418
aS'GAA'
p1419
aS'ATT'
p1420
aS'AAG'
p1421
aS'AAG'
p1422
aS'TTC'
p1423
aS'GCC'
p1424
aS'AAG'
p1425
aS'TTA'
p1426
aS'CAC'
p1427
aS'ATG'
p1428
aS'GGT'
p1429
aS'ACT'
p1430
aS'GAT'
p1431
aS'GAT'
p1432
aS'GTC'
p1433
aS'CGT'
p1434
aS'CTA'
p1435
aS'GCT'
p1436
aS'CCA'
p1437
aS'GAA'
p1438
aS'TTG'
p1439
aS'AAC'
p1440
aS'CAA'
p1441
aS'GCT'
p1442
aS'ATC'
p1443
aS'TGG'
p1444
aS'AAG'
p1445
aS'AGA'
p1446
aS'GGT'
p1447
aS'GTC'
p1448
aS'AAG'
p1449
aS'GGT'
p1450
aS'GTT'
p1451
aS'GAA'
p1452
aS'TAC'
p1453
aS'AGA'
p1454
aS'TTA'
p1455
aS'AGA'
p1456
aS'TTG'
p1457
aS'AGA'
p1458
aS'ATT'
p1459
aS'TCC'
p1460
aS'AGA'
p1461
aS'AAG'
p1462
aS'AGA'
p1463
aS'AAC'
p1464
aS'GAA'
p1465
aS'GAA'
p1466
aS'GAA'
p1467
aS'GAC'
p1468
aS'GCC'
p1469
aS'AAG'
p1470
aS'AAC'
p1471
aS'CCA'
p1472
aS'TTG'
p1473
aS'TTC'
p1474
aS'TCC'
p1475
aS'TAC'
p1476
aS'GTT'
p1477
aS'GAA'
p1478
aS'CCT'
p1479
aS'GTC'
p1480
aS'TTA'
p1481
aS'GTT'
p1482
aS'GCT'
p1483
aS'TCT'
p1484
aS'GCC'
p1485
aS'AAG'
p1486
aS'GGT'
p1487
aS'CTA'
p1488
aS'CAA'
p1489
aS'ACT'
p1490
aS'GTT'
p1491
aS'GTT'
p1492
aS'GTC'
p1493
aS'GAA'
p1494
aS'GAA'
p1495
aS'GAT'
p1496
aS'GCT'
p1497
as(g106
g231
tp1498
(lp1499
S'ATG'
p1500
aS'GCC'
p1501
aS'GGT'
p1502
aS'TTA'
p1503
aS'AAA'
p1504
aS'GAC'
p1505
aS'GTT'
p1506
aS'GTC'
p1507
aS'ACT'
p1508
aS'CGT'
p1509
aS'GAA'
p1510
aS'TAC'
p1511
aS'ACC'
p1512
aS'ATC'
p1513
aS'AAC'
p1514
aS'TTG'
p1515
aS'CAC'
p1516
aS'AAA'
p1517
aS'AGA'
p1518
aS'TTA'
p1519
aS'CAT'
p1520
aS'GGT'
p1521
aS'GTC'
p1522
aS'AGT'
p1523
aS'TTC'
p1524
aS'AAG'
p1525
aS'AAG'
p1526
aS'AGA'
p1527
aS'GCT'
p1528
aS'CCA'
p1529
aS'AGA'
p1530
aS'GCT'
p1531
aS'GTC'
p1532
aS'AAG'
p1533
aS'GAA'
p1534
aS'ATC'
p1535
aS'AAG'
p1536
aS'AAG'
p1537
aS'TTC'
p1538
aS'GCC'
p1539
aS'AAA'
p1540
aS'TTA'
p1541
aS'CAC'
p1542
aS'ATG'
p1543
aS'GGT'
p1544
aS'ACC'
p1545
aS'GAT'
p1546
aS'GAT'
p1547
aS'GTC'
p1548
aS'CGT'
p1549
aS'CTA'
p1550
aS'GCC'
p1551
aS'CCA'
p1552
aS'GAA'
p1553
aS'TTG'
p1554
aS'AAC'
p1555
aS'CAG'
p1556
aS'GCC'
p1557
aS'ATC'
p1558
aS'TGG'
p1559
aS'AAG'
p1560
aS'AGA'
p1561
aS'GGT'
p1562
aS'GTT'
p1563
aS'AAG'
p1564
aS'GGT'
p1565
aS'GTT'
p1566
aS'GAA'
p1567
aS'TAT'
p1568
aS'AGA'
p1569
aS'TTA'
p1570
aS'AGA'
p1571
aS'TTG'
p1572
aS'AGA'
p1573
aS'ATC'
p1574
aS'TCA'
p1575
aS'AGA'
p1576
aS'AAG'
p1577
aS'AGA'
p1578
aS'AAC'
p1579
aS'GAA'
p1580
aS'GAA'
p1581
aS'GAA'
p1582
aS'GAC'
p1583
aS'GCC'
p1584
aS'AAG'
p1585
aS'AAC'
p1586
aS'CCA'
p1587
aS'TTG'
p1588
aS'TTC'
p1589
aS'TCT'
p1590
aS'TAC'
p1591
aS'GTC'
p1592
aS'GAA'
p1593
aS'CCT'
p1594
aS'GTC'
p1595
aS'CTG'
p1596
aS'GTC'
p1597
aS'GCC'
p1598
aS'TCT'
p1599
aS'GCT'
p1600
aS'AAG'
p1601
aS'GGT'
p1602
aS'TTA'
p1603
aS'CAA'
p1604
aS'ACC'
p1605
aS'GTC'
p1606
aS'GTC'
p1607
aS'GTT'
p1608
aS'GAA'
p1609
aS'GAA'
p1610
aS'GAT'
p1611
aS'GCT'
p1612
as(g201
g347
tp1613
g579
s(g125
g231
tp1614
(lp1615
S'ATG'
p1616
aS'GCC'
p1617
aS'GGT'
p1618
aS'TTA'
p1619
aS'AAA'
p1620
aS'GAT'
p1621
aS'GTT'
p1622
aS'GTC'
p1623
aS'ACT'
p1624
aS'CGT'
p1625
aS'GAA'
p1626
aS'TAC'
p1627
aS'ACC'
p1628
aS'ATC'
p1629
aS'AAT'
p1630
aS'TTA'
p1631
aS'CAC'
p1632
aS'AAA'
p1633
aS'AGA'
p1634
aS'TTG'
p1635
aS'CAT'
p1636
aS'GGT'
p1637
aS'GTC'
p1638
aS'AGT'
p1639
aS'TTC'
p1640
aS'AAG'
p1641
aS'AAA'
p1642
aS'AGA'
p1643
aS'GCC'
p1644
aS'CCA'
p1645
aS'AGA'
p1646
aS'GCT'
p1647
aS'GTC'
p1648
aS'AAA'
p1649
aS'GAG'
p1650
aS'ATC'
p1651
aS'AAA'
p1652
aS'AAG'
p1653
aS'TTC'
p1654
aS'GCT'
p1655
aS'AAG'
p1656
aS'TTA'
p1657
aS'CAT'
p1658
aS'ATG'
p1659
aS'GGC'
p1660
aS'ACT'
p1661
aS'GAA'
p1662
aS'GAT'
p1663
aS'GTC'
p1664
aS'CGT'
p1665
aS'CTA'
p1666
aS'GCT'
p1667
aS'CCA'
p1668
aS'GAA'
p1669
aS'TTG'
p1670
aS'AAC'
p1671
aS'CAA'
p1672
aS'GCC'
p1673
aS'ATC'
p1674
aS'TGG'
p1675
aS'AAG'
p1676
aS'AGA'
p1677
aS'GGT'
p1678
aS'GTC'
p1679
aS'AAG'
p1680
aS'GGT'
p1681
aS'GTT'
p1682
aS'GAA'
p1683
aS'TAC'
p1684
aS'AGG'
p1685
aS'TTA'
p1686
aS'AGA'
p1687
aS'TTG'
p1688
aS'AGA'
p1689
aS'ATC'
p1690
aS'TCC'
p1691
aS'AGA'
p1692
aS'AAG'
p1693
aS'AGA'
p1694
aS'AAC'
p1695
aS'GAA'
p1696
aS'GAA'
p1697
aS'GAA'
p1698
aS'GAT'
p1699
aS'GCA'
p1700
aS'AAG'
p1701
aS'AAC'
p1702
aS'CCA'
p1703
aS'TTG'
p1704
aS'TTC'
p1705
aS'TCC'
p1706
aS'TAC'
p1707
aS'GTC'
p1708
aS'GAA'
p1709
aS'CCT'
p1710
aS'GTT'
p1711
aS'TTG'
p1712
aS'GTT'
p1713
aS'GCT'
p1714
aS'TCT'
p1715
aS'GCT'
p1716
aS'AAG'
p1717
aS'GGT'
p1718
aS'TTA'
p1719
aS'CAA'
p1720
aS'ACC'
p1721
aS'GTT'
p1722
aS'GTC'
p1723
aS'GTT'
p1724
aS'GAA'
p1725
aS'GAA'
p1726
aS'GAT'
p1727
aS'GCT'
p1728
assS'duplication_node'
p1729
S'N0'
p1730
sS'nsites'
p1731
I339
sS'root_branch'
p1732
(g30
S'kluyveri'
p1733
tp1734
sS'nleaf'
p1735
I7
sS'modelnum'
p1736
I3
sS'paralog'
p1737
(lp1738
g231
ag347
asS'treetopo'
p1739
g7
(cnetworkx.classes.digraph
DiGraph
p1740
g9
Ntp1741
Rp1742
(dp1743
S'node'
p1744
(dp1745
g30
(dp1746
sg182
(dp1747
sg125
(dp1748
sg83
(dp1749
sg201
(dp1750
sg106
(dp1751
sg144
(dp1752
sg163
(dp1753
sg40
(dp1754
sg48
(dp1755
sg55
(dp1756
sg62
(dp1757
sg69
(dp1758
sg76
(dp1759
ssS'graph'
p1760
(dp1761
sS'succ'
p1762
(dp1763
g30
(dp1764
g1730
(dp1765
sg1733
(dp1766
ssg182
(dp1767
sg125
(dp1768
sg83
(dp1769
sg201
(dp1770
sg106
(dp1771
sg144
(dp1772
sg163
(dp1773
sg40
(dp1774
g48
(dp1775
ssg48
(dp1776
g55
(dp1777
sg182
(dp1778
ssg55
(dp1779
g62
(dp1780
sg163
(dp1781
ssg62
(dp1782
g69
(dp1783
sg144
(dp1784
ssg69
(dp1785
g76
(dp1786
sg125
(dp1787
ssg76
(dp1788
g83
(dp1789
sg106
(dp1790
sssS'edge'
p1791
g1763
sS'pred'
p1792
(dp1793
g30
(dp1794
sg182
(dp1795
g48
g1778
ssg125
(dp1796
g69
g1787
ssg83
(dp1797
g76
g1789
ssg201
(dp1798
g30
g1766
ssg106
(dp1799
g76
g1790
ssg144
(dp1800
g62
g1784
ssg163
(dp1801
g55
g1781
ssg40
(dp1802
g30
g1765
ssg48
(dp1803
g40
g1775
ssg55
(dp1804
g48
g1777
ssg62
(dp1805
g55
g1780
ssg69
(dp1806
g62
g1783
ssg76
(dp1807
g69
g1786
sssS'adj'
p1808
g1763
sbsS'seqloc'
p1809
S'./YLR406C_YDL075W/YLR406C_YDL075W_input.fasta'
p1810
sS'blen'
p1811
(lp1812
F0.00705624340732
aF0.0167563394107
aF0.00702393848149
aF0.0711058546534
aF0.00344444638583
aF0.0486050544672
aF0.0437816950291
aF0.0181196891905
aF0.0274601269359
aF0.0167563394107
aF0.00750186476788
aF0.0230546729633
aF0.0225008001862
asg30
g30
sS'edge_to_blen'
p1813
(dp1814
(g48
g55
tp1815
F0.00705624340732
s(g76
g83
tp1816
F0.0167563394107
s(g55
g62
tp1817
F0.00702393848149
s(g30
g1733
tp1818
F0.0711058546534
s(g69
g76
tp1819
F0.00344444638583
s(g48
g182
tp1820
F0.0486050544672
s(g55
g163
tp1821
F0.0437816950291
s(g40
g48
tp1822
F0.0181196891905
s(g62
g144
tp1823
F0.0274601269359
s(g76
g106
tp1824
F0.0167563394107
s(g69
g125
tp1825
F0.00750186476788
s(g62
g69
tp1826
F0.0230546729633
s(g30
g1730
tp1827
F0.0225008001862
ssb.