(dp0
(S'N0'
p1
S'N1'
p2
tp3
cnumpy.core.multiarray
scalar
p4
(cnumpy
dtype
p5
(S'f8'
p6
I0
I1
tp7
Rp8
(I3
S'<'
p9
NNNI-1
I-1
I0
tp10
bS'NF\x15\x1c\x06`\x8b?'
p11
tp12
Rp13
s(S'N5'
p14
S'cerevisiae'
p15
tp16
g4
(g8
S'\x02\x89{y\x1a\x98\xa3?'
p17
tp18
Rp19
s(S'N2'
p20
S'N3'
p21
tp22
g4
(g8
S'\x88\x9a7\x11EJ\x95?'
p23
tp24
Rp25
s(S'N4'
p26
g14
tp27
g4
(g8
S'`\x07a\xbb\xa6\xe5x?'
p28
tp29
Rp30
s(g21
S'kudriavzevii'
p31
tp32
g4
(g8
S'\x05\x04\xe4\x9f{"\xac?'
p33
tp34
Rp35
s(g20
S'bayanus'
p36
tp37
g4
(g8
S'\xab\xe9\xe9\x18\x0by\xaa?'
p38
tp39
Rp40
s(g2
g20
tp41
g4
(g8
S'\xa3\xc2\x16?\xce\xd2\xaf?'
p42
tp43
Rp44
s(g2
S'castellii'
p45
tp46
g4
(g8
S'\xd0#\xbb^pR\xb4?'
p47
tp48
Rp49
s(g14
S'paradoxus'
p50
tp51
g4
(g8
S'$\x0b\x07fF:\x9d?'
p52
tp53
Rp54
s(g26
S'mikatae'
p55
tp56
g4
(g8
S'q\x883%\xb2\x96\xb2?'
p57
tp58
Rp59
s(g21
g26
tp60
g4
(g8
S'$\xee<\xdc\xcf\xed\x8c?'
p61
tp62
Rp63
s(g1
S'kluyveri'
p64
tp65
g4
(g8
S'jR+\xc0\x8a\x0e\xb7?'
p66
tp67
Rp68
s.