(dp0
(S'N0'
p1
S'N1'
p2
tp3
cnumpy.core.multiarray
scalar
p4
(cnumpy
dtype
p5
(S'f8'
p6
I0
I1
tp7
Rp8
(I3
S'<'
p9
NNNI-1
I-1
I0
tp10
bS'Z\xdd`\xd2\x82\x1c\xae?'
p11
tp12
Rp13
s(S'N5'
p14
S'cerevisiae'
p15
tp16
g4
(g8
S'=\x97\xa6\x16\xed\xbc\x97?'
p17
tp18
Rp19
s(S'N2'
p20
S'N3'
p21
tp22
g4
(g8
S'cW_\xbe\x0f\x0e\x81?'
p23
tp24
Rp25
s(S'root'
p26
S'kluyveri'
p27
tp28
g4
(g8
S'\x11nS-}E\xae?'
p29
tp30
Rp31
s(S'N4'
p32
g14
tp33
g4
(g8
S'\xb1 \xed\xd8:2j?'
p34
tp35
Rp36
s(g2
S'castellii'
p37
tp38
g4
(g8
S'f\xc7s)\xa2/\xb4?'
p39
tp40
Rp41
s(g20
S'bayanus'
p42
tp43
g4
(g8
S'\xe8e\x95\x15*r\xab?'
p44
tp45
Rp46
s(g2
g20
tp47
g4
(g8
S'F8\xd2^Z\xce\xa8?'
p48
tp49
Rp50
s(g21
S'kudriavzevii'
p51
tp52
g4
(g8
S'\xee+\x1bJt\xed\xa6?'
p53
tp54
Rp55
s(g14
S'paradoxus'
p56
tp57
g4
(g8
S'\xfa\xc8\x92kQ\x10\x97?'
p58
tp59
Rp60
s(g32
S'mikatae'
p61
tp62
g4
(g8
S'dc\x0c?\xf8#\xa7?'
p63
tp64
Rp65
s(g21
g32
tp66
g4
(g8
S'Y\xb1\x9dU\xf6\x81\x8b?'
p67
tp68
Rp69
s(g26
S'N0'
p70
tp71
g4
(g8
S'\x18\xb2l&\x13\x9e\x82?'
p72
tp73
Rp74
s.