(dp0
(S'N0'
p1
S'N1'
p2
tp3
cnumpy.core.multiarray
scalar
p4
(cnumpy
dtype
p5
(S'f8'
p6
I0
I1
tp7
Rp8
(I3
S'<'
p9
NNNI-1
I-1
I0
tp10
bS'\xe3\x07mW\x015\xc5?'
p11
tp12
Rp13
s(S'N5'
p14
S'cerevisiae'
p15
tp16
g4
(g8
S'^\xba\xa8*\x13\x1f`?'
p17
tp18
Rp19
s(S'N2'
p20
S'N3'
p21
tp22
g4
(g8
S'\xdb\xfcH\x13a\x05\x89?'
p23
tp24
Rp25
s(S'N4'
p26
g14
tp27
g4
(g8
S'\xdaZ\x1c\x93\xc8*\x7f?'
p28
tp29
Rp30
s(g21
S'kudriavzevii'
p31
tp32
g4
(g8
S'\xd9%\xf5.\xd3\xcc\xb0?'
p33
tp34
Rp35
s(g20
S'bayanus'
p36
tp37
g4
(g8
S'-]\xafi\xe4w\xa3?'
p38
tp39
Rp40
s(g2
g20
tp41
g4
(g8
S'[\xfb\x13\xb3u\xc6\xa4?'
p42
tp43
Rp44
s(g2
S'castellii'
p45
tp46
g4
(g8
S'\xfe?\x9dI\x83\x8a\xb6?'
p47
tp48
Rp49
s(g14
S'paradoxus'
p50
tp51
g4
(g8
S'\xfc\x94\xa7\xf5#$\x89?'
p52
tp53
Rp54
s(g26
S'mikatae'
p55
tp56
g4
(g8
S'\xe7\x82<%\x10\x93\x92?'
p57
tp58
Rp59
s(g21
g26
tp60
g4
(g8
S'\xa9<T\xdc\x92\x8dz?'
p61
tp62
Rp63
s(g1
S'kluyveri'
p64
tp65
g4
(g8
S'-\xef"S\x82\xa3\xf5>'
p66
tp67
Rp68
s.