(dp0
(S'N0'
p1
S'N1'
p2
tp3
cnumpy.core.multiarray
scalar
p4
(cnumpy
dtype
p5
(S'f8'
p6
I0
I1
tp7
Rp8
(I3
S'<'
p9
NNNI-1
I-1
I0
tp10
bS'\x03b\x95&XS\xb6?'
p11
tp12
Rp13
s(S'N5'
p14
S'cerevisiae'
p15
tp16
g4
(g8
S'\xa5a\xa3\xd5K\x17\x85?'
p17
tp18
Rp19
s(S'N2'
p20
S'N3'
p21
tp22
g4
(g8
S'\xed\xab\x84&\x10x\x8a?'
p23
tp24
Rp25
s(S'N4'
p26
g14
tp27
g4
(g8
S'\x0f6\x18\x90$\xc3\x9d?'
p28
tp29
Rp30
s(g21
S'kudriavzevii'
p31
tp32
g4
(g8
S';_|\x07`\x94\xa0?'
p33
tp34
Rp35
s(g20
S'bayanus'
p36
tp37
g4
(g8
S'\x19\xc7\x08Mcn\xaa?'
p38
tp39
Rp40
s(g2
g20
tp41
g4
(g8
S'\xa2\xdd\xaa\tZH\xa5?'
p42
tp43
Rp44
s(g2
S'castellii'
p45
tp46
g4
(g8
S'#.cv\xeb8\xb6?'
p47
tp48
Rp49
s(g14
S'paradoxus'
p50
tp51
g4
(g8
S'\x83\t\x8a\xe61u\x85?'
p52
tp53
Rp54
s(g26
S'mikatae'
p55
tp56
g4
(g8
S'\x8a:\xcd\x00\xeb!\x8f?'
p57
tp58
Rp59
s(g21
g26
tp60
g4
(g8
S'-\x98\x8f\x8a7i\x8e?'
p61
tp62
Rp63
s(g1
S'kluyveri'
p64
tp65
g4
(g8
S'\x00\x00\x00\x00\x00\x00\x00\x00'
p66
tp67
Rp68
s.