(iCodonBased2Repeats
Codon2RepeatsPhy
p0
(dp1
S'nbranch'
p2
I12
sS'Tao'
p3
cnumpy.core.multiarray
scalar
p4
(cnumpy
dtype
p5
(S'f8'
p6
I0
I1
tp7
Rp8
(I3
S'<'
p9
NNNI-1
I-1
I0
tp10
bS'\xad\x91]\x06\xdd^$@'
p11
tp12
Rp13
sS'SpecAfterDupli_node'
p14
S'N1'
p15
sS'tree_phy'
p16
ccopy_reg
_reconstructor
p17
(cBio.Phylo.PhyloXML
Phylogeny
p18
c__builtin__
object
p19
Ntp20
Rp21
(dp22
S'confidences'
p23
(lp24
sS'rerootable'
p25
NsS'clade_relations'
p26
(lp27
sS'rooted'
p28
S'True'
p29
sS'type'
p30
NsS'description'
p31
NsS'properties'
p32
(lp33
sS'branch_length_unit'
p34
NsS'other'
p35
(lp36
sS'date'
p37
NsS'sequence_relations'
p38
(lp39
sS'root'
p40
g17
(cBio.Phylo.PhyloXML
Clade
p41
g19
Ntp42
Rp43
(dp44
g23
(lp45
sS'branch_length'
p46
F1.0
sS'taxonomies'
p47
(lp48
sS'name'
p49
S'N0'
p50
sS'clades'
p51
(lp52
g17
(g41
g19
Ntp53
Rp54
(dp55
g23
(lp56
sg46
g4
(g8
S'\xea<\xcf\xaf\xb0\x7f\xbd?'
p57
tp58
Rp59
sg47
(lp60
sg49
S'N1'
p61
sg51
(lp62
g17
(g41
g19
Ntp63
Rp64
(dp65
g23
(lp66
sg46
g4
(g8
S'\xf8\x07\xbe\xf4M\xeb\xad?'
p67
tp68
Rp69
sg47
(lp70
sg49
S'N2'
p71
sg51
(lp72
g17
(g41
g19
Ntp73
Rp74
(dp75
g23
(lp76
sg46
g4
(g8
S'Y\xb8\xe5]\x9f{\x89?'
p77
tp78
Rp79
sg47
(lp80
sg49
S'N3'
p81
sg51
(lp82
g17
(g41
g19
Ntp83
Rp84
(dp85
g23
(lp86
sg46
g4
(g8
S'\xf2\\\xf0\r\xda\xc2\x87?'
p87
tp88
Rp89
sg47
(lp90
sg49
S'N4'
p91
sg51
(lp92
g17
(g41
g19
Ntp93
Rp94
(dp95
g23
(lp96
sg46
g4
(g8
S'\x97\x08)\xa21\xd6q?'
p97
tp98
Rp99
sg47
(lp100
sg49
S'N5'
p101
sg51
(lp102
g17
(g41
g19
Ntp103
Rp104
(dp105
g23
(lp106
sg46
g4
(g8
S'\xf3s\xc4\xb6y\x98\x8c?'
p107
tp108
Rp109
sg47
(lp110
sg49
S'cerevisiae'
p111
sg51
(lp112
sg32
(lp113
sS'id_source'
p114
NsS'width'
p115
NsS'node_id'
p116
NsS'references'
p117
(lp118
sS'_color'
p119
NsS'sequences'
p120
(lp121
S'ATGGCAAGATACGGTGCTACTTCAACCAACCCAGCTAAATCTGCGTCAGCTCGTGGTTCTTATTTGCGTGTTTCTTTCAAGAACACCAGGGAAACTGCTCAAGCCATTAATGGTTGGGAATTGACTAAGGCTCAAAAATACTTGGACCAAGTTTTGGACCACCAAAGAGCCATCCCATTCAGAAGATTTAACTCCTCTATTGGTAGAACTGCCCAAGGTAAGGAATTTGGTGTCACCAAGGCTAGATGGCCAGCTAAATCTGTTAAGTTCGTTCAAGGTTTGTTGCAAAACGCCGCTGCCAATGCTGAAGCTAAGGGTCTAGATGCTACCAAGTTGTACGTTTCTCACATCCAAGTTAACCAAGCACCAAAGCAAAGAAGAAGAACTTACAGAGCCCACGGTAGAATCAACAAGTACGAATCTTCTCCATCTCACATTGAATTGGTTGTTACCGAAAAGGAAGAAGCTGTCGCCAAGGCTGCTGAAAAGAAGGTTGTCAGATTGACTTCTAGACAAAGAGGTAGAATTGCTGCCCAAAAACGTATCTCTGCT'
p122
aS'ATGGCTAGATACGGTGCTACTTCCACTAACCCTGCTAAATCCGCTTCTGCTCGTGGTTCCTACTTGCGTGTTTCTTTCAAGAACACCAGAGAAACTGCTCAAGCTATTAACGGTTGGGAATTGACCAAGGCTCAAAAATACTTGGAACAAGTTTTGGACCACCAAAGAGCTATTCCTTTCAGAAGATTTAACTCTTCCATCGGTAGAACTGCTCAAGGTAAGGAATTTGGTGTCACCAAGGCTAGATGGCCAGCTAAGTCTGTTAAGTTCGTTCAAGGTTTGTTGCAAAACGCCGCTGCCAACGCTGAAGCTAAAGGTTTGGATGCTACTAAATTGTACGTTTCTCATATCCAAGTTAACCAAGCTCCAAAGCAAAGAAGAAGAACTTACAGAGCTCACGGTAGAATCAACAAGTACGAATCTTCTCCATCCCACATTGAATTAGTTGTCACTGAAAAGGAAGAAGCTGTCGCCAAGGCTGCTGAAAAGAAGGTCGTTAGATTGACTTCTAGACAAAGAGGTAGAATCGCCGCCCAAAAGCGTATTGCTGCT'
p123
asg37
Nsg35
(lp124
sS'binary_characters'
p125
NsS'distributions'
p126
(lp127
sS'events'
p128
Nsbag17
(g41
g19
Ntp129
Rp130
(dp131
g23
(lp132
sg46
g4
(g8
S'\\\xc72\x16\xd8|\x91?'
p133
tp134
Rp135
sg47
(lp136
sg49
S'paradoxus'
p137
sg51
(lp138
sg32
(lp139
sg114
Nsg115
Nsg116
Nsg117
(lp140
sg119
Nsg120
(lp141
S'ATGGCAAGATACGGTGCTACTTCGACCAACCCAGCTAAATCTGCATCAGCTCGTGGTTCTTATTTGCGTGTTTCTTTCAAGAACACCAGAGAAACTGCTCAAGCCATTAACGGTTGGGAATTGACTAAGGCTCAAAAATACTTGGACCAGGTTTTGGACCACCAAAGAGCCATCCCATTTAGAAGATTCAACTCCTCTATCGGTAGAACTGCCCAAGGTAAGGAATTCGGTGTCACCAAGGCTAGATGGCCAGCTAAATCTGTTAAGTTCGTTCAAGGTTTGCTGCAAAACGCTGCTGCCAATGCTGAAGCTAAGGGTCTAGATGCTACCAAGTTGTACGTTTCTCACATCCAAGTTAACCAAGCTCCAAAGCAAAGAAGAAGAACTTACAGAGCCCACGGTAGAATCAACAAATACGAATCTTCTCCATCTCACATTGAATTAGTTGTCACTGAAAAGGAAGAAGCTGTCTCCAAGGCTGCTGAAAAGAAGGTTGTCAGATTGACTTCTAGACAAAGAGGTAGAATTGCTGCCCAAAAACGTATCTCTGCT'
p142
aS'ATGGCTAGATACGGTGCTACTTCCACTAACCCTGCTAAATCCGCTTCTGCTCGTGGTTCCTACTTGCGTGTTTCTTTCAAGAACACCAGAGAAACTGCTCAAGCTATTAACGGTTGGGAATTGACCAAGGCTCAAAAATACTTGGACCAAGTTTTGGACCATCAAAGAGCTATTCCTTTCAGAAGATTTAACTCTTCCATCGGTAGAACCGCTCAAGGTAAGGAATTCGGTGTCACCAAGGCTAGATGGCCAGCTAAGTCTGTTAAGTTTGTTCAAGGTTTGTTGCAAAACGCTGCTGCCAATGCTGAAGCTAAAGGTTTGGATGCTACCAAATTGTACGTTTCTCATATCCAAGTTAACCAAGCTCCAAAGCAAAGAAGAAGAACTTACAGAGCTCACGGTAGAATCAACAAGTACGAATCTTCTCCATCTCACATTGAATTAGTTGTCACTGAAAAGGAAGAAGCTGTCGCTAAGGCTGCTGAAAAGAAGGTCGTCAGATTGACTTCTAGACAAAGAGGTAGAATCGCCGCCCAAAAGCGTATTACTGCT'
p143
asg37
Nsg35
(lp144
sg125
Nsg126
(lp145
sg128
Nsbasg32
(lp146
sg114
Nsg115
Nsg116
Nsg117
(lp147
sg119
Nsg120
(lp148
sg37
Nsg35
(lp149
sg125
Nsg126
(lp150
sg128
Nsbag17
(g41
g19
Ntp151
Rp152
(dp153
g23
(lp154
sg46
g4
(g8
S'\x10D\xe7\x93\x0b\xf3\x95?'
p155
tp156
Rp157
sg47
(lp158
sg49
S'mikatae'
p159
sg51
(lp160
sg32
(lp161
sg114
Nsg115
Nsg116
Nsg117
(lp162
sg119
Nsg120
(lp163
S'ATGGCAAGATACGGTGCTACTTCAACCAATCCAGCTAAATCTGCATCAGCTCGTGGGTCTTACTTGCGTGTTTCTTTCAAGAACACCAGGGAAACCGCTCAAGCTATTAATGGTTGGGAATTGACCAAGGCTCAAAAATACTTGGACCAAGTTTTGGACCACCAAAGAGCCATTCCATTCAGAAGATTTAACTCCTCTATTGGTAGAACTGCCCAAGGTAAGGAATTTGGTGTCACCAAAGCCAGATGGCCAGCTAAATCTGTTAAGTTCGTTCAAGGTTTGTTGCAAAACGCTGCTGCCAATGCTGAAGCTAAGGGTCTAGATGCCACCAAGCTATACGTTTCTCACATCCAAGTTAACCAAGCTCCAAAGCAAAGAAGAAGAACTTACAGAGCCCATGGTAGAATCAACAAGTACGAATCTTCTCCATCCCACATTGAATTAGTTGTCACGGAAAAGGAAGAAGCTGTCGCCAAGGCTGCTGAAAAGAAGGTTATCAGATTAACTTCTAGACAAAGAGGTAGAATTGCTGCCCAAAAACGTATCTCTGCT'
p164
aS'ATGGCTAGATACGGTGCTACTTCCACTAACCCTGCTAAATCCGCTTCTGCTCGTGGTTCCTACTTGCGTGTTTCTTTCAAGAACACCAGAGAAACTGCTCAAGCTATTAACGGTTGGGAATTGACTAAGGCTCAAAAATACTTGGACCAAGTTTTGGACCACCAAAGAGCCATTCCATTCAGAAGATTTAACTCTTCCATTGGTAGAACCGCTCAAGGTAAGGAATTCGGTGTCACCAAGGCTAGATGGCCAGCTAAGTCTGTTAAGTTCGTTCAAGGTTTGTTGCAAAACGCTGCTGCCAACGCTGAAGCTAAAGGTTTGGATGCTACTAAATTGTACGTTTCTCACATTCAAGTTAACCAAGCTCCAAAGCAAAGAAGAAGAACTTACAGAGCTCACGGTAGAATCAACAAGTACGAATCTTCTCCATCCCACATTGAATTAGTTGTCACTGAAAAGGAAGAAGCTGTTGCTAAGGCTGCTGAAAAGAAGGTCGTCAGATTGACTTCTAGACAAAGAGGTAGAATCGCCGCCCAAAAGCGTATTGCTGCT'
p165
asg37
Nsg35
(lp166
sg125
Nsg126
(lp167
sg128
Nsbasg32
(lp168
sg114
Nsg115
Nsg116
Nsg117
(lp169
sg119
Nsg120
(lp170
sg37
Nsg35
(lp171
sg125
Nsg126
(lp172
sg128
Nsbag17
(g41
g19
Ntp173
Rp174
(dp175
g23
(lp176
sg46
g4
(g8
S'\xc8\xbbIZ\x14V\x95?'
p177
tp178
Rp179
sg47
(lp180
sg49
S'kudriavzevii'
p181
sg51
(lp182
sg32
(lp183
sg114
Nsg115
Nsg116
Nsg117
(lp184
sg119
Nsg120
(lp185
S'ATGGCAAGATACGGTGCTACTTCAACAAATCCAGCTAAATCTGCATCTGCTCGTGGTTCTTATTTGCGTGTCTCTTTCAAGAACACCAGAGAAACCGCTCAAGCCATTAATGGTTGGGAATTAACCAAGGCCCAAAAATACTTGGACCAGGTTTTGGACCACCAAAGAGCCATCCCATTCAGAAGATTCAACTCCTCTATTGGTAGAACTGCCCAAGGTAAGGAATTTGGTGTCACCAAGGCTAGATGGCCTGCCAAATCTGTTAAGTTCGTTCAAGGTTTGTTGCAAAACGCTGCTGCCAACGCTGAAGCTAAAGGTCTAGATGCTACCAAGTTATTCGTTTCTCACATCCAAGTTAACCAAGCTCCAAAGCAAAGAAGAAGAACTTACAGAGCCCACGGTAGAATCAACAAATACGAATCTTCTCCATCTCACATTGAATTAGTCGTCACTGAAAAGGAAGAAGCTGTCGCCAAGGCCGCTGAAAAGAAGGCTGTCAGATTGACTTCTAGACAAAGAGGTAGAATTGCTGCCCAAAAACGTATCTCTGCT'
p186
aS'ATGGCTAGATACGGTGCTACCTCCACTAACCCTGCTAAATCCGCTTCTGCTCGTGGTTCCTACTTGCGTGTTTCTTTCAAGAACACCAGAGAAACTGCTCAAGCTATCAACGGTTGGGAATTGACCAAGGCTCAAAAATACTTGGACCAAGTTTTGGAACATCAAAGAGCTATTCCTTTCAGAAGATTTAACTCTTCCATCGGTAGAACCGCTCAAGGTAAGGAATTCGGTGTCACCAAGGCCAGATGGCCAGCTAAGTCTGTTAAGTTCGTCCAAGGTTTGTTGCAAAATGCTGCTGCCAACGCTGAAGCTAAAGGTTTAGATGCCACTAGATTGTTCGTTTCTCATATCCAAGTTAACCAAGCTCCAAAGCAAAGAAGAAGAACTTACAGAGCTCATGGTAGAATCAACAAGTACGAATCTTCTCCATCCCACATTGAATTAGTTGTCACTGAAAAGGAAGAAGCCGTCGCCAAGGCTGCTGAAAAGAAGGCCGTCAGATTGACTTCTAGACAAAGAGGTAGAATTGCCGCCCAAAAGCGTATCGCTGCT'
p187
asg37
Nsg35
(lp188
sg125
Nsg126
(lp189
sg128
Nsbasg32
(lp190
sg114
Nsg115
Nsg116
Nsg117
(lp191
sg119
Nsg120
(lp192
sg37
Nsg35
(lp193
sg125
Nsg126
(lp194
sg128
Nsbag17
(g41
g19
Ntp195
Rp196
(dp197
g23
(lp198
sg46
g4
(g8
S'\xa2{\xb0_,G\x93?'
p199
tp200
Rp201
sg47
(lp202
sg49
S'bayanus'
p203
sg51
(lp204
sg32
(lp205
sg114
Nsg115
Nsg116
Nsg117
(lp206
sg119
Nsg120
(lp207
S'ATGGCAAGATACGGTGCTACTTCAACCAATCCAGCTAAATCTGCATCTGCTCGTGGTTCTTACTTGCGTGTTTCTTTCAAGAACACCAGAGAAACCGCTCAAGCCATCAATGGTTGGGAATTGACCAAGGCTCAAAAGTACTTGGACCAAGTTTTGGACCACCAAAGAGCTATCCCATTCAGAAGATTTAACTCCTCTATTGGTAGAACCGCTCAAGGTAAGGAATTCGGTGTCACCAAGGCTAGATGGCCAGCTAAGTCTGTTAAGTTCGTTCAAGGTTTGTTGCAAAACGCAGCTGCCAACGCTGAAGCTAAGGGTCTAGATGGTACCAAACTATACGTTTCTCACATCCAAGTTAACCAAGCTCCAAAGCAAAGAAGAAGAACTTTCAGAGCCCACGGTAGAATCAACAAGTACGAATCTTCTCCATCTCACATTGAATTAGTTGTCACTGAAAAGGAAGAAGCTGTTGCCAAGGCCGCTGAAAAGAAGGCCGTCAGATTGACTTCTAGACAAAGAGGTAGAATCGCTGCCCAAAAACGTATCTCCGCT'
p208
aS'ATGGCTAGATACGGTGCTACCTCCACTAACCCTGCTAAATCCGCTTCTGCTCGTGGTTCCTACTTGCGTGTTTCTTTCAAGAACACCAGAGAAACTGCTCAAGCTATCAACGGTTGGGAATTGACCAAGGCTCAAAAATACTTGGACCAAGTTTTGGACCACCAAAGAGCCATTCCTTTCAGAAGATTTAACTCTTCCATCGGTAGAACCGCTCAAGGTAAGGAATTCGGTGTCACCAAGGCTAGATGGCCTGCTAAGTCTGTTAAGTTCGTTCAAGGTTTGTTGCAAAATGCTGCTGCCAACGCTGAAGCTAAAGGTTTGGATGCTACTAAATTGTACGTTTCTCACATCCAAGTTAACCAAGCTCCAAAGCAAAGAAGAAGAACTTTCAGAGCTCACGGTAGAATTAACAAGTACGAATCTTCTCCATCCCACATTGAATTAGTTGTCACTGAAAAGGAAGAAGCTGTTGCCAAGGCCGCTGAAAAGAAGGCCGTCAGATTGACTTCTAGACAAAGAGGTAGAATCGCCGCCCAAAAGCGTATCACTGCT'
p209
asg37
Nsg35
(lp210
sg125
Nsg126
(lp211
sg128
Nsbasg32
(lp212
sg114
Nsg115
Nsg116
Nsg117
(lp213
sg119
Nsg120
(lp214
sg37
Nsg35
(lp215
sg125
Nsg126
(lp216
sg128
Nsbag17
(g41
g19
Ntp217
Rp218
(dp219
g23
(lp220
sg46
g4
(g8
S'`\x9a\xeb\xc7\xe4\xee\xb6?'
p221
tp222
Rp223
sg47
(lp224
sg49
S'castellii'
p225
sg51
(lp226
sg32
(lp227
sg114
Nsg115
Nsg116
Nsg117
(lp228
sg119
Nsg120
(lp229
S'ATGGCTAGATACGGTGCTACCTCCACAAACCCAGCTAAGTCTGCTTCTGCTCGTGGTTCCTACTTGCGTGTTTCTTTCAAGAACACCAGAGAAACTGCTCAAGCTGTCAGCGGTTGGGAATTGACCAAGGCCCAAAAATATTTGGATCAAGTTTTGGACCACCAAAGAGCTATTCCATTCAGAAGATTTAACTCTTCTATTGGTAGAACTGCTCAAGGTAAGGAATTCGGTGTCACCAAGGCTAGATGGCCAGCCAAGTCTGTTAAGTTCGTCCAAGGCTTACTACAAAATGCTGCTGCCAACGCTGAAGCTAAGGGTTTAGATGCTACCAAGTTGTACATTTCTCACATCCAAGTTAACCAAGCTCCAAAGCAAAGAAGAAGAACTTTCAGAGCTCACGGTAGAATTAACAAGTACGAATCTTCCCCATCTCACATTGAATTGGTCGTTACTGAAAGAGAAGAAGCCGTTGAAAAGGCTACTGAAAAGAAGGTCGTCAGATTGTCTTCCAGACAAAGAGGTAGAATCGCTGCTCAAAAGCGTATCTCCGCT'
p230
aS'ATGGCTAGATACGGTGCTACCTCGACTAACCCAGCTAAGTCTGCATCTGCTCGTGGTTCCTATTTACGTGTTTCCTTCAAGAACACCAGAGAAACAGCTCAAGCTGTCTCCGGTTGGGAATTGACCAAGGCTCAAAAATACTTGGAACAAGTCTTAGATCACAAGAGAGCTATTCCATTCAGAAGATTCAACTCCTCTATTGGTAGAACCGCCCAAGGTAAGGAATTCGGTGTTACCAAGGCTAGATGGCCAGCCAAGTCTGTTAAGTTCGTCCAAGGTTTGTTGCAAAACGCAGCTGCCAATGCTGAAGCTAAGGGTTTAGATGCTACCAAGTTGTACATCTCTCACATTCAAGTTAACCAAGCTCCAAAGCAAAGAAGAAGAACTTTCAGAGCTCACGGTAGAATTAACAAGTACGAATCCTCTCCATCCCACATTGAATTGGTCGTCACTGAAAGAGAAGAAGCCGTCGAAAAGGCTACTGAAAAGAAGGTTGTTAGATTGTCTTCTAGACAAAGAGGTAGAATTGCCGCTCAAAAGCGTATTTCTGCT'
p231
asg37
Nsg35
(lp232
sg125
Nsg126
(lp233
sg128
Nsbasg32
(lp234
sg114
Nsg115
Nsg116
Nsg117
(lp235
sg119
Nsg120
(lp236
sg37
Nsg35
(lp237
sg125
Nsg126
(lp238
sg128
Nsbag17
(g41
g19
Ntp239
Rp240
(dp241
g23
(lp242
sg46
g4
(g8
S'SO\xff\x05\x86\x8e\x8c?'
p243
tp244
Rp245
sg47
(lp246
sg49
S'kluyveri'
p247
sg51
(lp248
sg32
(lp249
sg114
Nsg115
Nsg116
Nsg117
(lp250
sg119
Nsg120
(lp251
S'ATGGCTAGATACGGTGCTACTCACACTAACCCAGCTAAGTCTGCTTCTGCTCGTGGCTCTTACTTGCGTGTCTCTTTCAAGAACACCAGAGAAACCGCTCAAGCCGTCAACGGTTGGAACCTAGAAAAGGCTCAAAAGTACTTGGATCAAGTCTTGGACCACCAAAGAGCCATTCCATTCAGAAGATTTAACTCTTCCATTGGTAGAACCGCTCAAGGTAAGGAATTTGGTGTCACCAAGGCTAGATGGCCAGCCAAGTCTGTCAAGTTTGTCCAAGGTTTGTTGCAAAACGCTGCTGCCAACGCTGAAGCTAAAGGTTTGGACACTACCAAGTTGTACATTTCTCACATCCAAGTCAACCAAGCTCCAAAGCAAAGAAGAAGAACTTTCAGAGCCCACGGTAGAATCAACAAGTACGAATCTTCTCCATCCCACATTGAATTGGTCGTTACCGAAAAGGAGGAAGCTGTTGAAAAGGCTGCTGAAAAGAAGGTTGTCAGATTGTCTTCCAGACAAAGAGGTAGATTGGCTACCCAAAAGCGTATCGCTGCT'
p252
asg37
Nsg35
(lp253
sg125
Nsg126
(lp254
sg128
Nsbasg32
(lp255
sg114
Nsg115
Nsg116
Nsg117
(lp256
sg119
Nsg120
(lp257
sg37
Nsg35
(lp258
sg125
Nsg126
(lp259
sg128
NsbsS'id'
p260
Nsg49
NsbsS'para'
p261
cnumpy.core.multiarray
_reconstruct
p262
(cnumpy
ndarray
p263
(I0
tp264
S'b'
p265
tp266
Rp267
(I1
(I4
tp268
g8
I00
S'\x81{\x1ePiq\xde?g^\xe9\x94\x94\xb2\xe3?\xe2m_i\xc2\x08\xdf?\x08\x9f\x0f\xc8O0!@'
p269
tp270
bsS'err'
p271
F1e-10
sS'newicktree'
p272
S'../YeastTree.newick'
p273
sS'models'
p274
(dp275
S'HKY'
p276
I3
sS'F81'
p277
I2
sS'Codon'
p278
I6
sS'GTR'
p279
I4
sS'Codon_corrected'
p280
I7
sS'K80'
p281
I1
sS'Jukes-Cantor'
p282
I0
ssS'data'
p283
(dp284
(g111
S'YKL180W'
p285
tp286
g123
s(g137
S'YJL177W'
p287
tp288
g142
s(g137
g285
tp289
g143
s(g111
g287
tp290
g122
s(g181
g285
tp291
g187
s(g181
g287
tp292
g186
s(g247
g285
tp293
g252
s(g225
g285
tp294
g231
s(g159
g285
tp295
g165
s(g159
g287
tp296
g164
s(g247
g287
tp297
g252
s(g225
g287
tp298
g230
s(g203
g287
tp299
g208
s(g203
g285
tp300
g209
ssS'duplication_node'
p301
S'N0'
p302
sS'nsites'
p303
I552
sS'root_branch'
p304
(g302
S'kluyveri'
p305
tp306
sS'nleaf'
p307
I7
sS'modelnum'
p308
I3
sS'paralog'
p309
(lp310
g287
ag285
asS'treetopo'
p311
g17
(cnetworkx.classes.digraph
DiGraph
p312
g19
Ntp313
Rp314
(dp315
S'node'
p316
(dp317
g225
(dp318
sg159
(dp319
sg91
(dp320
sg247
(dp321
sg137
(dp322
sg181
(dp323
sg203
(dp324
sg50
(dp325
sg61
(dp326
sg71
(dp327
sg81
(dp328
sg111
(dp329
sg101
(dp330
ssS'graph'
p331
(dp332
sS'succ'
p333
(dp334
g225
(dp335
sg159
(dp336
sg91
(dp337
g101
(dp338
sg159
(dp339
ssg247
(dp340
sg137
(dp341
sg181
(dp342
sg203
(dp343
sg50
(dp344
g61
(dp345
sg247
(dp346
ssg61
(dp347
g71
(dp348
sg225
(dp349
ssg71
(dp350
g81
(dp351
sg203
(dp352
ssg81
(dp353
g91
(dp354
sg181
(dp355
ssg111
(dp356
sg101
(dp357
g111
(dp358
sg137
(dp359
sssS'edge'
p360
g334
sS'pred'
p361
(dp362
g225
(dp363
g61
g349
ssg159
(dp364
g91
g339
ssg91
(dp365
g81
g354
ssg247
(dp366
g50
g346
ssg137
(dp367
g101
g359
ssg181
(dp368
g81
g355
ssg203
(dp369
g71
g352
ssg50
(dp370
sg61
(dp371
g50
g345
ssg71
(dp372
g61
g348
ssg81
(dp373
g71
g351
ssg111
(dp374
g101
g358
ssg101
(dp375
g91
g338
sssS'adj'
p376
g334
sbsS'seqloc'
p377
S'./YJL177W_YKL180W_input.fasta'
p378
sS'blen'
p379
g262
(g263
(I0
tp380
g265
tp381
Rp382
(I1
(I12
tp383
g8
I00
S'\x00\x00\x00\x00\x00\x00\x00@\x00\x00\x00\x00\x00\x00\x00@\x00\x00\x00\x00\x00\x00\x00@\x00\x00\x00\x00\x00\x00\x00@\x00\x00\x00\x00\x00\x00\x00@\x00\x00\x00\x00\x00\x00\x00@\x00\x00\x00\x00\x00\x00\x00@\x00\x00\x00\x00\x00\x00\x00@\x00\x00\x00\x00\x00\x00\x00@\x00\x00\x00\x00\x00\x00\x00@\x00\x00\x00\x00\x00\x00\x00@\x00\x00\x00\x00\x00\x00\x00@'
p384
tp385
bsg40
g50
sS'edge_to_blen'
p386
(dp387
(g50
g61
tp388
g4
(g8
S'\r\x11\xd2\x92]\xc2\xaf?'
p389
tp390
Rp391
s(g101
g111
tp392
g4
(g8
S'\x15\x1bR\xe1n\xc9~?'
p393
tp394
Rp395
s(g71
g81
tp396
g4
(g8
S'k!\x14\xbc\x84o{?'
p397
tp398
Rp399
s(g91
g101
tp400
g4
(g8
S'@\xe3\xbfH\x184c?'
p401
tp402
Rp403
s(g81
g181
tp404
g4
(g8
S'}#\xa7\x84\xa1\xf8\x86?'
p405
tp406
Rp407
s(g71
g203
tp408
g4
(g8
S'\xa4w\xa3CY\xc1\x84?'
p409
tp410
Rp411
s(g61
g71
tp412
g4
(g8
S'\x01\x14\xc1\xf3\x1c\x1b\xa0?'
p413
tp414
Rp415
s(g61
g225
tp416
g4
(g8
S'\x02\x1f\xda\x9e\xc5\xb0\xa8?'
p417
tp418
Rp419
s(g101
g137
tp420
g4
(g8
S'\xaeNL\xf8\xe5\xd3\x82?'
p421
tp422
Rp423
s(g91
g159
tp424
g4
(g8
S'\xff,L\xed\x9f\xa1\x87?'
p425
tp426
Rp427
s(g81
g91
tp428
g4
(g8
S'\xddG\xd2\xdb\xf8\x94y?'
p429
tp430
Rp431
s(g50
g247
tp432
g4
(g8
S'SO\xff\x05\x86\x8e\x8c?'
p433
tp434
Rp435
ssb.