(dp0
(S'N0'
p1
S'N1'
p2
tp3
cnumpy.core.multiarray
scalar
p4
(cnumpy
dtype
p5
(S'f8'
p6
I0
I1
tp7
Rp8
(I3
S'<'
p9
NNNI-1
I-1
I0
tp10
bS'\x14A\x92\xfd\x12\x84\xb4?'
p11
tp12
Rp13
s(S'N5'
p14
S'cerevisiae'
p15
tp16
g4
(g8
S'E\xb4\t\x84\xe7\x05\xc1?'
p17
tp18
Rp19
s(S'N2'
p20
S'N3'
p21
tp22
g4
(g8
S'2\xe1\xf82\x03@\xb8?'
p23
tp24
Rp25
s(S'N4'
p26
g14
tp27
g4
(g8
S'\x19\xc4\x1d\xae`u\xb2?'
p28
tp29
Rp30
s(g21
S'kudriavzevii'
p31
tp32
g4
(g8
S'Z\xb4\xe4|\x16\x13\xc3?'
p33
tp34
Rp35
s(g20
S'bayanus'
p36
tp37
g4
(g8
S'\xe0\xa6|\x0b\xcf\xa5\xc0?'
p38
tp39
Rp40
s(g2
g20
tp41
g4
(g8
S'^\xe2\xca\xf5Rs\xe1?'
p42
tp43
Rp44
s(g2
S'castellii'
p45
tp46
g4
(g8
S'V\xdck\x00\xed\xbb\xe5?'
p47
tp48
Rp49
s(g14
S'paradoxus'
p50
tp51
g4
(g8
S'\x95RU\xf5\xa1\x04\xac?'
p52
tp53
Rp54
s(g26
S'mikatae'
p55
tp56
g4
(g8
S'_<m\xcd<\x08\xc5?'
p57
tp58
Rp59
s(g21
g26
tp60
g4
(g8
S'\x96\x03\x9a\xcc\xf3\xf8\xac?'
p61
tp62
Rp63
s(g1
S'kluyveri'
p64
tp65
g4
(g8
S'*\x8f\xe9\x83\xcb)\xd7?'
p66
tp67
Rp68
s.