(dp0
(S'N0'
p1
S'N1'
p2
tp3
cnumpy.core.multiarray
scalar
p4
(cnumpy
dtype
p5
(S'f8'
p6
I0
I1
tp7
Rp8
(I3
S'<'
p9
NNNI-1
I-1
I0
tp10
bS'n\x88\xcf\x1b\xda\x83\xb8?'
p11
tp12
Rp13
s(S'N5'
p14
S'cerevisiae'
p15
tp16
g4
(g8
S'33\xb86\x96\x1c\x98?'
p17
tp18
Rp19
s(S'N2'
p20
S'N3'
p21
tp22
g4
(g8
S'\xa9\xd8\x92}\x8f\xd4\x85?'
p23
tp24
Rp25
s(S'N4'
p26
g14
tp27
g4
(g8
S'\xb9\x028-YN\x86?'
p28
tp29
Rp30
s(g21
S'kudriavzevii'
p31
tp32
g4
(g8
S'0\xb5\x07\x951\xa6\xa8?'
p33
tp34
Rp35
s(g20
S'bayanus'
p36
tp37
g4
(g8
S'\xbc\xd9\x9fj\x8e\xf1\x89?'
p38
tp39
Rp40
s(g2
g20
tp41
g4
(g8
S'\xfcA\xc0&\xc9\x1a\xb8?'
p42
tp43
Rp44
s(g2
S'castellii'
p45
tp46
g4
(g8
S'\x94\x18Qp\xa48\xb7?'
p47
tp48
Rp49
s(g14
S'paradoxus'
p50
tp51
g4
(g8
S'Q\r\xc0\x95_\xff\x87?'
p52
tp53
Rp54
s(g26
S'mikatae'
p55
tp56
g4
(g8
S'o^\xaf\x03\x81D\x9d?'
p57
tp58
Rp59
s(g21
g26
tp60
g4
(g8
S'\xb7\x94\xe3nb\xeb\x92?'
p61
tp62
Rp63
s(g1
S'kluyveri'
p64
tp65
g4
(g8
S'\xdd\x0c\x83\xfc\xa4s\xa0?'
p66
tp67
Rp68
s.