(lp0
c__builtin__
set
p1
((lp2
S'YHL001W'
p3
aS'YKL006W'
p4
atp5
Rp6
ag1
((lp7
S'YGR136W'
p8
aS'YPR154W'
p9
atp10
Rp11
ag1
((lp12
S'YLR048W'
p13
aS'YGR214W'
p14
atp15
Rp16
ag1
((lp17
S'YGL084C'
p18
aS'YPL189W'
p19
atp20
Rp21
ag1
((lp22
S'YDR099W'
p23
aS'YER177W'
p24
atp25
Rp26
ag1
((lp27
S'YHR183W'
p28
aS'YGR256W'
p29
atp30
Rp31
ag1
((lp32
S'YBR117C'
p33
aS'YPR074C'
p34
atp35
Rp36
ag1
((lp37
S'YHR055C'
p38
aS'YHR053C'
p39
atp40
Rp41
ag1
((lp42
S'YBR049C'
p43
aS'YDR026C'
p44
atp45
Rp46
ag1
((lp47
S'YGL260W'
p48
aS'YAL067W-A'
p49
atp50
Rp51
ag1
((lp52
S'YIL066C'
p53
aS'YER070W'
p54
atp55
Rp56
ag1
((lp57
S'YPL219W'
p58
aS'YGL134W'
p59
atp60
Rp61
ag1
((lp62
S'YML026C'
p63
aS'YDR450W'
p64
atp65
Rp66
ag1
((lp67
S'YFR031C-A'
p68
aS'YIL018W'
p69
atp70
Rp71
ag1
((lp72
S'YCL066W'
p73
aS'YCR040W'
p74
atp75
Rp76
ag1
((lp77
S'YHR158C'
p78
aS'YGR238C'
p79
atp80
Rp81
ag1
((lp82
S'YGR118W'
p83
aS'YPR132W'
p84
atp85
Rp86
ag1
((lp87
S'YMR042W'
p88
aS'YMR043W'
p89
atp90
Rp91
ag1
((lp92
S'YAR020C'
p93
aS'YFL020C'
p94
atp95
Rp96
ag1
((lp97
S'YMR143W'
p98
aS'YDL083C'
p99
atp100
Rp101
ag1
((lp102
S'YML073C'
p103
aS'YLR448W'
p104
atp105
Rp106
ag1
((lp107
S'YOR327C'
p108
aS'YAL030W'
p109
atp110
Rp111
ag1
((lp112
S'YNL067W'
p113
aS'YGL147C'
p114
atp115
Rp116
ag1
((lp117
S'YFL061W'
p118
aS'YNL335W'
p119
atp120
Rp121
ag1
((lp122
S'YBL002W'
p123
aS'YDR224C'
p124
atp125
Rp126
ag1
((lp127
S'YBR191W'
p128
aS'YPL079W'
p129
atp130
Rp131
ag1
((lp132
S'YBL106C'
p133
aS'YPR032W'
p134
atp135
Rp136
ag1
((lp137
S'YEL034W'
p138
aS'YJR047C'
p139
atp140
Rp141
ag1
((lp142
S'YAR064W'
p143
aS'YHR213W-B'
p144
atp145
Rp146
ag1
((lp147
S'YBR249C'
p148
aS'YDR035W'
p149
atp150
Rp151
ag1
((lp152
S'YMR121C'
p153
aS'YLR029C'
p154
atp155
Rp156
ag1
((lp157
S'YJL082W'
p158
aS'YKR018C'
p159
atp160
Rp161
ag1
((lp162
S'YMR177W'
p163
aS'YPL224C'
p164
atp165
Rp166
ag1
((lp167
S'YFL034C-A'
p168
aS'YLR061W'
p169
atp170
Rp171
ag1
((lp172
S'YOR389W'
p173
aS'YPL277C'
p174
atp175
Rp176
ag1
((lp177
S'YNL069C'
p178
aS'YIL133C'
p179
atp180
Rp181
ag1
((lp182
S'YMR243C'
p183
aS'YOR316C'
p184
atp185
Rp186
ag1
((lp187
S'YDR312W'
p188
aS'YHR066W'
p189
atp190
Rp191
ag1
((lp192
S'YHR199C'
p193
aS'YHR198C'
p194
atp195
Rp196
ag1
((lp197
S'YNL019C'
p198
aS'YNL033W'
p199
atp200
Rp201
ag1
((lp202
S'YHR203C'
p203
aS'YJR145C'
p204
atp205
Rp206
ag1
((lp207
S'YPL057C'
p208
aS'YBR161W'
p209
atp210
Rp211
ag1
((lp212
S'YBR189W'
p213
aS'YPL081W'
p214
atp215
Rp216
ag1
((lp217
S'YGL225W'
p218
aS'YER039C'
p219
atp220
Rp221
ag1
((lp222
S'YIL052C'
p223
aS'YER056C-A'
p224
atp225
Rp226
ag1
((lp227
S'YKL201C'
p228
aS'YJR061W'
p229
atp230
Rp231
ag1
((lp232
S'YLR179C'
p233
aS'YLR178C'
p234
atp235
Rp236
ag1
((lp237
S'YDL181W'
p238
aS'YDL130W-A'
p239
atp240
Rp241
ag1
((lp242
S'YLR399C'
p243
aS'YDL070W'
p244
atp245
Rp246
ag1
((lp247
S'YBR048W'
p248
aS'YDR025W'
p249
atp250
Rp251
ag1
((lp252
S'YDR012W'
p253
aS'YBR031W'
p254
atp255
Rp256
ag1
((lp257
S'YLR406C'
p258
aS'YDL075W'
p259
atp260
Rp261
ag1
((lp262
S'YNL030W'
p263
aS'YBR009C'
p264
atp265
Rp266
ag1
((lp267
S'YLR092W'
p268
aS'YBR294W'
p269
atp270
Rp271
ag1
((lp272
S'YHR108W'
p273
aS'YDR358W'
p274
atp275
Rp276
ag1
((lp277
S'YDR348C'
p278
aS'YHR097C'
p279
atp280
Rp281
ag1
((lp282
S'YML027W'
p283
aS'YDR451C'
p284
atp285
Rp286
ag1
((lp287
S'YMR079W'
p288
aS'YKL091C'
p289
atp290
Rp291
ag1
((lp292
S'YLR260W'
p293
aS'YOR171C'
p294
atp295
Rp296
ag1
((lp297
S'YHR016C'
p298
aS'YFR024C-A'
p299
atp300
Rp301
ag1
((lp302
S'YML075C'
p303
aS'YLR450W'
p304
atp305
Rp306
ag1
((lp307
S'YMR054W'
p308
aS'YOR270C'
p309
atp310
Rp311
ag1
((lp312
S'YDR264C'
p313
aS'YOR034C'
p314
atp315
Rp316
ag1
((lp317
S'YDR251W'
p318
aS'YPL032C'
p319
atp320
Rp321
ag1
((lp322
S'YOR312C'
p323
aS'YMR242C'
p324
atp325
Rp326
ag1
((lp327
S'YMR142C'
p328
aS'YDL082W'
p329
atp330
Rp331
ag1
((lp332
S'YDL182W'
p333
aS'YDL131W'
p334
atp335
Rp336
ag1
((lp337
S'YGR085C'
p338
aS'YPR102C'
p339
atp340
Rp341
ag1
((lp342
S'YNL052W'
p343
aS'YIL111W'
p344
atp345
Rp346
ag1
((lp347
S'YDL136W'
p348
aS'YDL191W'
p349
atp350
Rp351
ag1
((lp352
S'YIL051C'
p353
aS'YER057C'
p354
atp355
Rp356
ag1
((lp357
S'YNL104C'
p358
aS'YOR108W'
p359
atp360
Rp361
ag1
((lp362
S'YGR241C'
p363
aS'YHR161C'
p364
atp365
Rp366
ag1
((lp367
S'YDR502C'
p368
aS'YLR180W'
p369
atp370
Rp371
ag1
((lp372
S'YER105C'
p373
aS'YBL079W'
p374
atp375
Rp376
ag1
((lp377
S'YPL220W'
p378
aS'YGL135W'
p379
atp380
Rp381
ag1
((lp382
S'YOR286W'
p383
aS'YOR285W'
p384
atp385
Rp386
ag1
((lp387
S'YGR148C'
p388
aS'YGL031C'
p389
atp390
Rp391
ag1
((lp392
S'YMR186W'
p393
aS'YPL240C'
p394
atp395
Rp396
ag1
((lp397
S'YPR158W'
p398
aS'YGR142W'
p399
atp400
Rp401
ag1
((lp402
S'YEL027W'
p403
aS'YPL234C'
p404
atp405
Rp406
ag1
((lp407
S'YLR258W'
p408
aS'YFR015C'
p409
atp410
Rp411
ag1
((lp412
S'YGR034W'
p413
aS'YLR344W'
p414
atp415
Rp416
ag1
((lp417
S'YLR028C'
p418
aS'YMR120C'
p419
atp420
Rp421
ag1
((lp422
S'YLR333C'
p423
aS'YGR027C'
p424
atp425
Rp426
ag1
((lp427
S'YJL136C'
p428
aS'YKR057W'
p429
atp430
Rp431
ag1
((lp432
S'YPR159W'
p433
aS'YGR143W'
p434
atp435
Rp436
ag1
((lp437
S'YHR056C'
p438
aS'YDR303C'
p439
atp440
Rp441
ag1
((lp442
S'YPL090C'
p443
aS'YBR181C'
p444
atp445
Rp446
ag1
((lp447
S'YPR145W'
p448
aS'YGR124W'
p449
atp450
Rp451
ag1
((lp452
S'YIL029C'
p453
aS'YPR071W'
p454
atp455
Rp456
ag1
((lp457
S'YLR225C'
p458
aS'YDR222W'
p459
atp460
Rp461
ag1
((lp462
S'YER059W'
p463
aS'YIL050W'
p464
atp465
Rp466
ag1
((lp467
S'YOR234C'
p468
aS'YPL143W'
p469
atp470
Rp471
ag1
((lp472
S'YLR441C'
p473
aS'YML063W'
p474
atp475
Rp476
ag1
((lp477
S'YEL070W'
p478
aS'YNR073C'
p479
atp480
Rp481
ag1
((lp482
S'YML024W'
p483
aS'YDR447C'
p484
atp485
Rp486
ag1
((lp487
S'YBR024W'
p488
aS'YBR037C'
p489
atp490
Rp491
ag1
((lp492
S'YER074W'
p493
aS'YIL069C'
p494
atp495
Rp496
ag1
((lp497
S'YJL045W'
p498
aS'YKL148C'
p499
atp500
Rp501
ag1
((lp502
S'YJL177W'
p503
aS'YKL180W'
p504
atp505
Rp506
ag1
((lp507
S'YLL045C'
p508
aS'YHL033C'
p509
atp510
Rp511
ag1
((lp512
S'YOL120C'
p513
aS'YNL301C'
p514
atp515
Rp516
ag1
((lp517
S'YOR040W'
p518
aS'YDR272W'
p519
atp520
Rp521
ag1
((lp522
S'YJR103W'
p523
aS'YBL039C'
p524
atp525
Rp526
ag1
((lp527
S'YOL121C'
p528
aS'YNL302C'
p529
atp530
Rp531
ag1
((lp532
S'YOR096W'
p533
aS'YNL096C'
p534
atp535
Rp536
ag1
((lp537
S'YER131W'
p538
aS'YGL189C'
p539
atp540
Rp541
ag1
((lp542
S'YPR192W'
p543
aS'YLL052C'
p544
atp545
Rp546
ag1
((lp547
S'YDR418W'
p548
aS'YEL054C'
p549
atp550
Rp551
ag1
((lp552
S'YNL034W'
p553
aS'YNL018C'
p554
atp555
Rp556
ag1
((lp557
S'YDL022W'
p558
aS'YOL059W'
p559
atp560
Rp561
ag1
((lp562
S'YHR010W'
p563
aS'YDR471W'
p564
atp565
Rp566
ag1
((lp567
S'YOR390W'
p568
aS'YPL279C'
p569
atp570
Rp571
ag1
((lp572
S'YBR210W'
p573
aS'YGL054C'
p574
atp575
Rp576
ag1
((lp577
S'YOR192C-C'
p578
aS'YIL060W'
p579
atp580
Rp581
ag1
((lp582
S'YGL101W'
p583
aS'YBR242W'
p584
atp585
Rp586
ag1
((lp587
S'YER102W'
p588
aS'YBL072C'
p589
atp590
Rp591
ag1
((lp592
S'YDR001C'
p593
aS'YBR001C'
p594
atp595
Rp596
ag1
((lp597
S'YBL027W'
p598
aS'YBR084C-A'
p599
atp600
Rp601
ag1
((lp602
S'YGL258W'
p603
aS'YOR387C'
p604
atp605
Rp606
ag1
((lp607
S'YCL026C-A'
p608
aS'YCL026C-B'
p609
atp610
Rp611
a.