(dp0
(S'N0'
p1
S'N1'
p2
tp3
cnumpy.core.multiarray
scalar
p4
(cnumpy
dtype
p5
(S'f8'
p6
I0
I1
tp7
Rp8
(I3
S'<'
p9
NNNI-1
I-1
I0
tp10
bS's2\xe8\xa15\xe8\xab?'
p11
tp12
Rp13
s(S'N5'
p14
S'cerevisiae'
p15
tp16
g4
(g8
S'\xb7$\xe4\x08\xe9H\xbe?'
p17
tp18
Rp19
s(S'N2'
p20
S'N3'
p21
tp22
g4
(g8
S'n\xd3\x92\xf3\x02\x86\xaa?'
p23
tp24
Rp25
s(S'N4'
p26
g14
tp27
g4
(g8
S'\xa1%kR\xe4\xbf\xaa?'
p28
tp29
Rp30
s(g21
S'kudriavzevii'
p31
tp32
g4
(g8
S'\xa3\xc9\xd1f\xe8\xca\xbf?'
p33
tp34
Rp35
s(g20
S'bayanus'
p36
tp37
g4
(g8
S'\xb7\x14\x90\x05\x01<\xc5?'
p38
tp39
Rp40
s(g2
g20
tp41
g4
(g8
S'\x88\xfc\x00\xe74)\xd4?'
p42
tp43
Rp44
s(g2
S'castellii'
p45
tp46
g4
(g8
S'\xa4,{]\xcc\xd8\xe0?'
p47
tp48
Rp49
s(g14
S'paradoxus'
p50
tp51
g4
(g8
S'\xe0\xe7(\x1dJ\xbf\xa9?'
p52
tp53
Rp54
s(g26
S'mikatae'
p55
tp56
g4
(g8
S"+\x1eY'\xaf\xbe\xc2?"
p57
tp58
Rp59
s(g21
g26
tp60
g4
(g8
S'\x96<.\x94U\x1a\xaa?'
p61
tp62
Rp63
s(g1
S'kluyveri'
p64
tp65
g4
(g8
S'=\x0c\xa1\x0f^\xf5\xce?'
p66
tp67
Rp68
s.