(dp0
S'Force'
p1
(dp2
I4
F0.0
ssS'ExpectedGeneconv'
p3
(dp4
(S'N1'
p5
S'N2'
p6
tp7
F5.966764567665723
s(S'N5'
p8
S'cerevisiae'
p9
tp10
F3.124164047001953
s(g6
S'N3'
p11
tp12
F0.3416719123334212
s(S'N4'
p13
g8
tp14
F0.7392768942675275
s(g11
S'kudriavzevii'
p15
tp16
F1.250718734345203
s(g6
S'bayanus'
p17
tp18
F1.513611558480147
s(S'N0'
p19
g5
tp20
F0.01984028301499638
s(g5
S'castellii'
p21
tp22
F4.630081858732631
s(g8
S'paradoxus'
p23
tp24
F2.4819286706899577
s(g13
S'mikatae'
p25
tp26
F8.14858190322253
s(g11
g13
tp27
F0.4804594943426847
s(g19
S'kluyveri'
p28
tp29
F0.0
ssS'newicktree'
p30
S'/Users/xji3/Genconv/PairsAlignemt/YeastTree.newick'
p31
sS'll'
p32
cnumpy.core.multiarray
scalar
p33
(cnumpy
dtype
p34
(S'f8'
p35
I0
I1
tp36
Rp37
(I3
S'<'
p38
NNNI-1
I-1
I0
tp39
bS'k\n]\xb2\xee\xc5\x94\xc0'
p40
tp41
Rp42
sS'clock'
p43
I00
sS'edge_to_blen'
p44
(dp45
g20
g33
(g37
S'\xb2\x04\xa0(\x84Sb?'
p46
tp47
Rp48
sg10
g33
(g37
S'}lgJ\xaeLz?'
p49
tp50
Rp51
sg12
g33
(g37
S'r\xef\xb1\x9f"{l?'
p52
tp53
Rp54
sg14
g33
(g37
S'1\xa6\x9a\x1f\xa9\xb7P?'
p55
tp56
Rp57
sg16
g33
(g37
S'l\xaam<\xc6\xdd\x82?'
p58
tp59
Rp60
sg18
g33
(g37
S'\xd3(Q\x0f\xf8\xbd\x81?'
p61
tp62
Rp63
sg7
g33
(g37
S'C\x83\x04\xc8\x12R\x85?'
p64
tp65
Rp66
sg22
g33
(g37
S'\xfc\xbb\xd5\xea\x9fI\x8b?'
p67
tp68
Rp69
sg24
g33
(g37
S'\x81\x97x\x05\n\x99s?'
p70
tp71
Rp72
sg26
g33
(g37
S'\x96s\xe0\xbeM\xf8\x88?'
p73
tp74
Rp75
sg27
g33
(g37
S'?\x95WeWhc?'
p76
tp77
Rp78
sg29
g33
(g37
S'\xfa\xfc\xac\x08\xb2\xe0\x9e?'
p79
tp80
Rp81
ssS'paralog'
p82
(lp83
S'YLR406C'
p84
aS'YDL075W'
p85
asS'alignment_file'
p86
S'/Users/xji3/Genconv/PairsAlignemt/YLR406C_YDL075W/YLR406C_YDL075W_input.fasta'
p87
sS'x_clock'
p88
(lp89
F-0.5713131624743949
aF-0.5570077013933508
aF-0.8292141849539082
aF0.1823215567939546
aF0.3364722366212129
aF-0.10536051565782628
aF-0.10536051565782628
aF-0.10536051565782628
aF-0.10536051565782628
aF-0.10536051565782628
aF-0.10536051565782628
aF-0.10536051565782628
asS'x'
p90
(lp91
F-0.7106012776746979
aF-0.5114438983174522
aF-0.9011802650830769
aF2.322933714173
aF0.3364722366212129
aF-6.1025796894131075
aF-5.0482149286762885
aF-5.6616762519594435
aF-6.887608976958945
aF-4.687241401529981
aF-4.74868053676839
aF-4.564945287810815
aF-4.3181867317302824
aF-5.342348384077807
aF-4.406946432776076
aF-6.045249452690868
aF-3.5014370280743705
asS'Model'
p92
S'HKY'
p93
s.