(dp0
S'ExpectedGeneconv'
p1
(dp2
(S'N0'
p3
S'N1'
p4
tp5
F9.27366437291867
s(S'N5'
p6
S'cerevisiae'
p7
tp8
F7.580449907994033
s(S'N2'
p9
S'N3'
p10
tp11
F6.836050955643709
s(S'N4'
p12
g6
tp13
F16.252534524217765
s(g10
S'kudriavzevii'
p14
tp15
F18.081722531811025
s(g9
S'bayanus'
p16
tp17
F32.03447893745253
s(g4
g9
tp18
F19.32794955575892
s(g4
S'castellii'
p19
tp20
F48.62566187399762
s(g6
S'paradoxus'
p21
tp22
F6.227874424838456
s(g3
S'kluyveri'
p23
tp24
F0.0
s(g10
g12
tp25
F9.335933842001067
s(g12
S'mikatae'
p26
tp27
F11.863632872302968
ssS'newicktree'
p28
S'/Users/xji3/Genconv/PairsAlignemt/YeastTree.newick'
p29
sS'll'
p30
F-2131.7239808651234
sS'clock'
p31
I01
sS'edge_to_blen'
p32
(dp33
g18
cnumpy.core.multiarray
scalar
p34
(cnumpy
dtype
p35
(S'f8'
p36
I0
I1
tp37
Rp38
(I3
S'<'
p39
NNNI-1
I-1
I0
tp40
bS'W:#\x84i%|?'
p41
tp42
Rp43
sg8
g34
(g38
S'\xd2jn\xd5a\xc4`?'
p44
tp45
Rp46
sg11
g34
(g38
S'+\xce\rY\xa4s`?'
p47
tp48
Rp49
sg13
g34
(g38
S'\xb2\x15$k\x00\xfdh?'
p50
tp51
Rp52
sg15
g34
(g38
S'\xa7A\xe9\x95,\x9d}?'
p53
tp54
Rp55
sg17
g34
(g38
S'^\x148a\x7f\xeb\x82?'
p56
tp57
Rp58
sg5
g34
(g38
S'\xf2Xm\x17\x92y\x84?'
p59
tp60
Rp61
sg20
g34
(g38
S'\xc4\xd8\xa4\x11\x1a\x7f\x90?'
p62
tp63
Rp64
sg22
g34
(g38
S'\xd2jn\xd5a\xc4`?'
p65
tp66
Rp67
sg24
g34
(g38
S'?\x85[\x1d\xe3\xbb\x9a?'
p68
tp69
Rp70
sg25
g34
(g38
S'\xcf\x02@\xeb\xf6xa?'
p71
tp72
Rp73
sg27
g34
(g38
S'D@I \xb1\xe0t?'
p74
tp75
Rp76
ssS'paralog'
p77
(lp78
S'YER102W'
p79
aS'YBL072C'
p80
asS'alignment_file'
p81
S'/Users/xji3/Genconv/PairsAlignemt/YER102W_YBL072C/YER102W_YBL072C_input.fasta'
p82
sS'x'
p83
cnumpy.core.multiarray
_reconstruct
p84
(cnumpy
ndarray
p85
(I0
tp86
S'b'
p87
tp88
Rp89
(I1
(I17
tp90
g38
I00
S"z(\xfc\xc9j\x04\xe7\xbf\xae\xa5\xb5;\xd3\xc8\xe1\xbf<\xf2\xb0\xf4\x00~\xe8\xbf4!}\x81\xcbm\x01@\xf8X\x0cZ&?\x0e@\xe3z\xa0j\xe2\xeb\x13\xc0_Xe\xe9\x16\xc4\x18\xc0\xf8\xb8\xbb\xd5\x88\xd7\x18\xc0k\xff\xe0\xb9\x86+\x17\xc0\xfa\x04\x7f'\xd4\xb7\x13\xc0\xf91rj\xd4\xbc\x12\xc0)\xcc95\xf3k\x12\xc0\xa4 [cg\x83\x10\xc0_Xe\xe9\x16\xc4\x18\xc0\xa9\x7fW\xe1\x0f*\r\xc0`j}\x14\xe4\x99\x18\xc0\xd2\x965O\xc8\x1d\x15\xc0"
p91
tp92
bsS'Model'
p93
S'HKY'
p94
s.