(dp0
(S'N0'
p1
S'N1'
p2
tp3
cnumpy.core.multiarray
scalar
p4
(cnumpy
dtype
p5
(S'f8'
p6
I0
I1
tp7
Rp8
(I3
S'<'
p9
NNNI-1
I-1
I0
tp10
bS'rE&\x11\x837\xab?'
p11
tp12
Rp13
s(S'N5'
p14
S'cerevisiae'
p15
tp16
g4
(g8
S'?U\xe4\r\x07\xe7\xa7?'
p17
tp18
Rp19
s(S'N2'
p20
S'N3'
p21
tp22
g4
(g8
S'\xe7`F\xeb\x1bt\x83?'
p23
tp24
Rp25
s(S'N4'
p26
g14
tp27
g4
(g8
S'r\xeca\x9c>\xedn?'
p28
tp29
Rp30
s(g21
S'kudriavzevii'
p31
tp32
g4
(g8
S'\x04\xc2\x80uI;\xa5?'
p33
tp34
Rp35
s(g20
S'bayanus'
p36
tp37
g4
(g8
S'\xc5|U\xf2\x89\xfd\xa5?'
p38
tp39
Rp40
s(g2
g20
tp41
g4
(g8
S'^4H\xb26m\x90?'
p42
tp43
Rp44
s(g2
S'castellii'
p45
tp46
g4
(g8
S'\xae\xd993x+\xbb?'
p47
tp48
Rp49
s(g14
S'paradoxus'
p50
tp51
g4
(g8
S'\xb8Px\\\x9cr\x93?'
p52
tp53
Rp54
s(g26
S'mikatae'
p55
tp56
g4
(g8
S'\xe5\xec*\r\x8f\x01\x9a?'
p57
tp58
Rp59
s(g21
g26
tp60
g4
(g8
S'\x97\xe7\x04_32\x85?'
p61
tp62
Rp63
s(g1
S'kluyveri'
p64
tp65
g4
(g8
S'\x00\x00\x00\x00\x00\x00\x00\x00'
p66
tp67
Rp68
s.