(dp0
(S'N0'
p1
S'N1'
p2
tp3
cnumpy.core.multiarray
scalar
p4
(cnumpy
dtype
p5
(S'f8'
p6
I0
I1
tp7
Rp8
(I3
S'<'
p9
NNNI-1
I-1
I0
tp10
bS'\xbe\xd3\xb6\x94d\xeeu?'
p11
tp12
Rp13
s(S'N5'
p14
S'cerevisiae'
p15
tp16
g4
(g8
S'\xbf\xd5\xd8\x97\x12\x04\xa7?'
p17
tp18
Rp19
s(S'N2'
p20
S'N3'
p21
tp22
g4
(g8
S'\xcd9&@\xc4b\x8c?'
p23
tp24
Rp25
s(S'root'
p26
S'kluyveri'
p27
tp28
g4
(g8
S'*\xdea\x8e\xb1.\xb0?'
p29
tp30
Rp31
s(S'N4'
p32
g14
tp33
g4
(g8
S'\xf9\xd3V6Z\xe5z?'
p34
tp35
Rp36
s(g2
S'castellii'
p37
tp38
g4
(g8
S'_\xbf\xd8\xe5|\xc2\xc3?'
p39
tp40
Rp41
s(g20
S'bayanus'
p42
tp43
g4
(g8
S'\x8a\x8cJ\xa4\x7f\xd2\xb2?'
p44
tp45
Rp46
s(g2
g20
tp47
g4
(g8
S'\xa3\x08Ei*g\x9e?'
p48
tp49
Rp50
s(g21
S'kudriavzevii'
p51
tp52
g4
(g8
S'\x18!\xd3cO\n\xb5?'
p53
tp54
Rp55
s(g14
S'paradoxus'
p56
tp57
g4
(g8
S'|}\x04\x01\xd6\xfc\xb0?'
p58
tp59
Rp60
s(g32
S'mikatae'
p61
tp62
g4
(g8
S'j\xe1\xd2f\x02\x98\xb3?'
p63
tp64
Rp65
s(g21
g32
tp66
g4
(g8
S'\xe5\x92\xe9>\xf2\x0e\x83?'
p67
tp68
Rp69
s(g26
S'N0'
p70
tp71
g4
(g8
S'\x05\xec\xe7\x9c\xffTp?'
p72
tp73
Rp74
s.