(iCodonBased2Repeats
Codon2RepeatsPhy
p0
(dp1
S'nbranch'
p2
I12
sS'Tao'
p3
F0.0
sS'SpecAfterDupli_node'
p4
S'N1'
p5
sS'tree_phy'
p6
ccopy_reg
_reconstructor
p7
(cBio.Phylo.PhyloXML
Phylogeny
p8
c__builtin__
object
p9
Ntp10
Rp11
(dp12
S'confidences'
p13
(lp14
sS'rerootable'
p15
NsS'clade_relations'
p16
(lp17
sS'rooted'
p18
S'True'
p19
sS'type'
p20
NsS'description'
p21
NsS'properties'
p22
(lp23
sS'branch_length_unit'
p24
NsS'other'
p25
(lp26
sS'date'
p27
NsS'sequence_relations'
p28
(lp29
sS'root'
p30
g7
(cBio.Phylo.PhyloXML
Clade
p31
g9
Ntp32
Rp33
(dp34
g13
(lp35
sS'branch_length'
p36
F1.0
sS'taxonomies'
p37
(lp38
sS'name'
p39
S'N0'
p40
sS'clades'
p41
(lp42
g7
(g31
g9
Ntp43
Rp44
(dp45
g13
(lp46
sg36
F1.0
sg37
(lp47
sg39
S'N1'
p48
sg41
(lp49
g7
(g31
g9
Ntp50
Rp51
(dp52
g13
(lp53
sg36
F1.0
sg37
(lp54
sg39
S'N2'
p55
sg41
(lp56
g7
(g31
g9
Ntp57
Rp58
(dp59
g13
(lp60
sg36
F1.0
sg37
(lp61
sg39
S'N3'
p62
sg41
(lp63
g7
(g31
g9
Ntp64
Rp65
(dp66
g13
(lp67
sg36
F1.0
sg37
(lp68
sg39
S'N4'
p69
sg41
(lp70
g7
(g31
g9
Ntp71
Rp72
(dp73
g13
(lp74
sg36
F1.0
sg37
(lp75
sg39
S'N5'
p76
sg41
(lp77
g7
(g31
g9
Ntp78
Rp79
(dp80
g13
(lp81
sg36
F1.0
sg37
(lp82
sg39
S'cerevisiae'
p83
sg41
(lp84
sg22
(lp85
sS'id_source'
p86
NsS'width'
p87
NsS'node_id'
p88
NsS'references'
p89
(lp90
sS'_color'
p91
NsS'sequences'
p92
(lp93
S'ATGTCTCATAAGAAGAGGGTGTACCCTCAAGCTCAGGTGCCATACATTGCAAGTATGCCAATAGTTGCAGAGCAACAGCAGTCTCAACAACAAATCGACCAAACAGCTTATGCAATGGGCAACCTACAATTGAACAATAGGGCTAACTCATTTACACAGCTAGCTCAACAGTTTCCTGGTTCTGGGAAAGTGGTCAATCAACTATACCCTGTGGATTTGTTTACAGAATTACCTCCGCCAATCCGTGACCTGTCTTTACCACCTCTTCCAATCACCATTTCTCAGGATAACATTGTGACTCCATCCGAATATTCAAATGTTCCATACCAGTACGTCAGATCTACTTTGAAAGCGGTGCCAAAAACAAACTCTCTGCTGAAGAAAACGAAGTTACCATTTGCCATTGTTATTAGACCATATTTGCATTTGCAAGATTCAGACAACCAAGTACCGCTAAATACTGACGGAGTCATTGTCCGCTGTCGCCGTTGTCGTTCATATATGAACCCTTTTGTCGTTTTCATTAACCAAGGGAGAAAATGGCAATGTAATATATGCCGTTTCAAAAATGATGTCCCATTTGGGTTTGATCAGAACTTACAAGGCGCTTATGAAAGAAACGAAATTAAAAACTCTGTCGTGGATTACTTGGCTCCCGTAGAATATTCTGTTAGGGAACCCCCACCATCTGTTTATGTATTTCTTTTAGATGTTTCTCAAAACGCTGTCAAAAATGGTTTATTGGCTACTTCTGCCAGAACCATTTTAGAAAACATAGAATTTCTACCAAATCATGATGGAAGGACCAGAATTGCTATTATATGTGTTGATCATAGCCTTCATTATTTTTACGTTCCTTTGGATGATGATTATCAAATGTTTGATATTGGCGATTTGGATGAACCATTTTTACCAATGCCGGATGAATTAGTAGTTCCACTAAAATATTGTAAAAATAATCTGGAAACATTGTTGAAAAAGATACCTGAAATTTTTCAAGACACACACAGTAGCAAGTTTGCACTTGGACCTGCCCTAAAAGCTGCGTCAAATTTGATAAAAAGCACTGGAGGCAAAGTTGAAGTCATTTCATCAACTTTACCAAATACTGGCATCGGGAAATTGAAAAAAAGAAGTGAACAGGGCATATTAAACACACCAAAAGAAAGCTCTCAGCTACTGTCGTGTAAAGATTCCTTTTATAAAACATTCACAATTGAGTGTAATAAACTACAAATAACAGTGGACATGTTTCTGGCATCAGAGGACTACATGGACGTTGCCACTCTATCTCACCTGGGCCGTTTTTCTGGTGGTCAAACACATTTTTATCCTGGTTTTAATGCCACCAGTTTGAACGATGTTACTAAGTTTACTAGGGAATTATCAAGGCATTTATCCATGGATATTTCAATGGAAGCTGTTATGAGAGTTCGTTGTTCTACTGGCTTGAGGGCCACATCGTTTTTTGGCCATTTTTTTAACAGATCCTCTGATTTATGCGCTTTTTCCACAATGCCTAGAGATCAGTCTTATCTTTTCGGGATATCCATCGAAGACTCATTAATGGCAGAATATTGCTACTTGCAAGTGTCAACATTGTTGACTCTAAACACTGGTGAACGTAGAATTAGAGTCATGACGTTAGCTCTACCAACGTCCGAATCAGCTAGGGAAGTGTTTGCATCCGCAGATCAACTAGCCATTACTGATTTCATGACACAAAACGCGGTGACTAAGGCTTTGAATTCAAGCATGTACTCTGCGAGGGATTTTATCACAAAATCGCTCGAAGATATTTTAAATGCCTACAAAAAAGAAATTTCGATGTCTAATATAAATTCAGTAACCTCACTTAACCTATGCGCAAATTTGAGAATGTTACCTCTATTAATGAATGGACTAAGTAAACATATAGCCCTCAGACCGGGCGTTGTTCCAAGCGATTACCGTGCAAGTGCGTTGAATAGATTGGAAACGGAGCCTCTTCATTATTTGATAAAGAGCATTTACCCTACAGTTTACTCCCTGCACGACATGCCCGACGAAGTCGGTCTACCTGACTTTGAAGGAAAAACGGTTCTTCCTGAACCTATAAATGCCACTATATCTCTTTTCGAAAGATATGGCCTGTATTTAATTGACAATTCCGCAGAATTATTTTTATGGGTTGGCGGAGATGCTGTTCCTGAGTTACTAATAGATGTATTCAATACTGACACCATATCTCAAATTCCTGTGGGGAAAAGTGAACTGCCTCTTTTGAACGATTCGCCTTTCAATGAAAGACTAAGGAGGATAATCGGTAGAATTAGAGAAAACAATGATACAATCACATTTCAATCATTATACATAATAAGAGGACCATCTATTAACGAGCCCGCCAACAACTCCGAAAAAGATATGGCTTCTTTAAGGCTATGGGTATTAAGTACTCTTGTCGAAGACAAAGTTTTAAATTGTGCTAGTTATAGAGAATACTTACAGAGTATGAAGACTAGTATCAACAGA'
p94
aS'ATGTCTCACAAGAAACGTGTTTACCCACAAGCTCAGCTCCAGTATGGACAAAATCCTCCGCTAACCCCTGCTCAAGAACAGTTACACCAGCAAATTGATCAGGCCACCACTTCCATGAACGATATGCATCTGGATCCTAACGCTTATATGCAGCCACAGGTTCCCCAGCAACAACCAATGGCAGCGAGGCCCATGAACCAGTTGTATCCAATCGATCTGTTGACGGAATTGCCTCCTCCAATTACCGATCTGACCTTGCCTCCCCCACCGTTGGTTATTCCTCCAGAAAGGATGTTAGTTCCTTCTGAATTGTCCAATGCGTCTCCAGATTATATCAGGTCGACCTTGAACGCCGTTCCTAAGAACAGCTCCCTGCTGAAGAAGTCTAAACTTCCATTTGGGCTTGTTATCAGACCATACCAACACTTGTACGACGATATCGACCCGCCTCCATTGAATGAAGATGGACTTATTGTCCGTTGTCGTCGTTGTCGTTCTTACATGAACCCTTTTGTCACTTTTATCGAGCAAGGCAGAAGATGGAGATGTAACTTTTGTCGTCTGGCCAATGACGTTCCTATGCAAATGGACCAGAGCGATCCAAACGACTACGACAGAAATGAAATCAAATGTGCTGTGATGGAATATATGGCCCCAAAGGAATATACTCTAAGACAACCACCTCCAGCCACTTACTGTTTCCTGATCGATGTCTCCCAGTCCTCTATCAAGAGTGGGTTACTGGCCACTACCATCAACACCCTTTTGCAAAATCTTGATTCCATTCCAAACCATGATGAAAGAACCAGAATTTCCATCTTATGTGTAGACAACGCCATTCACTACTTTAAAATCCCATTGGATTCTGAAAACAACATGATGGATATTGCCGACCTGGAAGAGCCTTTCTTGCCCAGACCAAACTCTATGGTTGTGTCCTTAAAGGCCTGCAGACAAAACATTGAAACTTTATTGACCAAGATTCCTCAAATCTTCCAATCTAATTTAATCACAAATTTCGCACTGGGCCCCGCTTTGAAATCCGCTTATCATTTAATTGGTGGCGTTGGTGGTAAAATAATTGTTGTGTCAGGTACTTTGCCCAACTTAGGCATAGGAAAATTACAAAGGAGAAATGAAAGTGGTGTTGTTAATACATCCAAGGAAACTGCACAACTACTTTCCTGTCAAGACTCATTTTATAAGAATTTCACCATCGATTGTTCTAAAGTACAGATTACTGTCGATTTATTTTTGGCTTCTGAAGATTATATGGACGTTGCATCACTATCGAATTTGAGTCGTTTCACTGCTGGTCAAACGCATTTCTATCCTGGTTTTTCAGGCAAGAACCCAAATGATATTGTCAAATTTTCCACTGAGTTTGCCAAGCACATTTCCATGGATTTCTGTATGGAAACCGTAATGAGAGCCCGTGGTTCCACAGGTTTGAGAATGAGTAGATTCTATGGTCACTTCTTCAATAGATCATCTGATTTATGTGCATTTTCCACCATGCCAAGAGATCAATCATACTTATTCGAAGTTAACGTTGATGAATCCATTATGGCTGACTATTGTTATGTTCAAGTAGCGGTACTTTTATCTCTGAATAATAGTCAACGTAGAATAAGAATTATAACATTGGCTATGCCAACCACGGAATCGTTGGCAGAAGTCTACGCATCTGCTGACCAATTAGCTATAGCGTCGTTTTACAACTCGAAGGCGGTGGAGAAAGCATTGAATTCCAGTTTGGACGATGCAAGAGTATTGATCAACAAATCCGTGCAAGATATCTTAGCCACGTACAAGAAGGAAATAGTGGTGTCCAACACTGCAGGGGGGGCCCCATTGAGGTTATGTGCCAATTTGAGAATGTTCCCATTGTTAATGCATTCTTTAACTAAGCATATGGCATTTAGATCTGGTATTGTCCCAAGTGACCATCGCGCCTCGGCCTTGAACAACTTAGAATCATTACCTTTGAAATATCTAATCAAAAACATCTACCCTGATGTTTATTCGCTGCATGATATGGCTGATGAGGCTGGGTTACCAGAAGCTACTGGCACAATTGTTTTGCCTCAACCAATCAATGCTACCTCTTCGTTGTTTGAAAGATACGGTCTATACTTGATAGATAATGGTAACGAATTGTTTTTGTGGATGGGTGGTGACGCTGTACCAGCGCTAGTATTCGATGTGTTTGGAACACAGGATATCTTTGACATTCCAATTGGCAAACAGGAAATACCTGTTGTTGAAAATTCTGAATTCAATCAAAGAGTAAGAAACATTATCAACCAATTGAGAAACCATGATGATGTCATCACTTACCAATCATTGTATATTGTTAGGGGTGCCTCTTTGAGCGAGCCCGTTAACGCATCTGCTAGGGAAGTTGCAACGCTAAGACTATGGGCTTCTAGCACCTTAGTGGAGGATAAGATTTTGAATAACGAAAGTTACAGAGAATTCTTACAAATCATGAAAGCCAGAATTAGCAAA'
p95
asg27
Nsg25
(lp96
sS'binary_characters'
p97
NsS'distributions'
p98
(lp99
sS'events'
p100
Nsbag7
(g31
g9
Ntp101
Rp102
(dp103
g13
(lp104
sg36
F1.0
sg37
(lp105
sg39
S'paradoxus'
p106
sg41
(lp107
sg22
(lp108
sg86
Nsg87
Nsg88
Nsg89
(lp109
sg91
Nsg92
(lp110
S'ATGTCTCATAAGAAGAGGGTATACCCTCAAGCCCAGGTGTCATACACTGCGAGTGTGCCAATAGTTGCAGAGCAACAGCAGTCTCAACAACAGATCGATCAGACAGCATATGCAATGGGCGACTTACAATTGAACAACAATTCCTACTCGTTAACACAACTAGCTCAACAATTTCCTGGCACAGGGAAAGTGGTCAACCAACTATACCCTGTGGATTTGTTTACGGAATTACCTCCTCCGATTCGTGATCTATCTTTACCGCCTCCTCCAATCACCATTTCCCAAGATAATATCGTGACTCCGTCCGAATCATCAAACATTCCATACCAGTACGTCAGATCTACTTTGAACGCAGTGCCAAAAACAAGTTCCCTACTGAAGAAAACGAAGCTACCGTTCGCCATTGTCATTAGGCCATATTTGCATTTGCAAGATTCCGAAAACCAAGTGCCATTAAATACTGATGGGGTAATTGTCCGTTGTCGCCGTTGTCGTTCATATATGAACCCTTTTGTCGTCTTCATCAACCAAGGGAGAAAATGGCAATGTAATATATGCCGTTTCAAAAATGACGTCCCATTTGGGTTCGATCAAAACTTACAAGGCGCTTACGAAAGAAATGAAATTAAAAATTCTATAATTGATTACTTGGCACCTGTAGAGTATTCTGTTAGGGAACCTCCACCATCTGTTTATGTATTCATTTTGGATGTTTCTCAAAATGCTGTTAAAAATGGTTTACTGGCCACTTCTGCCAGAACGATTTTAGAAAACATAGAATTTTTACCAAACCACGATGGAAGGACTAGAATTTCTATTATATGTGTTGACCATAATCTTCATTATTTCTACGTTCCTTTGGATGATGATTATCAAATGTTTGATATTGGCGATTTGGACGAACCATTTTTACCAATGCCGGATGAATTAGTAGTTCCACTAAAATATAGTAAAAAAAATCTGGAAAAATTGCTGAAAAAAATACCTGAAATCTTCCAAGATACACACAGTAGCAAGTTTGCACTTGGACCTGCCCTAAAAGCTGCCTCAAACCTGATAAAAAGTACCGGAGGCAAGGTCGAAGTTATTTCATCAACTCTACCAAATACTGGCGTCGGAAAGTTGAAAAAAAGAAGTGAACAGGGTGTATTAAACACACCAAAGGAAAGCTCTCAGCTACTATCGTGTAAGGATTCCTTTTATAAAACGTTTACAATCGAGTGTAGCAAATTGCAAATAACAGTGGACATGTTTCTGGCATCAGAGGATTACATGGACGTTGCATCGCTATCTCACTTGGGCCGTTTTTCTGGTGGTCAAACACATTTTTACCCTGGTTTTAATGCTACCAGTTTGAACGATGTAACCAAGTTTACTAGAGAATTATCAAGACATTTAACCATGGATATTTCAATGGAAGCCGTCATGAGAGTTCGTGGTTCTACTGGCTTGAGGGCCACATCATTTTTTGGCCATTTTTTTAACAGATCTTCTGATTTATGCGCTTTTTCCACAATGCCTAGAGATCAGTCTTATCTTTTCGGAATATCGATCGAAGATTCATTAATGGCAGAATATTGCTACTTGCAAGTGTCAACACTGTTGACTTTGAACACAGGTGAGCGTAGAATTAGGGTCATGACGTTAGCCCTACCAACGACCGAATCCGCAAGAGAAGTGTTTGCATCTGCAGACCAGCTAGCCATTGCTGATTTTATCACACAAAACGCAGTGACCAAGGCTTTGAATTCAAGCATGTACTCTGCAAGGGATTTTATTACGAAATCACTAGAAGATATTCTAAGTGCCTACAAAAAAGAAATCTCAATGTCCAATATAAATTCAGTAGCCTCACTTAACCTATGTGCAAATCTGAGAATGTTACCCCTATTAATGAATGCGTTGAGTAAACATATAGCCCTTAGACCGGGCGTTGTTCCGAGCGATTATCGTGCAAGTGCATTGAATAAATTGGAAACGGAGCCTCTTCATTATTTGATAAAGAGCATTTATCCAACAGTTTACTCCCTACACGACATGCCTGACGAAGTTGGCTTACCTGACTTCGAAGGAAAAACAGTTTTGCCTGAACCTATCAACGCTACTATATCTCTTTTTGAAAGATACGGCCTATATCTGATTGACAATTCCGCAGAATTATTTCTATGGGTTGGCGGAGATGCAGTTCCTGAGCTACTAATAGATGTATTCAACACTGACACCATTTCCAACATTCCTGTTGGGAAAAGTGAATTGCCTCCTTTGAACAATTCGCCTTTCAACGAAAGATTAAGGAATATAATCAGTAACATTAGAGAAAACAATGATACAATTACCTTTCAATCGTTGTACATAATAAGAGGGCCATCTATTAACGAACCTGCTAACAACTCAGAAAGAGATATGGCTTCTTTAAGATTATGGGCATTAAGCACTCTTGTTGAAGACAAAGTTTTGAATTGTGCTAGTTATAGAGAATATTTGCAAAGTATGAAAACCGCAATCAACAGA'
p111
aS'ATGTCGCACAAGAAACGTGTTTACCCACAGGCTCAGCTCCAGTATGGACAAAGCCCTCCCCTAACGCCTGCTCAAGAACAATTACACCAGCAAATTGATCAAGCCACCACTTCCATGAACGATATGCATCTGGACCCTAACGCTTATATGCAGCCGCAGGTCCCCCAGCAACAACCACTGGCAGCAAGACCCATGAACCAGTTGTATCCGATTGATCTGTTGACGGAATTGCCACCTCCAATTACCGATTTGACCTTGCCTCCCCCACCTTTGGTTGTTCCTCCAGAAAAGATGTTAGTTCCGTCGGAATTGTCCAATGCGTCTCCAGATTATATCAGATCGACTTTGAACGCTGTCCCTAAGAACAGCTCCCTGCTGAAAAAGTCTAAGCTGCCATTCGGGCTGGTTATCAGACCTTATCAACACTTGTACGACGATATCGACCCGCCTCCATTAAATGAAGATGGACTAATCGTCCGTTGTCGCCGTTGTCGTTCTTACATGAACCCCTTTGTCAACTTTATCGAGCAAGGCAGAAGATGGAGATGTAACTTTTGTCGTCTGGCCAATGGCGTTCCTATGCAAATGGATCAGAGCGATCCGAACGACTACGACAGAAATGAAATTAAATGTGCTGTCATGGAATACATGGCCCCAAAGGAATATACCCTAAGACAACCACCCCCAGCCACTTACTGTTTTCTGATCGATGTCTCCCAATCTTCCATCAAGAGTGGGTTGCTGGCTACTACCATCAACACTCTTTTGCAAAATCTTGATTCAATTCCAAATCACGATGAAAGAACCAGGATCTCCATTTTATGTGTGGACAACGCCATCCACTACTTCAAAATCCCATTGGATTCTGAAAACAATATGATGGATATTGCCGACCTGGAAGAGCCTTTCTTGCCCAGACCAAACTCAATGGTTGTATCCTTGAAGGCCTGCAGACAAAACATTGAAACCTTATTGACCAAAATTCCTCAAATCTTTCAGTCTAATTTGATCACAAGTTTCGCTCTTGGCCCTGCTTTGAAATCGGCTTATCATTTGATCGGTGGCGTTGGTGGTAAAATAATTGTTGTTTCAGGTACTTTGCCCAACTTAGGCATAGGGAAATTGCAAAGGAGAAATGAGAGCGGTGTTGTCAACACATCCAAGGAAACTGCACAACTACTTTCCTGTCAAGACTCGTTTTATAAGAATTTCACCATCGATTGCTCCAAAGTACAAATTACTGTGGATTTATTCTTGGCTTCTGAAGATTATATGGATGTTGCGTCACTATCCAATTTGAGTCGTTTCACTGCTGGTCAAACTCATTTCTACCCTGGTTTCTCAGGCAAGAACCCAAATGATATTGTCAAATTTTCCACTGAGTTTGCCAAACATATTTCCATGGATTTCTGTATGGAAACTGTTATGAGAGCTCGTGGTTCCACAGGTTTGAGAATGAGCAGGTTCTACGGCCATTTCTTCAATAGATCGTCTGATTTGTGTGCATTTTCCACCATGCCAAGAGATCAATCATACTTGTTTGAAGTTAACGTTGATGAATCTATTATGGCAGACTACTGTTACATTCAAGTAGCAGTACTTTTATCTTTGAATAATAGTCAACGTAGAATCAGAATTATAACCCTGGCAATGCCAACCACGGAATCGTTGGCGGAAGTCTATGCATCTGCTGACCAATTAGCCATAGCTTCATTTTATAACTCAAAGGCGGTGGAGAAGGCATTGAATTCCAGTTTGGATGACGCAAGAATATTAATCAACAAATCAGTACAAGATATTTTAGCCACATACAAGAAGGAAATAGTGGTATCTAATACTGCGGGAGGGGCTCCATTAAGATTATGTGCCAATTTGAGAATGTTTCCACTGCTAATGCATTCTTTAACTAAGCATATGGCATTCAGATCTGGTATTGTCCCTAGTGACCATCGTGCCTCTGCTTTGAACAACTTAGAATCACTACCATTGAAATACTTGATCAAAAACATCTACCCTGATGTGTATTCGTTGCATGACATGGCTGATGAGGCTGGGTTACCAGAAGCTACTGGCACAATTGTTTTACCTCAACCCATCAATGCTACCTCTTCGTTATTCGAAAGATACGGTTTATACTTAATAGATAATGGCAACGAATTATTTTTGTGGATGGGTGGTGATGCCGTGCCAGCATTAGTATTTGATGTGTTTGGAACCCAGGATATCTTTGACATTCCAATAGGCAAACAGGAAATACCTGTTGTGGAAAATTCCGAATTTAATCAAAGGGTAAGAAACATTATCAACCAATTGAGAAACCACGACGATGTGATCACTTACCAATCATTGTATATTGTTAGGGGAGCCTCTTTGAGCGAGCCTGTTAACGCATCTGCTAGGGAAGTTGCAACCCTAAGACTATGGGCTTCTAGCACTTTAGTAGAGGATAAGATTTTGAATAACGAAAGTTACAGAGAATTCTTACAAATCATGAAAGCCAGAATTAGCAAA'
p112
asg27
Nsg25
(lp113
sg97
Nsg98
(lp114
sg100
Nsbasg22
(lp115
sg86
Nsg87
Nsg88
Nsg89
(lp116
sg91
Nsg92
(lp117
sg27
Nsg25
(lp118
sg97
Nsg98
(lp119
sg100
Nsbag7
(g31
g9
Ntp120
Rp121
(dp122
g13
(lp123
sg36
F1.0
sg37
(lp124
sg39
S'mikatae'
p125
sg41
(lp126
sg22
(lp127
sg86
Nsg87
Nsg88
Nsg89
(lp128
sg91
Nsg92
(lp129
S'ATGTCCCATAAGAGAAGGGTATACCCTCAAGTCCAGGTGCCTTATGCTACGAGCGTGCCAGTAGTTGCAGAGCAACAGCAAGTTCAACAACAGATCGATCAGACAGCATATACAATGGGTAATGTGCAATTGAACGACAATGCTTACTCCTTCACACAACCAATGAATCAATATCCTGCTGCGGGGAAAGTGGTTAACCAACTATACCCTGTGGATTTATTTACAGAGTTACCTCCTCCAATTCGTGATTTATCTTTACCACCACCTCCAATCATCATCTCTCAAGATAACATTGTAACTCCGTCTGAATCAATAAATGTTCCCTGCCAATATTTCAGATCTACTTTGAATACAGTGCCAAAAACAAGCTCTCTATTGAAGAAAACGAAATTGCCGTTCGGCATTGTGATTAAACCATACTTACACCTGCAAGATTCGGAAAACCAGGTACCATTAAATACTGACGGGGTAATTGTCCGTTGTCGCCGTTGTCGTTCATATATGAATCCATTTGTCACTTTCATTAACCAAGGGAGAAAATGGCAATGCAATATATGCCGTTTCAAGAATGACGTGCCATTTGGCTTTGATCAAAACTTACAAGGCGCGTACGAAAGAAATGAAATCAAAAATTCTGTTGTAGAATATTTGGCACCTGTAGAGTATTCTATTAGAGAACCCCCACCATCTGTTTATGTATTTGTTCTAGATGTTTCTCAAAATACCATTAAAAATGGTTTATTGGCGACTTCTGCGAGAACCATTTTGGAAAACTTGGAATTTTTACCAAACCATGATGGAAGGACTAGAGTTTCCATCATATGTGTTGATCATAGCCTTCACTATTTCTACGTTCCTTTAGATGATGATTATCAAATGTTTGATATTGGCGATTTGGACGAACCATTTTTGCCGATGCCAGATGAGTTAGTAGTTCCATTGAAGTACTGTAGAAAGAATCTTGAAAAACTGTTAAAAAAGATACCTGAAATTTTCCAAGATACACGTAGTAGTGGGTTTGCACTTGGGCCCGCGCTGGAAGCTGCTTCGAGCTTGATAAAAGGGACCGGAGGGAAAGTCGAAGTTATTTCATCAACTCTGCCAAATACTGGCACTGGAAAATTGAAGAAAAGAAATGAGCAAGGAGTACTAAATACAGCGAAAGAAAGCTCTCAACTACTATCGTGTAACGACTCTTTTTATAAAACATTCACGATTGAGTGTAGCAAATTGCAAATAACAGTCGACATGTTTCTGGCATCTGAGGAATATATGGACGTTGCAACGCTATCACACCTGGGCCGTTTTTCTGGTGGTCAAACACACTTCTACCCTGGCTTTAATGCTACCAGTTTAAACGATGTTACTAAATTTACTAGAGAATTATCAAGACATTTATCCATGGATATTTCAATGGAGACGGTCATGAGGGTCCGCGGTTCTACTGGCTTGAGAGCTACATCATTTTTTGGCCATTTTTTCAACAGGTCTTCTGATTTATGTGCTTTTTCCACTATGCCTAGAGATCAATCTTATCTTTTCGGAATATCGATCGAAGATTCATTAACTACAGAATATTGCTACTTGCAAGTATCAACATTGTTGACTTTAAACACAGGTGAGCGTAGAATCAGGGTCATGACTTTAGCCCTGCCAACAACCGAATCTGCTAGGGACGTGTTTGCATCCGCTGACCAACTAGCCATTACTGATTTTATCACACAAAACGCAGTGTCTAAGGCTCTGAACTCAAGCATGCACTCAGCAAGGGATTTCATTACAAAATCGCTCCAAGATATTCTGATTGCCTACAAAAAGGAAATATCAATGTCTAATGTTAATTCAGTAACCTCACTTAACTTATGTGCAAACTTGAGAATGTTGCCCCTATTGATGAATGCGCTGAGTAAACATATAGCCTTCAGATCTGGCGTTGTTCCGAGCGATTACCGTGCAAGTGCCCTAAATAAATTGGAAACGGAGCCACTTCATTATCTGATAAAGAGCATTTATCCAACAGTTTACTCTCTACACGATATACCCGACGAAGTTGGCCTACCCAACGTTAAAGGAAAAACAGTTCTGCCTGAACCTATCAACGCTACCATATCTCTTTTTGAAAGATACGGCTTGTACCTAATTGATAATTCCGCGGAATTGTTTTTATGGGTCGGCGGAGATGCAGTTCCTGAGTTACTGAGAGATGTATTTAGCATTGATACCATCTCGAATATTCCTGTAGGGAAAAGCGAACTTCCTCTTTTGAACGATTCACCATTCAACGAAAGATTAAGAAATATAATCAGTAATGTTAGGGAAAACAATGATACGATTACTTTCCCATCGTTGTATATAATAAGAGGGCCATCTATTAACGAACCCGCAAACACTTCTGAACGTGAGATGGCCTCTTTAAGGTTATGGGCGTCAAGCACCCTTGTTGAAGACAAGGTTTTGAATTGTGCTAGTTATAGAGAATATTTGCAAAGTATGAAAACTACGATCAACAGA'
p130
aS'ATGTCTCACAAGAAACGTGTTTACCCACAGGCTCAACTCCAATATGGACAGAATCCTCCCTTAACCCCTGCTCAAGAACAGTTACATCAGCAAATCGACCAAGCCGCAACTTCTATGAACGATATGCATCTAGACCCGAATGCTTATATGCAGCCGCAAGTCCCTCAGCAACAACCACTATCAACAAGACCCATGAACCAGTTGTATCCGATCGATCTATTGACGGAATTGCCACCTCCAATCAACGATTTAACTCTGCCCCCCCCACCTTTGGTTATTCCTCCGGAGAAGATGTTGGTTCCGTCGGAATTGTCGAACGCGTCTCCAGATTACATCAGATCGACTTTGAATGCTGTTCCCAAAAACAGCTCCTTGTTGAAGAAGTCTAAGCTACCATTTGGGTTAGTTATAAGACCATACCAACACTTGTACGATGACATTGACCCTCCTCCATTAAATGAAGACGGGTTAATTGTCCGTTGTCGTCGTTGTCGTTCTTACATGAACCCTTTTGTCACCTTCATTGAGCAAGGTAGAAGATGGAGATGTAACTTTTGTCGCTTGGCCAATGATGTTCCAATGCAAATGGACCAGAGCGATCCGAATGACTACGACAGAAGCGAAATCAAATGTGCTGTCATGGAGTACATGGCACCCAAGGAATATACTCTAAGGCAACCACCTCCAGCCACCTACTGTTTTCTGATCGATGTATCCCAGTCATCCATCAAAAGCGGGTTGTTAGCCACTACCATCAACACTCTTCTTCAGAATCTGGATTCCATTCCCAACCACGACGAAAGAACCAGGATCTCTATTTTATGTGTGGACAACGCCATTCACTACTTCAAAATCCCATTGGATTCTGAAAGTAATATGATGGACATTGCGGACTTGGAGGAACCTTTCTTGCCAAGACCTAACTCCATGGTCGTATCCTTGAAGGCATGCAGAAAAAACATTGAAACTTTGTTGACCAAGATTCCTCTAATCTTTCAGTCTAATTTGATCACTAGCTTTGCGTTGGGCCCTGCTTTGAAATCAGCTTACCACTTAATTGGTGGTGTCGGTGGCAAAATAATCGTCATATCAGGTACTTTACCCAACTTAGGCATAGGGAAACTGCAAAGAAGAAACGAAAGCGGTGTTGTTAATACATCAAAAGAAACAGCCCAATTACTTTCCTGTCAAGACTCATTTTATAAAAACTTCACCATTGACTGTTCTAAAGTCCAAATCACTGTGGATTTATTCTTGGCTTCCGAAGAATACATGGATGTTGCATCATTGTCCAATTTGAGTCGTTTCACTGCTGGTCAAACCCATTTCTATCCTGGTTTCTCTGGCAAAAATCCAAATGATATTGTCAAGTTTTCTACTGAGTTTGCCAAGCATATCTCCATGGATTTCTGTATGGAAACTGTCATGAGGGCGCGTGGTTCCACAGGTTTAAGAATGACTAGATTTTATGGCCACTTTTTTAATAGGTCCTCCGATTTATGTGCATTTTCCACCATGCCAAGAGATCAATCATACTTGTTTGAAGTTAATGTTGATGAATCCATTATGGCCGACTACTGTTATATTCAGGTAGCTGTACTTTTATCTTTGAATAATAGTCAACGTAGAATTAGAATTATAACTTTAGCAATGCCAACCACAGAATCATTGGCCGAAGTATATGCATCGGCTGACCAATTGGCCATTGCCTCATTCTATAACTCAAAGGCAGTGGAAAAAGCATTGAATTCCAGTTTGGACGAGGCAAGAGTCTTGATTAATAAATCCGTTCAAGATATACTAGCCACATACAAGAAGGAAATTGTAGTATCCAACACTGCAGGTGGGGCTCCACTAAGATTATGTGCCAACTTGAGAATGTTCCCATTGCTAATGCATTCTTTGACAAAGCATATGGCATTTAGATCTGGTATTGTCCCAAGTGATCATCGTGCCTCTGCCTTGAACAATCTAGAATCACTACCATTGAAATACTTAATCAAGAACATCTATCCTGATGTCTATTCATTGCATGATATGGCTGATGAAGCTGGGCTACCAGAAGCCACTGGTACAGTGGTTTTGCCTCAACCCATCAACGCTACCTCTTCATTGTTTGAAAGATACGGTCTATACTTGATTGATAACGGCAATGAATTGTTTTTATGGATGGGTGGTGATGCTGTTCCAGCATTAGTGTTCGATGTGTTCGGCACTCAGGATATCTTCGACATTCCAATTGGCAAACAAGAAATACCTGTTGTGGAAAATTCTGAATTCAACCAAAGAGTAAGAAACATTATTAACCAACTAAGAAATCATGACGATATCATCACTTACCAATCATTGTATATTGTCAGGGGTGCTTCTTTGAGTGAACCTGTTAACGCATCTGCTAGGGAAGTGGCAACACTGAGACTATGGGCTTCGAGTACCTTAGTAGAGGATAAGATTTTGAATAACGAAAGTTACAGAGAATTCTTACAAATTATGAAAGCTAGAATTAGTAAA'
p131
asg27
Nsg25
(lp132
sg97
Nsg98
(lp133
sg100
Nsbasg22
(lp134
sg86
Nsg87
Nsg88
Nsg89
(lp135
sg91
Nsg92
(lp136
sg27
Nsg25
(lp137
sg97
Nsg98
(lp138
sg100
Nsbag7
(g31
g9
Ntp139
Rp140
(dp141
g13
(lp142
sg36
F1.0
sg37
(lp143
sg39
S'kudriavzevii'
p144
sg41
(lp145
sg22
(lp146
sg86
Nsg87
Nsg88
Nsg89
(lp147
sg91
Nsg92
(lp148
S'ATGTCCCATAAGAAGAGGGTGTATCCTCAGGCCCAGGTTCCATACTCTGCAAGCGAGCCGGTGGTTACAGAACAACAGCAGTTTCAACAACAAATCGATCAAACGGCATACACAATGGGCAACTTTCAATTGGATGACAACACTTATTCACCCACACAACCAGGCCAGCAATATTTAGGCTCAGGAAAAGTGGTTAACCAGTTGTATCCGGTAGACTTGTTTACAGAATTGCCTCCTCCGATTCGTGATCTGTCGTTACCACCTCCACCGATCACTATCTCTCAGAATAGCATCGTGACCCCATCGGAATCAGCAAATGCCCAATATCAATACGTCAGATGTACTTTGAATGCGGTGCCAAAAACTAGCTCTCTCTTAAAAAAAACCAACCTACCATTCGGGATTGTCATTAGACCCTACTTACATTTGCAAGATTCAGACGACCAGTTACCACTGAATACCGACGGAGTAATTGTCCGTTGTCGCCGTTGTCGTTCATATATAAATCCCTTTGTCACTTTCATTGAACAGGGGAGAAAATGGCAATGTAATATTTGTCATTTCAAGAATGAAGTTCCCTTTGGCTTCGATCAGAATCTGCAAGGAGCTTACGAAAGAAACGAAATCAAAAATTCCGTCGTAGATTATTTGGCACCTGTTGAGTATTCTATTAGAGAACCTCCACCATCGGTTTACGTGTTTATTTTGGATGTCTCTCAAAACGCCGTTAGAAACGGTTTATTGGCCACTTCTGCCAGAACCATTTTAGAAAACTTGGAGTTTTTACCAAACCATGATGGAAGGACCAGAGTATCCATCATATGTGTCGATAATGGTCTTCATTATTTTTACGTCCCCTTAGATGACGATTATCAAATGTTCGATGTCGGCGATTTAGAAGAACCATTTTTGCCAATGCCAGATGAACTGGTGGTTCCACTGAAGTATTGTAGAAAGAACTTGGAAAAATTGTTAAAAAAGATTCCTGAAATCTTTCAAGACACACATATTAGCCGCTTTGCACTCGGACCTGCTCTAAAATCCGCTTCAAACTTGATAAAATGCACCGGGGGTAAGATTGAAATTATCTCTTCGACCTTACCAGATACCGGTACAGGAAGATTGAAAAGAAGAAGTGAGCAAGGTGTATTAAACACTCCAAAAGAAAGCTCTCAATTACTATCATGCCAAGACTCGTTTTACAAATCATTCGTAATCGAGTGCAGCAAACTGCAAATAACAGTTGATACGTTTCTCGCATCTGAGGAGTACATGGACGTGGCAACTTTATCACATCTCGCCCGTTTTTCTGGTGGTCAAACACACTTTTACCCTGGTTTCAATGCTACCAGCTTAAACGATGTTACTAAATTCACTAGGGAATTATCAAAACATTTATCCATGGATATATCTATGGAGGCTGTCATGAGAGTTCGTTGTTCTACAGGTTTGAGGGCCACGTCATTTTTCGGCCATTTTTTCAACAGATCTTCAGATTTATGTACTTTTTCCACAATGCCTAGGGACCAGTCTTATCTTTTCGGAATATCGATCGAGGATTCCTTGATGAAAGAGTATTGCTACTTGCAAGTATCAATGTTGTTGACTTTAAACACAGGTGAGCGTAGGATTCGGGTTATGACGTTGGCACTGCCAACGACGGAATCAGCTAGGGAGGTGTTTGCATCTGCTGACCAACTAGCAATTACTAACTTTATCACACAAAATGCGGTGGCTAAAGCTTTGAATTCAAGCGTATTTTCTGCGAGGAATTTTGTAACAAGATCACTTCAAGATACTCTAGGTGCCTACAAGAAGGAAATATCACTGTCAAATATTACTGCAGTAAGCTCACTAAATTTCTGTGCAAATTTGAGAATGCTACCTCTACTAATGAATGCGTTATGTAAACATATAGCCTTTAGACCGGGTGTGGTTCCAAGCGATTATCGTGCAAGTGCACTGAATAAATTAGAGACCGATCCACTTCACTCACTAATAAAGAGCATCTATCCAACTGTTTACTCCTTACACGATATACCTGATGAGGTTGGTTTGCCCAACTTCAACGGGAAAACAGTTCTGCCGGAACCGATCAACGCTACTGCATCTCTTTTCGAAAGATATGGGTTGTATTTAATTAACAATTCCACAGAGTTATTTTTATGGGTCGGTGGGAATGCAGTTCCTGAATTATTAGGAGATGTGTTTAATACTGACGATATCTCCAACATTCCTGTTGGAAAATGTGAACTGCCTCTTCTAATCGATTCTCCATTCAATGAAAGATTAAGAAATATAATCAGCGAAGTGAGGGAGAACAACGATACAATTACCTTCCAATCGCTGTACATAGTAAGAGGACCATCTATTAACGAACCCGCTAACACCGCTGAGAGAGAGATGGCTTCTATAAGGTTATGGACATCAAGTACCCTTGTTGAAGACAAAATTATGAATTGTGCCAGTTATAGAGAATACCTGCAAAGCATGAAAACCGCTATCAACAAA'
p149
aS'ATGTCCCACAAGAAACGTGTTTACCCACAGGCTCAGCCCCAGTATGGACAGAGTGCTCCTCTGACACCTGCTCAGGAGCAGTTACACCAGCAAATTGATCAGGCCGCCACTTCCATGAACGATATGCACTTGGATCCTAACGCTTATATGCAGCAGCAGATCCCCCAGCAACAGCCGCTATCTTCAAGACCCATGAACCAGCTGTATCCGATCGATTTGTTGACGGAACTGCCTCCTCCAATTACCGACTTGACCTTGCCTCCCCCACCTTTGGTTATTCCACCAGAGAAAATGCTAGTTCCATCGGAATTGTCAAACGCGTCTCCGGATTATATCAGATCGACTTTGAACGCTGTTCCCAAAAATAGCTCCCTGTTGAAGAAATCTAAGCTACCATTCGGACTGGTTATCAGACCATACCAACACTTGTACGACGATATCGACCCGCCCCCATTAAATGAGGATGGTCTGATCATCCGCTGTCGTCGTTGCCGTTCTTACGTGAACCCCTTCATCACTTTTATCGAGCAAGGCAGAAGGTGGAGATGTAACTTTTGTCGTCTGGCTAATGACGTCCCTATGCAGATGGACCAGAGCGATCCGAACGATTATGACAGAAACGAAATTAAATGTGCTGTTATGGAATACATGGCTCCCAAGGAATATACTCTAAGGCAACCTCCTCCGGCCACGTACTGTTTCCTGATCGATGTGTCCCAAGCGTCCATCAAGAGCGGGTTGTTGTCCACCACCATCAACACTCTCTTGCAGAACTTGGATTCCATCCCTAACCACGACGAAAGAACCAGGATTTCCATTCTATGCGTGGACAACGCCATCCATTACTTCAAGATTCCATTGGATTCTGAGAATAATATGATGGACATTGCCGATTTGGAGGAACCTTTCTTGCCCAGACCAAATTCCATGGTTGTTTCGTTGAAAGCCTGCAGACGAAACATTGAGACTCTATTGACCAAGATCCCTGAAATCTTCCAGTACAATTTGATCACCAGTTTTGCGTTGGGCCCCGCTTTGAAGTCGGCCTACCATTTGATTGGTGGTGTTGGTGGTAAAATCATCATAGTATCAGGTACTTTGCCTAATCTGGGCATAGGGAAATTGCAAAGAAGAAACGAAAGCGGTGTTGTCAACACGTCAAAGGAAACTGCCCAATTGCTGTCTTGTCAAGACTCATTTTATAAAAACTTCACCATTGATTGTTCTAAAGTGCAAATTACTGTGGATTTATTCTTGGCCTCTGAGGATTACATGGATGTTGCATCATTGTCCAATTTAAGCCGTTTCACCGCTGGTCAAACCCATTTCTACCCCGGATTTTCAGGTAAAAATCCAAACGATATTGTCAAATTTTCCACTGAATTCGCCAAACACATTTCCATGGATTTCTGCATGGAAACTGTTATGAGAGCCCGTGGTTCCACAGGTTTAAGAATGTCCAGATTTTATGGCCATTTCTTCAACAGATCCTCTGATTTGTGTGCATTTTCCACCATGCCAAGAGATCAATCATATTTGTTTGAAGTCAACGTCGATGAATCTATCATGACCGAATACTGTTACATTCAAGTAGCAGTGCTATTATCTTTGAATAACAGTCAACGTAGAATCAGAATCATTACATTGGCCATGCCTACCACGGAATCCTTGGCCGAAGTATATGCATCTGCTGATCAATTAGCCATAGCGTCATTTTACAACGCTAAGGCGGTGGAAAAGGCATTAAATTCCAGTTTGGACGAAGCAAGAGTGTTGATTAATAAATCAGTGCAAGATATTTTAGCCACATACAAGAAGGAAATAGTGGTATCTAACACTGCAGGTGGTGCTCCATTAAGGTTATGTGCCAATCTAAGAATGTTCCCGTTATTGATGCATTCTTTAACTAAGCACATGGCATTTAGATCTGGTATTGTTCCGAGTGATCATCGTGCCTCTGCTTTGAATTGCCTAGAATCATTACCGTTGAAATACCTAATCAAAAACATCTACCCTGACGTTTATTCATTGCATGATATGGCCGATGAGGCTGGTTTACCAGAAACCACTGGCACAATTGTTTTACCTCCACCCATCAATGCCACCTCTTCACTGTTTGAAAGATACGGCTTATACTTGGTAGATAATGGTAATGAATTATTTTTGTGGATGGGCGGTGACGCTGTCCCAGCATTAGTATTTGACGTGTTTGGTACTCAAGATATCTTTGACATTCCAATTGGCAAGCAGGAAATACCTATTGTGGAGAATTCAGAATTCAACCAAAGAGTAAGAAACATTATCAACCAACTGAGAAGTCATGACGATATTATCACCTACCCGTCGTTGTATATTGTTAGAGGTTCTTCTTTGAGTGAGCCTGTAAACGCATCTGCTAGGGAAGTCGCAACTCTGAGACTATGGGCTTCGAGTACCTTAGTAGAGGATAAGATTTTGAATAACGAAAGTTACAGAGAGTTCTTACAAATCATGAAAGCTAGAATCAGTAAA'
p150
asg27
Nsg25
(lp151
sg97
Nsg98
(lp152
sg100
Nsbasg22
(lp153
sg86
Nsg87
Nsg88
Nsg89
(lp154
sg91
Nsg92
(lp155
sg27
Nsg25
(lp156
sg97
Nsg98
(lp157
sg100
Nsbag7
(g31
g9
Ntp158
Rp159
(dp160
g13
(lp161
sg36
F1.0
sg37
(lp162
sg39
S'bayanus'
p163
sg41
(lp164
sg22
(lp165
sg86
Nsg87
Nsg88
Nsg89
(lp166
sg91
Nsg92
(lp167
S'ATGTCTCATAAGAGGAGGGTGTACCCCCAGGCTCAGACCCCGTACGCTGCGAATGTTCCAATAGTTGCAGAACAACAACAGTTTCAACAACAGATCGACCAAACGGCAAATGCTATGGGCAATTTCCAATTAAATGACAACGCCTACTCGTTTACCCAGCCAGCTCCACAACAGCCCAGCTCTAGGAAAGTGGCCAATCAATTGTACCCGGTAGACTTGTTTACAGAATTGCCTCCTCCGATTCGTGATCTGTCATTACCGCCTCCTCCAATCACCATCTCTCAGGATAGTATCGTGACCCCATCCGAGACATCCAATGTCCCCTACCAGTATGTCAGATCTACTTTGAATGCGGTGCCAAAGACAAGCTCTCTATTAAAAAAAACGAAGCTACCGTTTGGTATTGTAATAAGACCATACTTGAACTTACAAGATTCGAGTGAATATGTGCCGTTGAATAACGATGGCATCATTGTTCGTTGCCGCCGTTGCCGTTCATATTTGAACCCCTTTGTTGCTTTTATTGAACAAGGGAGGAGATGGCAATGTAATATTTGTCGATTCAAGAATGACGTTCCATTTGGCTTCGATCAGAATTTGCAAGGTGCCTACGAAAGAAACGAAATTAAACACTCTGTCATGGAGTATTTGGCACCTATCGAGTACTCTGTCAGAGAACCTCCACCATCTACTTATGTATTTATTTTGGACGTTTCTCAAAACGCTGTTAGAAATGGTTTATTGGCCACTTCTGCCAGAACCATTTTAGAAAATTTGGAGTCTTTACCAAACCATGACGGGAGAACTAGTGTTTCAATCATATGTGTTGACCATGCCCTCCATTATTTCTATGTTCCCCTAGATGATGACTATCAAATGTTTGACGTCGGCGATTTAAGCGAACCATTTTTGCCAATGCCTGAGGAGCTCGTGGTTCCATTGAGATATTGTAAAAAGAATTTGGAAAAACTACTAAAAACGATACCTGAAGTTTTCCAAGACACACACATAAGTAAATTTGCACTTGGGCCTGCTCTTAAAGCTGCTTCATATTTGATTAGTAACACCGGAGGTAAAATTGAAGTCATTTCATCGACTTTACCAGATACTGGTGTCGGAAAATTGAAAAGAAGAGCTGAGCAAGGTGTATTGAACACGACAAAAGAGAGCTCCCAATTACTATCATGCCAAGACTCCTTTTACAAAACATTCACAATCGAGTGTAGCAAAATGCAAATAACAGTCGATATGTTTTTAGCGTCTGAGGAATACATGGACGTAGCGACTCTATCCCATTTGAGCCGTTTCTCTGGTGGCCAAACACACTTCTATCCTGGCTTCAATGCTACTAGTCTGAACGATGTTACCAAATTTACCAGAGAGTTATCTAAACATTTATCCATGGATATATCCATGGAGGCTGTCATGAGAGTTCGTGGTTCGACAGGTTTGAGGGCCACATCATTTTTTGGTCACTTTTTCAACAGATCTTCAGATTTATGTGCATTCTCCACAATGCCTAGAGACCAATCCTATCTTTTCGAAATTTCTATCGAAGATTCCTTAGTGGCTGAACACTGCTACTTGCAAGTCTCAACCCTATTAACCTTAAACACAGGTGAACGTAGAATTAGAGTTATGACGTTGGCACTACCAACCACGGAATCCGGTAGGGAAGTGTATGCATCTGCTGATCAACTGGCCATTACCGATTTTATCACACAAAATGCGGTAGCCAAAGCATTGAATTCAAGCATGGATTCTGCAAGGGATTTAATAACAAAATCGCTCCAAGATATTTTAAGTGCCTATAAAAAAGAAATTTCCATGTCAAATATTACTGCTGTAACTTCTTTGAATTTATGTGCCAACTTGAGGATGTTGCCCTTATTAATGAATGCGTTAGGCAAACACATAGCCTTTAGACCGGGGATGGTTCCAAGTGATTACCGTGCGAGTTCACTGAATAAATTGGAAACTGAGCCACTTCACTACCTAATAAAAAGCATTTACCCAACTGTATACTCTCTACATGATATACCTGATGAAGTTGGTTTGCTTGATTCCAATAGAGAAACAAAACTACCTGACCCTATCAATGCTACTGCATCTCTCTTTGAAAGATACGGATTGTATTTAATTGACAATTCCACAGAGTTATTTTTATGGGTTGGTGGGGACGCTGTTCCTGAATTACTGAACGATGTATTTAACACCGATAACATCTCCAATGTCCCCGTTGGCAAAAGCGAGCTGCCCGTTTTGATCGATTCCCCATTCAATGTCAGATTAAGAAACATAATCAGTAAAATCAGAGAAAACAATGATACGATCACTTTCCAATCGTTGTACACAATAAGAGGACCATCTATCAATGAACCCGCTAATACTGCAGAGAGGGAGATGGCTTCTCTAAGGCTATGGGTATCAAGCACCCTTGTTGAAGACAAGATTTTGAATTGTGCCAGCTATAGAGAATACCTGCAAAGTATGAAAACGGCTATCAACAGA'
p168
aS'ATGTCCCACAAGAAACGTGTTTACCCACAGGCCCAGGCCCAGTACGGGCAGAGCCCTCCCCTGACCCCTGCTCAAGAACAGCTCCACCAGCAGATCGATCAAGCCGCCACTTCAATGAACGACATGCATTTGGACCCTAATGCCTACATGCAGCAGCAGGTCCCCCAGCAACAGCCGCTACCAGCAAGACCCATGAACCAGCTGTATCCGATCGACCTGTTGACGGAATTGCCACCCCCAATCACCGACTTGACCTTACCTCCGCCACCACTGGTTATCCCTCCAGAGAAAATGCTGGTTCCATCGGAGGTGTCCAACGCGTCGCCAGATTACATCAGATCGACTTTGAACGCCGTCCCCAAAAACAGCTCTTTGCTGAAGAAATCCAAGCTGCCATTCGGATTGGTCATCAGACCATACCAGCACCTTTACGACGATATCGACCCGCCTCCACTCAATGAAGACGGGCTGATCGTCCGTTGTCGTCGTTGCCGTTCCTACATGAACCCCTTCATCACCTTTATCGAACAAGGCAGGAGATGGAGGTGTAACTTCTGTCGCCTGGCCAATGACGTCCCCATGCAAATGGACCAGACCGACCCGAACGACTACGACAGAAACGAAATCAAATGCGCTGTCATGGAATACATGGCTCCCAAGGAATACACTCTAAGACAACCTCCCCCAGCTACCTACTGTTTCCTGGTCGACGTCTCCCAGGCTTCCATCAAAAGCGGGTTGTTGGCCACCACCATTAACACTCTTTTACAAAACTTGGATTCCATCCCTAACCATGACGAAAGAACCAGAATCTCCATCTTATGTGTGGACAACGCCATCCACTACTTCAAGATCCCATTGGATTCTGATAACAATATGATGGACATTGCCGACTTAGAGGAACCTTTCTTGCCCAGACCAAATTCCATGGTTGTCTCTTTGAAGGCTTGCAGACAAAATATTGAAAGCTTATTGACCAAGATCCCTCAAATCTTCCAGTCCAATTTGATCACAAGCTTCGCATTGGGCCCCGCTTTAAAGTCAGCTTATCATCTAATTGGTGGCGTTGGTGGTAAGATCATCGTTGTTTCAGGGACTTTACCCAACTTGGGCATAGGGAAACTACAAAGAAGAAACGAAAGCGGTGTCGTCAACACATCAAAGGAAACCGCCCAATTACTGTCATGTCAAGACTCATTCTACAAGAACTTTACTATCGACTGCTCTAAAGTGCAAATTACAGTGGATTTATTCTTAGCTTCTGAGGATTACATGGATGTTGCATCATTGTCCAATTTAAGTCGTTTCACCGCCGGTCAAACTCACTTCTATCCTGGATTTTCGGGTAAAAATCCAAATGATATTGTCAAGTTTTCTACTGAATTTGCCAAACATATCTCCATGGACCTTTGTATGGAAACCGTTATGAGAGCTCGTGGTTCCACAGGTTTAAGAATGAGCAGATTTTATGGTCATTTTTTCAACAGATCCTCGGATTTATGTGCCTTTTCTACCATGCCAAGAGATCAATCATATTTGTTTGAAGTCAATGTTGATGAATCTATCATGACCGAATATTGTTACATTCAAGTAGCGGTGCTACTATCTTTGAATAACAGCCAACGTAGAATTAGAATCATCACTTTGGCCATGCCCACCACAGAATCCCTCGCCGAGGTTTATGCATCAGCTGATCAATTGGCTATAGCGTCTTTCTATAATTCCAAGGCAGTGGAAAAGGCATTGAACTCCAGTTTGGATGAGGCAAGAGTATTGATTAACAAATCTGTACAAGATATCTTAGCCACTTACAAGAAGGAAATCGTTGTATCCAACACTGCAGGTGGTGCTCCATTGAGATTGTGTGCCAACTTAAGAATGTTCCCATTATTAATGCATTCTTTGACCAAGCATATGGCATTTAGATCAGGTATTGTTCCAAGTGATCATCGTGCTTCCGCTTTGAACATCTTGGAATCATTACCACTGAAATACCTAATCAAGAACATTTACCCCGATGTCTACTCATTGCACGATATGGCCGATGAAGCTGGGTTACCAGAAACCACCGCCACAGTTGTTTTGCCTCAACCTCTCAATGCTACTTCCTCATTGTTTGAAAGATACGGGTTATACTTGATAGATAATGGTAATGAATTGTTTCTATGGATGGGTGGTGATGCTGTTCCAGCATTAGTGTTTGATGTGTTTGGCACTCAAGATATCTTTGACATTCCAATTGGCAAACAAGAAATACCAGTTGTCGAAAATTCAGAATTTAACCAAAGAGTGAGAAACATCATCAACCAGTTAAGAAATCATGACGATATTATCACTTACCAATCATTGTATATTGTTAGAGGTGCTTCTTTGAGTGAACCTGTTAACGCATCTGCTAGGGAAGTCGCAACCCTAAGATTATGGGCTTCGAGCACTTTAGTAGAGGATAAGATCTTAAATAACGAAAGTTACAGAGAGTTCTTACAAATCATGAAAGCTAGAATTAGTAAA'
p169
asg27
Nsg25
(lp170
sg97
Nsg98
(lp171
sg100
Nsbasg22
(lp172
sg86
Nsg87
Nsg88
Nsg89
(lp173
sg91
Nsg92
(lp174
sg27
Nsg25
(lp175
sg97
Nsg98
(lp176
sg100
Nsbag7
(g31
g9
Ntp177
Rp178
(dp179
g13
(lp180
sg36
F1.0
sg37
(lp181
sg39
S'castellii'
p182
sg41
(lp183
sg22
(lp184
sg86
Nsg87
Nsg88
Nsg89
(lp185
sg91
Nsg92
(lp186
S'CCTTCTCCTAAAAAGCGTGTATATCCTACGGCTCAGTACGTAGCGCCTTCTAGCTCACCAATGACTCCAGCTCAACAACAATTGAAACAACAAATAAGTCAAGCAACCACTTCTATGAATGATATGCACTTAGACCCAAATGCATATTACCAACCAAATAACGGGGAAAATAAACCATCGTTGACAAGACCAACAAATAATCTGTATCCAGTCGATATATTGACTGAATTGCCACCAAAGATTAATGATTTAAACCTGCTTCCGCCTCCAATTTTACTAGAACCAGAAATTTCAACTAAATTCTCGGAATCCGTATATGCGTCCCCAGATTATATTAGATCCACTTTGAATGCAGTCCCTCAATCAAATGCTCTTTTGAAGAAATCGAAATTGCCGTTTGCGCTAATAATTAAACCTTTTAAACACCTACATGATATGAATGCTCCATTGCCTTGTAATGAGGATGAATTTGTTATTCGTTGCCGCCGTTGTCGTGGATATTTGAATCCCTTTGTTAAGATCCTACAAGTGGAAAGTAAATGGAGATGTAACTTTTGTGGATGTATTAATGGATTTCCGGACGGATCTGAGCATCAACTTCCTAATTTATATAATCGAAACGAACTGACTTATTCTTCCATGGACTTTCTTCCTTCGTCCAGTTACTCTGTGAAGGAAGAACCTCCGGCTGTTTACACTTTTGTTATTGATGTCTCAATTAACACCATTAAGAACGGATATTTGTTTTCTGTTGCCAATGCGTTAGTAAATTCTTTGGATCTCATTCCAAATCATGATAACAAAACTTTGATTTCTCTTATTTGTGCTGATAGCTCTTTGCATTATTTTTCAGTACCATTGGATACAGAAGATTCCATGTTTGATATTTCTGATTTAGATGAACCATTCTTACCTACTTCAAATTCTTTATTAGTTTCATTATCTCAATGTAGAAACAACTTGGAACATTTACTGTTAAAAATACCTGAGATTTTCAAGAGCACTACAATTCAAAGTTTTGCCCTTGGCCCTGCTTTGCAGAATGCTTCTGAATTAGTTAAAGATAAAGGAGGTAAAGTAATTGTATGCTCATCTACTCTACCAAATATGGGTATTGGGAAGTTGAACCCAAGGGATGAAAGGGGGATATCAAACACTTCAAAGGAATCCAAGGACTTACTTTCGTGTCAAGATGCTTTCTATAGGAGTTTTACAGTGGAATGTAACAAATTACAAATTACAATTGATCTGTTCATTGCATCTGGTAATTATATGGATATTGCAACATTATCCAATTTGTCCAAGTATACAGGGGGTCAAACTCATTTCTATCCTCAGTTTCTTGGTTCAGTAGCCGCTGATTTCACCAAGTTCTCAAAGGAATTTTCGAGGCATTTATCCATGGATCTTTCATTCAGAACGGTAATGAGACCTCGTTGCTCTATTGGGTTAAGGATAGAGGATTCGTATGGTCATCTCTTCAACAGGTCGACAGATTTATGCTCTTTCCCTGCCATGCCAAGGGATCAATCCTACGTTGTTGAATTGTCTATAGAGGATAAGCTGACAGCGGACTATTGCTACGCTCAAATTGCATTTTTATATAGTACTGGTACAGGAAAACGTAAGATCCGTGTGCTGACCTTGGCATTACCAACCACCACGATTCTACATAATGTCTTTGCATCAGCAGATCAATTGGCAATTGCGACCTATTTTGCTAGAATTGCTACTGAAAAGGTAATGAAGAATTCCTTTGATCATGCAAGATCATTCTTGAATACATCATTGGAAGAAATACTGATAAATTACAGGAAAGAAATTGTTGTTGAGAATAATGCAGGTGGTGTTACTCTTAGATTTTCAACTAACTTGAAGATGCTTCCCCTATTAGTTCATATGCTATTGAAAAATATAGCATTTAGGAAGGGTGTGATACCAAGTGATCTTAGAGCCATAGCATTAAATAACATGGAATCCTTGCCTTTGAAATATTTGATAAAGAATGCGTACCCAACAGTTTATTCGTTGCATGATATTCCCGATGAGGCAGGTTTACCCGATGAAAATGGTGTCATTGTGATGCCACCACCAATGAATGATACAATCTCATCATTTGAAAAATATGGGTTGTATTTGATCAACACACCAAACGAACTAATATTGTGGGTGGGTGGTAATGCCATCCCTGAATTGGTTTCAGATGTATTTGGATTGCAAGATGTTTTCCAGGTTCCCAATGGGAAAAATGAATTACCTGAATTACCTGAATCTGAATTCAATCAAAGATTGAGAAGTATAATTGAGAATATCAGAGCTAATGATGATCAAATCACCTACCAAACTCTGTATATTGTCAGAGGTAACTCTCAAAATGAACCAGCAAATTCTCAAAACAAGGAAATTGTACCTTTAAGAAATTGGGCTGTAAGTTTTTTGGTGGAGGACAATGTCGTGGGTTGCGAATCATATCGTGAATTCCTTCAAAATTTGAAAACAAGACTTAACAAA'
p187
aS'ATGTCCCACAAGAAGCGGGTGTACCCAACGGCTCAATTGCAGTACGGACAGACTATCCCCTTTACCCCGGCTCAACAACAATTGAATCAACAAATTGATCAAACTACTGCCGCAATGGGGAACATGCAATTCGAATCAAACATGTACTATCAGCAACCATTACCACAACAACAACAACAGCAGGGTAAACCAATGAATCAATTGTATCCAATCGATTTATTGGTCGCGTTCCCACCACCAATTTCTGATTTATCATTACCACCACCACCAATACTATTCCCCTTGGATACCATCCCGGTACCTTCTGAGGATGCATTGGCTCCAAGCAATTATATTAGATCCACTTTGAACGCGGTCCCCAAGAGTAATTCTTTGTTGAAAAAAACAAAGTTACCATTTAGTTTGGTTATTACTCCGTATCAACATTTACATGACGATATTAACCCACCACCATTAAATGAAGATGGAACCATTGTTCGTTGTCGTCGTTGTCGTTCATATATGAACCCATTTGTTCATTTCAATCAGGATGGAAGAAGATGGAAATGTAATATCTGTAATCTATTTAATGAAGTCCCCAGTTTCTTGGATAGAATGCCCAATGATACCTACATGAGAAACGAATTAAGATACTCTGTTGTGGAATATTTGGCTCCAAAGGAATATTCTTTAAGACAACCACCTCCATCCACATACACTTTTATCATTGATGTATCTCAAAATGCAATGAAAAATGGGTTATTGGGAACAACAACAAGAACCTTATTGGATAATTTGGATTCTTTGCCAAATCATGATGGAAGAACAAGAATCTCTATATTATGTGTGGATAATGGTCTTCATTATTTCGCAATCCCATCTGATGATCAAGAGGAAATGATGGACGTTTGTGATTTGGATGACGCTTTCATTCCAAGACCTGATTCCATGGTGGTTAATTTGGTACAATGTAGAAATAATATTGAAACACTTTTGACCAAGATCCCACAAATTTTCCAAAATAATATTATTAATAAATTCGCATTGGGTCCAGCTTTACAAGCTGCATATAATTTAACACGTAATGAAGGGGGTAAGATTATTGTTGTCTCCGCTACATTACCAAATATTGGTGTGGGTCAATTAAAGAAAAGAGTGGAAGAAGCTAATGTCGGGACACCAAAGGAATCACAACAATTATTAACTTGTCAAGATCCATTCTATAAGACTTTTACCATTCAATGTAATAAAGTACAAATCTCCATTGATATGTTTTTAGCATCTGAAGAATATATGGATGTGGCTACCTTAGCCAATTTGGGTCATTTCTCTGGTGGTCAAACTCATTTCTACCCTGGATTTTCTGCACAAAGAATTACTGATGCTACTAAATTCTCCATGGAATTTGCCAAACATCTTTCCATGGATACATCCAACGAAGTCGTCATGAGAGCTCGTGGATCCACTGGTATTAGAACAACTGGATTCCATGGTCATTTCTTTAATAGATCTTCTGATTTATGTGCCTTCTCCATAATGAATAGAGATCAATCATATGTCTTTGACATTACATTAGATGAAAATATCGCTGCAGAATATTGTTATGTTCAAGTGGCTATCTTATTATCATTAAATACAAGTCAACGTAGAATTAGAGTCATCACTTTGGCATTACCAACAACAGATTCCATCGCTGAAGTTTATGCATCAGTGGATCAATTGGCTGTTACCGCAGCATTTACACAAAAGGCAATCGATAAGGCTCAAGATACAAGTTTAGAAGAGGCAAGAAGATTTATAAATCAATCAGTGGAAGATGTGTTAACTACATATAAGAAGGAACTTGTGGTACAAAATACAGCCGGAGGTATGCCATTAAGATTATGTGCCAATATGAAGATTTTCCCCTTATTAATGCACGCATTAACTAAAAATTTGGCATTTAGACCAGGTAGAGTACCAAGTGATCATAGAGCTGCTGCATTAAATTACATGGAATCTGTCCCATTGAAATATTTATTAAAATGTATTTATCCAACAATTTATTCATTACATGATATGCCAGATGAAGTAGGTCTTCCTGATGAAAATAATGAAATAATATTGCCTGAACCAATAAATGCCTCATATAGTTCTTTTGAAACTTATGGATTATATTTAATCGATAATGGAATCGATTTATTCCTATGGATGGGTGGTGAAGCCTTACCTCAATTAGTAGAGGATGCATTTGGTGTTCCAAATATCTTGGAAATGCCTATTGGTAAACAAGAAGTCCCAGTGGTCCCTGAATCACCATTTAATGAAAGAATTAGAAACATTATTAATAGATTGAGAAATCATGATGACGTTATCACCTACCAATCGTTGTATATCTTAAGAAGTGCCTCCAATAGTGATCCAGTACAGGCAAATGCTAAGGAACTTTCTTCATTGAGAATGTGGGCTTCTACTCATTTGGTGGAAGATAAAATCATGGGTAGTGAAGGTTACCGTGACTTCTTACAAATGATGAAGAATAAGACTTCGAAA'
p188
asg27
Nsg25
(lp189
sg97
Nsg98
(lp190
sg100
Nsbasg22
(lp191
sg86
Nsg87
Nsg88
Nsg89
(lp192
sg91
Nsg92
(lp193
sg27
Nsg25
(lp194
sg97
Nsg98
(lp195
sg100
Nsbag7
(g31
g9
Ntp196
Rp197
(dp198
g13
(lp199
sg36
F1.0
sg37
(lp200
sg39
S'kluyveri'
p201
sg41
(lp202
sg22
(lp203
sg86
Nsg87
Nsg88
Nsg89
(lp204
sg91
Nsg92
(lp205
S'ATGTCTCACAGGAAACGTGTTTATCCGCAATCTCAATTCCAATATGCCAACTCGGCTCCATTGACTCCTGCCCAACAACAATTGCACCAACAAATCGACCAGGCTGTACAAGGCGTTGGCAACATGCAATTAGATCCGAATGGCTTCTATCAGCAACAGCCTCCTGGTGCTGTTCCTCAAATGCAGAAGGCCATGAATCAACTGTATCCAATTGACTTATTGACTGAACTTCCTCCTCCAATTTCTGATCTTTCCTTGCCTCCTCCACCATTGATGGTCCCCCCGGAGAAATTTGTCGTACCCTCGGAAACTGCCAATGCTCCGCCAGATTTTTTGAGGTGTACTTTGAACGCTTTGCCTAAATCCAATTCTTTATTGAAAAAATCTAAGCTACCATTGGCCTTAGTTATTAGACCATATCAATGCTTGAGTGATAGTCAAAATCCAATCCCATTAACCTCGGATGGCGTTGTCGTTAGGTGTCGCCGTTGTCGTTCCTATATCAATCCGTTCGTCACATTTGTTGAAGGTGGTAGAAGATGGAGGTGTAATTTCTGTAACTTGGCTAATGATGTTCCAATGGCTTTCGATATGTCTACCCAAGGGGTGTACGAGAGAAATGAAGTTCAACACTCCGTTGTCGAGTACTTAGCTCCAAGGGAATATGCCGTAAGAGCTCCACCTCCATCTGTGTACTCTTTTATTTTGGACGTATCTCAAAACGCTATTAAAAATGGTCTTTTAGCCACTGCTGCAAGAACTTTGTTAGAAACCTTGGATACTTTGCCTAATCATGATGACAGAACTAGGATCTCTATTCTAGCTGTTGATAACAGTATTCATTATTTTTCTATCCCAACAGATGAAGAAGGTAAGATGCTAGATGTTGTTGACTTAGACGAACCTTTCTTACCAATGCCTGACTCCTTATTTGTTTCTCTTTCAGAATGCAGATCCAACTTAGAGAAGTTATTGAGCCAGTTGCCGGAGATCTTCCAATACAATATTATGAACAAGTTCGCACTAGGACCTGCTTTAAAGGCAGCACATAACTTGATCAAACGCATTGGTGGTAAGATTATTGTGGTTTCTTCAACTTTGCCAAATATCGGTGTTGGTAAATTGAGCAAAAGAAACGAAGCGGGTGTGGCAAACACATCTAAAGAAGCTTCTCAGCTATTGAGTGTTCAAGATTCCTTTTACAAGAACTTCACTATTGACTGTAACAAAACCCAGGTCACTATCGACTTGTTCTTGGCTTCTGACGACTACATGGATGTTGCTTCCTTATCAAATTTGGCTAGATATACAAGTGGTCAAACCCATTTTTACCCAGGTTGGTCTGCAGCAAAGCTAACTGATGTCACTAAATTTACCAAGGAGTTTTCTAAGCACCTGTCTATGGATCTGTCCATGGAGGCGGTTATGAGGGCTAGAGGCTCTTCAGGTCTAAGAATGTCCCGCTTTTATGGCCATTTCTTTAACAGATCTTCTGACCTATGCGCATTCCCAACTTTCCCCAGAGACCAGTCTTATGTATTCGAAGTCAATTTAGATGAGCAGATTGTTAGAGACTATGCTTATTTACAAGTTGCTGTATTGTTATCGTCGAACACCGCACAACGTAGAATCAGGGTCATTACAATTTGTATTCCAACTACTGAAAGCCTACCAGAAGTCTATGCCTCTGCTGACCAACTGGCAATCACCGCCTACTTTGCTCAAAAGGCTATTGAAAAGGTTTTTAGCTCAGGATTTGAAGACGCTAGAGAATTTCTGAACAAATCTGTCCAGGACATCTTGGCTACTTATAAGAAGGACATAGTTGTCTCTAACACTGCTGGTGGTGCTCCGCTGAGATTATGTGCCAACTTGAGAATGTTTCCCCTATTGATGCACTCTTTAACCAAGCATATGGCTTTCAGAAATGGTATTGTTCCAAGTGACCACAGAGCTGCCGCTTTGAACAACTTGGAATCTATGCCGCTACCATATCTCATTAAAAATATCTACGCCACTGTTTACTCTTTGCATGATATGCCAGATGAAGCTGGTTTACAGAATGAAAATGGCGAAGTTGTTTTACCGGAACCAATAAATGCTACATCCTCCCTATTGGAAAGGTACGGTTTGTACCTAATTGACAATGCCAGTGAATTATTTTTATGGATCGGTGGTGATGCTGTCAATGAACTAACAATGGATGTCTTTGGTACTCCAGAGATTTTGCAAATCCCAATTGGCAAGAATGAGTTACCGGTCTTAGAAAATTCTGAATTCAATGCCAGAGTCCGCAATATTATCTCAAAGATCAGAGAGCACAGCGATATAATCACTTATCAAAGCCTGTACATCGTTAGGGGTGCAAGTTTGAGTGAGCCAGTCAACGCCTCTGCAAGAGAAGTTGCCACACTGCGTCTATGGGCTACCAGTACACTAGTTGAAGACAAAGTCTTGAACAGTCAAAGTTATCGCGAGTTTTTACAAAATGTTAAAACGGTAATCAGTAAA'
p206
asg27
Nsg25
(lp207
sg97
Nsg98
(lp208
sg100
Nsbasg22
(lp209
sg86
Nsg87
Nsg88
Nsg89
(lp210
sg91
Nsg92
(lp211
sg27
Nsg25
(lp212
sg97
Nsg98
(lp213
sg100
NsbsS'id'
p214
Nsg39
NsbsS'para'
p215
cnumpy.core.multiarray
_reconstruct
p216
(cnumpy
ndarray
p217
(I0
tp218
S'b'
p219
tp220
Rp221
(I1
(I4
tp222
cnumpy
dtype
p223
(S'f8'
p224
I0
I1
tp225
Rp226
(I3
S'<'
p227
NNNI-1
I-1
I0
tp228
bI00
S'R\xf2\x97\xa6\x86\xb0\xde?t\xe1%\x7f\x10\xe1\xe3?\xf5\x81\x07Q\xcf\x85\xdb?p\xf2,\xbc\xae"\r@'
p229
tp230
bsS'err'
p231
F1e-10
sS'newicktree'
p232
S'../YeastTree.newick'
p233
sS'models'
p234
(dp235
S'HKY'
p236
I3
sS'F81'
p237
I2
sS'Codon'
p238
I6
sS'GTR'
p239
I4
sS'Codon_corrected'
p240
I7
sS'K80'
p241
I1
sS'Jukes-Cantor'
p242
I0
ssS'data'
p243
(dp244
(g125
S'YIL109C'
p245
tp246
g131
s(g201
S'YNL049C'
p247
tp248
g206
s(g83
g247
tp249
g94
s(g182
g245
tp250
g188
s(g144
g247
tp251
g149
s(g83
g245
tp252
g95
s(g201
g245
tp253
g206
s(g106
g245
tp254
g112
s(g144
g245
tp255
g150
s(g163
g245
tp256
g169
s(g125
g247
tp257
g130
s(g106
g247
tp258
g111
s(g182
g247
tp259
g187
s(g163
g247
tp260
g168
ssS'duplication_node'
p261
S'N0'
p262
sS'nsites'
p263
I2511
sS'root_branch'
p264
(g30
S'kluyveri'
p265
tp266
sS'nleaf'
p267
I7
sS'modelnum'
p268
I3
sS'paralog'
p269
(lp270
g247
ag245
asS'treetopo'
p271
g7
(cnetworkx.classes.digraph
DiGraph
p272
g9
Ntp273
Rp274
(dp275
S'node'
p276
(dp277
g30
(dp278
sg182
(dp279
sg125
(dp280
sg83
(dp281
sg201
(dp282
sg106
(dp283
sg144
(dp284
sg163
(dp285
sg40
(dp286
sg48
(dp287
sg55
(dp288
sg62
(dp289
sg69
(dp290
sg76
(dp291
ssS'graph'
p292
(dp293
sS'succ'
p294
(dp295
g30
(dp296
g262
(dp297
sg265
(dp298
ssg182
(dp299
sg125
(dp300
sg83
(dp301
sg201
(dp302
sg106
(dp303
sg144
(dp304
sg163
(dp305
sg40
(dp306
g48
(dp307
ssg48
(dp308
g55
(dp309
sg182
(dp310
ssg55
(dp311
g62
(dp312
sg163
(dp313
ssg62
(dp314
g69
(dp315
sg144
(dp316
ssg69
(dp317
g76
(dp318
sg125
(dp319
ssg76
(dp320
g83
(dp321
sg106
(dp322
sssS'edge'
p323
g295
sS'pred'
p324
(dp325
g30
(dp326
sg182
(dp327
g48
g310
ssg125
(dp328
g69
g319
ssg83
(dp329
g76
g321
ssg201
(dp330
g30
g298
ssg106
(dp331
g76
g322
ssg144
(dp332
g62
g316
ssg163
(dp333
g55
g313
ssg40
(dp334
g30
g297
ssg48
(dp335
g40
g307
ssg55
(dp336
g48
g309
ssg62
(dp337
g55
g312
ssg69
(dp338
g62
g315
ssg76
(dp339
g69
g318
sssS'adj'
p340
g295
sbsS'seqloc'
p341
S'./YNL049C_YIL109C_input.fasta'
p342
sS'blen'
p343
g216
(g217
(I0
tp344
g219
tp345
Rp346
(I1
(I12
tp347
g226
I00
S'\x00\x00\x00\x00\x00\x00\x00@\x00\x00\x00\x00\x00\x00\x00@\x00\x00\x00\x00\x00\x00\x00@\x00\x00\x00\x00\x00\x00\x00@\x00\x00\x00\x00\x00\x00\x00@\x00\x00\x00\x00\x00\x00\x00@\x00\x00\x00\x00\x00\x00\x00@\x00\x00\x00\x00\x00\x00\x00@\x00\x00\x00\x00\x00\x00\x00@\x00\x00\x00\x00\x00\x00\x00@\x00\x00\x00\x00\x00\x00\x00@\x00\x00\x00\x00\x00\x00\x00@'
p348
tp349
bsg30
g30
sS'edge_to_blen'
p350
(dp351
(g40
g48
tp352
cnumpy.core.multiarray
scalar
p353
(g226
S'\x19\x99\xd3\x96\xcf.\xbc?'
p354
tp355
Rp356
s(g76
g83
tp357
g353
(g226
S'\xcd\x82l\x91e\x05\xa6?'
p358
tp359
Rp360
s(g55
g62
tp361
g353
(g226
S'\xcc1\x08\xf7l\x97\x80?'
p362
tp363
Rp364
s(g30
g265
tp365
g353
(g226
S'\x80)\xa3L\x84\xde\xd0?'
p366
tp367
Rp368
s(g69
g76
tp369
g353
(g226
S'D\xc7o\xa1up\xa2?'
p370
tp371
Rp372
s(g48
g182
tp373
g353
(g226
S'\x80)\xa3L\x84\xde\xd0?'
p374
tp375
Rp376
s(g55
g163
tp377
g353
(g226
S's\x86\xdc\xcd\xa0\xa5\xc3?'
p378
tp379
Rp380
s(g48
g55
tp381
g353
(g226
S'\x8e\xba\xfeK\rD\xc1?'
p382
tp383
Rp384
s(g62
g144
tp385
g353
(g226
S'|\xd9*\xa7_/\xb3?'
p386
tp387
Rp388
s(g76
g106
tp389
g353
(g226
S'\xcd\x82l\x91e\x05\xa6?'
p390
tp391
Rp392
s(g62
g69
tp393
g353
(g226
S'\xf3\xc9_Au>\x9e?'
p394
tp395
Rp396
s(g69
g125
tp397
g353
(g226
S'\x80\xd1]\xa9&,\xb2?'
p398
tp399
Rp400
s(g30
g262
tp401
g353
(g226
S'\x00\x00\x00\x00\x00\x00\x00\x00'
p402
tp403
Rp404
ssb.