(dp0
(S'N0'
p1
S'N1'
p2
tp3
cnumpy.core.multiarray
scalar
p4
(cnumpy
dtype
p5
(S'f8'
p6
I0
I1
tp7
Rp8
(I3
S'<'
p9
NNNI-1
I-1
I0
tp10
bS'\'"\x87.\x08\x14\xb4?'
p11
tp12
Rp13
s(S'N5'
p14
S'cerevisiae'
p15
tp16
g4
(g8
S"D{:'\x08r\xc1?"
p17
tp18
Rp19
s(S'N2'
p20
S'N3'
p21
tp22
g4
(g8
S'\xa69\x8c (u\xb6?'
p23
tp24
Rp25
s(S'N4'
p26
g14
tp27
g4
(g8
S'$\xf5\x8bvU\x94\xaf?'
p28
tp29
Rp30
s(g21
S'kudriavzevii'
p31
tp32
g4
(g8
S'Fq\x11$9\xad\xc9?'
p33
tp34
Rp35
s(g20
S'bayanus'
p36
tp37
g4
(g8
S'\xae\xaf\xc6\xe1\x1b\xfe\xc4?'
p38
tp39
Rp40
s(g2
g20
tp41
g4
(g8
S'R\xde\x91\x90\xc1\xa3\xda?'
p42
tp43
Rp44
s(g2
S'castellii'
p45
tp46
g4
(g8
S'\xe9\x1e\xfc\xb4\x05:\xde?'
p47
tp48
Rp49
s(g14
S'paradoxus'
p50
tp51
g4
(g8
S'\x95\x8f\xc8\xb8 \x97\xb4?'
p52
tp53
Rp54
s(g26
S'mikatae'
p55
tp56
g4
(g8
S'\x13J\x98\x12\xd1\xf3\xc8?'
p57
tp58
Rp59
s(g21
g26
tp60
g4
(g8
S'\x19I\x8a\x81&\xae\xac?'
p61
tp62
Rp63
s(g1
S'kluyveri'
p64
tp65
g4
(g8
S'V\x87\xc3\xa6\xf6\xdd\xce?'
p66
tp67
Rp68
s.