(dp0
S'Force'
p1
(dp2
I5
F0.0
ssS'ExpectedGeneconv'
p3
(dp4
(S'N0'
p5
S'N1'
p6
tp7
F0.23715770202839997
s(S'N5'
p8
S'cerevisiae'
p9
tp10
F3.81034539331418
s(S'N2'
p11
S'N3'
p12
tp13
F1.847612898097651
s(S'N4'
p14
g8
tp15
F2.318515199672629
s(g6
S'castellii'
p16
tp17
F13.70232651482489
s(g11
S'bayanus'
p18
tp19
F7.8856206225617
s(g6
g11
tp20
F9.371256622824623
s(g12
S'kudriavzevii'
p21
tp22
F3.918844975246626
s(g8
S'paradoxus'
p23
tp24
F6.666569602511995
s(g5
S'kluyveri'
p25
tp26
F0.0
s(g12
g14
tp27
F2.7360419675700234
s(g14
S'mikatae'
p28
tp29
F7.471970960430081
ssS'newicktree'
p30
S'../PairsAlignemt/YeastTree.newick'
p31
sS'll'
p32
cnumpy.core.multiarray
scalar
p33
(cnumpy
dtype
p34
(S'f8'
p35
I0
I1
tp36
Rp37
(I3
S'<'
p38
NNNI-1
I-1
I0
tp39
bS'"T\xf2\x14\x85\xa4\x9d\xc0'
p40
tp41
Rp42
sS'clock'
p43
I01
sS'edge_to_blen'
p44
(dp45
g20
g33
(g37
S'\x87\x9b\xe6>\xe9\xb9\xa6?'
p46
tp47
Rp48
sg10
g33
(g37
S'uu\x9b\x96s\xf1\x96?'
p49
tp50
Rp51
sg13
g33
(g37
S'[\xfdW\xb2/i\x85?'
p52
tp53
Rp54
sg15
g33
(g37
S'pG6\xd5E\xa5x?'
p55
tp56
Rp57
sg17
g33
(g37
S'\x00K\xfd\xe4&&\xb7?'
p58
tp59
Rp60
sg19
g33
(g37
S'y\xfa\x13\x8bd\x92\xa7?'
p61
tp62
Rp63
sg7
g33
(g37
S'Jk\xaco\x8a\x82\x91?'
p64
tp65
Rp66
sg22
g33
(g37
S'$\xfb}\x9e\x188\xa2?'
p67
tp68
Rp69
sg24
g33
(g37
S'uu\x9b\x96s\xf1\x96?'
p70
tp71
Rp72
sg26
g33
(g37
S'T\xa8/\x06\x85\xb4\xc1?'
p73
tp74
Rp75
sg27
g33
(g37
S'\xcd\xbbK\xc4\xb0U}?'
p76
tp77
Rp78
sg29
g33
(g37
S'S\x07\xe9\x0b\xc5\x1a\x9d?'
p79
tp80
Rp81
ssS'paralog'
p82
(lp83
S'YJL177W'
p84
aS'YKL180W'
p85
asS'alignment_file'
p86
S'../PairsAlignemt/YJL177W_YKL180W/YJL177W_YKL180W_input.fasta'
p87
sS'x_clock'
p88
(lp89
F-0.7479281144055728
aF-0.45552205384390465
aF-0.8945234454448568
aF1.7899023154505342
aF-2.4541253292278906
aF1.23836258
aF-2.096193230778567
aF-0.13383459345129142
aF-0.1731966987871574
aF-0.6750470398786271
aF-0.2575811595094206
aF-0.22472390445783436
aF-0.23787489054750802
asS'x'
p90
(lp91
F-0.7479281144055728
aF-0.45552205384390465
aF-0.8945234454448568
aF1.7899023154505342
aF-2.4541253292278906
aF1.23836258
aF-3.1148055079886334
aF-3.798451517410406
aF-4.560719593275307
aF-5.113167910386461
aF-2.4032245230170157
aF-3.078271562895643
aF-4.0687039500504385
aF-3.3358527224050634
aF-3.798451517410406
aF-1.9781744357975635
aF-4.938994079641945
aF-3.5605766268628978
asS'Model'
p92
S'MG94'
p93
s.