(dp0
S'Force'
p1
(dp2
I5
F0.0
ssS'ExpectedGeneconv'
p3
(dp4
(S'N0'
p5
S'N1'
p6
tp7
F25.538973266994375
s(S'N5'
p8
S'cerevisiae'
p9
tp10
F30.147626735487716
s(S'N2'
p11
S'N3'
p12
tp13
F12.02113539086106
s(S'N4'
p14
g8
tp15
F12.9320471257852
s(g6
S'castellii'
p16
tp17
F316.05189229580105
s(g11
S'bayanus'
p18
tp19
F33.13584685692363
s(g6
g11
tp20
F254.66897810602396
s(g12
S'kudriavzevii'
p21
tp22
F28.160864114381543
s(g8
S'paradoxus'
p23
tp24
F7.0500893283572434
s(g5
S'kluyveri'
p25
tp26
F0.0
s(g12
g14
tp27
F9.051738407812032
s(g14
S'mikatae'
p28
tp29
F30.136239872642058
ssS'newicktree'
p30
S'../PairsAlignemt/YeastTree.newick'
p31
sS'll'
p32
cnumpy.core.multiarray
scalar
p33
(cnumpy
dtype
p34
(S'f8'
p35
I0
I1
tp36
Rp37
(I3
S'<'
p38
NNNI-1
I-1
I0
tp39
bS'\x85\x8a\xd4\xaa\np\xbc\xc0'
p40
tp41
Rp42
sS'clock'
p43
I00
sS'edge_to_blen'
p44
(dp45
g20
g33
(g37
S'+hE\xdc\x00\xb0\x01@'
p46
tp47
Rp48
sg10
g33
(g37
S'\x91\xea(\x1d\xe8\xb5\xcc?'
p49
tp50
Rp51
sg13
g33
(g37
S'4\x1dE[ME\xc2?'
p52
tp53
Rp54
sg15
g33
(g37
S'\xa9\xd3\x07cu8\xc0?'
p55
tp56
Rp57
sg17
g33
(g37
S'\xee\x0b@\xd05_\x06@'
p58
tp59
Rp60
sg19
g33
(g37
S'\xdb#\xfd\x0f\x08\xfb\xd0?'
p61
tp62
Rp63
sg7
g33
(g37
S'(u\xf9\x0b=\xf8\xd6?'
p64
tp65
Rp66
sg22
g33
(g37
S'\x0c\x9c\x97\xd2\xe8\xd9\xd0?'
p67
tp68
Rp69
sg24
g33
(g37
S'\xf8\x9c\xb4\xecN\xc6\xb2?'
p70
tp71
Rp72
sg26
g33
(g37
S'\xb4s\xf6\xb9\x071\x04@'
p73
tp74
Rp75
sg27
g33
(g37
S'iM\xc5 \xefY\xb2?'
p76
tp77
Rp78
sg29
g33
(g37
S'\x81\xcb\xa2\x97\xa2f\xd2?'
p79
tp80
Rp81
ssS'paralog'
p82
(lp83
S'YPL087W'
p84
aS'YBR183W'
p85
asS'alignment_file'
p86
S'../PairsAlignemt/YPL087W_YBR183W/YPL087W_YBR183W_input.fasta'
p87
sS'x_clock'
p88
(lp89
F-0.7227293690266701
aF-0.6011585342201797
aF-1.0425906999607446
aF0.1823215567939546
aF-0.10536051565782628
aF0.3364722366212129
aF-0.10536051565782628
aF-0.10536051565782628
aF-0.10536051565782628
aF-0.10536051565782628
aF-0.10536051565782628
aF-0.10536051565782628
aF-0.10536051565782628
asS'x'
p90
(lp91
F-0.6944738851462613
aF-0.5389562324732678
aF-1.0748463060048714
aF1.0174035364369272
aF-2.6608831260789456
aF1.19617746
aF0.7934173760092478
aF-1.4947648108383593
aF-1.946730944267853
aF-2.0657518507456425
aF1.0283648304492043
aF-1.3268120518870024
aF-1.0247079326727215
aF-1.334460687808934
aF-2.6126703258771298
aF0.9258213779276344
aF-2.635476752405848
aF-1.2464825035756704
asS'Model'
p92
S'MG94'
p93
s.