(dp0
S'Force'
p1
(dp2
I5
F0.0
ssS'ExpectedGeneconv'
p3
(dp4
(S'N0'
p5
S'N1'
p6
tp7
F1.6063539648779592e-11
s(S'N5'
p8
S'cerevisiae'
p9
tp10
F6.661679390577045
s(S'N2'
p11
S'N3'
p12
tp13
F1.893585127769682
s(S'N4'
p14
g8
tp15
F0.8499712990998562
s(g6
S'castellii'
p16
tp17
F14.770667732487304
s(g11
S'bayanus'
p18
tp19
F4.83329301751437
s(g6
g11
tp20
F4.180592956714823
s(g12
S'kudriavzevii'
p21
tp22
F10.740468845318961
s(g8
S'paradoxus'
p23
tp24
F1.4237110243786624
s(g5
S'kluyveri'
p25
tp26
F0.0
s(g12
g14
tp27
F4.6970690953551175e-07
s(g14
S'mikatae'
p28
tp29
F11.795019490055228
ssS'newicktree'
p30
S'../PairsAlignemt/YeastTree.newick'
p31
sS'll'
p32
cnumpy.core.multiarray
scalar
p33
(cnumpy
dtype
p34
(S'f8'
p35
I0
I1
tp36
Rp37
(I3
S'<'
p38
NNNI-1
I-1
I0
tp39
bS'\xc1\x1d\x1c\x0b\x95\xa6\x96\xc0'
p40
tp41
Rp42
sS'clock'
p43
I00
sS'edge_to_blen'
p44
(dp45
g20
g33
(g37
S'\xe4F\x96\x14\xa7B\xae?'
p46
tp47
Rp48
sg10
g33
(g37
S'lU\xd6\x15\x01p\xa1?'
p49
tp50
Rp51
sg13
g33
(g37
S'\x9d\xe9\xf9k\xebf\x8c?'
p52
tp53
Rp54
sg15
g33
(g37
S'e\x14\x86\x03}\x06|?'
p55
tp56
Rp57
sg17
g33
(g37
S'\xf6\xf2Y\xdf\x9a\x11\xbd?'
p58
tp59
Rp60
sg19
g33
(g37
S'\xa0T\xb2F\xd2G\xa4?'
p61
tp62
Rp63
sg7
g33
(g37
S'h\xad\xe6\x02J\xd2\x89>'
p64
tp65
Rp66
sg22
g33
(g37
S'\xc6\xe3D\x0e\xdf\xae\xb0?'
p67
tp68
Rp69
sg24
g33
(g37
S'\xf6\xc6\xfe\xa7\xe3w\x92?'
p70
tp71
Rp72
sg26
g33
(g37
S'\xbf\x9a\x98Q\x8d\xe9\xc2?'
p73
tp74
Rp75
sg27
g33
(g37
S'HL\x968epI>'
p76
tp77
Rp78
sg29
g33
(g37
S'\x9ce\xee\xda\x80\x8b\xb2?'
p79
tp80
Rp81
ssS'paralog'
p82
(lp83
S'YML026C'
p84
aS'YDR450W'
p85
asS'alignment_file'
p86
S'../PairsAlignemt/YML026C_YDR450W/YML026C_YDR450W_input.fasta'
p87
sS'x_clock'
p88
(lp89
F-0.6082900286551159
aF-0.5179788899895584
aF-0.8170342027473766
aF0.1823215567939546
aF-0.10536051565782628
aF0.3364722366212129
aF-0.10536051565782628
aF-0.10536051565782628
aF-0.10536051565782628
aF-0.10536051565782628
aF-0.10536051565782628
aF-0.10536051565782628
aF-0.10536051565782628
asS'x'
p90
(lp91
F-0.7150409777622151
aF-0.5122886545714891
aF-0.8953186641767756
aF1.5836922924780568
aF-2.8308796680990795
aF1.19617746
aF-2.8284859555857493
aF-3.3797006157585865
aF-4.278158373429416
aF-4.984656885306514
aF-2.175513062545613
aF-3.228662212488697
aF-15.463768649922587
aF-2.730781749342099
aF-4.015415108747462
aF-1.9122170934985148
aF-18.25127741813931
aF-2.6249807426129887
asS'Model'
p92
S'MG94'
p93
s.