(dp0
S'Force'
p1
(dp2
I5
F0.0
ssS'ExpectedGeneconv'
p3
(dp4
(S'N0'
p5
S'N1'
p6
tp7
F6.011748319486517e-09
s(S'N5'
p8
S'cerevisiae'
p9
tp10
F1.9766557811824275
s(S'N2'
p11
S'N3'
p12
tp13
F5.163354526322913
s(S'N4'
p14
g8
tp15
F1.5324780249101189
s(g12
S'kudriavzevii'
p16
tp17
F6.972285415618361
s(g11
S'bayanus'
p18
tp19
F2.6051463457670816
s(g6
g11
tp20
F12.152354663712932
s(g6
S'castellii'
p21
tp22
F7.322981573774837
s(g8
S'paradoxus'
p23
tp24
F2.140281042687528
s(g14
S'mikatae'
p25
tp26
F9.991007778814238
s(g12
g14
tp27
F5.319531080059525
s(g5
S'kluyveri'
p28
tp29
F0.0
ssS'newicktree'
p30
S'../PairsAlignemt/YeastTree.newick'
p31
sS'll'
p32
cnumpy.core.multiarray
scalar
p33
(cnumpy
dtype
p34
(S'f8'
p35
I0
I1
tp36
Rp37
(I3
S'<'
p38
NNNI-1
I-1
I0
tp39
bS'\x91\xffn\xfb\xb6\x1a\x98\xc0'
p40
tp41
Rp42
sS'clock'
p43
I00
sS'edge_to_blen'
p44
(dp45
g20
g33
(g37
S'+>8!\xf2\xab\xae?'
p46
tp47
Rp48
sg10
g33
(g37
S'\xaa)aX\xe2\xea\x89?'
p49
tp50
Rp51
sg13
g33
(g37
S'[wK837\x8b?'
p52
tp53
Rp54
sg15
g33
(g37
S'\xdek_k7H\x81?'
p55
tp56
Rp57
sg17
g33
(g37
S'<-j\x97\xf0\xe9\xa3?'
p58
tp59
Rp60
sg19
g33
(g37
S'\xc4\x82\xce\xbd[\xec\x89?'
p61
tp62
Rp63
sg7
g33
(g37
S'\x87\xf5\x7f.=\xa5\xc2>'
p64
tp65
Rp66
sg22
g33
(g37
S'\xc32\xcb\xe9*\xb6\xac?'
p67
tp68
Rp69
sg24
g33
(g37
S'M\x0c{N\x08s\x80?'
p70
tp71
Rp72
sg26
g33
(g37
S'\x7f\xf1\xe3yQ4\x9e?'
p73
tp74
Rp75
sg27
g33
(g37
S'm\xca\x9a`\xda\x82\x88?'
p76
tp77
Rp78
sg29
g33
(g37
S'\xf0Z|\x91\xfa\xbf\xac?'
p79
tp80
Rp81
ssS'paralog'
p82
(lp83
S'YBR191W'
p84
aS'YPL079W'
p85
asS'alignment_file'
p86
S'../PairsAlignemt/YBR191W_YPL079W/YBR191W_YPL079W_input.fasta'
p87
sS'x_clock'
p88
(lp89
F-0.6523251860396901
aF-0.5320754515980355
aF-0.8123526320525246
aF0.1823215567939546
aF-0.10536051565782628
aF0.3364722366212129
aF-0.10536051565782628
aF-0.10536051565782628
aF-0.10536051565782628
aF-0.10536051565782628
aF-0.10536051565782628
aF-0.10536051565782628
aF-0.10536051565782628
asS'x'
p90
(lp91
F-0.7294121992900073
aF-0.467422387852438
aF-0.8818958492809751
aF2.0532175725047055
aF-2.6071875602869263
aF1.19617746
aF-2.8149854143767374
aF-4.369699942794496
aF-4.320827718102387
aF-4.774947955060765
aF-3.2469102911639323
aF-4.369477777626687
aF-13.016782210208232
aF-2.8810236707818624
aF-4.824333297087631
aF-3.5234852483954047
aF-4.4254910873801725
aF-2.879689740621423
asS'Model'
p92
S'MG94'
p93
s.