(dp0
S'Force'
p1
(dp2
I5
F0.0
ssS'ExpectedGeneconv'
p3
(dp4
(S'N0'
p5
S'N1'
p6
tp7
F1.124526497433835e-09
s(S'N5'
p8
S'cerevisiae'
p9
tp10
F22.636041326476004
s(S'N2'
p11
S'N3'
p12
tp13
F13.80418320533224
s(S'N4'
p14
g8
tp15
F9.243460187086715
s(g6
S'castellii'
p16
tp17
F46.577720960476896
s(g11
S'bayanus'
p18
tp19
F26.5260611567954
s(g6
g11
tp20
F36.96160955706188
s(g12
S'kudriavzevii'
p21
tp22
F22.949517508590905
s(g8
S'paradoxus'
p23
tp24
F14.192370941915287
s(g5
S'kluyveri'
p25
tp26
F0.0
s(g12
g14
tp27
F15.762881649480066
s(g14
S'mikatae'
p28
tp29
F44.5579378065878
ssS'newicktree'
p30
S'../PairsAlignemt/YeastTree.newick'
p31
sS'll'
p32
cnumpy.core.multiarray
scalar
p33
(cnumpy
dtype
p34
(S'f8'
p35
I0
I1
tp36
Rp37
(I3
S'<'
p38
NNNI-1
I-1
I0
tp39
bS'1~\xb6\xba\x90\x9e\xad\xc0'
p40
tp41
Rp42
sS'clock'
p43
I00
sS'edge_to_blen'
p44
(dp45
g20
g33
(g37
S'\xad\xf4\x80\xdd`\xd5\xd1?'
p46
tp47
Rp48
sg10
g33
(g37
S'\xdeM\x8d*\x1f\x89\xb7?'
p49
tp50
Rp51
sg13
g33
(g37
S'\xfbb\xa1\x08\xb8\xcd\xab?'
p52
tp53
Rp54
sg15
g33
(g37
S'\x12\xfb\xf1\xb9\x0e\x11\xa3?'
p55
tp56
Rp57
sg17
g33
(g37
S'\xa3H\xcf\xb2\x83\x1e\xd3?'
p58
tp59
Rp60
sg19
g33
(g37
S'\x84ms\xc9NZ\xc0?'
p61
tp62
Rp63
sg7
g33
(g37
S'\x83\xf0\xf1\x18\xe4\xb8\xb4>'
p64
tp65
Rp66
sg22
g33
(g37
S'\xf9\xcc\xda\xb9[\xdd\xb4?'
p67
tp68
Rp69
sg24
g33
(g37
S'\x162\x93w\xb3:\xb2?'
p70
tp71
Rp72
sg26
g33
(g37
S'\x83\xb7\x9a\x9f\x11\x04\xdc?'
p73
tp74
Rp75
sg27
g33
(g37
S'\xb3\x8c\xf9\xfc1\xd0\xa9?'
p76
tp77
Rp78
sg29
g33
(g37
S'f\x97\x11\xae\x14\xe8\xc1?'
p79
tp80
Rp81
ssS'paralog'
p82
(lp83
S'YDR099W'
p84
aS'YER177W'
p85
asS'alignment_file'
p86
S'../PairsAlignemt/YDR099W_YER177W/YDR099W_YER177W_input.fasta'
p87
sS'x_clock'
p88
(lp89
F-0.6936500721973982
aF-0.5277350560841323
aF-0.7828849752822118
aF0.1823215567939546
aF-0.10536051565782628
aF0.3364722366212129
aF-0.10536051565782628
aF-0.10536051565782628
aF-0.10536051565782628
aF-0.10536051565782628
aF-0.10536051565782628
aF-0.10536051565782628
aF-0.10536051565782628
asS'x'
p90
(lp91
F-0.7641524032582685
aF-0.47023287550793247
aF-0.8670308473624692
aF1.5205311076365855
aF-3.2452488150385466
aF1.19617746
aF-1.277803851086574
aF-2.386661924490468
aF-2.913159498231411
aF-3.2903848882477438
aF-1.2081901714270118
aF-2.057633286500823
aF-13.604325272673755
aF-2.5071196251800187
aF-2.642147202631376
aF-0.826111094496125
aF-2.9874362047640557
aF-1.9668628277607
asS'Model'
p92
S'MG94'
p93
s.