(dp0
S'Force'
p1
(dp2
I4
F0.0
ssS'ExpectedGeneconv'
p3
(dp4
(S'N0'
p5
S'N1'
p6
tp7
F0.4621430708724654
s(S'N5'
p8
S'cerevisiae'
p9
tp10
F34.766669186487896
s(S'N2'
p11
S'N3'
p12
tp13
F21.370447690160034
s(S'N4'
p14
g8
tp15
F27.985383284386
s(g12
S'kudriavzevii'
p16
tp17
F41.036882441564195
s(g11
S'bayanus'
p18
tp19
F27.984579937615518
s(g6
g11
tp20
F68.8019115322321
s(g6
S'castellii'
p21
tp22
F93.42228037695796
s(g8
S'paradoxus'
p23
tp24
F24.80580853560131
s(g14
S'mikatae'
p25
tp26
F52.18360520680304
s(g12
g14
tp27
F22.942144903393537
s(g5
S'kluyveri'
p28
tp29
F0.0
ssS'newicktree'
p30
S'/Users/xji3/Genconv/PairsAlignemt/YeastTree.newick'
p31
sS'll'
p32
cnumpy.core.multiarray
scalar
p33
(cnumpy
dtype
p34
(S'f8'
p35
I0
I1
tp36
Rp37
(I3
S'<'
p38
NNNI-1
I-1
I0
tp39
bS'\x87\xdfw\xb5;r\xbf\xc0'
p40
tp41
Rp42
sS'clock'
p43
I00
sS'edge_to_blen'
p44
(dp45
g20
g33
(g37
S'\xf2\xa1\xf3\xe1\x06\x7f\xd0?'
p46
tp47
Rp48
sg10
g33
(g37
S'}\xcd\xfdJ:\xba\xad?'
p49
tp50
Rp51
sg13
g33
(g37
S'\x19\xfa[\x0f^\xfb\xa2?'
p52
tp53
Rp54
sg15
g33
(g37
S'~\xf6\xa7\x83\x07\xea\xa1?'
p55
tp56
Rp57
sg17
g33
(g37
S'\xe9\xb9\xfe\xf7kH\xb1?'
p58
tp59
Rp60
sg19
g33
(g37
S'\xb9`\xee\xd9Q\xf5\xae?'
p61
tp62
Rp63
sg7
g33
(g37
S'\xfc\xea>\x00\xc6?\x93?'
p64
tp65
Rp66
sg22
g33
(g37
S'\xd1\x1e\x98\xbe\xf9\x95\xd4?'
p67
tp68
Rp69
sg24
g33
(g37
S'kvk,\x85\x9d\xa4?'
p70
tp71
Rp72
sg26
g33
(g37
S'D(\\\xaf/\x1f\xb5?'
p73
tp74
Rp75
sg27
g33
(g37
S'\xd0\n\xed\xc8\xd5n\xa4?'
p76
tp77
Rp78
sg29
g33
(g37
S'\x1al\xee\tbZ\xd6?'
p79
tp80
Rp81
ssS'paralog'
p82
(lp83
S'YLR284C'
p84
aS'YOR180C'
p85
asS'alignment_file'
p86
S'/Users/xji3/Genconv/PairsAlignemt/YLR284C_YOR180C/YLR284C_YOR180C_input.fasta'
p87
sS'x_clock'
p88
(lp89
F-0.6727777608117265
aF-0.5616827669812707
aF-0.8933134240548011
aF1.2692677174592284
aF-1.304039266591505
aF-1.0023522688700686
aF0.0
aF-0.103730627580915
aF-1.2631417252445023
aF-0.0721333960040753
aF-0.27268060372140757
aF-0.4965625888963182
asS'x'
p90
(lp91
F-0.6766798023528457
aF-0.5535170050682083
aF-0.8906326091791141
aF1.2371343709685294
aF-1.304039266591505
aF-1.3557531065392967
aF-2.8462536970639234
aF-3.294838521206363
aF-3.3527322056283033
aF-2.6954600173773033
aF-2.8056841269040507
aF-3.974006719694767
aF-1.1342795230343097
aF-3.2122904605207454
aF-2.4948707504699077
aF-3.221175850801993
aF-1.0519199281150278
asS'Model'
p92
S'HKY'
p93
s.