(dp0
S'Force'
p1
(dp2
I4
F0.0
ssS'ExpectedGeneconv'
p3
(dp4
(S'N0'
p5
S'N1'
p6
tp7
F1.973219765410492
s(S'N5'
p8
S'cerevisiae'
p9
tp10
F35.419995295073036
s(S'N2'
p11
S'N3'
p12
tp13
F4.287937168119171
s(S'N4'
p14
g8
tp15
F15.465610970424105
s(g12
S'kudriavzevii'
p16
tp17
F35.37718541840728
s(g11
S'bayanus'
p18
tp19
F35.1529679234123
s(g6
g11
tp20
F18.345838368314094
s(g6
S'castellii'
p21
tp22
F58.534248468539495
s(g8
S'paradoxus'
p23
tp24
F24.29251383818429
s(g5
S'kluyveri'
p25
tp26
F0.0
s(g12
g14
tp27
F10.777173586533458
s(g14
S'mikatae'
p28
tp29
F50.9079737501227
ssS'newicktree'
p30
S'/Users/xji3/Genconv/PairsAlignemt/YeastTree.newick'
p31
sS'll'
p32
cnumpy.core.multiarray
scalar
p33
(cnumpy
dtype
p34
(S'f8'
p35
I0
I1
tp36
Rp37
(I3
S'<'
p38
NNNI-1
I-1
I0
tp39
bS'|\xd5\xd3\x91M\x9c\xbd\xc0'
p40
tp41
Rp42
sS'clock'
p43
I01
sS'edge_to_blen'
p44
(dp45
g20
g33
(g37
S'\xbc\xfao\x12\xbe\x0c\xb2?'
p46
tp47
Rp48
sg10
g33
(g37
S'5"\xc2\x7f;W\x99?'
p49
tp50
Rp51
sg13
g33
(g37
S'\xdc;Wd\xdbh\x82?'
p52
tp53
Rp54
sg15
g33
(g37
S'\xba\x18\x8f\xf2\xce\xe3\x8d?'
p55
tp56
Rp57
sg17
g33
(g37
S'\x95\xb6J\xaaY\x1d\xa9?'
p58
tp59
Rp60
sg19
g33
(g37
S'\x89\x85`\x83\x90\xb7\xad?'
p61
tp62
Rp63
sg7
g33
(g37
S'\xa2\x8fx\xd6\x9f_\x9e?'
p64
tp65
Rp66
sg22
g33
(g37
S'\xc1\x1e\x10*Ct\xc0?'
p67
tp68
Rp69
sg24
g33
(g37
S'5"\xc2\x7f;W\x99?'
p70
tp71
Rp72
sg26
g33
(g37
S'\xb50\xdf$7@\xc4?'
p73
tp74
Rp75
sg27
g33
(g37
S',}\x17\xb7 \xe3\x83?'
p76
tp77
Rp78
sg29
g33
(g37
S'I\xd7\x84|\x91$\xa4?'
p79
tp80
Rp81
ssS'paralog'
p82
(lp83
S'YGR043C'
p84
aS'YLR354C'
p85
asS'alignment_file'
p86
S'/Users/xji3/Genconv/PairsAlignemt/YGR043C_YLR354C/YGR043C_YLR354C_input.fasta'
p87
sS'x_clock'
p88
(lp89
F-0.7327123286403704
aF-0.5149025137540063
aF-0.8165341356181928
aF1.5236612936911451
aF-0.1601175695578638
aF-1.8438339190757096
aF0.0
aF-0.20761862917282162
aF-0.79515116044834
aF-0.16826959773250685
aF-0.22060218278932875
aF-0.46358247998824265
asS'x'
p90
(lp91
F-0.7327123286403704
aF-0.5149025137540063
aF-0.8165341356181928
aF1.5236612936911451
aF-0.1601175695578638
aF-2.652044210255869
aF-3.6990579692069496
aF-4.711746845820264
aF-4.2270991410802425
aF-3.014873306429378
aF-2.8466037086968714
aF-3.517900211906367
aF-2.0514525482485313
aF-3.6990579692069496
aF-1.8438339190757096
aF-4.634541775154511
aF-3.235475489218707
asS'Model'
p92
S'HKY'
p93
s.