(dp0
S'Force'
p1
(dp2
I5
F0.0
ssS'ExpectedGeneconv'
p3
(dp4
(S'N0'
p5
S'N1'
p6
tp7
F5.590805357316808
s(S'N5'
p8
S'cerevisiae'
p9
tp10
F13.850435206553248
s(S'N2'
p11
S'N3'
p12
tp13
F9.458491958850587
s(S'N4'
p14
g8
tp15
F5.419025633066757
s(g6
S'castellii'
p16
tp17
F250.73580279833627
s(g11
S'bayanus'
p18
tp19
F21.138728771711477
s(g6
g11
tp20
F163.8390001341367
s(g12
S'kudriavzevii'
p21
tp22
F19.37683559315694
s(g8
S'paradoxus'
p23
tp24
F8.89960628726822
s(g5
S'kluyveri'
p25
tp26
F0.0
s(g12
g14
tp27
F8.118826126381824
s(g14
S'mikatae'
p28
tp29
F23.62096213026009
ssS'newicktree'
p30
S'../PairsAlignemt/YeastTree.newick'
p31
sS'll'
p32
cnumpy.core.multiarray
scalar
p33
(cnumpy
dtype
p34
(S'f8'
p35
I0
I1
tp36
Rp37
(I3
S'<'
p38
NNNI-1
I-1
I0
tp39
bS'(\xd2\x8d\xe7&\x9a\xaa\xc0'
p40
tp41
Rp42
sS'clock'
p43
I00
sS'edge_to_blen'
p44
(dp45
g20
g33
(g37
S'\xb0\xa6Yb5\x1f\x05@'
p46
tp47
Rp48
sg10
g33
(g37
S'D(\xa2\xd35\xac\xd1?'
p49
tp50
Rp51
sg13
g33
(g37
S'\x9b\x0c\x82|\xb3\xbc\xc6?'
p52
tp53
Rp54
sg15
g33
(g37
S'\xadh6\x00\x196\xbf?'
p55
tp56
Rp57
sg17
g33
(g37
S'5@\xb0G\x83\xfd\x0f@'
p58
tp59
Rp60
sg19
g33
(g37
S'\xf5\x0c\xa1\x87G\xc6\xd8?'
p61
tp62
Rp63
sg7
g33
(g37
S'\x85\x8c\xb7\xd7\xb4x\xd0?'
p64
tp65
Rp66
sg22
g33
(g37
S'u\xcc\xf4\xd8F\xc5\xd4?'
p67
tp68
Rp69
sg24
g33
(g37
S'^4n\x88\xec\xd1\xbd?'
p70
tp71
Rp72
sg26
g33
(g37
S'zN\x01S\xe6\xc6\x16@'
p73
tp74
Rp75
sg27
g33
(g37
S'\xb1!\xa3w\x938\xc6?'
p76
tp77
Rp78
sg29
g33
(g37
S'{\xf0Y\x89\x85\xc8\xd5?'
p79
tp80
Rp81
ssS'paralog'
p82
(lp83
S'YIL057C'
p84
aS'YER067W'
p85
asS'alignment_file'
p86
S'../PairsAlignemt/YIL057C_YER067W/YIL057C_YER067W_input.fasta'
p87
sS'x_clock'
p88
(lp89
F-0.573098399274636
aF-0.5013113527746849
aF-0.81186663355229
aF0.1823215567939546
aF-0.10536051565782628
aF0.3364722366212129
aF-0.10536051565782628
aF-0.10536051565782628
aF-0.10536051565782628
aF-0.10536051565782628
aF-0.10536051565782628
aF-0.10536051565782628
aF-0.10536051565782628
asS'x'
p90
(lp91
F-0.6645018145836397
aF-0.6088443477576441
aF-0.816398249980491
aF0.7916912024423077
aF-3.2858420638519856
aF1.19617746
aF0.9708692695133084
aF-1.2868622149989206
aF-1.7280317078173546
aF-2.10439662755848
aF1.3859907032809389
aF-0.9490670161135482
aF-1.3572508955391895
aF-1.1253439660393332
aF-2.1499976168295754
aF1.7394547850044195
aF-1.7509924684382145
aF-1.077740031161485
asS'Model'
p92
S'MG94'
p93
s.