(dp0
S'Force'
p1
(dp2
I5
F0.0
ssS'ExpectedGeneconv'
p3
(dp4
(S'N0'
p5
S'N1'
p6
tp7
F0.1352447218266812
s(S'N5'
p8
S'cerevisiae'
p9
tp10
F2.802717729485221
s(S'N2'
p11
S'N3'
p12
tp13
F3.3511609509323463
s(S'N4'
p14
g8
tp15
F2.3854755564708503
s(g6
S'castellii'
p16
tp17
F18.047873982574718
s(g11
S'bayanus'
p18
tp19
F11.837791374691845
s(g6
g11
tp20
F7.766003639968924
s(g12
S'kudriavzevii'
p21
tp22
F4.481533627323567
s(g8
S'paradoxus'
p23
tp24
F1.5558016735767237
s(g5
S'kluyveri'
p25
tp26
F0.0
s(g12
g14
tp27
F1.1974207619483332
s(g14
S'mikatae'
p28
tp29
F5.24843477246947
ssS'newicktree'
p30
S'../PairsAlignemt/YeastTree.newick'
p31
sS'll'
p32
cnumpy.core.multiarray
scalar
p33
(cnumpy
dtype
p34
(S'f8'
p35
I0
I1
tp36
Rp37
(I3
S'<'
p38
NNNI-1
I-1
I0
tp39
bS'\xa1\xc9\xb9\xb7\x88\xee\xa2\xc0'
p40
tp41
Rp42
sS'clock'
p43
I01
sS'edge_to_blen'
p44
(dp45
g20
g33
(g37
S'\xed\xc2\xb6\xaaRE\xb5?'
p46
tp47
Rp48
sg10
g33
(g37
S'\x92\xd8\xd2\x1a\x1dO\x94?'
p49
tp50
Rp51
sg13
g33
(g37
S'\x9f\x04Mi\xb4u\x8c?'
p52
tp53
Rp54
sg15
g33
(g37
S'\xb30dh\xb6\x81\x93?'
p55
tp56
Rp57
sg17
g33
(g37
S'\xf1Ch\x93\xe0\xfc\xc1?'
p58
tp59
Rp60
sg19
g33
(g37
S'\xec\x893\xf8\xdch\xad?'
p61
tp62
Rp63
sg7
g33
(g37
S'\xda\x83\xc9\xa4\xe3\x07\x90?'
p64
tp65
Rp66
sg22
g33
(g37
S'\xc6H\xe0\xddoK\xa6?'
p67
tp68
Rp69
sg24
g33
(g37
S'\x92\xd8\xd2\x1a\x1dO\x94?'
p70
tp71
Rp72
sg26
g33
(g37
S'mt\x01\x08\xdd\xfd\xc3?'
p73
tp74
Rp75
sg27
g33
(g37
S'\x0f!&\xe20\x18s?'
p76
tp77
Rp78
sg29
g33
(g37
S'\xa4\x84\x9b\xc1i\xe8\xa3?'
p79
tp80
Rp81
ssS'paralog'
p82
(lp83
S'YNL069C'
p84
aS'YIL133C'
p85
asS'alignment_file'
p86
S'../PairsAlignemt/YNL069C_YIL133C/YNL069C_YIL133C_input.fasta'
p87
sS'x_clock'
p88
(lp89
F-0.7459299116113365
aF-0.5326594954293752
aF-0.9539570306768443
aF1.5100023155154598
aF-1.835387865432546
aF1.23836258
aF-1.8567153814832462
aF0.0
aF-0.10562103455211909
aF-0.894666318556132
aF-0.27697399831725633
aF-0.11323307701093419
aF-0.6731959942428455
asS'x'
p90
(lp91
F-0.7459299116113365
aF-0.5326594954293752
aF-0.9539570306768443
aF1.5100023155154598
aF-1.835387865432546
aF1.23836258
aF-2.4878425500452153
aF-3.920405804162533
aF-4.276126979315252
aF-3.960714343894535
aF-1.9623364160353653
aF-2.8570027345914975
aF-4.156958853553016
aF-3.1339767329087533
aF-3.920405804162533
aF-1.8567153814832462
aF-5.368366045897939
aF-3.2472098099196876
asS'Model'
p92
S'MG94'
p93
s.