(dp0
S'Force'
p1
(dp2
I4
F0.0
ssS'ExpectedGeneconv'
p3
(dp4
(S'N0'
p5
S'N1'
p6
tp7
F0.0019276734121507172
s(S'N5'
p8
S'cerevisiae'
p9
tp10
F9.735642817607877
s(S'N2'
p11
S'N3'
p12
tp13
F2.794144078145287
s(S'N4'
p14
g8
tp15
F0.19989536935697874
s(g12
S'kudriavzevii'
p16
tp17
F8.02941948241143
s(g11
S'bayanus'
p18
tp19
F9.318372507475042
s(g6
g11
tp20
F1.7431335432838357
s(g6
S'castellii'
p21
tp22
F24.657479131188982
s(g8
S'paradoxus'
p23
tp24
F4.298827416326713
s(g5
S'kluyveri'
p25
tp26
F0.0
s(g12
g14
tp27
F0.29349044587316847
s(g14
S'mikatae'
p28
tp29
F5.523566534687451
ssS'newicktree'
p30
S'/Users/xji3/Genconv/PairsAlignemt/YeastTree.newick'
p31
sS'll'
p32
cnumpy.core.multiarray
scalar
p33
(cnumpy
dtype
p34
(S'f8'
p35
I0
I1
tp36
Rp37
(I3
S'<'
p38
NNNI-1
I-1
I0
tp39
bS'\x88\xe0\xfd2\xdd\xc8\xa2\xc0'
p40
tp41
Rp42
sS'clock'
p43
I00
sS'edge_to_blen'
p44
(dp45
g20
g33
(g37
S'3\xd6\xc4\xe4\xf3\x0ey?'
p46
tp47
Rp48
sg10
g33
(g37
S'Y.\xd4\xf7\x0b\xa4\x81?'
p49
tp50
Rp51
sg13
g33
(g37
S'\xcc\xac\xde\x8a.&i?'
p52
tp53
Rp54
sg15
g33
(g37
S';:\xfb\xff&\xbaZ?'
p55
tp56
Rp57
sg17
g33
(g37
S'\xca\xc1K\x8c\x8e\xc2\x91?'
p58
tp59
Rp60
sg19
g33
(g37
S'\x06t\xbfw8\xd8\x8d?'
p61
tp62
Rp63
sg7
g33
(g37
S'U\x00C 1MF?'
p64
tp65
Rp66
sg22
g33
(g37
S'77C\x1b\n\x02\xa2?'
p67
tp68
Rp69
sg24
g33
(g37
S'\xfdF/\xd9\xe2\xc7\x8e?'
p70
tp71
Rp72
sg26
g33
(g37
S'g\x8a\x84\xbd\xe6\x9f\x9e?'
p73
tp74
Rp75
sg27
g33
(g37
S'\x86]g\xbd\x11GZ?'
p76
tp77
Rp78
sg29
g33
(g37
S'j\xab,\xd2\xed\x85\x91?'
p79
tp80
Rp81
ssS'paralog'
p82
(lp83
S'YNL301C'
p84
aS'YOL120C'
p85
asS'alignment_file'
p86
S'/Users/xji3/Genconv/PairsAlignemt/YNL301C_YOL120C/YNL301C_YOL120C_input.fasta'
p87
sS'x_clock'
p88
(lp89
F-0.7434934897292682
aF-0.5752291474595587
aF-0.7876030970347935
aF2.0256552172164963
aF3.1720667432956495
aF-3.5099216718724984
aF0.0
aF-0.2924236014441081
aF-0.5301177381244302
aF-0.10222928741037601
aF-0.32224453455980834
aF-0.08960471713260662
asS'x'
p90
(lp91
F-0.7785148885435677
aF-0.5779391056790859
aF-0.8068075514853426
aF2.009124636350532
aF3.1720667432956495
aF-5.096556706041301
aF-4.754404153271115
aF-5.786089340708061
aF-6.418380341103152
aF-4.054523765651906
aF-4.228614677532939
aF-7.292552384145218
aF-3.347510369900473
aF-4.197727698846379
aF-3.5096677223608053
aF-6.435343113123982
aF-4.067948364758967
asS'Model'
p92
S'HKY'
p93
s.