(dp0
S'Force'
p1
(dp2
I5
F0.0
ssS'ExpectedGeneconv'
p3
(dp4
(S'N0'
p5
S'N1'
p6
tp7
F124.83436148092163
s(S'N5'
p8
S'cerevisiae'
p9
tp10
F48.45488756240382
s(S'N2'
p11
S'N3'
p12
tp13
F28.817490580744803
s(S'N4'
p14
g8
tp15
F23.88061432723435
s(g6
S'castellii'
p16
tp17
F419.4958573720355
s(g11
S'bayanus'
p18
tp19
F68.88252618402082
s(g6
g11
tp20
F319.7353503427297
s(g12
S'kudriavzevii'
p21
tp22
F65.39906692105352
s(g8
S'paradoxus'
p23
tp24
F33.07238512731889
s(g5
S'kluyveri'
p25
tp26
F0.0
s(g12
g14
tp27
F27.444364879552143
s(g14
S'mikatae'
p28
tp29
F73.65273459015697
ssS'newicktree'
p30
S'../PairsAlignemt/YeastTree.newick'
p31
sS'll'
p32
cnumpy.core.multiarray
scalar
p33
(cnumpy
dtype
p34
(S'f8'
p35
I0
I1
tp36
Rp37
(I3
S'<'
p38
NNNI-1
I-1
I0
tp39
bS'\xd5\xc0\xda>\x1cP\xdd\xc0'
p40
tp41
Rp42
sS'clock'
p43
I00
sS'edge_to_blen'
p44
(dp45
g20
g33
(g37
S'\xdc\xf5\x18,\xba\x06\xf2?'
p46
tp47
Rp48
sg10
g33
(g37
S'}\xd1\xc7e\x8f]\xcf?'
p49
tp50
Rp51
sg13
g33
(g37
S'\xbf\xce\xb9\xbb\xf1"\xc2?'
p52
tp53
Rp54
sg15
g33
(g37
S'\xa0\xbc\x16\rQ\xb7\xbe?'
p55
tp56
Rp57
sg17
g33
(g37
S'ru\xa2\x9ff\xe2\xf6?'
p58
tp59
Rp60
sg19
g33
(g37
S'\xc8M\xb0Z~\xfb\xd4?'
p61
tp62
Rp63
sg7
g33
(g37
S'2\xb1e\xd0\xaf\x16\xe0?'
p64
tp65
Rp66
sg22
g33
(g37
S'Z\xdd\xfeT_\xd2\xd5?'
p67
tp68
Rp69
sg24
g33
(g37
S'\x15h\x1b|\x00O\xc4?'
p70
tp71
Rp72
sg26
g33
(g37
S'\x14\x15/\xa6H\r\xf2?'
p73
tp74
Rp75
sg27
g33
(g37
S':9\xef}\x8c*\xc3?'
p76
tp77
Rp78
sg29
g33
(g37
S'\xff\xd9\xbbr\x12\xa1\xd5?'
p79
tp80
Rp81
ssS'paralog'
p82
(lp83
S'YGL133W'
p84
aS'YPL216W'
p85
asS'alignment_file'
p86
S'../PairsAlignemt/YGL133W_YPL216W/YGL133W_YPL216W_input.fasta'
p87
sS'x_clock'
p88
(lp89
F-0.5867502110282133
aF-0.45573602852282474
aF-0.9702885393599554
aF0.1823215567939546
aF-0.10536051565782628
aF0.3364722366212129
aF-0.10536051565782628
aF-0.10536051565782628
aF-0.10536051565782628
aF-0.10536051565782628
aF-0.10536051565782628
aF-0.10536051565782628
aF-0.10536051565782628
asS'x'
p90
(lp91
F-0.6045740704429858
aF-0.4346500713669665
aF-1.0105123467898358
aF0.9999618025322649
aF-1.6134528897732399
aF1.19617746
aF0.11924187454337823
aF-1.4063226791980232
aF-1.9541037233118246
aF-2.1203911324889706
aF0.35786579010076036
aF-1.1151992465499703
aF-0.6876237000077356
aF-1.0759751185580224
aF-1.8409857657679052
aF0.1206616544629143
aF-1.8988816275035088
aF-1.084839396255596
asS'Model'
p92
S'MG94'
p93
s.