(dp0
S'Force'
p1
(dp2
I4
F0.0
ssS'ExpectedGeneconv'
p3
(dp4
(S'N0'
p5
S'N1'
p6
tp7
F0.9577392015811321
s(S'N5'
p8
S'cerevisiae'
p9
tp10
F44.851096554971505
s(S'N2'
p11
S'N3'
p12
tp13
F7.789309523121833
s(S'N4'
p14
g8
tp15
F15.938254332092155
s(g12
S'kudriavzevii'
p16
tp17
F54.736945608337635
s(g11
S'bayanus'
p18
tp19
F62.14373370216873
s(g6
g11
tp20
F37.27543160768778
s(g6
S'castellii'
p21
tp22
F95.77892353475383
s(g8
S'paradoxus'
p23
tp24
F23.448906494071718
s(g5
S'kluyveri'
p25
tp26
F0.0
s(g12
g14
tp27
F11.091865465978875
s(g14
S'mikatae'
p28
tp29
F59.21277336741979
ssS'newicktree'
p30
S'/Users/xji3/Genconv/PairsAlignemt/YeastTree.newick'
p31
sS'll'
p32
cnumpy.core.multiarray
scalar
p33
(cnumpy
dtype
p34
(S'f8'
p35
I0
I1
tp36
Rp37
(I3
S'<'
p38
NNNI-1
I-1
I0
tp39
bS':\xa4\x1djMH\xc3\xc0'
p40
tp41
Rp42
sS'clock'
p43
I01
sS'edge_to_blen'
p44
(dp45
g20
g33
(g37
S'\x08\x14\xa9$\x1e\xe9\xbe?'
p46
tp47
Rp48
sg10
g33
(g37
S'\xb9J\x8e\xc5\xc0\xb7\xa3?'
p49
tp50
Rp51
sg13
g33
(g37
S'_\xf7\xa7~\x9b\x7f\x8c?'
p52
tp53
Rp54
sg15
g33
(g37
S'\xf7R\x8c\xe4\x82\xde\x96?'
p55
tp56
Rp57
sg17
g33
(g37
S'B\xf2BH\x0c\x1a\xb3?'
p58
tp59
Rp60
sg19
g33
(g37
S'0\xf1\x17\xb8\xff\xa9\xb6?'
p61
tp62
Rp63
sg7
g33
(g37
S'\x1acSo1w\x97?'
p64
tp65
Rp66
sg22
g33
(g37
S'\x9b\x82`\xee\x8e\xc9\xca?'
p67
tp68
Rp69
sg24
g33
(g37
S'\xb9J\x8e\xc5\xc0\xb7\xa3?'
p70
tp71
Rp72
sg26
g33
(g37
S'\xfe\xeeJ\x1cu\xb8\xcd?'
p73
tp74
Rp75
sg27
g33
(g37
S'K\xc1\xc5bY4\x8c?'
p76
tp77
Rp78
sg29
g33
(g37
S"2t\xd47\x02'\xaf?"
p79
tp80
Rp81
ssS'paralog'
p82
(lp83
S'YMR243C'
p84
aS'YOR316C'
p85
asS'alignment_file'
p86
S'/Users/xji3/Genconv/PairsAlignemt/YMR243C_YOR316C/YMR243C_YOR316C_input.fasta'
p87
sS'x_clock'
p88
(lp89
F-0.7750055598515189
aF-0.5571248408494834
aF-0.8209734108016631
aF1.256628829277205
aF-0.2858818377240206
aF-1.4601919767804739
aF0.0
aF-0.10390900357964614
aF-0.860296133025869
aF-0.17100038177747723
aF-0.2040365602584294
aF-0.45736953847748774
asS'x'
p90
(lp91
F-0.7750055598515189
aF-0.5571248408494834
aF-0.8209734108016631
aF1.256628829277205
aF-0.2858818377240206
aF-2.11407775327686
aF-3.256803593899383
aF-4.274768710451991
aF-3.801681444675458
aF-2.5953974951634664
aF-2.424397113385989
aF-3.7759363690923347
aF-1.56410098036012
aF-3.256803593899383
aF-1.4601919767804739
aF-4.285137839339922
aF-2.7994340554218957
asS'Model'
p92
S'HKY'
p93
s.