(dp0
S'Force'
p1
(dp2
I4
F0.0
ssS'ExpectedGeneconv'
p3
(dp4
(S'N0'
p5
S'N1'
p6
tp7
F0.01993589318650016
s(S'N5'
p8
S'cerevisiae'
p9
tp10
F3.124124583636652
s(S'N2'
p11
S'N3'
p12
tp13
F0.34210531953771134
s(S'N4'
p14
g8
tp15
F0.7395124680076951
s(g6
S'castellii'
p16
tp17
F4.6313043395227815
s(g11
S'bayanus'
p18
tp19
F1.5133245242765643
s(g6
g11
tp20
F5.967025982887201
s(g12
S'kudriavzevii'
p21
tp22
F1.25111005488152
s(g8
S'paradoxus'
p23
tp24
F2.481179097391827
s(g5
S'kluyveri'
p25
tp26
F0.0
s(g12
g14
tp27
F0.48014912939267707
s(g14
S'mikatae'
p28
tp29
F8.148703628145983
ssS'newicktree'
p30
S'/Users/xji3/Genconv/PairsAlignemt/YeastTree.newick'
p31
sS'll'
p32
cnumpy.core.multiarray
scalar
p33
(cnumpy
dtype
p34
(S'f8'
p35
I0
I1
tp36
Rp37
(I3
S'<'
p38
NNNI-1
I-1
I0
tp39
bS'6N\xa2\xb3\xee\xc5\x94\xc0'
p40
tp41
Rp42
sS'clock'
p43
I00
sS'edge_to_blen'
p44
(dp45
g20
g33
(g37
S'\xd0v|ynO\x85?'
p46
tp47
Rp48
sg10
g33
(g37
S'd\xf4\x04\x87\xc1Iz?'
p49
tp50
Rp51
sg13
g33
(g37
S'K$\x9ay\x9c~l?'
p52
tp53
Rp54
sg15
g33
(g37
S"\xb2'g4\x1a\xb9P?"
p55
tp56
Rp57
sg17
g33
(g37
S'fu?\xf0^I\x8b?'
p58
tp59
Rp60
sg19
g33
(g37
S'%.\xf0\x00\x02\xbc\x81?'
p61
tp62
Rp63
sg7
g33
(g37
S'\xb7=\x91\xd3\xa2]b?'
p64
tp65
Rp66
sg22
g33
(g37
S'b\xea\xb8\xdf\xa1\xdc\x82?'
p67
tp68
Rp69
sg24
g33
(g37
S'\xd2f\x8c\x8d\x8a\x90s?'
p70
tp71
Rp72
sg26
g33
(g37
S'\x8d\x01v\xac3\xde\x9e?'
p73
tp74
Rp75
sg27
g33
(g37
S'\xab|C\x9ep`c?'
p76
tp77
Rp78
sg29
g33
(g37
S'\x86D\r\xc0\x94\xf6\x88?'
p79
tp80
Rp81
ssS'paralog'
p82
(lp83
S'YLR406C'
p84
aS'YDL075W'
p85
asS'alignment_file'
p86
S'/Users/xji3/Genconv/PairsAlignemt/YLR406C_YDL075W/YLR406C_YDL075W_input.fasta'
p87
sS'x_clock'
p88
(lp89
F-0.6922262668112477
aF-0.5100717209373061
aF-0.889209702118127
aF2.2571063474711366
aF3.086999986706915
aF-3.6232443100391345
aF0.0
aF-0.4789377249844538
aF-0.6268469302367254
aF-0.27119259444536165
aF-0.1933593297933021
aF-0.26659177783019256
asS'x'
p90
(lp91
F-0.7105475990913228
aF-0.5113279639474309
aF-0.9009014487568691
aF2.3231721455822645
aF3.086999986706915
aF-4.5654294262006525
aF-5.048649449770037
aF-5.661199624819593
aF-6.887272155666541
aF-4.318223067530959
aF-4.7491124156368025
aF-6.100424970852235
aF-4.687477887655562
aF-5.3440436327012035
aF-3.501752535230507
aF-6.046841083450406
aF-4.407215955401708
asS'Model'
p92
S'HKY'
p93
s.