(dp0
S'Force'
p1
(dp2
I5
F0.0
ssS'ExpectedGeneconv'
p3
(dp4
(S'N0'
p5
S'N1'
p6
tp7
F0.9212170074819259
s(S'N5'
p8
S'cerevisiae'
p9
tp10
F28.109825051486283
s(S'N2'
p11
S'N3'
p12
tp13
F20.661698221592875
s(S'N4'
p14
g8
tp15
F18.110676750016218
s(g6
S'castellii'
p16
tp17
F68.8270798293631
s(g11
S'bayanus'
p18
tp19
F40.61927761729973
s(g6
g11
tp20
F64.88583672081624
s(g12
S'kudriavzevii'
p21
tp22
F31.9894307648215
s(g8
S'paradoxus'
p23
tp24
F18.414985056734373
s(g5
S'kluyveri'
p25
tp26
F0.0
s(g12
g14
tp27
F24.861253659455095
s(g14
S'mikatae'
p28
tp29
F39.19317407183377
ssS'newicktree'
p30
S'../PairsAlignemt/YeastTree.newick'
p31
sS'll'
p32
cnumpy.core.multiarray
scalar
p33
(cnumpy
dtype
p34
(S'f8'
p35
I0
I1
tp36
Rp37
(I3
S'<'
p38
NNNI-1
I-1
I0
tp39
bS'\x15\x04\x9bs&\xc9\xb6\xc0'
p40
tp41
Rp42
sS'clock'
p43
I00
sS'edge_to_blen'
p44
(dp45
g20
g33
(g37
S'R\xf5`\xfe\x1b\xfc\xdb?'
p46
tp47
Rp48
sg10
g33
(g37
S'\xd9\xbb\x0cH\xcb\xf7\xba?'
p49
tp50
Rp51
sg13
g33
(g37
S'\xca6\xdb\x8c\xd0\xe7\xb8?'
p52
tp53
Rp54
sg15
g33
(g37
S"'9q\xc8\x95y\xb7?"
p55
tp56
Rp57
sg17
g33
(g37
S'\x89\x0e\xca\xc3J\xa4\xdb?'
p58
tp59
Rp60
sg19
g33
(g37
S':\x90\xd9\xb2\xbf\x90\xca?'
p61
tp62
Rp63
sg7
g33
(g37
S'\xe6\xd3v!\xa5\xcd\xa5?'
p64
tp65
Rp66
sg22
g33
(g37
S'E\xa1\xa0\xcb\xc6\xc7\xc7?'
p67
tp68
Rp69
sg24
g33
(g37
S'i+R%\xfc\x0b\xb9?'
p70
tp71
Rp72
sg26
g33
(g37
S'\xf0\x14\xba}\x89A\xdd?'
p73
tp74
Rp75
sg27
g33
(g37
S')\x14+^\xf6\x10\xbc?'
p76
tp77
Rp78
sg29
g33
(g37
S'\xcd\x87\x82\xd3+H\xc8?'
p79
tp80
Rp81
ssS'paralog'
p82
(lp83
S'YHR106W'
p84
aS'YDR353W'
p85
asS'alignment_file'
p86
S'../PairsAlignemt/YHR106W_YDR353W/YHR106W_YDR353W_input.fasta'
p87
sS'x_clock'
p88
(lp89
F-0.6339278208999742
aF-0.6097534504822344
aF-0.8024913475704643
aF0.1823215567939546
aF-0.10536051565782628
aF0.3364722366212129
aF-0.10536051565782628
aF-0.10536051565782628
aF-0.10536051565782628
aF-0.10536051565782628
aF-0.10536051565782628
aF-0.10536051565782628
aF-0.10536051565782628
asS'x'
p90
(lp91
F-0.6912177392842459
aF-0.5542803602164733
aF-0.8704743105074576
aF1.261672823991195
aF-2.795148639832653
aF1.19617746
aF-0.827221500919514
aF-2.2505284845460225
aF-2.3300877389717414
aF-2.389243900459193
aF-0.8395552000919753
aF-1.5724197023004651
aF-3.1562632472202963
aF-1.6831695137677283
aF-2.3244307232560057
aF-0.7827982590204056
aF-2.2106093271481084
aF-1.662298275525235
asS'Model'
p92
S'MG94'
p93
s.