(dp0
S'Force'
p1
(dp2
I4
F0.0
ssS'ExpectedGeneconv'
p3
(dp4
(S'N0'
p5
S'N1'
p6
tp7
F6.652721577532752
s(S'N5'
p8
S'cerevisiae'
p9
tp10
F86.17743902037687
s(S'N2'
p11
S'N3'
p12
tp13
F26.402251346930342
s(S'N4'
p14
g8
tp15
F55.32283148638455
s(g12
S'kudriavzevii'
p16
tp17
F135.80953639664395
s(g11
S'bayanus'
p18
tp19
F188.62955376611478
s(g6
g11
tp20
F282.2631657964441
s(g6
S'castellii'
p21
tp22
F464.4445739287479
s(g8
S'paradoxus'
p23
tp24
F78.10048758523686
s(g5
S'kluyveri'
p25
tp26
F0.0
s(g12
g14
tp27
F35.949093292750426
s(g14
S'mikatae'
p28
tp29
F136.52277738962766
ssS'newicktree'
p30
S'/Users/xji3/Genconv/PairsAlignemt/YeastTree.newick'
p31
sS'll'
p32
cnumpy.core.multiarray
scalar
p33
(cnumpy
dtype
p34
(S'f8'
p35
I0
I1
tp36
Rp37
(I3
S'<'
p38
NNNI-1
I-1
I0
tp39
bS's_+qI\xb2\xd9\xc0'
p40
tp41
Rp42
sS'clock'
p43
I01
sS'edge_to_blen'
p44
(dp45
g20
g33
(g37
S'\x9aK\x92%\xf7b\xd1?'
p46
tp47
Rp48
sg10
g33
(g37
S':\xead\x1c\xa4\xd0\xa3?'
p49
tp50
Rp51
sg13
g33
(g37
S'\xef\x9bB\xf7|\x0e\x92?'
p52
tp53
Rp54
sg15
g33
(g37
S'qY\xb2\x04\x8e_\x9b?'
p55
tp56
Rp57
sg17
g33
(g37
S'\xc6\xab{%eD\xb5?'
p58
tp59
Rp60
sg19
g33
(g37
S'\xc3RLc\x04\xc8\xb9?'
p61
tp62
Rp63
sg7
g33
(g37
S'\xd6\xd5\xf4\x8a\xef\x18\xa5?'
p64
tp65
Rp66
sg22
g33
(g37
S'K`e>\xf8\xd4\xd7?'
p67
tp68
Rp69
sg24
g33
(g37
S':\xead\x1c\xa4\xd0\xa3?'
p70
tp71
Rp72
sg26
g33
(g37
S'\x06\xfb\xc3/\x16x\xda?'
p73
tp74
Rp75
sg27
g33
(g37
S'3\x81rX\xbe\x10\x92?'
p76
tp77
Rp78
sg29
g33
(g37
S'y\x0b_\x8f5\xc0\xb0?'
p79
tp80
Rp81
ssS'paralog'
p82
(lp83
S'YIR033W'
p84
aS'YKL020C'
p85
asS'alignment_file'
p86
S'/Users/xji3/Genconv/PairsAlignemt/YIR033W_YKL020C/YIR033W_YKL020C_input.fasta'
p87
sS'x_clock'
p88
(lp89
F-0.6897387225895586
aF-0.46025977023967884
aF-0.839536168342858
aF1.2099147727918138
aF-1.183351820299602
aF-0.8829055013966293
aF0.0
aF-0.10495202135989194
aF-1.3076698411961043
aF-0.1924855879692038
aF-0.2387174437507342
aF-0.5251547941031999
asS'x'
p90
(lp91
F-0.6897387225895586
aF-0.46025977023967884
aF-0.839536168342858
aF1.2099147727918138
aF-1.183351820299602
aF-1.3031842285581081
aF-3.2518851897757637
aF-4.037960850825109
aF-3.6219051527051946
aF-2.4880129519218297
aF-2.2955273639526257
aF-3.1891745715972357
aF-0.9878575227565214
aF-3.2518851897757637
aF-0.8829055013966294
aF-4.037473053108151
aF-2.726730395672564
asS'Model'
p92
S'HKY'
p93
s.