(dp0
S'Force'
p1
(dp2
I5
F0.0
ssS'ExpectedGeneconv'
p3
(dp4
(S'N0'
p5
S'N1'
p6
tp7
F5.181348651651052
s(S'N5'
p8
S'cerevisiae'
p9
tp10
F39.34427294081279
s(S'N2'
p11
S'N3'
p12
tp13
F32.94953537788999
s(S'N4'
p14
g8
tp15
F25.216526741078848
s(g6
S'castellii'
p16
tp17
F320.23547193528566
s(g11
S'bayanus'
p18
tp19
F105.46516985751607
s(g6
g11
tp20
F209.49652960202442
s(g12
S'kudriavzevii'
p21
tp22
F72.81575542278969
s(g8
S'paradoxus'
p23
tp24
F39.26886411260879
s(g5
S'kluyveri'
p25
tp26
F0.0
s(g12
g14
tp27
F22.079713742020672
s(g14
S'mikatae'
p28
tp29
F71.48525883992585
ssS'newicktree'
p30
S'../PairsAlignemt/YeastTree.newick'
p31
sS'll'
p32
cnumpy.core.multiarray
scalar
p33
(cnumpy
dtype
p34
(S'f8'
p35
I0
I1
tp36
Rp37
(I3
S'<'
p38
NNNI-1
I-1
I0
tp39
bS'\x82~\xbe\x9a\xb8\x02\xcc\xc0'
p40
tp41
Rp42
sS'clock'
p43
I01
sS'edge_to_blen'
p44
(dp45
g20
g33
(g37
S'\xe9\xa1k\xc6L\x04\xe3?'
p46
tp47
Rp48
sg10
g33
(g37
S'$\xc9t\xdd\x81B\xb1?'
p49
tp50
Rp51
sg13
g33
(g37
S'\x04\n\x82\x97\xd8\xbc\xb4?'
p52
tp53
Rp54
sg15
g33
(g37
S'(%\xc3\xfc\xec\xd6\xa7?'
p55
tp56
Rp57
sg17
g33
(g37
S'\xce2\x1e\xf5A\xcb\xea?'
p58
tp59
Rp60
sg19
g33
(g37
S'\x97C\xca\xba\xd4\x1b\xcf?'
p61
tp62
Rp63
sg7
g33
(g37
S'z\x00\xad\x08\x16\x14\xb1?'
p64
tp65
Rp66
sg22
g33
(g37
S'\x94>\toh\xbd\xc4?'
p67
tp68
Rp69
sg24
g33
(g37
S'$\xc9t\xdd\x81B\xb1?'
p70
tp71
Rp72
sg26
g33
(g37
S'\xdd\xd23\xb6\xc4\xed\xec?'
p73
tp74
Rp75
sg27
g33
(g37
S'\xe1Bx\x04\xb1\x99\xa8?'
p76
tp77
Rp78
sg29
g33
(g37
S'\xb9[\xd6[\xf8-\xbd?'
p79
tp80
Rp81
ssS'paralog'
p82
(lp83
S'YPR159W'
p84
aS'YGR143W'
p85
asS'alignment_file'
p86
S'../PairsAlignemt/YPR159W_YGR143W/YPR159W_YGR143W_input.fasta'
p87
sS'x_clock'
p88
(lp89
F-0.7064993181569024
aF-0.3964529023576479
aF-1.0890968034066537
aF1.3749102906761268
aF-2.1242019976638082
aF1.23836258
aF-0.10089885753576922
aF0.0
aF-0.07665998968196083
aF-1.23698341982999
aF-0.4054298315848623
aF-0.3517365080140146
aF-0.5250890825149652
asS'x'
p90
(lp91
F-0.7064993181569024
aF-0.3964529023576479
aF-1.0890968034066537
aF1.3749102906761268
aF-2.1242019976638082
aF1.23836258
aF-0.520413288114771
aF-2.696797689161562
aF-2.513225112495953
aF-3.066978506170953
aF-0.17755884721772994
aF-1.41454226704772
aF-2.7073593532411895
aF-1.8199720986325822
aF-2.696797689161562
aF-0.10089885753576916
aF-3.035563656918749
aF-2.1717086066465967
asS'Model'
p92
S'MG94'
p93
s.