(dp0
S'Force'
p1
(dp2
I5
F0.0
ssS'ExpectedGeneconv'
p3
(dp4
(S'N0'
p5
S'N1'
p6
tp7
F65.85308437225338
s(S'N5'
p8
S'cerevisiae'
p9
tp10
F64.71461443071837
s(S'N2'
p11
S'N3'
p12
tp13
F24.443854931881045
s(S'N4'
p14
g8
tp15
F36.58417179286799
s(g12
S'kudriavzevii'
p16
tp17
F78.38077851952316
s(g11
S'bayanus'
p18
tp19
F98.41576058773539
s(g6
g11
tp20
F471.4294563543393
s(g6
S'castellii'
p21
tp22
F837.0730434015937
s(g8
S'paradoxus'
p23
tp24
F42.48994676225446
s(g14
S'mikatae'
p25
tp26
F85.46641822044666
s(g12
g14
tp27
F45.78817984797208
s(g5
S'kluyveri'
p28
tp29
F0.0
ssS'newicktree'
p30
S'../PairsAlignemt/YeastTree.newick'
p31
sS'll'
p32
cnumpy.core.multiarray
scalar
p33
(cnumpy
dtype
p34
(S'f8'
p35
I0
I1
tp36
Rp37
(I3
S'<'
p38
NNNI-1
I-1
I0
tp39
bS'\x99s\xf1\xc5}\xa0\xd2\xc0'
p40
tp41
Rp42
sS'clock'
p43
I00
sS'edge_to_blen'
p44
(dp45
g20
g33
(g37
S'\xc3\xba`R\x82\xa1\xf3?'
p46
tp47
Rp48
sg10
g33
(g37
S'\xf6\xd0\x15\x90\x14\xc9\xc6?'
p49
tp50
Rp51
sg13
g33
(g37
S'ZbU\x81\x86\x7f\xb0?'
p52
tp53
Rp54
sg15
g33
(g37
S'@\x8b\xe1\xc0\x0b\x16\xbb?'
p55
tp56
Rp57
sg17
g33
(g37
S'\x90\xbe\xc6\x95\xe4h\xcf?'
p58
tp59
Rp60
sg19
g33
(g37
S'\xcet\xc2\x92\x98\x16\xcf?'
p61
tp62
Rp63
sg7
g33
(g37
S'\xb82\xf5\xa1?\x91\xd4?'
p64
tp65
Rp66
sg22
g33
(g37
S'\x15g;\x9a\xad\x02\x03@'
p67
tp68
Rp69
sg24
g33
(g37
S'\x19x\xfak\xd1\xce\xba?'
p70
tp71
Rp72
sg26
g33
(g37
S'\x9e\x84q\xc3\xeb\xce\xcd?'
p73
tp74
Rp75
sg27
g33
(g37
S'Vr\x1c\xcd\xe1X\xc0?'
p76
tp77
Rp78
sg29
g33
(g37
S'\xe3\x00\xdfH\xa2\xc6\xf4?'
p79
tp80
Rp81
ssS'paralog'
p82
(lp83
S'YNL049C'
p84
aS'YIL109C'
p85
asS'alignment_file'
p86
S'../PairsAlignemt/YNL049C_YIL109C/YNL049C_YIL109C_input.fasta'
p87
sS'x_clock'
p88
(lp89
F-0.702905758209313
aF-0.4895840452616257
aF-0.8657106772184939
aF0.1823215567939546
aF-0.10536051565782628
aF0.3364722366212129
aF-0.10536051565782628
aF-0.10536051565782628
aF-0.10536051565782628
aF-0.10536051565782628
aF-0.10536051565782628
aF-0.10536051565782628
aF-0.10536051565782628
asS'x'
p90
(lp91
F-0.7087584747903521
aF-0.4532981139625167
aF-0.9962384431662251
aF1.0761138069321383
aF-2.5959066281168917
aF1.19617746
aF0.20451586843713307
aF-1.7259072111993
aF-2.7419294252421147
aF-2.2461561414668285
aF-1.4049122938845406
aF-1.4151998283626148
aF-1.1351768935536486
aF0.8655478892998811
aF-2.2564814575676535
aF-1.45724389009649
aF-2.0579739132092403
aF0.26120560151928124
asS'Model'
p92
S'MG94'
p93
s.