(dp0
S'Force'
p1
(dp2
I4
F0.0
ssS'ExpectedGeneconv'
p3
(dp4
(S'N1'
p5
S'N2'
p6
tp7
F58.555187453417595
s(S'N5'
p8
S'cerevisiae'
p9
tp10
F46.43413801431399
s(g6
S'N3'
p11
tp12
F14.288982871682677
s(S'N4'
p13
g8
tp14
F20.317530482047527
s(g5
S'castellii'
p15
tp16
F98.14709193247064
s(g6
S'bayanus'
p17
tp18
F30.94976753609495
s(S'N0'
p19
g5
tp20
F1.317989057544056
s(g11
S'kudriavzevii'
p21
tp22
F38.86080421049373
s(g8
S'paradoxus'
p23
tp24
F16.05490839074908
s(g19
S'kluyveri'
p25
tp26
F0.0
s(g11
g13
tp27
F15.779722151859504
s(g13
S'mikatae'
p28
tp29
F49.8872060670504
ssS'newicktree'
p30
S'/Users/xji3/Genconv/PairsAlignemt/YeastTree.newick'
p31
sS'll'
p32
cnumpy.core.multiarray
scalar
p33
(cnumpy
dtype
p34
(S'f8'
p35
I0
I1
tp36
Rp37
(I3
S'<'
p38
NNNI-1
I-1
I0
tp39
bS'\xd4\x05|\xbc\xc5\xd8\xbf\xc0'
p40
tp41
Rp42
sS'clock'
p43
I00
sS'edge_to_blen'
p44
(dp45
g20
g33
(g37
S'\x0e\x8e\x9d\xbd\xf9\x85\x9f?'
p46
tp47
Rp48
sg10
g33
(g37
S'\xa1\xa6b:O \xaa?'
p49
tp50
Rp51
sg12
g33
(g37
S'\x19\x83\x1f]\xc2\x9a\xa2?'
p52
tp53
Rp54
sg14
g33
(g37
S'\xe0W\xec\x1c,[\x9c?'
p55
tp56
Rp57
sg16
g33
(g37
S'\xadO\x98\x8b\xaa\xc5\xd0?'
p58
tp59
Rp60
sg18
g33
(g37
S'Q\xc7\xc7\x1b\x91w\xa9?'
p61
tp62
Rp63
sg7
g33
(g37
S'\x86\xab(/\x16\xd2\xca?'
p64
tp65
Rp66
sg22
g33
(g37
S'\x00\\\x90t\xcaB\xad?'
p67
tp68
Rp69
sg24
g33
(g37
S'-\x19\x12?\xc2\x83\x95?'
p70
tp71
Rp72
sg26
g33
(g37
S'>\xc7\xcd%\xf6\xd0\xd1?'
p73
tp74
Rp75
sg27
g33
(g37
S'\xea\xceO\x17\xb53\x96?'
p76
tp77
Rp78
sg29
g33
(g37
S'\xd7q\xf7\xd2m(\xb0?'
p79
tp80
Rp81
ssS'paralog'
p82
(lp83
S'YPL087W'
p84
aS'YBR183W'
p85
asS'alignment_file'
p86
S'/Users/xji3/Genconv/PairsAlignemt/YPL087W_YBR183W/YPL087W_YBR183W_input.fasta'
p87
sS'x_clock'
p88
(lp89
F-0.7539807000603485
aF-0.5820495818178641
aF-1.0366505884288024
aF1.2434826901627354
aF-0.654471194669594
aF-1.1663247349279662
aF0.0
aF-0.1887550843509017
aF-1.2946163556871857
aF-0.17129372935981232
aF-0.1955356944917165
aF-0.5458739757303481
asS'x'
p90
(lp91
F-0.7493109701618481
aF-0.57572289835047
aF-1.0403614066052493
aF1.2186632548950653
aF-0.654471194669594
aF-3.480743518614885
aF-2.975385641207972
aF-3.3149196193459343
aF-3.5866281547740573
aF-1.339164290533558
aF-3.000938853899733
aF-1.5628581132716741
aF-2.862072412316753
aF-3.8627361865993834
aF-1.2787717891502997
aF-3.8312902423140027
aF-2.762766754662207
asS'Model'
p92
S'HKY'
p93
s.