(dp0
S'Force'
p1
(dp2
I5
F0.0
ssS'ExpectedGeneconv'
p3
(dp4
(S'N0'
p5
S'N1'
p6
tp7
F4.393187816778034e-11
s(S'N5'
p8
S'cerevisiae'
p9
tp10
F6.135012593596092
s(S'N2'
p11
S'N3'
p12
tp13
F2.0975216436160813
s(S'N4'
p14
g8
tp15
F0.33577344013956
s(g6
S'castellii'
p16
tp17
F6.331721602032158
s(g11
S'bayanus'
p18
tp19
F5.495036274900964
s(g6
g11
tp20
F10.545311961465346
s(g12
S'kudriavzevii'
p21
tp22
F8.2081507514205
s(g8
S'paradoxus'
p23
tp24
F5.393843840819128
s(g5
S'kluyveri'
p25
tp26
F0.0
s(g12
g14
tp27
F1.0995205220220594
s(g14
S'mikatae'
p28
tp29
F7.596503941150295
ssS'newicktree'
p30
S'../PairsAlignemt/YeastTree.newick'
p31
sS'll'
p32
cnumpy.core.multiarray
scalar
p33
(cnumpy
dtype
p34
(S'f8'
p35
I0
I1
tp36
Rp37
(I3
S'<'
p38
NNNI-1
I-1
I0
tp39
bS'\xd8\x1a\x83\xde\xea{\x93\xc0'
p40
tp41
Rp42
sS'clock'
p43
I00
sS'edge_to_blen'
p44
(dp45
g20
g33
(g37
S'\xe4\xe2g\xba\xf0\\\xa7?'
p46
tp47
Rp48
sg10
g33
(g37
S'\x00\x98\xecb.\xd8\x92?'
p49
tp50
Rp51
sg13
g33
(g37
S'8\xbc\xd0\xf3\xe8\xbc\x8e?'
p52
tp53
Rp54
sg15
g33
(g37
S'I\xbc\x84\x1fs\x16e?'
p55
tp56
Rp57
sg17
g33
(g37
S'GK\xa5g\x1a\xa8\xa7?'
p58
tp59
Rp60
sg19
g33
(g37
S'\xff\xdd~\xec\xda@\x93?'
p61
tp62
Rp63
sg7
g33
(g37
S'\x81\x9bg\xe5~o\x84>'
p64
tp65
Rp66
sg22
g33
(g37
S'E:\xe2K\xdc\xd8\xa4?'
p67
tp68
Rp69
sg24
g33
(g37
S'\xf0 \xbf\x0c/\xd1\x8e?'
p70
tp71
Rp72
sg26
g33
(g37
S'\x87\x1ak\x0b\xc9\xb8\xa0?'
p73
tp74
Rp75
sg27
g33
(g37
S')\x02<xX<o?'
p76
tp77
Rp78
sg29
g33
(g37
S'\xe3zP\x9e\xc3\x1e\x9f?'
p79
tp80
Rp81
ssS'paralog'
p82
(lp83
S'YMR143W'
p84
aS'YDL083C'
p85
asS'alignment_file'
p86
S'../PairsAlignemt/YMR143W_YDL083C/YMR143W_YDL083C_input.fasta'
p87
sS'x_clock'
p88
(lp89
F-0.6655930689973748
aF-0.5569202432443039
aF-0.8939053689133549
aF0.1823215567939546
aF-0.10536051565782628
aF0.3364722366212129
aF-0.10536051565782628
aF-0.10536051565782628
aF-0.10536051565782628
aF-0.10536051565782628
aF-0.10536051565782628
aF-0.10536051565782628
aF-0.10536051565782628
asS'x'
p90
(lp91
F-0.7395246823832734
aF-0.4704169118434956
aF-0.9798179666321918
aF2.296019194016811
aF-3.855734710133161
aF1.19617746
aF-3.0871689867214016
aF-3.995252950817832
aF-4.199121603225809
aF-5.96222369307656
aF-3.074680242841479
aF-3.9737872268168726
aF-15.69769882102693
aF-3.201109225643233
aF-4.196548471041549
aF-3.421610309345135
aF-5.569350877383727
aF-3.4936155664543733
asS'Model'
p92
S'MG94'
p93
s.