(dp0
S'Force'
p1
(dp2
I5
F0.0
ssS'ExpectedGeneconv'
p3
(dp4
(S'N0'
p5
S'N1'
p6
tp7
F1.0997993149264234e-13
s(S'N5'
p8
S'cerevisiae'
p9
tp10
F4.871063909206864
s(S'N2'
p11
S'N3'
p12
tp13
F1.4583134937203337
s(S'N4'
p14
g8
tp15
F5.557617685386498
s(g12
S'kudriavzevii'
p16
tp17
F15.743696430772292
s(g11
S'bayanus'
p18
tp19
F7.208463196449324
s(g6
g11
tp20
F9.022725120117931
s(g6
S'castellii'
p21
tp22
F18.65052925062575
s(g8
S'paradoxus'
p23
tp24
F2.2433486406532754
s(g14
S'mikatae'
p25
tp26
F9.651324339932977
s(g12
g14
tp27
F3.5936295673753045
s(g5
S'kluyveri'
p28
tp29
F0.0
ssS'newicktree'
p30
S'../PairsAlignemt/YeastTree.newick'
p31
sS'll'
p32
cnumpy.core.multiarray
scalar
p33
(cnumpy
dtype
p34
(S'f8'
p35
I0
I1
tp36
Rp37
(I3
S'<'
p38
NNNI-1
I-1
I0
tp39
bS'\xa0$\xf2\x0c73\xa1\xc0'
p40
tp41
Rp42
sS'clock'
p43
I00
sS'edge_to_blen'
p44
(dp45
g20
g33
(g37
S'\x8fk\x1b\x91\xe2\x91\xa5?'
p46
tp47
Rp48
sg10
g33
(g37
S'\xfcO\x1f\xb3\xcd\xe0\x9b?'
p49
tp50
Rp51
sg13
g33
(g37
S'\xdb\x1a\xeb\t\\\x04t?'
p52
tp53
Rp54
sg15
g33
(g37
S'r>)\xa6\xe8\xe9\x91?'
p55
tp56
Rp57
sg17
g33
(g37
S'+\x1d\x1b\x9c\x16`\xa7?'
p58
tp59
Rp60
sg19
g33
(g37
S'1\xbfk\x0e\xd3X\x96?'
p61
tp62
Rp63
sg7
g33
(g37
S'yXv\xe1pGF>'
p64
tp65
Rp66
sg22
g33
(g37
S'\xe9\xa6<\x81\xc6\xa8\xb4?'
p67
tp68
Rp69
sg24
g33
(g37
S'\x94\x98n\x96\xa7y\x83?'
p70
tp71
Rp72
sg26
g33
(g37
S'\xb1\xd2X\xbd\x9ey\xa6?'
p73
tp74
Rp75
sg27
g33
(g37
S'\xaf\xdd\x02\x06\x88\x02\x88?'
p76
tp77
Rp78
sg29
g33
(g37
S'\x1f|\xce=\xb1/\xb9?'
p79
tp80
Rp81
ssS'paralog'
p82
(lp83
S'YMR142C'
p84
aS'YDL082W'
p85
asS'alignment_file'
p86
S'../PairsAlignemt/YMR142C_YDL082W/YMR142C_YDL082W_input.fasta'
p87
sS'x_clock'
p88
(lp89
F-0.5889528457923014
aF-0.5253214701507958
aF-0.7368586136503616
aF0.1823215567939546
aF-0.10536051565782628
aF0.3364722366212129
aF-0.10536051565782628
aF-0.10536051565782628
aF-0.10536051565782628
aF-0.10536051565782628
aF-0.10536051565782628
aF-0.10536051565782628
aF-0.10536051565782628
asS'x'
p90
(lp91
F-0.7055450801701723
aF-0.45876578071981694
aF-0.8243693889792717
aF1.8233947849598193
aF-1.8829160260899702
aF1.19617746
aF-3.1670274982057474
aF-3.6036289820404295
aF-5.321182785471524
aF-4.045905676650223
aF-3.0866427907010787
aF-3.8247810434347715
aF-18.383915096419322
aF-2.5170128824931974
aF-4.655476435067503
aF-3.125917555271651
aF-4.446153238427416
aF-2.318877318481725
asS'Model'
p92
S'MG94'
p93
s.