(dp0
S'Force'
p1
NsS'ExpectedGeneconv'
p2
(dp3
(S'N0'
p4
S'N1'
p5
tp6
F1.6491871422547641
s(S'N5'
p7
S'cerevisiae'
p8
tp9
F27.94658424840364
s(S'N2'
p10
S'N3'
p11
tp12
F10.68509219977082
s(S'N4'
p13
g7
tp14
F16.66980769483844
s(g5
S'castellii'
p15
tp16
F124.84861401381886
s(g10
S'bayanus'
p17
tp18
F58.118903406419875
s(g5
g10
tp19
F52.13491136850424
s(g11
S'kudriavzevii'
p20
tp21
F42.08713577769406
s(g7
S'paradoxus'
p22
tp23
F19.18242198683352
s(g13
S'mikatae'
p24
tp25
F39.37771552758521
s(g11
g13
tp26
F14.500836773831669
s(g4
S'kluyveri'
p27
tp28
F0.0
ssS'newicktree'
p29
S'../PairsAlignemt/YeastTree.newick'
p30
sS'll'
p31
cnumpy.core.multiarray
scalar
p32
(cnumpy
dtype
p33
(S'f8'
p34
I0
I1
tp35
Rp36
(I3
S'<'
p37
NNNI-1
I-1
I0
tp38
bS'|/\xc3\xbfM\xca\xb6\xc0'
p39
tp40
Rp41
sS'clock'
p42
I01
sS'edge_to_blen'
p43
(dp44
g19
g32
(g36
S"\x88\x17'\x85\xe4\xe8\xd3?"
p45
tp46
Rp47
sg9
g32
(g36
S'\xc1\xbd#\xef\x1f\x12\xb6?'
p48
tp49
Rp50
sg12
g32
(g36
S'R\xe2\xde(\xa9\x06\xa8?'
p51
tp52
Rp53
sg14
g32
(g36
S'\xef(1\xb0\x0b6\xb2?'
p54
tp55
Rp56
sg16
g32
(g36
S'R\xf0)\xb5\xc9P\xe2?'
p57
tp58
Rp59
sg18
g32
(g36
S'\x1c\xc9,\xe5\xae\xb8\xd0?'
p60
tp61
Rp62
sg6
g32
(g36
S'\xfa\x15d\xb4tR\xa9?'
p63
tp64
Rp65
sg21
g32
(g36
S'\xa4\xd9!\x80\xb3o\xcb?'
p66
tp67
Rp68
sg23
g32
(g36
S'\xc1\xbd#\xef\x1f\x12\xb6?'
p69
tp70
Rp71
sg25
g32
(g36
S'Ws\xaa\xcf\x15$\xc4?'
p72
tp73
Rp74
sg26
g32
(g36
S'1\x99\xdd\xc1v.\xad?'
p75
tp76
Rp77
sg28
g32
(g36
S'\xb21p\x00\xf1\xe5\xe3?'
p78
tp79
Rp80
ssS'paralog'
p81
(lp82
S'YHR106W'
p83
aS'YDR353W'
p84
asS'alignment_file'
p85
S'../PairsAlignemt/YHR106W_YDR353W/YHR106W_YDR353W_input.fasta'
p86
sS'x_clock'
p87
(lp88
F-0.6913436311093683
aF-0.555116126657619
aF-0.8655893033375174
aF1.3017927095063584
aF-2.837095704288409
aF-1.4735993961571823
aF-0.47510619299619267
aF0.0
aF-0.08287776535040152
aF-0.7842086711242483
aF-0.19796948809859544
aF-0.30911270247371897
aF-0.6016471666597485
asS'x'
p89
(lp90
F-0.6913436311093683
aF-0.555116126657619
aF-0.8655893033375174
aF1.3017927095063584
aF-2.837095704288409
aF-1.4735993961571823
aF-1.1676741778055177
aF-2.4509219867029053
aF-3.0591872706062055
aF-2.6431452759263863
aF-0.5579839583465942
aF-1.3421926294708424
aF-3.006647358523921
aF-1.5401621175694378
aF-2.4509219867029053
aF-1.8492748200431568
aF-2.8647896921618257
aF-0.4751061929961926
asS'Model'
p91
S'MG94'
p92
s.