(dp0
S'Force'
p1
(dp2
I5
F0.0
ssS'ExpectedGeneconv'
p3
(dp4
(S'N0'
p5
S'N1'
p6
tp7
F0.04291344255413238
s(S'N5'
p8
S'cerevisiae'
p9
tp10
F3.2760885409293454
s(S'N2'
p11
S'N3'
p12
tp13
F0.5853227091409837
s(S'N4'
p14
g8
tp15
F0.3435212832993643
s(g6
S'castellii'
p16
tp17
F6.524371934474085
s(g11
S'bayanus'
p18
tp19
F2.0860770244959927
s(g6
g11
tp20
F5.059469597994722
s(g12
S'kudriavzevii'
p21
tp22
F1.662606123541391
s(g8
S'paradoxus'
p23
tp24
F2.558466415220815
s(g5
S'kluyveri'
p25
tp26
F0.0
s(g12
g14
tp27
F0.6131654181395895
s(g14
S'mikatae'
p28
tp29
F8.863247836261646
ssS'newicktree'
p30
S'../PairsAlignemt/YeastTree.newick'
p31
sS'll'
p32
cnumpy.core.multiarray
scalar
p33
(cnumpy
dtype
p34
(S'f8'
p35
I0
I1
tp36
Rp37
(I3
S'<'
p38
NNNI-1
I-1
I0
tp39
bS'\x00[\xe67\x0b\xe9\x92\xc0'
p40
tp41
Rp42
sS'clock'
p43
I00
sS'edge_to_blen'
p44
(dp45
g20
g33
(g37
S'\x8b\xb5\xb4\x16H\xf9\xa7?'
p46
tp47
Rp48
sg10
g33
(g37
S'\x90\x87.\xa3\xbe\x99\x9f?'
p49
tp50
Rp51
sg13
g33
(g37
S'\xc4\xcc\x01\xc7\x00\x7f\x90?'
p52
tp53
Rp54
sg15
g33
(g37
S'\x12\x98\x8b\x7fY\ri?'
p55
tp56
Rp57
sg17
g33
(g37
S'&\xbc\xc5\x8d\xf6k\xb2?'
p58
tp59
Rp60
sg19
g33
(g37
S'\r+b{\xf2\xde\xa5?'
p61
tp62
Rp63
sg7
g33
(g37
S'\x881\xb4P\xe3\xa8\x84?'
p64
tp65
Rp66
sg22
g33
(g37
S'3s\xedE\x16\x07\xa7?'
p67
tp68
Rp69
sg24
g33
(g37
S'd^@\x1ajk\x97?'
p70
tp71
Rp72
sg26
g33
(g37
S'\x18\xbf\xe1\xb6b1\xc4?'
p73
tp74
Rp75
sg27
g33
(g37
S'\xdb\xc85\xda\xf8\xb3\x86?'
p76
tp77
Rp78
sg29
g33
(g37
S'\xd1\xe2\x10\x90&\xf4\xae?'
p79
tp80
Rp81
ssS'paralog'
p82
(lp83
S'YLR406C'
p84
aS'YDL075W'
p85
asS'alignment_file'
p86
S'../PairsAlignemt/YLR406C_YDL075W/YLR406C_YDL075W_input.fasta'
p87
sS'x_clock'
p88
(lp89
F-0.5713131624743949
aF-0.5570077013933508
aF-0.8292141849539082
aF0.1823215567939546
aF-0.10536051565782628
aF0.3364722366212129
aF-0.10536051565782628
aF-0.10536051565782628
aF-0.10536051565782628
aF-0.10536051565782628
aF-0.10536051565782628
aF-0.10536051565782628
aF-0.10536051565782628
asS'x'
p90
(lp91
F-0.6508052741926943
aF-0.481108459659787
aF-0.9453040134099568
aF1.7323881190035968
aF-2.576159253206377
aF1.19617746
aF-3.0613648831468985
aF-3.478296800789533
aF-4.12834747608156
aF-5.789953819448008
aF-2.6316464515955817
aF-3.153168211330504
aF-4.596433145240108
aF-3.1016274976218106
aF-3.777899050217244
aF-1.846698586826079
aF-4.502121209879489
aF-2.805831651814166
asS'Model'
p92
S'MG94'
p93
s.