(dp0
S'Force'
p1
(dp2
I5
F0.0
ssS'ExpectedGeneconv'
p3
(dp4
(S'N0'
p5
S'N1'
p6
tp7
F0.004248253701107734
s(S'N5'
p8
S'cerevisiae'
p9
tp10
F7.404692591267845
s(S'N2'
p11
S'N3'
p12
tp13
F2.1482679606503474
s(S'N4'
p14
g8
tp15
F1.006730558630691
s(g12
S'kudriavzevii'
p16
tp17
F5.476455359062654
s(g11
S'bayanus'
p18
tp19
F10.860242105882314
s(g6
g11
tp20
F6.068017644156053
s(g6
S'castellii'
p21
tp22
F14.520844918188807
s(g8
S'paradoxus'
p23
tp24
F2.8729183840007915
s(g14
S'mikatae'
p25
tp26
F3.7744373039932553
s(g12
g14
tp27
F1.047969489170878
s(g5
S'kluyveri'
p28
tp29
F0.0
ssS'newicktree'
p30
S'../PairsAlignemt/YeastTree.newick'
p31
sS'll'
p32
cnumpy.core.multiarray
scalar
p33
(cnumpy
dtype
p34
(S'f8'
p35
I0
I1
tp36
Rp37
(I3
S'<'
p38
NNNI-1
I-1
I0
tp39
bS'\x1c=\xaf\x95\x7f\x80\x96\xc0'
p40
tp41
Rp42
sS'clock'
p43
I01
sS'edge_to_blen'
p44
(dp45
g20
g33
(g37
S'\x9a\x1cI\xd8X`\xa9?'
p46
tp47
Rp48
sg10
g33
(g37
S',\x9e\x95\xec\xeb\x98\x9e?'
p49
tp50
Rp51
sg13
g33
(g37
S'\x8f\xae\x90r\xcf\xd3\x8a?'
p52
tp53
Rp54
sg15
g33
(g37
S'!\x16\xbf^(\xb3|?'
p55
tp56
Rp57
sg17
g33
(g37
S'f\x99\x9d\x1e\x18!\xa7?'
p58
tp59
Rp60
sg19
g33
(g37
S'\n\xc5A\xfb\x0b\xd6\xad?'
p61
tp62
Rp63
sg7
g33
(g37
S'\xd7?\x90\xc6\x8f\xead?'
p64
tp65
Rp66
sg22
g33
(g37
S'\xd1p\xc5i2\x9b\xbb?'
p67
tp68
Rp69
sg24
g33
(g37
S',\x9e\x95\xec\xeb\x98\x9e?'
p70
tp71
Rp72
sg26
g33
(g37
S'\xda\xb1"\x02\xdb\xe2\xa2?'
p73
tp74
Rp75
sg27
g33
(g37
S'-\x9e\xebq\xf4\xf8\x80?'
p76
tp77
Rp78
sg29
g33
(g37
S'=I)i\xfd,\xc1?'
p79
tp80
Rp81
ssS'paralog'
p82
(lp83
S'YBL087C'
p84
aS'YER117W'
p85
asS'alignment_file'
p86
S'../PairsAlignemt/YBL087C_YER117W/YBL087C_YER117W_input.fasta'
p87
sS'x_clock'
p88
(lp89
F-0.710947199498792
aF-0.6088285443519313
aF-1.0256625516314115
aF1.8397928415921556
aF-2.5611954233312098
aF1.23836258
aF-2.1013779817825564
aF-0.1023566500440012
aF-0.0234010511951381
aF-0.6154691911284045
aF-0.25462065059133776
aF-0.20267002330672956
aF-0.21066285636416202
asS'x'
p90
(lp91
F-0.710947199498792
aF-0.6088285443519313
aF-1.0256625516314115
aF1.8397928415921556
aF-2.5611954233312098
aF1.23836258
aF-3.0045067638804586
aF-3.5105584044123295
aF-4.3351958237559955
aF-4.960874801848746
aF-3.0972255247414378
aF-2.8426048741501
aF-5.970386675236707
aF-2.2271356830216957
aF-3.5105584044123295
aF-3.2998955480481675
aF-4.7930257811897246
aF-2.008532239452151
asS'Model'
p92
S'MG94'
p93
s.