(dp0
S'Force'
p1
(dp2
I5
F0.0
ssS'ExpectedGeneconv'
p3
(dp4
(S'N0'
p5
S'N1'
p6
tp7
F0.23501788003305232
s(S'N5'
p8
S'cerevisiae'
p9
tp10
F4.731301297881976
s(S'N2'
p11
S'N3'
p12
tp13
F4.978398782999867
s(S'N4'
p14
g8
tp15
F7.2174874924347
s(g12
S'kudriavzevii'
p16
tp17
F5.91902053302411
s(g11
S'bayanus'
p18
tp19
F17.58175035744464
s(g6
g11
tp20
F9.49755606635572
s(g6
S'castellii'
p21
tp22
F22.040290344803186
s(g8
S'paradoxus'
p23
tp24
F5.821906131591103
s(g14
S'mikatae'
p25
tp26
F6.074041695112497
s(g12
g14
tp27
F5.466506208420934
s(g5
S'kluyveri'
p28
tp29
F0.0
ssS'newicktree'
p30
S'../PairsAlignemt/YeastTree.newick'
p31
sS'll'
p32
cnumpy.core.multiarray
scalar
p33
(cnumpy
dtype
p34
(S'f8'
p35
I0
I1
tp36
Rp37
(I3
S'<'
p38
NNNI-1
I-1
I0
tp39
bS'!!\xdb\xfePd\xa1\xc0'
p40
tp41
Rp42
sS'clock'
p43
I01
sS'edge_to_blen'
p44
(dp45
g20
g33
(g37
S'\xba\x99{*\xb6;\xa7?'
p46
tp47
Rp48
sg10
g33
(g37
S'\x9e8\xc1\x9dN\xaa\x97?'
p49
tp50
Rp51
sg13
g33
(g37
S':.)\x1d\xe1\x8e\x89?'
p52
tp53
Rp54
sg15
g33
(g37
S'\x8b\xcb\n\xdc\x96\xc3\x81?'
p55
tp56
Rp57
sg17
g33
(g37
S'\x0b"^\xce\xaf\x8b\xa5?'
p58
tp59
Rp60
sg19
g33
(g37
S'\x9am\xa8\x15h\xef\xab?'
p61
tp62
Rp63
sg7
g33
(g37
S'^LF\x01e\x84\x90?'
p64
tp65
Rp66
sg22
g33
(g37
S'\xab\x03\x12 \x8f\x95\xb9?'
p67
tp68
Rp69
sg24
g33
(g37
S'\x9e8\xc1\x9dN\xaa\x97?'
p70
tp71
Rp72
sg26
g33
(g37
S'2O\xe3\x05\rF\xa0?'
p73
tp74
Rp75
sg27
g33
(g37
S'fK\xeb!\x8b\x16\x85?'
p76
tp77
Rp78
sg29
g33
(g37
S'\x8e\xd9\xff\xfb\x9f\xb0\xc2?'
p79
tp80
Rp81
ssS'paralog'
p82
(lp83
S'YER102W'
p84
aS'YBL072C'
p85
asS'alignment_file'
p86
S'../PairsAlignemt/YER102W_YBL072C/YER102W_YBL072C_input.fasta'
p87
sS'x_clock'
p88
(lp89
F-0.7288858765425499
aF-0.514585558401416
aF-0.9172392277157477
aF1.820531718613716
aF-2.374273132614104
aF1.23836258
aF-2.032239109650547
aF-0.1213366206200711
aF-0.14962614788149367
aF-0.6052358504848684
aF-0.25971289425027416
aF-0.28062761386945656
aF-0.3186853306054852
asS'x'
p90
(lp91
F-0.7288858765425499
aF-0.514585558401416
aF-0.9172392277157477
aF1.820531718613716
aF-2.374273132614104
aF1.23836258
aF-3.092740252399082
aF-3.767463567362196
aF-4.383663815308107
aF-4.747443884358758
aF-3.1681506228872545
aF-2.9084377286369802
aF-4.127071588923656
aF-2.3032018781521115
aF-3.767463567362196
aF-3.448778236756711
aF-4.575911959225399
aF-1.924044790247552
asS'Model'
p92
S'MG94'
p93
s.