(dp0
S'Force'
p1
(dp2
I5
F0.0
ssS'ExpectedGeneconv'
p3
(dp4
(S'N0'
p5
S'N1'
p6
tp7
F0.0024869059700479926
s(S'N5'
p8
S'cerevisiae'
p9
tp10
F7.624469210029525
s(S'N2'
p11
S'N3'
p12
tp13
F2.1991084638286007
s(S'N4'
p14
g8
tp15
F0.9633126772054894
s(g6
S'castellii'
p16
tp17
F7.0966635539591945
s(g11
S'bayanus'
p18
tp19
F2.0154748281626067
s(g6
g11
tp20
F4.77015122697897
s(g12
S'kudriavzevii'
p21
tp22
F2.756289773543954
s(g8
S'paradoxus'
p23
tp24
F2.3697316184839825
s(g5
S'kluyveri'
p25
tp26
F0.0
s(g12
g14
tp27
F2.969518415129851
s(g14
S'mikatae'
p28
tp29
F7.637296700251316
ssS'newicktree'
p30
S'../PairsAlignemt/YeastTree.newick'
p31
sS'll'
p32
cnumpy.core.multiarray
scalar
p33
(cnumpy
dtype
p34
(S'f8'
p35
I0
I1
tp36
Rp37
(I3
S'<'
p38
NNNI-1
I-1
I0
tp39
bS'lo\x08EQ?\x93\xc0'
p40
tp41
Rp42
sS'clock'
p43
I00
sS'edge_to_blen'
p44
(dp45
g20
g33
(g37
S'(\x15\x83Q\xdfo\xad?'
p46
tp47
Rp48
sg10
g33
(g37
S' \xa5\x81\xa2Ag\x9d?'
p49
tp50
Rp51
sg13
g33
(g37
S'\x9d\xbc@\x92\xc6\x14\x96?'
p52
tp53
Rp54
sg15
g33
(g37
S'\xad\xb1\xce{\x16az?'
p55
tp56
Rp57
sg17
g33
(g37
S'\x9d\x88\xb2I\xc5\xad\xb8?'
p58
tp59
Rp60
sg19
g33
(g37
S'\x8c\xe8j\xbd\x1f\t\x9e?'
p61
tp62
Rp63
sg7
g33
(g37
S'\xa0CR\x81o\x13^?'
p64
tp65
Rp66
sg22
g33
(g37
S'\xf8\x88\xd7\xb4\xd5\x1b\x9a?'
p67
tp68
Rp69
sg24
g33
(g37
S'k5\xbc\x8btR\x9b?'
p70
tp71
Rp72
sg26
g33
(g37
S'\x1a\xb0=nw!\xb4?'
p73
tp74
Rp75
sg27
g33
(g37
S'\xb5>g\x8f\x98\xbb\x92?'
p76
tp77
Rp78
sg29
g33
(g37
S'z\xc8\x19*\xdcg\xa3?'
p79
tp80
Rp81
ssS'paralog'
p82
(lp83
S'YER131W'
p84
aS'YGL189C'
p85
asS'alignment_file'
p86
S'../PairsAlignemt/YER131W_YGL189C/YER131W_YGL189C_input.fasta'
p87
sS'x_clock'
p88
(lp89
F-0.587528133359831
aF-0.507857305138181
aF-0.6873444563473778
aF0.1823215567939546
aF-0.10536051565782628
aF0.3364722366212129
aF-0.10536051565782628
aF-0.10536051565782628
aF-0.10536051565782628
aF-0.10536051565782628
aF-0.10536051565782628
aF-0.10536051565782628
aF-0.10536051565782628
asS'x'
p90
(lp91
F-0.6839998721716103
aF-0.4388408581761798
aF-0.720529810823265
aF1.9591983535208841
aF-3.041005365209001
aF1.19617746
aF-2.856072193756009
aF-3.5503633534615364
aF-3.836747277696918
aF-5.045188476133191
aF-2.3392332083852674
aF-3.529087110318812
aF-6.300335670146009
aF-3.669202077802819
aF-3.6237762420391215
aF-2.5429300099154846
aF-4.001195987238804
aF-3.272757623153388
asS'Model'
p92
S'MG94'
p93
s.