(dp0
S'Force'
p1
(dp2
I4
F0.0
ssS'ExpectedGeneconv'
p3
(dp4
(S'N1'
p5
S'N2'
p6
tp7
F6.8643750943644015
s(S'N5'
p8
S'cerevisiae'
p9
tp10
F4.915194756057186
s(g6
S'N3'
p11
tp12
F3.1893165865154627
s(S'N4'
p13
g8
tp14
F2.384471866732794
s(g5
S'castellii'
p15
tp16
F18.454614166651993
s(g6
S'bayanus'
p17
tp18
F13.096240523527648
s(S'N0'
p19
g5
tp20
F0.11207768208097929
s(g11
S'kudriavzevii'
p21
tp22
F7.624610182742323
s(g8
S'paradoxus'
p23
tp24
F1.1748545007817321
s(g13
S'mikatae'
p25
tp26
F4.659193843166032
s(g11
g13
tp27
F1.3092413541726944
s(g19
S'kluyveri'
p28
tp29
F0.0
ssS'newicktree'
p30
S'/Users/xji3/Genconv/PairsAlignemt/YeastTree.newick'
p31
sS'll'
p32
cnumpy.core.multiarray
scalar
p33
(cnumpy
dtype
p34
(S'f8'
p35
I0
I1
tp36
Rp37
(I3
S'<'
p38
NNNI-1
I-1
I0
tp39
bS'",\xc0\xea\x08\x17\xa4\xc0'
p40
tp41
Rp42
sS'clock'
p43
I01
sS'edge_to_blen'
p44
(dp45
g20
g33
(g37
S'\xf0\x1c\x17\xbc+{w?'
p46
tp47
Rp48
sg10
g33
(g37
S'MJ\x16\xfcf\xf9v?'
p49
tp50
Rp51
sg12
g33
(g37
S'\xfeq\x1e\xae4\xc4o?'
p52
tp53
Rp54
sg14
g33
(g37
S'\x1du\t#\x97)u?'
p55
tp56
Rp57
sg16
g33
(g37
S'&H\x88L\xd6\x06\xa3?'
p58
tp59
Rp60
sg18
g33
(g37
S'\xfc\xcbK\x06[\x83\x90?'
p61
tp62
Rp63
sg7
g33
(g37
S'R\xc4\xc4\x92Q\x8a\x95?'
p64
tp65
Rp66
sg22
g33
(g37
S'{\xfb\x0f\xe1\xa8\x15\x89?'
p67
tp68
Rp69
sg24
g33
(g37
S'MJ\x16\xfcf\xf9v?'
p70
tp71
Rp72
sg26
g33
(g37
S'\xb5\xdf\x8f\x0f\x7f\x11\x86?'
p73
tp74
Rp75
sg27
g33
(g37
S'6\xde\x00\x8cN!X?'
p76
tp77
Rp78
sg29
g33
(g37
S'\xc5+\x0b\xc4;\xf6\xa5?'
p79
tp80
Rp81
ssS'paralog'
p82
(lp83
S'YNL069C'
p84
aS'YIL133C'
p85
asS'alignment_file'
p86
S'/Users/xji3/Genconv/PairsAlignemt/YNL069C_YIL133C/YNL069C_YIL133C_input.fasta'
p87
sS'x_clock'
p88
(lp89
F-0.7750060020472292
aF-0.5446253383537893
aF-0.85089534400017
aF1.927899540999981
aF2.2157616745987663
aF-3.149017792742867
aF0.0
aF-0.14346318526750532
aF-0.8348363575045032
aF-0.2750472140649711
aF-0.12811020581131866
aF-0.6529183596669229
asS'x'
p90
(lp91
F-0.7750060020472292
aF-0.5446253383537893
aF-0.85089534400017
aF1.927899540999981
aF2.2157616745987663
aF-5.161568787538828
aF-5.183393115058088
aF-5.552503312136002
aF-5.265537195256328
aF-3.2924809780103725
aF-4.127317335514876
aF-3.8615458716699655
aF-4.402364549579847
aF-5.183393115058088
aF-4.5304747553911655
aF-6.520600305882702
aF-3.149017792742867
asS'Model'
p92
S'HKY'
p93
s.