(dp0
S'Force'
p1
(dp2
I4
F0.0
ssS'ExpectedGeneconv'
p3
(dp4
(S'N1'
p5
S'N2'
p6
tp7
F68.96764106083324
s(S'N5'
p8
S'cerevisiae'
p9
tp10
F57.143536380547594
s(g6
S'N3'
p11
tp12
F29.713093668252583
s(S'N4'
p13
g8
tp14
F31.9159725357065
s(g5
S'castellii'
p15
tp16
F114.6118155708106
s(g6
S'bayanus'
p17
tp18
F72.34444303080431
s(S'N0'
p19
g5
tp20
F0.6487202704166545
s(g11
S'kudriavzevii'
p21
tp22
F77.87150282098477
s(g8
S'paradoxus'
p23
tp24
F46.48360107687831
s(g13
S'mikatae'
p25
tp26
F101.49011578092664
s(g11
g13
tp27
F30.506420682599046
s(g19
S'kluyveri'
p28
tp29
F0.0
ssS'newicktree'
p30
S'/Users/xji3/Genconv/PairsAlignemt/YeastTree.newick'
p31
sS'll'
p32
cnumpy.core.multiarray
scalar
p33
(cnumpy
dtype
p34
(S'f8'
p35
I0
I1
tp36
Rp37
(I3
S'<'
p38
NNNI-1
I-1
I0
tp39
bS'Hh\xf0\xd0;F\xcf\xc0'
p40
tp41
Rp42
sS'clock'
p43
I00
sS'edge_to_blen'
p44
(dp45
g20
g33
(g37
S'+\xd7Z\x17\x16\xc7\x8b?'
p46
tp47
Rp48
sg10
g33
(g37
S'\xa6\xcf\xb3\x17^\xf9\xa2?'
p49
tp50
Rp51
sg12
g33
(g37
S'\xf8\xbe\xd4\xf5f\xec\x9c?'
p52
tp53
Rp54
sg14
g33
(g37
S'\xef\x88\x81^(\xd1\x94?'
p55
tp56
Rp57
sg16
g33
(g37
S'&jl\x0b$\t\xc4?'
p58
tp59
Rp60
sg18
g33
(g37
S'\x9fR\x1b0\xeb_\xad?'
p61
tp62
Rp63
sg7
g33
(g37
S'3\r\x01\xc7\x17U\xbd?'
p64
tp65
Rp66
sg22
g33
(g37
S'\x82\x7fg\xc7L-\xab?'
p67
tp68
Rp69
sg24
g33
(g37
S'Q\x1c\x13\xcfc+\x9a?'
p70
tp71
Rp72
sg26
g33
(g37
S'\x8cSntCl\xac?'
p73
tp74
Rp75
sg27
g33
(g37
S'\xafmW\t\x1am\x96?'
p76
tp77
Rp78
sg29
g33
(g37
S'\x9b\x1f(\xdd\xa7c\xcd?'
p79
tp80
Rp81
ssS'paralog'
p82
(lp83
S'YPR159W'
p84
aS'YGR143W'
p85
asS'alignment_file'
p86
S'/Users/xji3/Genconv/PairsAlignemt/YPR159W_YGR143W/YPR159W_YGR143W_input.fasta'
p87
sS'x_clock'
p88
(lp89
F-0.7387086365990847
aF-0.5213382203157385
aF-0.7973646625513344
aF1.2821035045566407
aF0.38989127502066817
aF-1.5606132051144854
aF0.0
aF-0.29190645048982833
aF-0.9500809014369966
aF-0.19962057916631637
aF-0.277130069688905
aF-0.49298865200431025
asS'x'
p90
(lp91
F-0.7468096866932573
aF-0.5172395800446447
aF-0.8042823174482602
aF1.2732119067202037
aF0.38989127502066817
aF-4.3003861355644615
aF-3.2952501559228726
aF-3.5668192574146884
aF-3.895700776918292
aF-1.8545142697765036
aF-2.858191463431436
aF-2.166484939737217
aF-2.9359553343236997
aF-3.6668775117630914
aF-2.8911293162232155
aF-3.8212428445065063
aF-1.4714002768223706
asS'Model'
p92
S'HKY'
p93
s.