(dp0
S'Force'
p1
(dp2
I4
F0.0
ssS'ExpectedGeneconv'
p3
(dp4
(S'N0'
p5
S'N1'
p6
tp7
F0.33334238500366414
s(S'N5'
p8
S'cerevisiae'
p9
tp10
F14.425045719689942
s(S'N2'
p11
S'N3'
p12
tp13
F3.258351474626544
s(S'N4'
p14
g8
tp15
F6.145672226062546
s(g12
S'kudriavzevii'
p16
tp17
F19.511875150390964
s(g11
S'bayanus'
p18
tp19
F18.536168669231994
s(g6
g11
tp20
F13.076619255263505
s(g6
S'castellii'
p21
tp22
F44.69838040363723
s(g8
S'paradoxus'
p23
tp24
F10.724771121866763
s(g5
S'kluyveri'
p25
tp26
F0.0
s(g12
g14
tp27
F3.9690236158254706
s(g14
S'mikatae'
p28
tp29
F24.39150613470531
ssS'newicktree'
p30
S'/Users/xji3/Genconv/PairsAlignemt/YeastTree.newick'
p31
sS'll'
p32
cnumpy.core.multiarray
scalar
p33
(cnumpy
dtype
p34
(S'f8'
p35
I0
I1
tp36
Rp37
(I3
S'<'
p38
NNNI-1
I-1
I0
tp39
bS'\xd5;\x18Ml\x0f\xae\xc0'
p40
tp41
Rp42
sS'clock'
p43
I01
sS'edge_to_blen'
p44
(dp45
g20
g33
(g37
S"\xdf'\x94H1\x1d\xba?"
p46
tp47
Rp48
sg10
g33
(g37
S'\x9e\xbe\xbe\x89\xaa\xed\x9c?'
p49
tp50
Rp51
sg13
g33
(g37
S'\xed\xf2\xc1\xc4\x80\xf7\x85?'
p52
tp53
Rp54
sg15
g33
(g37
S'\xea\xc8\x96\xc0\x18\xf5\x92?'
p55
tp56
Rp57
sg17
g33
(g37
S'\xf67_q\xa4\xca\xaf?'
p58
tp59
Rp60
sg19
g33
(g37
S'Y\xdaGQB\xa4\xb2?'
p61
tp62
Rp63
sg7
g33
(g37
S'\tN\x8f\xff\xbc\xd0\x92?'
p64
tp65
Rp66
sg22
g33
(g37
S'\x1c\x01\xee\xcc\xb9`\xc6?'
p67
tp68
Rp69
sg24
g33
(g37
S'\x9e\xbe\xbe\x89\xaa\xed\x9c?'
p70
tp71
Rp72
sg26
g33
(g37
S'X\xdb\xfd\xb0Q\xb7\xcd?'
p73
tp74
Rp75
sg27
g33
(g37
S'\xc9\xd0\xd10\x0be\x8f?'
p76
tp77
Rp78
sg29
g33
(g37
S'\xc2\xc3*\xa5a\xf1\xa7?'
p79
tp80
Rp81
ssS'paralog'
p82
(lp83
S'YIL057C'
p84
aS'YER067W'
p85
asS'alignment_file'
p86
S'/Users/xji3/Genconv/PairsAlignemt/YIL057C_YER067W/YIL057C_YER067W_input.fasta'
p87
sS'x_clock'
p88
(lp89
F-0.6850232587204191
aF-0.45921270532185465
aF-0.7435002943745869
aF1.4006567935124212
aF0.22004650536411005
aF-1.5479708452474565
aF-0.09605211978472301
aF-0.09993633478731508
aF-0.8758205214051705
aF-0.15934359007332763
aF-0.28352954359959914
aF-0.5039956111046943
asS'x'
p90
(lp91
F-0.6850232587204191
aF-0.45921270532185465
aF-0.7435002943745869
aF1.4006567935124212
aF0.22004650536411005
aF-2.2827046019748174
aF-3.566648566002286
aF-4.535086371913474
aF-3.9892769773868015
aF-2.779123411297993
aF-2.619779821224665
aF-3.9967969786320356
aF-1.7439592998194946
aF-3.566648566002286
aF-1.4603416051653884
aF-4.177979833386927
aF-3.062652954897592
asS'Model'
p92
S'HKY'
p93
s.