(dp0
S'Force'
p1
(dp2
I5
F0.0
ssS'ExpectedGeneconv'
p3
(dp4
(S'N0'
p5
S'N1'
p6
tp7
F0.01100157906156071
s(S'N5'
p8
S'cerevisiae'
p9
tp10
F11.50296072370152
s(S'N2'
p11
S'N3'
p12
tp13
F2.936832990955103
s(S'N4'
p14
g8
tp15
F5.304046115622173
s(g12
S'kudriavzevii'
p16
tp17
F10.26203524990925
s(g11
S'bayanus'
p18
tp19
F4.464452411631546
s(g6
g11
tp20
F13.070210766291089
s(g6
S'castellii'
p21
tp22
F8.505900409918594
s(g8
S'paradoxus'
p23
tp24
F2.42104949427672
s(g14
S'mikatae'
p25
tp26
F6.7502216052449935
s(g12
g14
tp27
F4.175886396727655
s(g5
S'kluyveri'
p28
tp29
F0.0
ssS'newicktree'
p30
S'../PairsAlignemt/YeastTree.newick'
p31
sS'll'
p32
cnumpy.core.multiarray
scalar
p33
(cnumpy
dtype
p34
(S'f8'
p35
I0
I1
tp36
Rp37
(I3
S'<'
p38
NNNI-1
I-1
I0
tp39
bS':\xb3\x1bG#\xca\x9b\xc0'
p40
tp41
Rp42
sS'clock'
p43
I00
sS'edge_to_blen'
p44
(dp45
g20
g33
(g37
S'B\xa3\xab\xcbN\\\xb5?'
p46
tp47
Rp48
sg10
g33
(g37
S'\xfa\xdfW\x9f0\x9a\x9e?'
p49
tp50
Rp51
sg13
g33
(g37
S"\x12Zq\x89\xb6'\x84?"
p52
tp53
Rp54
sg15
g33
(g37
S'\x1e\x0f\xc3k\xc49\x8b?'
p55
tp56
Rp57
sg17
g33
(g37
S'/U\x93\toR\xa6?'
p58
tp59
Rp60
sg19
g33
(g37
S'\x12\x08,\x8eWJ\x94?'
p61
tp62
Rp63
sg7
g33
(g37
S'\x0b<&\x82\xf8\xb2h?'
p64
tp65
Rp66
sg22
g33
(g37
S'\x04\xb5\x99\xd9\xf7\x1d\xb3?'
p67
tp68
Rp69
sg24
g33
(g37
S'\xac\x1d\x1be\xce\x8a\x89?'
p70
tp71
Rp72
sg26
g33
(g37
S'\xeb[\x99\x0c\x95e\x9f?'
p73
tp74
Rp75
sg27
g33
(g37
S'\xdb\xdcX\xd8\xdbl\x8e?'
p76
tp77
Rp78
sg29
g33
(g37
S"'\x9f\xf0\xa9K4\xb7?"
p79
tp80
Rp81
ssS'paralog'
p82
(lp83
S'YDR418W'
p84
aS'YEL054C'
p85
asS'alignment_file'
p86
S'../PairsAlignemt/YDR418W_YEL054C/YDR418W_YEL054C_input.fasta'
p87
sS'x_clock'
p88
(lp89
F-0.6398702388921944
aF-0.5469480680886125
aF-0.8173184239451081
aF0.1823215567939546
aF-0.10536051565782628
aF0.3364722366212129
aF-0.10536051565782628
aF-0.10536051565782628
aF-0.10536051565782628
aF-0.10536051565782628
aF-0.10536051565782628
aF-0.10536051565782628
aF-0.10536051565782628
asS'x'
p90
(lp91
F-0.7316729309426377
aF-0.47439954090483466
aF-0.9077693081185961
aF2.038829811665938
aF-2.7262362034271077
aF1.19617746
aF-2.483630402417046
aF-3.510396491650679
aF-4.621160187138054
aF-4.320459317783776
aF-3.1327515813381823
aF-3.921324012291703
aF-5.804146361906183
aF-2.594596150071887
aF-4.384286536449318
aF-3.484765651601469
aF-4.20934680187145
aF-2.4008407199568955
asS'Model'
p92
S'MG94'
p93
s.