(dp0
S'Force'
p1
(dp2
I5
F0.0
ssS'ExpectedGeneconv'
p3
(dp4
(S'N0'
p5
S'N1'
p6
tp7
F12.187526367792703
s(S'N5'
p8
S'cerevisiae'
p9
tp10
F36.343521985257524
s(S'N2'
p11
S'N3'
p12
tp13
F28.527681234512286
s(S'N4'
p14
g8
tp15
F13.065368846766166
s(g12
S'kudriavzevii'
p16
tp17
F44.197639956165936
s(g11
S'bayanus'
p18
tp19
F44.463855578472206
s(g6
g11
tp20
F397.21011163183107
s(g6
S'castellii'
p21
tp22
F497.9003442400924
s(g8
S'paradoxus'
p23
tp24
F38.85015278264715
s(g14
S'mikatae'
p25
tp26
F35.617074020868685
s(g12
g14
tp27
F14.061004729576622
s(g5
S'kluyveri'
p28
tp29
F0.0
ssS'newicktree'
p30
S'../PairsAlignemt/YeastTree.newick'
p31
sS'll'
p32
cnumpy.core.multiarray
scalar
p33
(cnumpy
dtype
p34
(S'f8'
p35
I0
I1
tp36
Rp37
(I3
S'<'
p38
NNNI-1
I-1
I0
tp39
bS'\xdfpD;\x81C\xd2\xc0'
p40
tp41
Rp42
sS'clock'
p43
I00
sS'edge_to_blen'
p44
(dp45
g20
g33
(g37
S'^\rJ\x06\x9d\xdd\x00@'
p46
tp47
Rp48
sg10
g33
(g37
S'\xf2\xfbN\x0cc\xda\xc8?'
p49
tp50
Rp51
sg13
g33
(g37
S'>X^\xfc\x88\xc4\xc7?'
p52
tp53
Rp54
sg15
g33
(g37
S'\xfa6W\xf1\x80\xd4\xbb?'
p55
tp56
Rp57
sg17
g33
(g37
S'\x88n\xf4\xa3\x04\x91\xd4?'
p58
tp59
Rp60
sg19
g33
(g37
S'\xbf\x12\x10_\xecY\xd4?'
p61
tp62
Rp63
sg7
g33
(g37
S'O\xeet;$\x9b\xc5?'
p64
tp65
Rp66
sg22
g33
(g37
S'\xaa|;\xbfm)\x05@'
p67
tp68
Rp69
sg24
g33
(g37
S'\x7f\xf0\xca-NU\xd6?'
p70
tp71
Rp72
sg26
g33
(g37
S'\xba\x85`\x02\xb3\xd8\xd1?'
p73
tp74
Rp75
sg27
g33
(g37
S'\t\xc2S\xc2\xcfH\xba?'
p76
tp77
Rp78
sg29
g33
(g37
S'wgi\xcf\xc3\x16\x0b@'
p79
tp80
Rp81
ssS'paralog'
p82
(lp83
S'YAL056W'
p84
aS'YOR371C'
p85
asS'alignment_file'
p86
S'../PairsAlignemt/YAL056W_YOR371C/YAL056W_YOR371C_input.fasta'
p87
sS'x_clock'
p88
(lp89
F-0.6458422188763059
aF-0.5008309563512824
aF-0.9500146403668493
aF0.1823215567939546
aF-0.10536051565782628
aF0.3364722366212129
aF-0.10536051565782628
aF-0.10536051565782628
aF-0.10536051565782628
aF-0.10536051565782628
aF-0.10536051565782628
aF-0.10536051565782628
aF-0.10536051565782628
asS'x'
p90
(lp91
F-0.6200221783629207
aF-0.46789512876396033
aF-1.019952395912556
aF0.8717155655909207
aF-2.0967966775243787
aF1.19617746
aF0.7458390834394266
aF-1.6390488226982542
aF-1.683702106744524
aF-2.219059544835694
aF-1.135220660399234
aF-1.145740109986487
aF-1.7790582098260561
aF0.9727575859691969
aF-1.0528076407828038
aF-1.277076711375029
aF-2.2762010704804503
aF1.2196834431455916
asS'Model'
p92
S'MG94'
p93
s.