(dp0
S'Force'
p1
(dp2
I4
F0.0
ssS'ExpectedGeneconv'
p3
(dp4
(S'N0'
p5
S'N1'
p6
tp7
F1.5302638584548844
s(S'N5'
p8
S'cerevisiae'
p9
tp10
F89.97130113242065
s(S'N2'
p11
S'N3'
p12
tp13
F15.68972940985354
s(S'N4'
p14
g8
tp15
F26.23077512707773
s(g6
S'castellii'
p16
tp17
F290.2328626750687
s(g11
S'bayanus'
p18
tp19
F111.23693458066775
s(g6
g11
tp20
F160.09309768115833
s(g12
S'kudriavzevii'
p21
tp22
F94.14977940625428
s(g8
S'paradoxus'
p23
tp24
F83.86078660976501
s(g5
S'kluyveri'
p25
tp26
F0.0
s(g12
g14
tp27
F25.395261762597347
s(g14
S'mikatae'
p28
tp29
F82.75563121496202
ssS'newicktree'
p30
S'/Users/xji3/Genconv/PairsAlignemt/YeastTree.newick'
p31
sS'll'
p32
cnumpy.core.multiarray
scalar
p33
(cnumpy
dtype
p34
(S'f8'
p35
I0
I1
tp36
Rp37
(I3
S'<'
p38
NNNI-1
I-1
I0
tp39
bS'xE\xd1s\xc0\xad\xd3\xc0'
p40
tp41
Rp42
sS'clock'
p43
I01
sS'edge_to_blen'
p44
(dp45
g20
g33
(g37
S'\xfe\x1c\xd5(\xa9`\xd2?'
p46
tp47
Rp48
sg10
g33
(g37
S'\x15\x8e\x16\xb0\xfd\xb9\xae?'
p49
tp50
Rp51
sg13
g33
(g37
S'\xc4\xec\xbdl\x17\xc4\x90?'
p52
tp53
Rp54
sg15
g33
(g37
S'\xb6\xde`\xc5 \x88\x94?'
p55
tp56
Rp57
sg17
g33
(g37
S'Z\x0b@E\xb6\xba\xd9?'
p58
tp59
Rp60
sg19
g33
(g37
S'o\xb9\xabq4h\xbd?'
p61
tp62
Rp63
sg7
g33
(g37
S'\xff\xab1\xd4\x1d\xc0\x99?'
p64
tp65
Rp66
sg22
g33
(g37
S'=>|\x96.7\xb9?'
p67
tp68
Rp69
sg24
g33
(g37
S'\x15\x8e\x16\xb0\xfd\xb9\xae?'
p70
tp71
Rp72
sg26
g33
(g37
S'\x90\xde\xbeL\xb9T\xde?'
p73
tp74
Rp75
sg27
g33
(g37
S'\x18\xfeb4\x9e\xe0\x92?'
p76
tp77
Rp78
sg29
g33
(g37
S'\xb8~c\t\x07\x7f\xb4?'
p79
tp80
Rp81
ssS'paralog'
p82
(lp83
S'YAL056W'
p84
aS'YOR371C'
p85
asS'alignment_file'
p86
S'/Users/xji3/Genconv/PairsAlignemt/YAL056W_YOR371C/YAL056W_YOR371C_input.fasta'
p87
sS'x_clock'
p88
(lp89
F-0.6579469983206996
aF-0.4902577392614354
aF-0.8840606544543115
aF1.0676639018580958
aF-1.6189794264791255
aF-0.797298364825876
aF-0.05327971219866083
aF-0.06067288649808087
aF-1.2526920315396017
aF-0.1537733983375305
aF-0.20722149327204037
aF-0.28826037807112753
asS'x'
p90
(lp91
F-0.6579469983206996
aF-0.4902577392614354
aF-0.8840606544543115
aF1.0676639018580958
aF-1.6189794264791255
aF-1.2477515763351716
aF-2.8131982647429177
aF-4.11211982711961
aF-3.909499334854355
aF-0.9112509635226177
aF-2.1639429950622193
aF-3.68301950281553
aF-2.31771639339975
aF-2.8131982647429177
aF-0.7467143592386327
aF-3.9935056240110915
aF-2.52493788667179
asS'Model'
p92
S'HKY'
p93
s.