(dp0
S'Force'
p1
(dp2
I4
F0.0
ssS'ExpectedGeneconv'
p3
(dp4
(S'N0'
p5
S'N1'
p6
tp7
F0.01913858874822263
s(S'N5'
p8
S'cerevisiae'
p9
tp10
F3.0971170466880444
s(S'N2'
p11
S'N3'
p12
tp13
F0.15360683366212566
s(S'N4'
p14
g8
tp15
F0.879944299065306
s(g6
S'castellii'
p16
tp17
F6.482019949137917
s(g11
S'bayanus'
p18
tp19
F1.7260469300833032
s(g6
g11
tp20
F4.393981914407544
s(g12
S'kudriavzevii'
p21
tp22
F1.2435291994552087
s(g8
S'paradoxus'
p23
tp24
F2.6006654857534692
s(g5
S'kluyveri'
p25
tp26
F0.0
s(g12
g14
tp27
F0.24315517234867648
s(g14
S'mikatae'
p28
tp29
F7.325670364236067
ssS'newicktree'
p30
S'/Users/xji3/Genconv/PairsAlignemt/YeastTree.newick'
p31
sS'll'
p32
cnumpy.core.multiarray
scalar
p33
(cnumpy
dtype
p34
(S'f8'
p35
I0
I1
tp36
Rp37
(I3
S'<'
p38
NNNI-1
I-1
I0
tp39
bS'\x84,\xc7\xfa\x1e\xdc\x94\xc0'
p40
tp41
Rp42
sS'clock'
p43
I01
sS'edge_to_blen'
p44
(dp45
g20
g33
(g37
S'\xe4\x8f\x95Z^\xea}?'
p46
tp47
Rp48
sg10
g33
(g37
S'\xed`j\x0c\rux?'
p49
tp50
Rp51
sg13
g33
(g37
S'\x91\x13(K*\xa3a?'
p52
tp53
Rp54
sg15
g33
(g37
S'BP\xdb\xe8\x00qZ?'
p55
tp56
Rp57
sg17
g33
(g37
S'z\xde\xd0\xd5\xac\x1f\x93?'
p58
tp59
Rp60
sg19
g33
(g37
S'\xfe\xf4V~*J\x87?'
p61
tp62
Rp63
sg7
g33
(g37
S')%\xdc\xc8x\xcaa?'
p64
tp65
Rp66
sg22
g33
(g37
S'\x1c\xf0\x8c\xeb_\xe1\x82?'
p67
tp68
Rp69
sg24
g33
(g37
S'\xed`j\x0c\rux?'
p70
tp71
Rp72
sg26
g33
(g37
S'\x9e\xed\xfd\xa0T\x17\xa0?'
p73
tp74
Rp75
sg27
g33
(g37
S'\xf6\xac\xe2A\xca\xc5Z?'
p76
tp77
Rp78
sg29
g33
(g37
S'\xf94\xa1FM\x11\x7f?'
p79
tp80
Rp81
ssS'paralog'
p82
(lp83
S'YLR406C'
p84
aS'YDL075W'
p85
asS'alignment_file'
p86
S'/Users/xji3/Genconv/PairsAlignemt/YLR406C_YDL075W/YLR406C_YDL075W_input.fasta'
p87
sS'x_clock'
p88
(lp89
F-0.711238489369996
aF-0.5141829273887244
aF-0.9128532570580689
aF2.3330391041515015
aF3.086999986706915
aF-3.644379275564685
aF-0.2261534806907943
aF-0.11000902445297907
aF-0.4960655347029168
aF-0.20988891939273938
aF-0.19510492679846597
aF-0.23923911290090288
asS'x'
p90
(lp91
F-0.711238489369996
aF-0.5141829273887244
aF-0.9128532570580689
aF2.3330391041515015
aF3.086999986706915
aF-4.919389351604014
aF-5.120840274503483
aF-6.140893735370581
aF-6.42912880290101
aF-3.9805417807084584
aF-4.476607315411376
aF-6.132225946004709
aF-4.686496234804115
aF-5.120840274503483
aF-3.460056120585199
aF-6.416680899499486
aF-4.881601161602581
asS'Model'
p92
S'HKY'
p93
s.