(dp0
S'Force'
p1
(dp2
I4
F0.0
ssS'ExpectedGeneconv'
p3
(dp4
(S'N0'
p5
S'N1'
p6
tp7
F1.5845760189248357e-05
s(S'N5'
p8
S'cerevisiae'
p9
tp10
F3.403904807124037
s(S'N2'
p11
S'N3'
p12
tp13
F2.729886804395255
s(S'N4'
p14
g8
tp15
F3.1385145112775223
s(g6
S'castellii'
p16
tp17
F7.165450807120047
s(g11
S'bayanus'
p18
tp19
F3.7021258760852964
s(g6
g11
tp20
F11.43625441437351
s(g12
S'kudriavzevii'
p21
tp22
F5.256485653491545
s(g8
S'paradoxus'
p23
tp24
F6.7181658986924
s(g5
S'kluyveri'
p25
tp26
F0.0
s(g12
g14
tp27
F4.280113599109596
s(g14
S'mikatae'
p28
tp29
F7.580107668420506
ssS'newicktree'
p30
S'/Users/xji3/Genconv/PairsAlignemt/YeastTree.newick'
p31
sS'll'
p32
cnumpy.core.multiarray
scalar
p33
(cnumpy
dtype
p34
(S'f8'
p35
I0
I1
tp36
Rp37
(I3
S'<'
p38
NNNI-1
I-1
I0
tp39
bS'a\x1c\x86\x19\xae\x07\xa0\xc0'
p40
tp41
Rp42
sS'clock'
p43
I00
sS'edge_to_blen'
p44
(dp45
g20
g33
(g37
S'\xa8\xcc\xa2\xc5\x90\xd1\x90?'
p46
tp47
Rp48
sg10
g33
(g37
S'$\x1c\x91(\xaa\xb8m?'
p49
tp50
Rp51
sg13
g33
(g37
S'\x99\xc9\xc4FNdq?'
p52
tp53
Rp54
sg15
g33
(g37
S'W\xe7(\xd3M\xd3W?'
p55
tp56
Rp57
sg17
g33
(g37
S'\xffC\xd1\x82\xbfe\x92?'
p58
tp59
Rp60
sg19
g33
(g37
S'\x1f>dd&-o?'
p61
tp62
Rp63
sg7
g33
(g37
S'"\xd9\x8b\x18\xfbj\x08?'
p64
tp65
Rp66
sg22
g33
(g37
S'\xa7b=\xa6\x91<\x80?'
p67
tp68
Rp69
sg24
g33
(g37
S'\xc6\x07\xfc\xce\xef\xd4u?'
p70
tp71
Rp72
sg26
g33
(g37
S'\xf4B\x16xe\xf0\x98?'
p73
tp74
Rp75
sg27
g33
(g37
S'gR\xafvC\x07e?'
p76
tp77
Rp78
sg29
g33
(g37
S'$\xa8\x87\xa61\xf2y?'
p79
tp80
Rp81
ssS'paralog'
p82
(lp83
S'YJL177W'
p84
aS'YKL180W'
p85
asS'alignment_file'
p86
S'/Users/xji3/Genconv/PairsAlignemt/YJL177W_YKL180W/YJL177W_YKL180W_input.fasta'
p87
sS'x_clock'
p88
(lp89
F-0.7478026216750145
aF-0.48568033175105463
aF-0.7174104104861037
aF2.188738361153189
aF3.183383321586945
aF-3.6462066695833473
aF0.0
aF-0.30877747058426
aF-1.0916265760607535
aF-0.17360054704163194
aF-0.3537427725914227
aF-0.24162059551449774
asS'x'
p90
(lp91
F-0.7836108953581804
aF-0.4707093743407575
aF-0.7181981497671681
aF2.3278437153715035
aF3.183383321586945
aF-4.108985479316019
aF-5.619047825221959
aF-5.461766220266863
aF-6.533308026487941
aF-4.019259548603808
aF-5.571253005262014
aF-9.974480209773628
aF-4.837351191045402
aF-5.2343992684930205
aF-3.7150370258416694
aF-5.965040718472528
aF-5.061746009553818
asS'Model'
p92
S'HKY'
p93
s.