(dp0
S'Force'
p1
(dp2
I5
F0.0
ssS'ExpectedGeneconv'
p3
(dp4
(S'N0'
p5
S'N1'
p6
tp7
F4.013820733119839e-14
s(S'N5'
p8
S'cerevisiae'
p9
tp10
F5.2491302268219675
s(S'N2'
p11
S'N3'
p12
tp13
F1.4005815187125375e-05
s(S'N4'
p14
g8
tp15
F1.3636517800071792
s(g12
S'kudriavzevii'
p16
tp17
F8.526409096579822
s(g11
S'bayanus'
p18
tp19
F7.146481090627988
s(g6
g11
tp20
F2.8732297771875794
s(g6
S'castellii'
p21
tp22
F19.51377628901271
s(g8
S'paradoxus'
p23
tp24
F2.229642086952083
s(g14
S'mikatae'
p25
tp26
F9.499416092323884
s(g12
g14
tp27
F1.935923088510487e-06
s(g5
S'kluyveri'
p28
tp29
F0.0
ssS'newicktree'
p30
S'../PairsAlignemt/YeastTree.newick'
p31
sS'll'
p32
cnumpy.core.multiarray
scalar
p33
(cnumpy
dtype
p34
(S'f8'
p35
I0
I1
tp36
Rp37
(I3
S'<'
p38
NNNI-1
I-1
I0
tp39
bS'\xc2\x1b\x88N6F\x95\xc0'
p40
tp41
Rp42
sS'clock'
p43
I00
sS'edge_to_blen'
p44
(dp45
g20
g33
(g37
S'E\xe1\xd4\x1f:\x11\x90?'
p46
tp47
Rp48
sg10
g33
(g37
S'm\xfe\xd2N\xfb\x15\x96?'
p49
tp50
Rp51
sg13
g33
(g37
S'\xa73\xdc\x1c\xd6\xf1\xa1>'
p52
tp53
Rp54
sg15
g33
(g37
S'\xa1\x8e\xee\xed\x10\xfdi?'
p55
tp56
Rp57
sg17
g33
(g37
S'A!\xaeq\x84\x9a\xa8?'
p58
tp59
Rp60
sg19
g33
(g37
S'\xca\xb6\xab\x9e\xf0\xf5\x93?'
p61
tp62
Rp63
sg7
g33
(g37
S'\xbc/\x8c\x18\x81\xda9>'
p64
tp65
Rp66
sg22
g33
(g37
S'\x0c\xf5:\xa7V\xc6\xb9?'
p67
tp68
Rp69
sg24
g33
(g37
S'\xca(\x92\xd5\x12o\x81?'
p70
tp71
Rp72
sg26
g33
(g37
S'\x17\xa1\xb9N\xa6\xa1\x9b?'
p73
tp74
Rp75
sg27
g33
(g37
S'\xef\x1fg\xd7\x01\xb0d>'
p76
tp77
Rp78
sg29
g33
(g37
S'\xfd\xdeNZ\xed\xab\xb7?'
p79
tp80
Rp81
ssS'paralog'
p82
(lp83
S'YER074W'
p84
aS'YIL069C'
p85
asS'alignment_file'
p86
S'../PairsAlignemt/YER074W_YIL069C/YER074W_YIL069C_input.fasta'
p87
sS'x_clock'
p88
(lp89
F-0.6051723195377897
aF-0.5829256176041383
aF-0.8039482773492105
aF0.1823215567939546
aF-0.10536051565782628
aF0.3364722366212129
aF-0.10536051565782628
aF-0.10536051565782628
aF-0.10536051565782628
aF-0.10536051565782628
aF-0.10536051565782628
aF-0.10536051565782628
aF-0.10536051565782628
asS'x'
p90
(lp91
F-0.6888317839948197
aF-0.4836603182848346
aF-0.8636644869860386
aF2.0962227069754285
aF-2.1946573335986286
aF1.19617746
aF-4.154686080792306
aF-3.8365339535159553
aF-14.44138619234773
aF-5.753257692106629
aF-3.0354325245787104
aF-3.9377063240690453
aF-18.928262538448593
aF-2.295781736693235
aF-4.76620348141918
aF-3.6125174095653176
aF-17.071737224900325
aF-2.3809018298950515
asS'Model'
p92
S'MG94'
p93
s.