(dp0
S'Force'
p1
(dp2
I5
F0.0
ssS'ExpectedGeneconv'
p3
(dp4
(S'N0'
p5
S'N1'
p6
tp7
F15.201890367143687
s(S'N5'
p8
S'cerevisiae'
p9
tp10
F44.202452007890564
s(S'N2'
p11
S'N3'
p12
tp13
F19.43459341593846
s(S'N4'
p14
g8
tp15
F14.335897193347064
s(g12
S'kudriavzevii'
p16
tp17
F57.12312116734173
s(g11
S'bayanus'
p18
tp19
F86.76703375670547
s(g6
g11
tp20
F69.8432582589672
s(g6
S'castellii'
p21
tp22
F164.14704256761522
s(g8
S'paradoxus'
p23
tp24
F37.14022883657153
s(g14
S'mikatae'
p25
tp26
F53.50471339660737
s(g12
g14
tp27
F14.290254686238972
s(g5
S'kluyveri'
p28
tp29
F0.0
ssS'newicktree'
p30
S'../PairsAlignemt/YeastTree.newick'
p31
sS'll'
p32
cnumpy.core.multiarray
scalar
p33
(cnumpy
dtype
p34
(S'f8'
p35
I0
I1
tp36
Rp37
(I3
S'<'
p38
NNNI-1
I-1
I0
tp39
bS'\xed7\x88p\xfc}\xdb\xc0'
p40
tp41
Rp42
sS'clock'
p43
I01
sS'edge_to_blen'
p44
(dp45
g20
g33
(g37
S'sl\x9b\xec\xf4"\xb6?'
p46
tp47
Rp48
sg10
g33
(g37
S'~y\x98c0\xa2\xa8?'
p49
tp50
Rp51
sg13
g33
(g37
S'\xb4\x16s2\x07\x9f\x96?'
p52
tp53
Rp54
sg15
g33
(g37
S'|We\xb5)\x8c\x8c?'
p55
tp56
Rp57
sg17
g33
(g37
S'\xe0\xe7T\xe34\x86\xb3?'
p58
tp59
Rp60
sg19
g33
(g37
S'\x8e\xad\xf1\xaf\xf6-\xb9?'
p61
tp62
Rp63
sg7
g33
(g37
S'\xf4\x89\xf9\x19\x82\xb5\xa8?'
p64
tp65
Rp66
sg22
g33
(g37
S'\x01\x8dF\xceu\xa8\xc7?'
p67
tp68
Rp69
sg24
g33
(g37
S'~y\x98c0\xa2\xa8?'
p70
tp71
Rp72
sg26
g33
(g37
S']\xcf\xf1\xd0:\xc5\xaf?'
p73
tp74
Rp75
sg27
g33
(g37
S'\x9b\x01\xe0\xd6\xbb\x1c\x8d?'
p76
tp77
Rp78
sg29
g33
(g37
S'\xa7-G\xc7\xa1\xda\xd3?'
p79
tp80
Rp81
ssS'paralog'
p82
(lp83
S'YIR033W'
p84
aS'YKL020C'
p85
asS'alignment_file'
p86
S'../PairsAlignemt/YIR033W_YKL020C/YIR033W_YKL020C_input.fasta'
p87
sS'x_clock'
p88
(lp89
F-0.6822891409535391
aF-0.5361629500365792
aF-0.9383883183151684
aF2.1799499101606683
aF-2.03403805848324
aF1.23836258
aF-1.303226947350223
aF-0.15311100391521168
aF-0.23198897765669657
aF-0.6308185411474057
aF-0.2543749730536729
aF-0.20626823942839087
aF-0.25442657273060937
asS'x'
p90
(lp91
F-0.6822891409535391
aF-0.5361629500365792
aF-0.9383883183151684
aF2.1799499101606683
aF-2.03403805848324
aF1.23836258
aF-2.4479473673098804
aF-3.0342152552822097
aF-3.812584128168192
aF-4.2730492194471426
aF-2.57352044312321
aF-2.319145470069537
aF-3.031156409926922
aF-1.6883269289221312
aF-3.0342152552822097
aF-2.7797886825516005
aF-4.253460240602735
aF-1.170476021632577
asS'Model'
p92
S'MG94'
p93
s.