(dp0
S'Force'
p1
(dp2
I5
F0.0
ssS'ExpectedGeneconv'
p3
(dp4
(S'N0'
p5
S'N1'
p6
tp7
F0.0023239407154821367
s(S'N5'
p8
S'cerevisiae'
p9
tp10
F7.886216709895186
s(S'N2'
p11
S'N3'
p12
tp13
F5.20519315474051
s(S'N4'
p14
g8
tp15
F0.5087963333905895
s(g12
S'kudriavzevii'
p16
tp17
F5.3335567614885315
s(g11
S'bayanus'
p18
tp19
F6.102949420644744
s(g6
g11
tp20
F8.700670923687026
s(g6
S'castellii'
p21
tp22
F11.446610184411941
s(g8
S'paradoxus'
p23
tp24
F2.8573317565153165
s(g14
S'mikatae'
p25
tp26
F4.899338155583111
s(g12
g14
tp27
F2.3370497499171563
s(g5
S'kluyveri'
p28
tp29
F0.0
ssS'newicktree'
p30
S'../PairsAlignemt/YeastTree.newick'
p31
sS'll'
p32
cnumpy.core.multiarray
scalar
p33
(cnumpy
dtype
p34
(S'f8'
p35
I0
I1
tp36
Rp37
(I3
S'<'
p38
NNNI-1
I-1
I0
tp39
bS'\xf5\x83\xa8q\xe5S\x96\xc0'
p40
tp41
Rp42
sS'clock'
p43
I00
sS'edge_to_blen'
p44
(dp45
g20
g33
(g37
S'\x8c\xe7\xf8\xec\xb0\x15\xad?'
p46
tp47
Rp48
sg10
g33
(g37
S'\xde5\x12\x98\x92\xad\x9a?'
p49
tp50
Rp51
sg13
g33
(g37
S'\xce \\$\x19D\x9b?'
p52
tp53
Rp54
sg15
g33
(g37
S'\x89\xbcsM\x14\xdbe?'
p55
tp56
Rp57
sg17
g33
(g37
S'\rU\x9c\x0f?%\xa1?'
p58
tp59
Rp60
sg19
g33
(g37
S'\xb3\xf4\xa2\xd2]\x07\x96?'
p61
tp62
Rp63
sg7
g33
(g37
S'\xdc!G*j\xb0X?'
p64
tp65
Rp66
sg22
g33
(g37
S'\xa7k\x84\xcdE\x04\xb3?'
p67
tp68
Rp69
sg24
g33
(g37
S'>L\x92\xdfQ\xc4\x95?'
p70
tp71
Rp72
sg26
g33
(g37
S'\xc5\x11l\xcc\x96\xed\xa5?'
p73
tp74
Rp75
sg27
g33
(g37
S'\x18\xd4T^V8\x8a?'
p76
tp77
Rp78
sg29
g33
(g37
S'\x94z\xde\rlk\xba?'
p79
tp80
Rp81
ssS'paralog'
p82
(lp83
S'YBL087C'
p84
aS'YER117W'
p85
asS'alignment_file'
p86
S'../PairsAlignemt/YBL087C_YER117W/YBL087C_YER117W_input.fasta'
p87
sS'x_clock'
p88
(lp89
F-0.6429587448535277
aF-0.704964686037494
aF-0.9002402796574029
aF0.1823215567939546
aF-0.10536051565782628
aF0.3364722366212129
aF-0.10536051565782628
aF-0.10536051565782628
aF-0.10536051565782628
aF-0.10536051565782628
aF-0.10536051565782628
aF-0.10536051565782628
aF-0.10536051565782628
asS'x'
p90
(lp91
F-0.723752309177565
aF-0.6062226138340893
aF-1.0224901839996359
aF2.050532603220944
aF-3.0102374443087063
aF1.19617746
aF-2.8681112991714
aF-3.6476318715185445
aF-3.625830984069482
aF-5.926447996524332
aF-3.3965892565595786
aF-3.8391222354225096
aF-6.497697869038124
aF-2.5998604242603798
aF-3.85108251954005
aF-3.150556515003155
aF-4.358093919022975
aF-2.2710706221790806
asS'Model'
p92
S'MG94'
p93
s.