(dp0
S'Force'
p1
(dp2
I5
F0.0
ssS'ExpectedGeneconv'
p3
(dp4
(S'N0'
p5
S'N1'
p6
tp7
F82.73636510038385
s(S'N5'
p8
S'cerevisiae'
p9
tp10
F48.86717939539356
s(S'N2'
p11
S'N3'
p12
tp13
F52.88580858316072
s(S'N4'
p14
g8
tp15
F26.96244278261135
s(g12
S'kudriavzevii'
p16
tp17
F60.49162932036602
s(g11
S'bayanus'
p18
tp19
F77.36087254923392
s(g6
g11
tp20
F775.2848403352597
s(g6
S'castellii'
p21
tp22
F816.6525744205362
s(g8
S'paradoxus'
p23
tp24
F33.406648170004225
s(g14
S'mikatae'
p25
tp26
F66.28820734796335
s(g12
g14
tp27
F30.106076398406497
s(g5
S'kluyveri'
p28
tp29
F0.0
ssS'newicktree'
p30
S'../PairsAlignemt/YeastTree.newick'
p31
sS'll'
p32
cnumpy.core.multiarray
scalar
p33
(cnumpy
dtype
p34
(S'f8'
p35
I0
I1
tp36
Rp37
(I3
S'<'
p38
NNNI-1
I-1
I0
tp39
bS'\xd2\xb3\xca\xe7\xb5\xa8\xd7\xc0'
p40
tp41
Rp42
sS'clock'
p43
I00
sS'edge_to_blen'
p44
(dp45
g20
g33
(g37
S'2\xf3gL\xceP\x05@'
p46
tp47
Rp48
sg10
g33
(g37
S'D\xf6\x82\xcf\x7f\xbd\xc8?'
p49
tp50
Rp51
sg13
g33
(g37
S'J3\x93\xe7:\xfb\xc8?'
p52
tp53
Rp54
sg15
g33
(g37
S'\x86\xe5s\xf2o\x90\xbf?'
p55
tp56
Rp57
sg17
g33
(g37
S'\x04\xb6\x1b\x1e\xe81\xd1?'
p58
tp59
Rp60
sg19
g33
(g37
S"U\xf5\xef'j\xed\xd2?"
p61
tp62
Rp63
sg7
g33
(g37
S'\xf6\xf8U\xbd\x16Y\xda?'
p64
tp65
Rp66
sg22
g33
(g37
S'\xb6\xe6wV\xab\xc5\x07@'
p67
tp68
Rp69
sg24
g33
(g37
S'4w\xb4Rs\xa4\xc1?'
p70
tp71
Rp72
sg26
g33
(g37
S'fi\x92;\xd8\xa1\xd4?'
p73
tp74
Rp75
sg27
g33
(g37
S'\xce\xc7\xf1}\x1a\xda\xbd?'
p76
tp77
Rp78
sg29
g33
(g37
S'\x90O\xc9\xe9\x99\x1d\x07@'
p79
tp80
Rp81
ssS'paralog'
p82
(lp83
S'YIR033W'
p84
aS'YKL020C'
p85
asS'alignment_file'
p86
S'../PairsAlignemt/YIR033W_YKL020C/YIR033W_YKL020C_input.fasta'
p87
sS'x_clock'
p88
(lp89
F-0.6478951576748382
aF-0.4520086202596996
aF-0.8761185334130079
aF0.1823215567939546
aF-0.10536051565782628
aF0.3364722366212129
aF-0.10536051565782628
aF-0.10536051565782628
aF-0.10536051565782628
aF-0.10536051565782628
aF-0.10536051565782628
aF-0.10536051565782628
aF-0.10536051565782628
asS'x'
p90
(lp91
F-0.6571459573994981
aF-0.4621707046586264
aF-0.9335654993823647
aF0.9321423223464672
aF-2.306161071144988
aF1.19617746
aF0.9799999028538737
aF-1.6435995402947496
aF-1.6339000144152127
aF-2.0931536184523876
aF-1.3142674587499152
aF-1.2182724195822663
aF-0.8874905900423581
aF1.0890730030498676
aF-1.9817260359505802
aF-1.1320298449194766
aF-2.1489267195286716
aF1.0610674608782826
asS'Model'
p92
S'MG94'
p93
s.