(dp0
S'Force'
p1
(dp2
I5
F0.0
ssS'ExpectedGeneconv'
p3
(dp4
(S'N0'
p5
S'N1'
p6
tp7
F0.2191453128783962
s(S'N5'
p8
S'cerevisiae'
p9
tp10
F3.996701054567584
s(S'N2'
p11
S'N3'
p12
tp13
F3.971544997924093
s(S'N4'
p14
g8
tp15
F2.2114029572518303
s(g6
S'castellii'
p16
tp17
F16.255683911147386
s(g11
S'bayanus'
p18
tp19
F12.047657349123293
s(g6
g11
tp20
F10.612350323645945
s(g12
S'kudriavzevii'
p21
tp22
F5.614861634413931
s(g8
S'paradoxus'
p23
tp24
F0.5281904493965579
s(g5
S'kluyveri'
p25
tp26
F0.0
s(g12
g14
tp27
F1.0626020424961364
s(g14
S'mikatae'
p28
tp29
F5.4857501197272365
ssS'newicktree'
p30
S'../PairsAlignemt/YeastTree.newick'
p31
sS'll'
p32
cnumpy.core.multiarray
scalar
p33
(cnumpy
dtype
p34
(S'f8'
p35
I0
I1
tp36
Rp37
(I3
S'<'
p38
NNNI-1
I-1
I0
tp39
bS'\xd71DS\xa9\xe0\xa2\xc0'
p40
tp41
Rp42
sS'clock'
p43
I00
sS'edge_to_blen'
p44
(dp45
g20
g33
(g37
S'\xe9\x14\x87a\x8d\x1e\xba?'
p46
tp47
Rp48
sg10
g33
(g37
S'Ry\x98\xa6\xff\xd9\x9c?'
p49
tp50
Rp51
sg13
g33
(g37
S'\xe9s\xa5\xa5G\xd4\x90?'
p52
tp53
Rp54
sg15
g33
(g37
S'e\x11\xdfW\xb9\xbc\x8d?'
p55
tp56
Rp57
sg17
g33
(g37
S'\x00K+&\x81\xed\xbe?'
p58
tp59
Rp60
sg19
g33
(g37
S'\xbaus\xfe\x8e\xa1\xad?'
p61
tp62
Rp63
sg7
g33
(g37
S'\xb9\xaa\xe1\xedJ\n\x94?'
p64
tp65
Rp66
sg22
g33
(g37
S'\x1c\x0eZ\xa8N8\xab?'
p67
tp68
Rp69
sg24
g33
(g37
S'\x9cpfeh\x18\x7f?'
p70
tp71
Rp72
sg26
g33
(g37
S'\xb0\x9a\x0fZ1\x1d\xc0?'
p73
tp74
Rp75
sg27
g33
(g37
S'\xbf\xc7\x7f\xb2\xc9lo?'
p76
tp77
Rp78
sg29
g33
(g37
S'T\xc8\xfa\x19\xc75\xa7?'
p79
tp80
Rp81
ssS'paralog'
p82
(lp83
S'YNL069C'
p84
aS'YIL133C'
p85
asS'alignment_file'
p86
S'../PairsAlignemt/YNL069C_YIL133C/YNL069C_YIL133C_input.fasta'
p87
sS'x_clock'
p88
(lp89
F-0.6820717292911986
aF-0.5960688182652529
aF-0.9197014658640619
aF0.1823215567939546
aF-0.10536051565782628
aF0.3364722366212129
aF-0.10536051565782628
aF-0.10536051565782628
aF-0.10536051565782628
aF-0.10536051565782628
aF-0.10536051565782628
aF-0.10536051565782628
aF-0.10536051565782628
asS'x'
p90
(lp91
F-0.7461359467089894
aF-0.5284606522130585
aF-0.9563816352596606
aF1.5064385921158279
aF-1.8298858171613974
aF1.19617746
aF-2.282501224522257
aF-3.569307839367697
aF-4.108355248427306
aF-4.232220094152493
aF-2.1135235436169744
aF-2.8495005390352603
aF-3.933731258515694
aF-2.934374456616729
aF-4.880708102863235
aF-2.0723396760627675
aF-5.563311099375967
aF-3.0937384190820736
asS'Model'
p92
S'MG94'
p93
s.