(dp0
S'Force'
p1
(dp2
I5
F0.0
ssS'ExpectedGeneconv'
p3
(dp4
(S'N0'
p5
S'N1'
p6
tp7
F0.18846053890988318
s(S'N5'
p8
S'cerevisiae'
p9
tp10
F4.518209942846553
s(S'N2'
p11
S'N3'
p12
tp13
F2.136609661926902
s(S'N4'
p14
g8
tp15
F3.8269058983739423
s(g12
S'kudriavzevii'
p16
tp17
F15.836174351488948
s(g11
S'bayanus'
p18
tp19
F9.799892739877425
s(g6
g11
tp20
F8.863667144039537
s(g6
S'castellii'
p21
tp22
F22.495616399172395
s(g8
S'paradoxus'
p23
tp24
F3.621787996942813
s(g14
S'mikatae'
p25
tp26
F10.36047355307694
s(g12
g14
tp27
F3.3916149887069524
s(g5
S'kluyveri'
p28
tp29
F0.0
ssS'newicktree'
p30
S'../PairsAlignemt/YeastTree.newick'
p31
sS'll'
p32
cnumpy.core.multiarray
scalar
p33
(cnumpy
dtype
p34
(S'f8'
p35
I0
I1
tp36
Rp37
(I3
S'<'
p38
NNNI-1
I-1
I0
tp39
bS'g&v\x0f\x92u\xa1\xc0'
p40
tp41
Rp42
sS'clock'
p43
I01
sS'edge_to_blen'
p44
(dp45
g20
g33
(g37
S'\x94w9\x1c+\x19\xa7?'
p46
tp47
Rp48
sg10
g33
(g37
S'\xb9\x02w:A\x92\x9b?'
p49
tp50
Rp51
sg13
g33
(g37
S'\x85\x1a!!\x8d8\x84?'
p52
tp53
Rp54
sg15
g33
(g37
S'\xbb\xdaGT\x132\x83?'
p55
tp56
Rp57
sg17
g33
(g37
S'uG\xf2\x9cy\xa3\xa6?'
p58
tp59
Rp60
sg19
g33
(g37
S'\x17\x8e:\xe5\x9c\xb1\xab?'
p61
tp62
Rp63
sg7
g33
(g37
S',@\xb2r\xe2>\x8e?'
p64
tp65
Rp66
sg22
g33
(g37
S'\xd6\x02\xba\x00de\xb9?'
p67
tp68
Rp69
sg24
g33
(g37
S'\xb9\x02w:A\x92\x9b?'
p70
tp71
Rp72
sg26
g33
(g37
S'\x0cxMr\xa5\x95\xa2?'
p73
tp74
Rp75
sg27
g33
(g37
S'\xa9=\x93\xaaP7\x80?'
p76
tp77
Rp78
sg29
g33
(g37
S'\xb8p\x81t\x1fx\xc2?'
p79
tp80
Rp81
ssS'paralog'
p82
(lp83
S'YMR142C'
p84
aS'YDL082W'
p85
asS'alignment_file'
p86
S'../PairsAlignemt/YMR142C_YDL082W/YMR142C_YDL082W_input.fasta'
p87
sS'x_clock'
p88
(lp89
F-0.7080744969829146
aF-0.4590493160343381
aF-0.8996013708633749
aF1.8169600252531013
aF-2.3665364683904824
aF1.23836258
aF-2.0469256103152884
aF-0.12487924564637695
aF-0.13877865598308425
aF-0.6065325414073114
aF-0.20155328772849432
aF-0.19732438347298253
aF-0.29870242129674146
asS'x'
p90
(lp91
F-0.7080744969829146
aF-0.4590493160343381
aF-0.8996013708633749
aF1.8169600252531013
aF-2.3665364683904824
aF1.23836258
aF-3.0985649945804528
aF-3.6146961458502793
aF-4.617902091868009
aF-4.6699375124395885
aF-3.1186693410805555
aF-2.917116053352061
aF-4.215266850974179
aF-2.3105835119447495
aF-3.6146961458502793
aF-3.315993724553538
aF-4.838615975380129
aF-1.9359241616042338
asS'Model'
p92
S'MG94'
p93
s.