(dp0
S'Force'
p1
(dp2
I4
F0.0
ssS'ExpectedGeneconv'
p3
(dp4
(S'N1'
p5
S'N2'
p6
tp7
F310.26248958039656
s(S'N5'
p8
S'cerevisiae'
p9
tp10
F161.58707726488538
s(g6
S'N3'
p11
tp12
F83.80014668431427
s(S'N4'
p13
g8
tp14
F80.67101079538153
s(g11
S'kudriavzevii'
p15
tp16
F209.46086730734316
s(g6
S'bayanus'
p17
tp18
F154.165724098196
s(S'N0'
p19
g5
tp20
F44.7436434334193
s(g5
S'castellii'
p21
tp22
F471.2071760758546
s(g8
S'paradoxus'
p23
tp24
F102.2440017328596
s(g19
S'kluyveri'
p25
tp26
F0.0
s(g11
g13
tp27
F91.12527513255371
s(g13
S'mikatae'
p28
tp29
F202.32176070592615
ssS'newicktree'
p30
S'/Users/xji3/Genconv/PairsAlignemt/YeastTree.newick'
p31
sS'll'
p32
cnumpy.core.multiarray
scalar
p33
(cnumpy
dtype
p34
(S'f8'
p35
I0
I1
tp36
Rp37
(I3
S'<'
p38
NNNI-1
I-1
I0
tp39
bS'\xf0Dx*V\xfe\xde\xc0'
p40
tp41
Rp42
sS'clock'
p43
I00
sS'edge_to_blen'
p44
(dp45
g20
g33
(g37
S'L\x9c\xa5\xf3\xe4\xa0\xba?'
p46
tp47
Rp48
sg10
g33
(g37
S'\x1f>\xea/\xc5\xe2\xb2?'
p49
tp50
Rp51
sg12
g33
(g37
S'D\xb7L\xd5.\xe0\xa7?'
p52
tp53
Rp54
sg14
g33
(g37
S'\x7fX\xb5\xf4\xf1L\xa2?'
p55
tp56
Rp57
sg16
g33
(g37
S'\x81\t\x17.~\xa6\xb9?'
p58
tp59
Rp60
sg18
g33
(g37
S'\x9e+\x88[\xcb\x9f\xb6?'
p61
tp62
Rp63
sg7
g33
(g37
S'H\\\xd2\xb9\xb9\xfa\xce?'
p64
tp65
Rp66
sg22
g33
(g37
S'\x81p\xfd\xc0\xe5H\xd4?'
p67
tp68
Rp69
sg24
g33
(g37
S'/]\xb3bE\xcb\xa9?'
p70
tp71
Rp72
sg26
g33
(g37
S's\xb8\xec\xbc\x16A\xd1?'
p73
tp74
Rp75
sg27
g33
(g37
S'{S\x89\x04\x1a*\xa6?'
p76
tp77
Rp78
sg29
g33
(g37
S'4\xd7A\xdf\xf5i\xb9?'
p79
tp80
Rp81
ssS'paralog'
p82
(lp83
S'YGL133W'
p84
aS'YPL216W'
p85
asS'alignment_file'
p86
S'/Users/xji3/Genconv/PairsAlignemt/YGL133W_YPL216W/YGL133W_YPL216W_input.fasta'
p87
sS'x_clock'
p88
(lp89
F-0.6297864013458292
aF-0.4551173494059396
aF-0.8961722926945144
aF1.2491222985681154
aF-2.071811865130997
aF-0.8712120912918312
aF0.0
aF-0.24090238343185866
aF-0.9638828036200647
aF-0.12352219563621429
aF-0.27404356608196445
aF-0.43237698631514065
asS'x'
p90
(lp91
F-0.6290526032383313
aF-0.4521604508623605
aF-0.8995340526004248
aF1.220695760191259
aF-2.071811865130997
aF-2.263195616798614
aF-2.6067659977383673
aF-3.0654628074788546
aF-3.3313925845835
aF-2.3006197265847033
aF-2.426157458732357
aF-1.4187079109859297
aF-1.1490134269119952
aF-2.988181652567011
aF-1.310824407714529
aF-3.1398345424812155
aF-2.3098808628105374
asS'Model'
p92
S'HKY'
p93
s.