(dp0
S'Force'
p1
(dp2
I5
F0.0
ssS'ExpectedGeneconv'
p3
(dp4
(S'N0'
p5
S'N1'
p6
tp7
F4.99802790897196
s(S'N5'
p8
S'cerevisiae'
p9
tp10
F13.269996746728758
s(S'N2'
p11
S'N3'
p12
tp13
F5.811425413550059
s(S'N4'
p14
g8
tp15
F8.152903567603188
s(g12
S'kudriavzevii'
p16
tp17
F23.099039591109346
s(g11
S'bayanus'
p18
tp19
F21.05366183698867
s(g6
g11
tp20
F20.11103707426734
s(g6
S'castellii'
p21
tp22
F44.968697523516354
s(g8
S'paradoxus'
p23
tp24
F16.58057909813313
s(g14
S'mikatae'
p25
tp26
F21.26131529733659
s(g12
g14
tp27
F6.38162200219583
s(g5
S'kluyveri'
p28
tp29
F0.0
ssS'newicktree'
p30
S'../PairsAlignemt/YeastTree.newick'
p31
sS'll'
p32
cnumpy.core.multiarray
scalar
p33
(cnumpy
dtype
p34
(S'f8'
p35
I0
I1
tp36
Rp37
(I3
S'<'
p38
NNNI-1
I-1
I0
tp39
bS';U2\x81<|\xc0\xc0'
p40
tp41
Rp42
sS'clock'
p43
I01
sS'edge_to_blen'
p44
(dp45
g20
g33
(g37
S'!\xd51\x02u+\xb6?'
p46
tp47
Rp48
sg10
g33
(g37
S'\x96\xbe\xb9[\x0e\xa9\xa8?'
p49
tp50
Rp51
sg13
g33
(g37
S'\x90\xea\xe6\xae\xae\xa8\x96?'
p52
tp53
Rp54
sg15
g33
(g37
S'f{H\x96k\xb6\x8c?'
p55
tp56
Rp57
sg17
g33
(g37
S'\xbdO\xf2_\x8d\x90\xb3?'
p58
tp59
Rp60
sg19
g33
(g37
S'c\n\xac\x0b\xb9:\xb9?'
p61
tp62
Rp63
sg7
g33
(g37
S'\xe0\xb7\xc7(\x17\xbe\xa8?'
p64
tp65
Rp66
sg22
g33
(g37
S'\xc1\xef\xee\x06\x17\xb3\xc7?'
p67
tp68
Rp69
sg24
g33
(g37
S'\x96\xbe\xb9[\x0e\xa9\xa8?'
p70
tp71
Rp72
sg26
g33
(g37
S'r\xddKA\xa9\xd6\xaf?'
p73
tp74
Rp75
sg27
g33
(g37
S',\x08c\xfa\xc5)\x8d?'
p76
tp77
Rp78
sg29
g33
(g37
S'\x07h\xb5\x1a\xa6\xe2\xd3?'
p79
tp80
Rp81
ssS'paralog'
p82
(lp83
S'YLR284C'
p84
aS'YOR180C'
p85
asS'alignment_file'
p86
S'../PairsAlignemt/YLR284C_YOR180C/YLR284C_YOR180C_input.fasta'
p87
sS'x_clock'
p88
(lp89
F-0.6583431164347323
aF-0.5881321403273524
aF-0.9380730253699474
aF2.1951988296279246
aF-2.0614660887737277
aF1.23836258
aF-1.3016100466490053
aF-0.1530566641424176
aF-0.23190664374199257
aF-0.6305946608558282
aF-0.25428469425014616
aF-0.20619503391749638
aF-0.2554791632492567
asS'x'
p90
(lp91
F-0.6583431164347323
aF-0.5881321403273524
aF-0.9380730253699474
aF2.1951988296279246
aF-2.0614660887737277
aF1.23836258
aF-2.4464485098107884
aF-3.033126906806143
aF-3.810918412827725
aF-4.267283661578458
aF-2.5714527096393898
aF-2.3171680153892433
aF-3.0298005599197495
aF-1.6865733545334154
aF-3.033126906806143
aF-2.777647743556886
aF-4.251712128998649
aF-1.1688999519510308
asS'Model'
p92
S'MG94'
p93
s.