(dp0
S'Force'
p1
(dp2
I4
F0.0
ssS'ExpectedGeneconv'
p3
(dp4
(S'N0'
p5
S'N1'
p6
tp7
F0.022832755874502415
s(S'N5'
p8
S'cerevisiae'
p9
tp10
F11.6288471383609
s(S'N2'
p11
S'N3'
p12
tp13
F2.684408791608906
s(S'N4'
p14
g8
tp15
F5.31650985067469
s(g12
S'kudriavzevii'
p16
tp17
F9.875192658377287
s(g11
S'bayanus'
p18
tp19
F5.063239784028085
s(g6
g11
tp20
F11.244488309803348
s(g6
S'castellii'
p21
tp22
F7.08527273974837
s(g8
S'paradoxus'
p23
tp24
F2.1260987547488934
s(g14
S'mikatae'
p25
tp26
F7.706438502808432
s(g12
g14
tp27
F3.790523487453011
s(g5
S'kluyveri'
p28
tp29
F0.0
ssS'newicktree'
p30
S'/Users/xji3/Genconv/PairsAlignemt/YeastTree.newick'
p31
sS'll'
p32
cnumpy.core.multiarray
scalar
p33
(cnumpy
dtype
p34
(S'f8'
p35
I0
I1
tp36
Rp37
(I3
S'<'
p38
NNNI-1
I-1
I0
tp39
bS'\xb45L\x9d]\xd0\x9e\xc0'
p40
tp41
Rp42
sS'clock'
p43
I00
sS'edge_to_blen'
p44
(dp45
g20
g33
(g37
S'\x9d\x8a\x01\xb9\x19\xd8\x8f?'
p46
tp47
Rp48
sg10
g33
(g37
S'\xc5\xe8T\x89R\xf7y?'
p49
tp50
Rp51
sg13
g33
(g37
S'Bq"\xb3\xa9\x0fa?'
p52
tp53
Rp54
sg15
g33
(g37
S'\xa9`\x00\x19]\x98g?'
p55
tp56
Rp57
sg17
g33
(g37
S'\xd0\xc1\xdd\x8ds\xc9\x82?'
p58
tp59
Rp60
sg19
g33
(g37
S'\xee\x04I\xc2e0r?'
p61
tp62
Rp63
sg7
g33
(g37
S'"[\x88kp\xf8X?'
p64
tp65
Rp66
sg22
g33
(g37
S'\x01\x16\x1ba|\xe3\x8d?'
p67
tp68
Rp69
sg24
g33
(g37
S'\x1f\x85\xe7\x1d\x85mf?'
p70
tp71
Rp72
sg26
g33
(g37
S'\x9en\x95\xd6x\tz?'
p73
tp74
Rp75
sg27
g33
(g37
S'\xf6v\x85c\x1f%j?'
p76
tp77
Rp78
sg29
g33
(g37
S'\x0e=\xb0\x8c G\x92?'
p79
tp80
Rp81
ssS'paralog'
p82
(lp83
S'YDR418W'
p84
aS'YEL054C'
p85
asS'alignment_file'
p86
S'/Users/xji3/Genconv/PairsAlignemt/YDR418W_YEL054C/YDR418W_YEL054C_input.fasta'
p87
sS'x_clock'
p88
(lp89
F-0.7656002488165625
aF-0.492249841145379
aF-0.7959237698617884
aF2.48188261486457
aF3.246066753059375
aF-3.7827762744950824
aF0.0
aF-0.3182717277990365
aF-0.9912837951869493
aF-0.0672675697285648
aF-0.32357608023234563
aF-0.4066010850401812
asS'x'
p90
(lp91
F-0.7948187759872742
aF-0.4731088636801032
aF-0.8060258816926136
aF2.5757912572701063
aF3.246066753059375
aF-4.163765530098689
aF-5.060974204043701
aF-6.174107454595816
aF-5.8498712935792
aF-4.69145813153755
aF-5.416946252620823
aF-6.486366785602704
aF-4.227141293042306
aF-5.900611531306039
aF-5.058247559745317
aF-5.747254989339197
aF-4.025782385669821
asS'Model'
p92
S'HKY'
p93
s.