(dp0
S'Force'
p1
(dp2
I4
F0.0
ssS'ExpectedGeneconv'
p3
(dp4
(S'N0'
p5
S'N1'
p6
tp7
F0.7365534525240194
s(S'N5'
p8
S'cerevisiae'
p9
tp10
F29.372660752292038
s(S'N2'
p11
S'N3'
p12
tp13
F7.783249067434098
s(S'N4'
p14
g8
tp15
F16.6054298768185
s(g12
S'kudriavzevii'
p16
tp17
F42.64966784974669
s(g11
S'bayanus'
p18
tp19
F43.971523787014476
s(g6
g11
tp20
F42.93887573168446
s(g6
S'castellii'
p21
tp22
F86.64037875688003
s(g8
S'paradoxus'
p23
tp24
F18.725940333995297
s(g14
S'mikatae'
p25
tp26
F43.95861686628416
s(g12
g14
tp27
F20.33920716298065
s(g5
S'kluyveri'
p28
tp29
F0.0
ssS'newicktree'
p30
S'/Users/xji3/Genconv/PairsAlignemt/YeastTree.newick'
p31
sS'll'
p32
cnumpy.core.multiarray
scalar
p33
(cnumpy
dtype
p34
(S'f8'
p35
I0
I1
tp36
Rp37
(I3
S'<'
p38
NNNI-1
I-1
I0
tp39
bS'\xba\xea\xc2\xc3%\x16\xbe\xc0'
p40
tp41
Rp42
sS'clock'
p43
I01
sS'edge_to_blen'
p44
(dp45
g20
g33
(g37
S'\x08B\x18w\xfc\x07\xc5?'
p46
tp47
Rp48
sg10
g33
(g37
S'1\x8c,\xb9\x9f\xfd\x9e?'
p49
tp50
Rp51
sg13
g33
(g37
S'8\xb3|Ise\x90?'
p52
tp53
Rp54
sg15
g33
(g37
S'^\xe5\xd5p\xe3\x08\x9b?'
p55
tp56
Rp57
sg17
g33
(g37
S'\xbf\x07X3]\x15\xb4?'
p58
tp59
Rp60
sg19
g33
(g37
S'\x8b4\xb7\x05\xba.\xb8?'
p61
tp62
Rp63
sg7
g33
(g37
S'aj\x90<\xa2\xef\x97?'
p64
tp65
Rp66
sg22
g33
(g37
S'(\xee\xf9\xbc\xac\x8f\xd0?'
p67
tp68
Rp69
sg24
g33
(g37
S'1\x8c,\xb9\x9f\xfd\x9e?'
p70
tp71
Rp72
sg26
g33
(g37
S'\xc88\x01\x95A\x03\xad?'
p73
tp74
Rp75
sg27
g33
(g37
S'h\xad]\xa3\xf1N\x96?'
p76
tp77
Rp78
sg29
g33
(g37
S'\xce\xf4\xc2\xe0\xa6\x0e\xd2?'
p79
tp80
Rp81
ssS'paralog'
p82
(lp83
S'YBR024W'
p84
aS'YBR037C'
p85
asS'alignment_file'
p86
S'/Users/xji3/Genconv/PairsAlignemt/YBR024W_YBR037C/YBR024W_YBR037C_input.fasta'
p87
sS'x_clock'
p88
(lp89
F-0.7017928818674898
aF-0.5519936809033169
aF-0.8284859522614759
aF1.2722313255790858
aF-0.7780707120544387
aF-1.2653367112314122
aF0.0
aF-0.0864819792133235
aF-1.0077284488186016
aF-0.18573404421778306
aF-0.32530910591351897
aF-0.6271937618828998
asS'x'
p90
(lp91
F-0.7017928818674898
aF-0.5519936809033169
aF-0.8284859522614759
aF1.2722313255790858
aF-0.7780707120544387
aF-1.806023401668955
aF-3.4977840512775393
aF-4.1344166920313
aF-3.6343498223551345
aF-2.54528118348112
aF-2.3595471392633374
aF-3.7560853092706674
aF-1.3518186904447356
aF-3.4977840512775393
aF-2.8705902893946393
aF-3.826509654782972
aF-1.2653367112314122
asS'Model'
p92
S'HKY'
p93
s.