(dp0
S'Force'
p1
(dp2
I4
F0.0
ssS'ExpectedGeneconv'
p3
(dp4
(S'N0'
p5
S'N1'
p6
tp7
F0.0028067111518474295
s(S'N5'
p8
S'cerevisiae'
p9
tp10
F3.40652729708856
s(S'N2'
p11
S'N3'
p12
tp13
F5.111327455051656
s(S'N4'
p14
g8
tp15
F10.36008529721595
s(g12
S'kudriavzevii'
p16
tp17
F9.447071306591493
s(g11
S'bayanus'
p18
tp19
F14.811754097476967
s(g6
g11
tp20
F6.613502614510377
s(g6
S'castellii'
p21
tp22
F23.73685986343619
s(g8
S'paradoxus'
p23
tp24
F5.113014167056505
s(g5
S'kluyveri'
p25
tp26
F0.0
s(g12
g14
tp27
F3.842658538224631
s(g14
S'mikatae'
p28
tp29
F4.652980491428912
ssS'newicktree'
p30
S'/Users/xji3/Genconv/PairsAlignemt/YeastTree.newick'
p31
sS'll'
p32
cnumpy.core.multiarray
scalar
p33
(cnumpy
dtype
p34
(S'f8'
p35
I0
I1
tp36
Rp37
(I3
S'<'
p38
NNNI-1
I-1
I0
tp39
bS'T#\xfe\xbe\xa9d\xa2\xc0'
p40
tp41
Rp42
sS'clock'
p43
I00
sS'edge_to_blen'
p44
(dp45
g20
g33
(g37
S'<D\x96%\xba\xf2\x81?'
p46
tp47
Rp48
sg10
g33
(g37
S'\xc1\xb5\xdcq\xc8\x9eV?'
p49
tp50
Rp51
sg13
g33
(g37
S'\xf0~\x82\xf6\xf1\x93r?'
p52
tp53
Rp54
sg15
g33
(g37
S'\xdca/\xd0\x14\xfdp?'
p55
tp56
Rp57
sg17
g33
(g37
S'\x0f\xeb\xbb3K\x18\x91?'
p58
tp59
Rp60
sg19
g33
(g37
S'\xb0\x90\xe88_\xd9\x89?'
p61
tp62
Rp63
sg7
g33
(g37
S'k\xbb\x17\xcec`F?'
p64
tp65
Rp66
sg22
g33
(g37
S'\xf1}\xfc\x99\xdfY\x9b?'
p67
tp68
Rp69
sg24
g33
(g37
S'\xab\xc1&L\xa1\xcfq?'
p70
tp71
Rp72
sg26
g33
(g37
S'\x8a\xc1\xbb\x83\xfb\xf7\x9c?'
p73
tp74
Rp75
sg27
g33
(g37
S'\xa1;\xf7%iAd?'
p76
tp77
Rp78
sg29
g33
(g37
S'_PeY}7z?'
p79
tp80
Rp81
ssS'paralog'
p82
(lp83
S'YER102W'
p84
aS'YBL072C'
p85
asS'alignment_file'
p86
S'/Users/xji3/Genconv/PairsAlignemt/YER102W_YBL072C/YER102W_YBL072C_input.fasta'
p87
sS'x_clock'
p88
(lp89
F-0.7192892022151363
aF-0.5557647863581019
aF-0.7653813151478697
aF2.1786108127891115
aF3.780834868909661
aF-3.645538101656673
aF0.0
aF-0.4827859801809631
aF-0.5560799701527983
aF-0.24511618986866857
aF-0.3495641904050549
aF-0.9124092189453109
asS'x'
p90
(lp91
F-0.7699141884862573
aF-0.5419552603616447
aF-0.7705167282403406
aF2.179557816508975
aF3.780834868909661
aF-4.737131780412885
aF-6.585215179910444
aF-5.395792882535798
aF-5.485223704443439
aF-4.092691778854351
aF-4.372342845103557
aF-7.289195383796902
aF-3.62271622307873
aF-5.437946837369905
aF-3.565256505451744
aF-6.002486458116661
aF-5.051367402098747
asS'Model'
p92
S'HKY'
p93
s.