(dp0
S'Force'
p1
(dp2
I4
F0.0
ssS'ExpectedGeneconv'
p3
(dp4
(S'N1'
p5
S'N2'
p6
tp7
F8.62946233188898
s(S'N5'
p8
S'cerevisiae'
p9
tp10
F25.21457474935905
s(g6
S'N3'
p11
tp12
F11.593148836298596
s(S'N4'
p13
g8
tp14
F16.71712917761649
s(g5
S'castellii'
p15
tp16
F74.45023643851488
s(g6
S'bayanus'
p17
tp18
F17.018861817582543
s(S'N0'
p19
g5
tp20
F0.8288205948821643
s(g11
S'kudriavzevii'
p21
tp22
F38.515649370193266
s(g8
S'paradoxus'
p23
tp24
F20.24916790701742
s(g13
S'mikatae'
p25
tp26
F40.787351652003814
s(g11
g13
tp27
F20.765435353979015
s(g19
S'kluyveri'
p28
tp29
F0.0
ssS'newicktree'
p30
S'/Users/xji3/Genconv/PairsAlignemt/YeastTree.newick'
p31
sS'll'
p32
cnumpy.core.multiarray
scalar
p33
(cnumpy
dtype
p34
(S'f8'
p35
I0
I1
tp36
Rp37
(I3
S'<'
p38
NNNI-1
I-1
I0
tp39
bS'J9\x95\xff{\x02\xbb\xc0'
p40
tp41
Rp42
sS'clock'
p43
I00
sS'edge_to_blen'
p44
(dp45
g20
g33
(g37
S'\x96\xd3I\xd2~\x9f\x86?'
p46
tp47
Rp48
sg10
g33
(g37
S'\x89\xa3\x80\xcc\xd8|\x8e?'
p49
tp50
Rp51
sg12
g33
(g37
S'\x87\x07\xc7m\xab!\x87?'
p52
tp53
Rp54
sg14
g33
(g37
S'B\x1d\xae\x12\x9e\xc7\x86?'
p55
tp56
Rp57
sg16
g33
(g37
S'r\xa0\xc8d\xcc8\xb1?'
p58
tp59
Rp60
sg18
g33
(g37
S'\xe0(\xa0L\x16{\x97?'
p61
tp62
Rp63
sg7
g33
(g37
S'\xe5\xec%o\x1e\x89\x95?'
p64
tp65
Rp66
sg22
g33
(g37
S'\xea\xd7 \xcd8U\x9a?'
p67
tp68
Rp69
sg24
g33
(g37
S'\x95\xbd\xd1o\xe3p\x8d?'
p70
tp71
Rp72
sg26
g33
(g37
S'\xffq\xdb\xb6+H\x9c?'
p73
tp74
Rp75
sg27
g33
(g37
S'"\xaf\x83R\xd5x\x87?'
p76
tp77
Rp78
sg29
g33
(g37
S'[\xee\x0e\x87\xae\xd3\xa8?'
p79
tp80
Rp81
ssS'paralog'
p82
(lp83
S'YDR502C'
p84
aS'YLR180W'
p85
asS'alignment_file'
p86
S'/Users/xji3/Genconv/PairsAlignemt/YDR502C_YLR180W/YDR502C_YLR180W_input.fasta'
p87
sS'x_clock'
p88
(lp89
F-0.8009984160032014
aF-0.6034086305402852
aF-0.8029435695237865
aF1.8067020951476374
aF1.6694118068798016
aF-2.5840621389190357
aF0.0
aF-0.41302400342200873
aF-0.5338653497434572
aF-0.16570728386030867
aF-0.2663061395412598
aF-0.5647358640449829
asS'x'
p90
(lp91
F-0.8450073550039607
aF-0.5889281271124965
aF-0.8551972522543506
aF1.9330149032937527
aF1.6694118068798016
aF-4.50565062118251
aF-4.2072962172975945
aF-4.4834227080959055
aF-4.4987467502305645
aF-2.6989974263889867
aF-3.7752883559263792
aF-3.861763467512492
aF-3.6606527747680975
aF-4.242231730543503
aF-3.5892491794898773
aF-4.468810550021607
aF-3.026397614178603
asS'Model'
p92
S'HKY'
p93
s.