(dp0
S'Force'
p1
(dp2
I5
F0.0
ssS'ExpectedGeneconv'
p3
(dp4
(S'N0'
p5
S'N1'
p6
tp7
F0.00046574786046683843
s(S'N5'
p8
S'cerevisiae'
p9
tp10
F7.154182538123691
s(S'N2'
p11
S'N3'
p12
tp13
F1.0335886844094657
s(S'N4'
p14
g8
tp15
F0.9096345370843643
s(g6
S'castellii'
p16
tp17
F7.784734599508848
s(g11
S'bayanus'
p18
tp19
F3.8220663044764334
s(g6
g11
tp20
F4.27711705198443
s(g12
S'kudriavzevii'
p21
tp22
F3.276956060167433
s(g8
S'paradoxus'
p23
tp24
F2.2944501795623227
s(g5
S'kluyveri'
p25
tp26
F0.0
s(g12
g14
tp27
F2.229077177379815
s(g14
S'mikatae'
p28
tp29
F7.130250589247897
ssS'newicktree'
p30
S'../PairsAlignemt/YeastTree.newick'
p31
sS'll'
p32
cnumpy.core.multiarray
scalar
p33
(cnumpy
dtype
p34
(S'f8'
p35
I0
I1
tp36
Rp37
(I3
S'<'
p38
NNNI-1
I-1
I0
tp39
bS'\x0e\x8d\tqeV\x93\xc0'
p40
tp41
Rp42
sS'clock'
p43
I01
sS'edge_to_blen'
p44
(dp45
g20
g33
(g37
S'\x952\xe11\xee\x8b\xab?'
p46
tp47
Rp48
sg10
g33
(g37
S'\x85-\x036\xca\xfb\x98?'
p49
tp50
Rp51
sg13
g33
(g37
S'\xa2\xc7\xea%y\xc5\x87?'
p52
tp53
Rp54
sg15
g33
(g37
S'\xbcm\x06\x04`\xf0s?'
p55
tp56
Rp57
sg17
g33
(g37
S'u\xa2\xb8%-\xcb\xba?'
p58
tp59
Rp60
sg19
g33
(g37
S'T\x12\x90\x19l\n\xaa?'
p61
tp62
Rp63
sg7
g33
(g37
S'-}\xbd\xde\x857K?'
p64
tp65
Rp66
sg22
g33
(g37
S'l`\x15\xd0\r\x19\xa4?'
p67
tp68
Rp69
sg24
g33
(g37
S'\x85-\x036\xca\xfb\x98?'
p70
tp71
Rp72
sg26
g33
(g37
S'o\x1dv1\x9c\x01\xbb?'
p73
tp74
Rp75
sg27
g33
(g37
S'\xc9\xefK\xd2rt\x84?'
p76
tp77
Rp78
sg29
g33
(g37
S'\xf2\xc8\x047\xe2\xf7\x9d?'
p79
tp80
Rp81
ssS'paralog'
p82
(lp83
S'YER131W'
p84
aS'YGL189C'
p85
asS'alignment_file'
p86
S'../PairsAlignemt/YER131W_YGL189C/YER131W_YGL189C_input.fasta'
p87
sS'x_clock'
p88
(lp89
F-0.6906246948222864
aF-0.44200042782094395
aF-0.7199444770821596
aF1.9453758983676193
aF-3.051445043426501
aF1.23836258
aF-2.249107658594948
aF0.0
aF-0.007904581454578313
aF-0.7216512265149695
aF-0.2590474675981157
aF-0.29362086474202864
aF-0.18192222850058773
asS'x'
p90
(lp91
F-0.6906246948222864
aF-0.44200042782094395
aF-0.7199444770821596
aF1.9453758983676193
aF-3.051445043426501
aF1.23836258
aF-2.9224453886983452
aF-3.7132540274052275
aF-4.456136657523297
aF-5.325090305053878
aF-2.257012240049526
aF-2.9786634665644955
aF-7.093370102534786
aF-3.237710934162611
aF-3.7132540274052275
aF-2.249107658594948
aF-4.606397646206083
aF-3.53133179890464
asS'Model'
p92
S'MG94'
p93
s.