(dp0
S'Force'
p1
(dp2
I4
F0.0
ssS'ExpectedGeneconv'
p3
(dp4
(S'N1'
p5
S'N2'
p6
tp7
F47.38006531290734
s(S'N5'
p8
S'cerevisiae'
p9
tp10
F47.546619531127355
s(g6
S'N3'
p11
tp12
F7.124588285483192
s(S'N4'
p13
g8
tp14
F23.138038842848072
s(g11
S'kudriavzevii'
p15
tp16
F61.14080636253016
s(g6
S'bayanus'
p17
tp18
F60.05343331699666
s(S'N0'
p19
g5
tp20
F0.2769885919498548
s(g5
S'castellii'
p21
tp22
F106.82944970678898
s(g8
S'paradoxus'
p23
tp24
F35.024910966268045
s(g19
S'kluyveri'
p25
tp26
F0.0
s(g11
g13
tp27
F22.763242143284067
s(g13
S'mikatae'
p28
tp29
F54.91674339382887
ssS'newicktree'
p30
S'/Users/xji3/Genconv/PairsAlignemt/YeastTree.newick'
p31
sS'll'
p32
cnumpy.core.multiarray
scalar
p33
(cnumpy
dtype
p34
(S'f8'
p35
I0
I1
tp36
Rp37
(I3
S'<'
p38
NNNI-1
I-1
I0
tp39
bS'\xe4R\x8bW\x1a\xa5\xc5\xc0'
p40
tp41
Rp42
sS'clock'
p43
I01
sS'edge_to_blen'
p44
(dp45
g20
g33
(g37
S's<R#L\xb6\x89?'
p46
tp47
Rp48
sg10
g33
(g37
S'\xd1\x17\x7f\x99j\x80\xa3?'
p49
tp50
Rp51
sg12
g33
(g37
S'0s\xef\xe9\xdd\x1a\x90?'
p52
tp53
Rp54
sg14
g33
(g37
S's\xba\x97\xe5\xbf&\x96?'
p55
tp56
Rp57
sg16
g33
(g37
S'\xba/\xd3\xc5\xe6\xa7\xb3?'
p58
tp59
Rp60
sg18
g33
(g37
S'\x84\x0cO@\x9e\xae\xb7?'
p61
tp62
Rp63
sg7
g33
(g37
S'\xc3\xdf\xd2\xc5\x1a\x07\xc6?'
p64
tp65
Rp66
sg22
g33
(g37
S'\x033\xfd\xf24\xef\xd0?'
p67
tp68
Rp69
sg24
g33
(g37
S'\xd1\x17\x7f\x99j\x80\xa3?'
p70
tp71
Rp72
sg26
g33
(g37
S'\xe7\xc4\x17T\xe7\xbc\xd1?'
p73
tp74
Rp75
sg27
g33
(g37
S'\xd4\xd4\xb6\xfe\x05x\x91?'
p76
tp77
Rp78
sg29
g33
(g37
S'\t\xf5J\x8c\xca\x93\xae?'
p79
tp80
Rp81
ssS'paralog'
p82
(lp83
S'YPR157W'
p84
aS'YGR141W'
p85
asS'alignment_file'
p86
S'/Users/xji3/Genconv/PairsAlignemt/YPR157W_YGR141W/YPR157W_YGR141W_input.fasta'
p87
sS'x_clock'
p88
(lp89
F-0.7196275375081294
aF-0.5983507063582343
aF-0.8416438712902692
aF1.1702554486345689
aF-0.5412122771607046
aF-1.283179219845806
aF0.0
aF-0.04635670764043931
aF-1.0509219346605365
aF-0.18634381207590406
aF-0.2512647402073988
aF-0.4497603341214618
asS'x'
p90
(lp91
F-0.7196275375081294
aF-0.5983507063582343
aF-0.8416438712902692
aF1.1702554486345689
aF-0.5412122771607046
aF-4.377657316201004
aF-3.2678267485515464
aF-4.15234521214045
aF-3.8335726580290195
aF-2.566801674222686
aF-2.3804578621467822
aF-1.7597271387362163
aF-1.3295359274862455
aF-3.2678267485515464
aF-1.283179219845806
aF-4.071052998701436
aF-2.818066414430085
asS'Model'
p92
S'HKY'
p93
s.