(dp0
S'Force'
p1
(dp2
I5
F0.0
ssS'ExpectedGeneconv'
p3
(dp4
(S'N0'
p5
S'N1'
p6
tp7
F0.33581573291550515
s(S'N5'
p8
S'cerevisiae'
p9
tp10
F7.568347720404448
s(S'N2'
p11
S'N3'
p12
tp13
F0.8753295422903058
s(S'N4'
p14
g8
tp15
F3.7926816921616777
s(g6
S'castellii'
p16
tp17
F14.40497994270378
s(g11
S'bayanus'
p18
tp19
F7.592500601685369
s(g6
g11
tp20
F42.03683115276276
s(g12
S'kudriavzevii'
p21
tp22
F7.983434603877987
s(g8
S'paradoxus'
p23
tp24
F5.374918246122679
s(g5
S'kluyveri'
p25
tp26
F0.0
s(g12
g14
tp27
F3.152421202367664
s(g14
S'mikatae'
p28
tp29
F12.024075588680907
ssS'newicktree'
p30
S'../PairsAlignemt/YeastTree.newick'
p31
sS'll'
p32
cnumpy.core.multiarray
scalar
p33
(cnumpy
dtype
p34
(S'f8'
p35
I0
I1
tp36
Rp37
(I3
S'<'
p38
NNNI-1
I-1
I0
tp39
bS'H\x14\x9e9\x7f\t\xa7\xc0'
p40
tp41
Rp42
sS'clock'
p43
I00
sS'edge_to_blen'
p44
(dp45
g20
g33
(g37
S'\xda\xd8A5m?\xec?'
p46
tp47
Rp48
sg10
g33
(g37
S'\xe6i\x1d\xa2\xf4R\xbe?'
p49
tp50
Rp51
sg13
g33
(g37
S'3\xcb.\x8cK\xb3\x8a?'
p52
tp53
Rp54
sg15
g33
(g37
S'\t\xc7\xdd!1\xd1\xb6?'
p55
tp56
Rp57
sg17
g33
(g37
S'\xb8\xc2\x93u\x07\xe7\xd3?'
p58
tp59
Rp60
sg19
g33
(g37
S'FZ\x86b\x9a\xf7\xca?'
p61
tp62
Rp63
sg7
g33
(g37
S'\xc1\xd0\xef\xb403\xa7?'
p64
tp65
Rp66
sg22
g33
(g37
S'\xe2\x01\x96WB(\xc5?'
p67
tp68
Rp69
sg24
g33
(g37
S'\x8e<\xe9\xdeem\xb5?'
p70
tp71
Rp72
sg26
g33
(g37
S'\xc4\xee0\xd5VB\xda?'
p73
tp74
Rp75
sg27
g33
(g37
S'\xe4e\x15\xcb49\xa4?'
p76
tp77
Rp78
sg29
g33
(g37
S'a3\x07\x92#\xa3\xc7?'
p79
tp80
Rp81
ssS'paralog'
p82
(lp83
S'YPL037C'
p84
aS'YDR252W'
p85
asS'alignment_file'
p86
S'../PairsAlignemt/YPL037C_YDR252W/YPL037C_YDR252W_input.fasta'
p87
sS'x_clock'
p88
(lp89
F-0.5927478485034032
aF-0.45909994368366996
aF-0.7307333041599983
aF0.1823215567939546
aF-0.10536051565782628
aF0.3364722366212129
aF-0.10536051565782628
aF-0.10536051565782628
aF-0.10536051565782628
aF-0.10536051565782628
aF-0.10536051565782628
aF-0.10536051565782628
aF-0.10536051565782628
asS'x'
p90
(lp91
F-0.678393114481937
aF-0.43548910367825866
aF-0.7801763182727846
aF1.0504046156193936
aF-1.8588983544558508
aF1.19617746
aF-0.12472173569988093
aF-2.1332364721785844
aF-4.339941506440824
aF-2.4176647375560383
aF-1.1680398632909035
aF-1.557408970644839
aF-3.0941739861725774
aF-1.8000470461785603
aF-2.4805099696373976
aF-0.8908690610624791
aF-3.23148121879405
aF-1.6892059193959084
asS'Model'
p92
S'MG94'
p93
s.