(dp0
S'Force'
p1
(dp2
I5
F0.0
ssS'ExpectedGeneconv'
p3
(dp4
(S'N0'
p5
S'N1'
p6
tp7
F0.044156178820505536
s(S'N5'
p8
S'cerevisiae'
p9
tp10
F3.2496245075866037
s(S'N2'
p11
S'N3'
p12
tp13
F0.28193856246213717
s(S'N4'
p14
g8
tp15
F0.6696972794218782
s(g6
S'castellii'
p16
tp17
F8.56057456897967
s(g11
S'bayanus'
p18
tp19
F2.6329407396907087
s(g6
g11
tp20
F3.5866681443356967
s(g12
S'kudriavzevii'
p21
tp22
F1.6413012174016859
s(g8
S'paradoxus'
p23
tp24
F2.8142177393692807
s(g5
S'kluyveri'
p25
tp26
F0.0
s(g12
g14
tp27
F0.3327242936283673
s(g14
S'mikatae'
p28
tp29
F7.585641484742885
ssS'newicktree'
p30
S'../PairsAlignemt/YeastTree.newick'
p31
sS'll'
p32
cnumpy.core.multiarray
scalar
p33
(cnumpy
dtype
p34
(S'f8'
p35
I0
I1
tp36
Rp37
(I3
S'<'
p38
NNNI-1
I-1
I0
tp39
bS"\xc0\x02'\x01\x8d\xfa\x92\xc0"
p40
tp41
Rp42
sS'clock'
p43
I01
sS'edge_to_blen'
p44
(dp45
g20
g33
(g37
S"\x9a;h^'\x06\xa2?"
p46
tp47
Rp48
sg10
g33
(g37
S'\r`\x06\xfc\x17\xc5\x9e?'
p49
tp50
Rp51
sg13
g33
(g37
S'\x1f\x1f\x86%\xe2;\x85?'
p52
tp53
Rp54
sg15
g33
(g37
S'mP\xaek\x83\x15\x7f?'
p55
tp56
Rp57
sg17
g33
(g37
S'\xac\x96\xb9\xab\x85\\\xb7?'
p58
tp59
Rp60
sg19
g33
(g37
S'\xbc\xf1\n\xf9\xe3\xb2\xac?'
p61
tp62
Rp63
sg7
g33
(g37
S'9#\xcd*\xfd\xd7\x84?'
p64
tp65
Rp66
sg22
g33
(g37
S'\xf2i\xa9o\xebc\xa7?'
p67
tp68
Rp69
sg24
g33
(g37
S'\r`\x06\xfc\x17\xc5\x9e?'
p70
tp71
Rp72
sg26
g33
(g37
S'7\x82\xbd\x94G\\\xc5?'
p73
tp74
Rp75
sg27
g33
(g37
S'{\xbf\xc1\x10\xbcz\x80?'
p76
tp77
Rp78
sg29
g33
(g37
S'\x13\xfaxk<E\xa3?'
p79
tp80
Rp81
ssS'paralog'
p82
(lp83
S'YLR406C'
p84
aS'YDL075W'
p85
asS'alignment_file'
p86
S'../PairsAlignemt/YLR406C_YDL075W/YLR406C_YDL075W_input.fasta'
p87
sS'x_clock'
p88
(lp89
F-0.6503721110705284
aF-0.4855083620429609
aF-0.9522704321722865
aF1.7348820586450502
aF-2.5861100056654434
aF1.23836258
aF-2.008752843576933
aF-0.2796027980339958
aF-0.10573608790017068
aF-0.48737789597676606
aF-0.20453311331555846
aF-0.1937488865353369
aF-0.22518333106871036
asS'x'
p90
(lp91
F-0.6503721110705284
aF-0.4855083620429609
aF-0.9522704321722865
aF1.7348820586450502
aF-2.5861100056654434
aF1.23836258
aF-3.346618301412554
aF-3.5049349564074714
aF-4.569019107939925
aF-4.881071772894792
aF-2.3940917295110995
aF-2.8814696254878656
aF-4.587566916818835
aF-3.0860027388034244
aF-3.5049349564074714
aF-1.790488375552153
aF-4.8225059191207205
aF-3.2797516253387613
asS'Model'
p92
S'MG94'
p93
s.