(dp0
S'Force'
p1
(dp2
I4
F0.0
ssS'ExpectedGeneconv'
p3
(dp4
(S'N1'
p5
S'N2'
p6
tp7
F110.2184458735462
s(S'N5'
p8
S'cerevisiae'
p9
tp10
F32.561283519689916
s(g6
S'N3'
p11
tp12
F25.442781238365214
s(S'N4'
p13
g8
tp14
F22.531145376401156
s(g5
S'castellii'
p15
tp16
F134.730574204782
s(g6
S'bayanus'
p17
tp18
F46.515237293349074
s(S'N0'
p19
g5
tp20
F12.501143761950162
s(g11
S'kudriavzevii'
p21
tp22
F36.05220887778608
s(g8
S'paradoxus'
p23
tp24
F29.313684704599716
s(g13
S'mikatae'
p25
tp26
F44.22028163315777
s(g11
g13
tp27
F22.136465439927072
s(g19
S'kluyveri'
p28
tp29
F0.0
ssS'newicktree'
p30
S'/Users/xji3/Genconv/PairsAlignemt/YeastTree.newick'
p31
sS'll'
p32
cnumpy.core.multiarray
scalar
p33
(cnumpy
dtype
p34
(S'f8'
p35
I0
I1
tp36
Rp37
(I3
S'<'
p38
NNNI-1
I-1
I0
tp39
bS'\x9f\xcb\x13\x94\x02\xe9\xc2\xc0'
p40
tp41
Rp42
sS'clock'
p43
I00
sS'edge_to_blen'
p44
(dp45
g20
g33
(g37
S'P\xbe\xd3[i\xb6\xb7?'
p46
tp47
Rp48
sg10
g33
(g37
S'Z\xcd\xbd\x99\x06g\xa9?'
p49
tp50
Rp51
sg12
g33
(g37
S"'\x00\xd4\xed@C\xa4?"
p52
tp53
Rp54
sg14
g33
(g37
S'Ql5\x8b\x08`\x9f?'
p55
tp56
Rp57
sg16
g33
(g37
S'WX\xdcH\xdf\xec\xd0?'
p58
tp59
Rp60
sg18
g33
(g37
S'\xcc\x00\xc8\x8a\x82,\xb1?'
p61
tp62
Rp63
sg7
g33
(g37
S'\x93I\xcb@{}\xcf?'
p64
tp65
Rp66
sg22
g33
(g37
S';\xb2\x88\xc6\x8f\xe1\xad?'
p67
tp68
Rp69
sg24
g33
(g37
S'\x157\\\x039!\xa1?'
p70
tp71
Rp72
sg26
g33
(g37
S'h_\xe7\xd4j\xf3\xac?'
p73
tp74
Rp75
sg27
g33
(g37
S'M\x04\xa7)\xacj\x9d?'
p76
tp77
Rp78
sg29
g33
(g37
S'\x92\xad*\xc5\tM\xc7?'
p79
tp80
Rp81
ssS'paralog'
p82
(lp83
S'YDR438W'
p84
aS'YML018C'
p85
asS'alignment_file'
p86
S'/Users/xji3/Genconv/PairsAlignemt/YDR438W_YML018C/YDR438W_YML018C_input.fasta'
p87
sS'x_clock'
p88
(lp89
F-0.7633815781415422
aF-0.5563305639462164
aF-0.9394588943114655
aF1.2417813953293402
aF-1.6471709063680333
aF-1.045251006145963
aF0.0
aF-0.2337279194203666
aF-1.1669900658425962
aF-0.2028935006263439
aF-0.2672870643443777
aF-0.47114411858182964
asS'x'
p90
(lp91
F-0.7608391767265782
aF-0.5499685071383295
aF-0.9472961112249618
aF1.222749747967516
aF-1.6471709063680333
aF-2.3791732053225263
aF-3.0034792168095827
aF-3.229542399318706
aF-3.48545625300724
aF-1.3300745998376529
aF-2.7017885814973317
aF-1.4023550861370402
aF-2.841098448505407
aF-3.397506377513808
aF-2.8727250994574325
aF-3.5499096224410023
aF-1.7035369757693992
asS'Model'
p92
S'HKY'
p93
s.