(dp0
S'Force'
p1
(dp2
I5
F0.0
ssS'ExpectedGeneconv'
p3
(dp4
(S'N0'
p5
S'N1'
p6
tp7
F5.80989233924609
s(S'N5'
p8
S'cerevisiae'
p9
tp10
F10.728719247188085
s(S'N2'
p11
S'N3'
p12
tp13
F5.628795237844589
s(S'N4'
p14
g8
tp15
F5.426045077014818
s(g6
S'castellii'
p16
tp17
F222.84428358391534
s(g11
S'bayanus'
p18
tp19
F28.394953742099315
s(g6
g11
tp20
F187.21966067351954
s(g12
S'kudriavzevii'
p21
tp22
F24.175764353222306
s(g8
S'paradoxus'
p23
tp24
F12.198647435663037
s(g5
S'kluyveri'
p25
tp26
F0.0
s(g12
g14
tp27
F4.258876551822652
s(g14
S'mikatae'
p28
tp29
F23.165813618390917
ssS'newicktree'
p30
S'../PairsAlignemt/YeastTree.newick'
p31
sS'll'
p32
cnumpy.core.multiarray
scalar
p33
(cnumpy
dtype
p34
(S'f8'
p35
I0
I1
tp36
Rp37
(I3
S'<'
p38
NNNI-1
I-1
I0
tp39
bS'\xe2\xfb\xe4\xa8\x9f\xa7\xaa\xc0'
p40
tp41
Rp42
sS'clock'
p43
I01
sS'edge_to_blen'
p44
(dp45
g20
g33
(g37
S'yzt\xf6E\xee\x07@'
p46
tp47
Rp48
sg10
g33
(g37
S'u\xc8\xebW\x06\x9c\xc8?'
p49
tp50
Rp51
sg13
g33
(g37
S'\x05&`u\xd7\xd6\xbb?'
p52
tp53
Rp54
sg15
g33
(g37
S'\xb54!\xb6\x17l\xbf?'
p55
tp56
Rp57
sg17
g33
(g37
S'\x95\xc7\xaf\x01\xc1\x0f\x0c@'
p58
tp59
Rp60
sg19
g33
(g37
S'h4\xed,\xec\x85\xe0?'
p61
tp62
Rp63
sg7
g33
(g37
S']c{\x91\x96\xb2\xd0?'
p64
tp65
Rp66
sg22
g33
(g37
S'O_\x82|"\x16\xda?'
p67
tp68
Rp69
sg24
g33
(g37
S'u\xc8\xebW\x06\x9c\xc8?'
p70
tp71
Rp72
sg26
g33
(g37
S'\x8d\x9dc\xfd\xd2\xb2\x16@'
p73
tp74
Rp75
sg27
g33
(g37
S'\x9b\xb7\x10\x8ce\xb4\xb7?'
p76
tp77
Rp78
sg29
g33
(g37
S'g1~\x19\t)\xd4?'
p79
tp80
Rp81
ssS'paralog'
p82
(lp83
S'YIL057C'
p84
aS'YER067W'
p85
asS'alignment_file'
p86
S'../PairsAlignemt/YIL057C_YER067W/YIL057C_YER067W_input.fasta'
p87
sS'x_clock'
p88
(lp89
F-0.6649358737084625
aF-0.609065131188931
aF-0.8154947490690647
aF0.8006175054175763
aF-3.2798796316049823
aF1.23836258
aF1.552150424807958
aF-0.22544883372210955
aF-0.07174322007894295
aF-1.9159327536178892
aF-0.23649215236737178
aF-0.25770146745793543
aF-0.4937308604055375
asS'x'
p90
(lp91
F-0.6649358737084625
aF-0.609065131188931
aF-0.8154947490690647
aF0.8006175054175763
aF-3.2798796316049823
aF1.23836258
aF1.095722912033016
aF-1.6488988628418282
aF-2.21873144216727
aF-2.09766162360915
aF1.2549583710069057
aF-0.6609743826109837
aF-1.3436174885643477
aF-0.8974665349783554
aF-1.6488988628418282
aF1.736005889420283
aF-2.379505180080643
aF-1.155168002436291
asS'Model'
p92
S'MG94'
p93
s.