(dp0
S'Force'
p1
(dp2
I4
F0.0
ssS'ExpectedGeneconv'
p3
(dp4
(S'N0'
p5
S'N1'
p6
tp7
F0.07924414608521765
s(S'N5'
p8
S'cerevisiae'
p9
tp10
F52.22743909227166
s(S'N2'
p11
S'N3'
p12
tp13
F9.85512870040332
s(S'N4'
p14
g8
tp15
F28.95599473295182
s(g6
S'castellii'
p16
tp17
F188.4425636982958
s(g11
S'bayanus'
p18
tp19
F79.816793695847
s(g6
g11
tp20
F90.89666639560905
s(g12
S'kudriavzevii'
p21
tp22
F72.95820539847082
s(g8
S'paradoxus'
p23
tp24
F44.31928639190664
s(g14
S'mikatae'
p25
tp26
F68.91546569926952
s(g12
g14
tp27
F30.348794955670442
s(g5
S'kluyveri'
p28
tp29
F0.0
ssS'newicktree'
p30
S'/Users/xji3/Genconv/PairsAlignemt/YeastTree.newick'
p31
sS'll'
p32
cnumpy.core.multiarray
scalar
p33
(cnumpy
dtype
p34
(S'f8'
p35
I0
I1
tp36
Rp37
(I3
S'<'
p38
NNNI-1
I-1
I0
tp39
bS';\xe0\x8d\xb5\xac\xb7\xca\xc0'
p40
tp41
Rp42
sS'clock'
p43
I01
sS'edge_to_blen'
p44
(dp45
g20
g33
(g37
S'\xdcV}\xe15a\xcb?'
p46
tp47
Rp48
sg10
g33
(g37
S'\x9b\xe7\xff\x8b\xb3\x19\xa0?'
p49
tp50
Rp51
sg13
g33
(g37
S'\x8b\x1b\xc8\x98\xcb\xa4\x8c?'
p52
tp53
Rp54
sg15
g33
(g37
S'.\x9e\xfd\xef\x0c\xc5\x94?'
p55
tp56
Rp57
sg17
g33
(g37
S'\x1d\xb79\x95\x1f\t\xd3?'
p58
tp59
Rp60
sg19
g33
(g37
S'\xbc.\xec\x91\x12b\xb5?'
p61
tp62
Rp63
sg7
g33
(g37
S'v*\xee\xb7\xd9\xc2v?'
p64
tp65
Rp66
sg22
g33
(g37
S'K+\xd3\x1ey\xcd\xb1?'
p67
tp68
Rp69
sg24
g33
(g37
S'\x9b\xe7\xff\x8b\xb3\x19\xa0?'
p70
tp71
Rp72
sg26
g33
(g37
S'\xb0\xb6\xfe\x03:|\xaa?'
p73
tp74
Rp75
sg27
g33
(g37
S'\xcb?Osp=\x92?'
p76
tp77
Rp78
sg29
g33
(g37
S'\xc7o\x19\xfc*d\xd3?'
p79
tp80
Rp81
ssS'paralog'
p82
(lp83
S'YDR518W'
p84
aS'YCL043C'
p85
asS'alignment_file'
p86
S'/Users/xji3/Genconv/PairsAlignemt/YDR518W_YCL043C/YDR518W_YCL043C_input.fasta'
p87
sS'x_clock'
p88
(lp89
F-0.7460709694386032
aF-0.5167831947376477
aF-0.7518817856809237
aF1.2813233499734606
aF-1.1209435730118897
aF-1.1940595566978043
aF0.0
aF-0.018510611411407387
aF-1.270006579765663
aF-0.18325453107095985
aF-0.29590498490854494
aF-0.49774449832500234
asS'x'
p90
(lp91
F-0.7460709694386032
aF-0.5167831947376477
aF-0.7518817856809237
aF1.2813233499734606
aF-1.1209435730118897
aF-1.5422273635369923
aF-3.459480762179382
aF-4.2696843578382015
aF-3.897975231830043
aF-1.2125701681092118
aF-2.482576747874875
aF-5.1927117071954605
aF-2.6658312789458347
aF-3.459480762179382
aF-2.96173626385438
aF-4.027854979540956
aF-1.1940595566978043
asS'Model'
p92
S'HKY'
p93
s.