(dp0
S'Force'
p1
(dp2
I5
F0.0
ssS'ExpectedGeneconv'
p3
(dp4
(S'N0'
p5
S'N1'
p6
tp7
F2.5050190681073197
s(S'N5'
p8
S'cerevisiae'
p9
tp10
F26.12327247498693
s(S'N2'
p11
S'N3'
p12
tp13
F13.996960317486701
s(S'N4'
p14
g8
tp15
F17.73465297984037
s(g6
S'castellii'
p16
tp17
F134.62143968836327
s(g11
S'bayanus'
p18
tp19
F24.2716174929256
s(g6
g11
tp20
F19.156801601627585
s(g12
S'kudriavzevii'
p21
tp22
F43.28880692315771
s(g8
S'paradoxus'
p23
tp24
F22.003860924186913
s(g5
S'kluyveri'
p25
tp26
F0.0
s(g12
g14
tp27
F21.98818131677777
s(g14
S'mikatae'
p28
tp29
F49.36964661277225
ssS'newicktree'
p30
S'../PairsAlignemt/YeastTree.newick'
p31
sS'll'
p32
cnumpy.core.multiarray
scalar
p33
(cnumpy
dtype
p34
(S'f8'
p35
I0
I1
tp36
Rp37
(I3
S'<'
p38
NNNI-1
I-1
I0
tp39
bS'\x0c\xe3J\x94:\xe5\xb6\xc0'
p40
tp41
Rp42
sS'clock'
p43
I00
sS'edge_to_blen'
p44
(dp45
g20
g33
(g37
S'\x99\xc9jq\x82"\xc1?'
p46
tp47
Rp48
sg10
g33
(g37
S'\xc4W CAM\xb4?'
p49
tp50
Rp51
sg13
g33
(g37
S'\x10\xf7\x14jz\xa6\xac?'
p52
tp53
Rp54
sg15
g33
(g37
S'}\x063\xa7\xd9\x1d\xae?'
p55
tp56
Rp57
sg17
g33
(g37
S'F1\x1cJ\x00\xfc\xdf?'
p58
tp59
Rp60
sg19
g33
(g37
S'\xb0\xd5\xf6\xae\x84\x03\xc0?'
p61
tp62
Rp63
sg7
g33
(g37
S'\xf2\xa5\x1c@S\x9f\xae?'
p64
tp65
Rp66
sg22
g33
(g37
S'd\xa9\x9d\xdf\xa8\x90\xc2?'
p67
tp68
Rp69
sg24
g33
(g37
S"Y\xcc\xc8\x00\xfd'\xb4?"
p70
tp71
Rp72
sg26
g33
(g37
S"\x1f\xa4\x07'm\x97\xd1?"
p73
tp74
Rp75
sg27
g33
(g37
S'*1E"$Y\xb1?'
p76
tp77
Rp78
sg29
g33
(g37
S'\x12\xae\xc2\xad\x1f\xf8\xc4?'
p79
tp80
Rp81
ssS'paralog'
p82
(lp83
S'YDR502C'
p84
aS'YLR180W'
p85
asS'alignment_file'
p86
S'../PairsAlignemt/YDR502C_YLR180W/YDR502C_YLR180W_input.fasta'
p87
sS'x_clock'
p88
(lp89
F-0.6697946532606092
aF-0.6092883084798876
aF-0.7799960768438013
aF0.1823215567939546
aF-0.10536051565782628
aF0.3364722366212129
aF-0.10536051565782628
aF-0.10536051565782628
aF-0.10536051565782628
aF-0.10536051565782628
aF-0.10536051565782628
aF-0.10536051565782628
aF-0.10536051565782628
asS'x'
p90
(lp91
F-0.7788676310887301
aF-0.5576991284644331
aF-0.883079899769855
aF1.347745782670987
aF-3.164331800265321
aF1.19617746
aF-2.010918611269858
aF-2.5344690217543677
aF-2.8831605224158756
aF-2.833248031489063
aF-0.6936354429497598
aF-2.0785829516965317
aF-2.8165940316876723
aF-1.9307480392074667
aF-2.5416652992421933
aF-1.2914667247454654
aF-2.691688251257656
aF-1.808973977642958
asS'Model'
p92
S'MG94'
p93
s.