(dp0
S'Force'
p1
(dp2
I4
F0.0
ssS'ExpectedGeneconv'
p3
(dp4
(S'N0'
p5
S'N1'
p6
tp7
F0.4096989222553389
s(S'N5'
p8
S'cerevisiae'
p9
tp10
F31.727857132218904
s(S'N2'
p11
S'N3'
p12
tp13
F5.106504962003564
s(S'N4'
p14
g8
tp15
F26.60934784833379
s(g12
S'kudriavzevii'
p16
tp17
F47.03890131339989
s(g11
S'bayanus'
p18
tp19
F49.64140076745771
s(g6
g11
tp20
F63.981456934226486
s(g6
S'castellii'
p21
tp22
F107.97553990555598
s(g8
S'paradoxus'
p23
tp24
F26.54350279730312
s(g14
S'mikatae'
p25
tp26
F50.653684539026514
s(g12
g14
tp27
F14.584887929372874
s(g5
S'kluyveri'
p28
tp29
F0.0
ssS'newicktree'
p30
S'/Users/xji3/Genconv/PairsAlignemt/YeastTree.newick'
p31
sS'll'
p32
cnumpy.core.multiarray
scalar
p33
(cnumpy
dtype
p34
(S'f8'
p35
I0
I1
tp36
Rp37
(I3
S'<'
p38
NNNI-1
I-1
I0
tp39
bS'\xd3\x94m\x84I\x8e\xbf\xc0'
p40
tp41
Rp42
sS'clock'
p43
I01
sS'edge_to_blen'
p44
(dp45
g20
g33
(g37
S'\x8c\x86R`{\x04\xcf?'
p46
tp47
Rp48
sg10
g33
(g37
S'Dp\xc2Tt\x9f\xa6?'
p49
tp50
Rp51
sg13
g33
(g37
S'am\xe2\x14Y\xa9\x83?'
p52
tp53
Rp54
sg15
g33
(g37
S'\xa0Q\x9ar\x8f\xfa\x9c?'
p55
tp56
Rp57
sg17
g33
(g37
S'\xef#\xee\xa3\xe7>\xb8?'
p58
tp59
Rp60
sg19
g33
(g37
S'\x99q\x8a\xc6\x12\xb4\xba?'
p61
tp62
Rp63
sg7
g33
(g37
S'\x96\xa1\xaf\x92\xc5\xfc\x91?'
p64
tp65
Rp66
sg22
g33
(g37
S'\xad\xdf\xcbaB/\xd6?'
p67
tp68
Rp69
sg24
g33
(g37
S'Dp\xc2Tt\x9f\xa6?'
p70
tp71
Rp72
sg26
g33
(g37
S'\x8b\xcc\x07\x07^\x8e\xb2?'
p73
tp74
Rp75
sg27
g33
(g37
S'\x8e]\x99s&\xc2\x96?'
p76
tp77
Rp78
sg29
g33
(g37
S'\xc6\xd9\xf6\xba\x0eO\xd7?'
p79
tp80
Rp81
ssS'paralog'
p82
(lp83
S'YLR284C'
p84
aS'YOR180C'
p85
asS'alignment_file'
p86
S'/Users/xji3/Genconv/PairsAlignemt/YLR284C_YOR180C/YLR284C_YOR180C_input.fasta'
p87
sS'x_clock'
p88
(lp89
F-0.676213136013458
aF-0.5574115563531062
aF-0.8912360547244405
aF1.249208181568448
aF-1.304039266591505
aF-1.0100513172685885
aF0.0
aF-0.04943311145134395
aF-1.2009016872736507
aF-0.09655113692122921
aF-0.2674404167889864
aF-0.4949856659171269
asS'x'
p90
(lp91
F-0.676213136013458
aF-0.5574115563531062
aF-0.8912360547244405
aF1.249208181568448
aF-1.304039266591505
aF-1.417478458454345
aF-3.1193633356209256
aF-4.645955787583405
aF-3.5649089566712284
aF-2.356937252914812
aF-2.260386115993583
aF-4.041800864072402
aF-1.0594844287199323
aF-3.1193633356209256
aF-2.6243776697037986
aF-3.8065375316695085
aF-1.0100513172685885
asS'Model'
p92
S'HKY'
p93
s.