(dp0
S'Force'
p1
(dp2
I5
F0.0
ssS'ExpectedGeneconv'
p3
(dp4
(S'N0'
p5
S'N1'
p6
tp7
F3.256242598239769
s(S'N5'
p8
S'cerevisiae'
p9
tp10
F48.39738456590337
s(S'N2'
p11
S'N3'
p12
tp13
F50.05542605253153
s(S'N4'
p14
g8
tp15
F25.66255238115695
s(g6
S'castellii'
p16
tp17
F447.65571403596516
s(g11
S'bayanus'
p18
tp19
F90.88720152612554
s(g6
g11
tp20
F295.8231042157098
s(g12
S'kudriavzevii'
p21
tp22
F75.82568811398582
s(g8
S'paradoxus'
p23
tp24
F36.781399191669394
s(g5
S'kluyveri'
p25
tp26
F0.0
s(g12
g14
tp27
F30.293325872923845
s(g14
S'mikatae'
p28
tp29
F89.67121020385976
ssS'newicktree'
p30
S'../PairsAlignemt/YeastTree.newick'
p31
sS'll'
p32
cnumpy.core.multiarray
scalar
p33
(cnumpy
dtype
p34
(S'f8'
p35
I0
I1
tp36
Rp37
(I3
S'<'
p38
NNNI-1
I-1
I0
tp39
bS'm2M\x99\x15\xc1\xcb\xc0'
p40
tp41
Rp42
sS'clock'
p43
I00
sS'edge_to_blen'
p44
(dp45
g20
g33
(g37
S'\xfcG\xc79\xe3y\xef?'
p46
tp47
Rp48
sg10
g33
(g37
S'\xfc-\xc1\xfdW\xe5\xc3?'
p49
tp50
Rp51
sg13
g33
(g37
S'\xf3`\x8a\xc4z]\xc3?'
p52
tp53
Rp54
sg15
g33
(g37
S'k\xa8\xbf\x96P5\xb4?'
p55
tp56
Rp57
sg17
g33
(g37
S'\xfd3\xec[\xa0\x90\xf6?'
p58
tp59
Rp60
sg19
g33
(g37
S'\x05\x7fok\xe7\xcf\xd0?'
p61
tp62
Rp63
sg7
g33
(g37
S"'\xfbq\xca)\xe4\xb0?"
p64
tp65
Rp66
sg22
g33
(g37
S'\n\xa2\x9e]vB\xce?'
p67
tp68
Rp69
sg24
g33
(g37
S'4Ah\x9b\xf0)\xba?'
p70
tp71
Rp72
sg26
g33
(g37
S'\xb2\x84\x1c\xc8G\xd5\xfd?'
p73
tp74
Rp75
sg27
g33
(g37
S'\xcb\xfd,s\xb9~\xb8?'
p76
tp77
Rp78
sg29
g33
(g37
S'\x89\xa0\xf1\x92\x87\xa8\xd0?'
p79
tp80
Rp81
ssS'paralog'
p82
(lp83
S'YPR159W'
p84
aS'YGR143W'
p85
asS'alignment_file'
p86
S'../PairsAlignemt/YPR159W_YGR143W/YPR159W_YGR143W_input.fasta'
p87
sS'x_clock'
p88
(lp89
F-0.6827832045874571
aF-0.5347227581797637
aF-0.9200660102601093
aF0.1823215567939546
aF-0.10536051565782628
aF0.3364722366212129
aF-0.10536051565782628
aF-0.10536051565782628
aF-0.10536051565782628
aF-0.10536051565782628
aF-0.10536051565782628
aF-0.10536051565782628
aF-0.10536051565782628
asS'x'
p90
(lp91
F-0.7053693250443898
aF-0.4460530465828815
aF-1.0661854515848888
aF1.1242231952793165
aF-2.613052470302683
aF1.19617746
aF-0.01650663044892816
aF-1.8615178959186127
aF-1.8885549707629616
aF-2.5390859663238787
aF0.34380895718168164
aF-1.336782735008977
aF-2.718380957601103
aF-1.442216159165734
aF-2.2807996127539036
aF0.6230306831173559
aF-2.34670772553191
aF-1.3459733703774859
asS'Model'
p92
S'MG94'
p93
s.