(dp0
S'Force'
p1
(dp2
I4
F0.0
ssS'ExpectedGeneconv'
p3
(dp4
(S'N1'
p5
S'N2'
p6
tp7
F13.177409076485324
s(S'N5'
p8
S'cerevisiae'
p9
tp10
F13.437369694825506
s(g6
S'N3'
p11
tp12
F3.933251354734722
s(S'N4'
p13
g8
tp14
F4.508982094711012
s(g5
S'castellii'
p15
tp16
F16.388064342073772
s(g6
S'bayanus'
p17
tp18
F5.51720440346012
s(S'N0'
p19
g5
tp20
F0.0015038483024882136
s(g11
S'kudriavzevii'
p21
tp22
F14.155195404329323
s(g8
S'paradoxus'
p23
tp24
F9.178687562958235
s(g19
S'kluyveri'
p25
tp26
F0.0
s(g11
g13
tp27
F3.610372771322101
s(g13
S'mikatae'
p28
tp29
F13.48484876349007
ssS'newicktree'
p30
S'/Users/xji3/Genconv/PairsAlignemt/YeastTree.newick'
p31
sS'll'
p32
cnumpy.core.multiarray
scalar
p33
(cnumpy
dtype
p34
(S'f8'
p35
I0
I1
tp36
Rp37
(I3
S'<'
p38
NNNI-1
I-1
I0
tp39
bS'\xa2\xafw\x98C\x99\xa1\xc0'
p40
tp41
Rp42
sS'clock'
p43
I00
sS'edge_to_blen'
p44
(dp45
g20
g33
(g37
S"\xf5'\xef\xf3\xaf1U?"
p46
tp47
Rp48
sg10
g33
(g37
S'\xcd\x8a\xd4\xd2m)\xa0?'
p49
tp50
Rp51
sg12
g33
(g37
S'\x1e\xa9\x7f\xc8Y\x14\x95?'
p52
tp53
Rp54
sg14
g33
(g37
S'\xecB\x87\x9aF!\x8e?'
p55
tp56
Rp57
sg16
g33
(g37
S'E\x06\xeb\xdf\x0c\xe7\xb8?'
p58
tp59
Rp60
sg18
g33
(g37
S'\x0e\xa0<\x14\x1d\x89\x9d?'
p61
tp62
Rp63
sg7
g33
(g37
S'\xd1\xdb\xbeS\x8b\xca\xb6?'
p64
tp65
Rp66
sg22
g33
(g37
S'\x8d\xe6>:\xad\xf4\xa6?'
p67
tp68
Rp69
sg24
g33
(g37
S'\xfd\x9fy\x94\x12\xcc\x97?'
p70
tp71
Rp72
sg26
g33
(g37
S'P4Rai\x97\xb7?'
p73
tp74
Rp75
sg27
g33
(g37
S'\xd4\xa4\xeas$\xbf\x82?'
p76
tp77
Rp78
sg29
g33
(g37
S'q}Ac\x9a\x99\xa3?'
p79
tp80
Rp81
ssS'paralog'
p82
(lp83
S'YJR048W'
p84
aS'YEL039C'
p85
asS'alignment_file'
p86
S'/Users/xji3/Genconv/PairsAlignemt/YJR048W_YEL039C/YJR048W_YEL039C_input.fasta'
p87
sS'x_clock'
p88
(lp89
F-0.6609015306480598
aF-0.5133155751179677
aF-0.7683695548303063
aF1.5240973072725965
aF1.16162397488392
aF-2.1194513993730557
aF0.0
aF-0.12785599231037303
aF-1.098689725003263
aF-0.136190912411064
aF-0.1575211962506556
aF-0.4023457217910569
asS'x'
p90
(lp91
F-0.6866492154082604
aF-0.5107345356991384
aF-0.7974545609902297
aF1.5145496573402688
aF1.16162397488392
aF-6.650338107761791
aF-3.455672210521369
aF-3.8831710393822054
aF-4.219098178127106
aF-2.3302076300665937
aF-3.5458754914833044
aF-2.418803454126061
aF-3.1047553805830543
aF-3.7619056224694356
aF-2.3842930131636564
aF-4.693603917675459
aF-3.2627944455571254
asS'Model'
p92
S'HKY'
p93
s.