(dp0
S'Force'
p1
(dp2
I5
F0.0
ssS'ExpectedGeneconv'
p3
(dp4
(S'N0'
p5
S'N1'
p6
tp7
F3.4634957555263566
s(S'N5'
p8
S'cerevisiae'
p9
tp10
F16.19328168663296
s(S'N2'
p11
S'N3'
p12
tp13
F15.276041738371394
s(S'N4'
p14
g8
tp15
F12.120328616365857
s(g12
S'kudriavzevii'
p16
tp17
F24.77411066465972
s(g11
S'bayanus'
p18
tp19
F17.090754599125475
s(g6
g11
tp20
F197.06957582755115
s(g6
S'castellii'
p21
tp22
F232.44554824131967
s(g8
S'paradoxus'
p23
tp24
F14.931676714760394
s(g14
S'mikatae'
p25
tp26
F26.895238080836016
s(g12
g14
tp27
F13.551094871171463
s(g5
S'kluyveri'
p28
tp29
F0.0
ssS'newicktree'
p30
S'../PairsAlignemt/YeastTree.newick'
p31
sS'll'
p32
cnumpy.core.multiarray
scalar
p33
(cnumpy
dtype
p34
(S'f8'
p35
I0
I1
tp36
Rp37
(I3
S'<'
p38
NNNI-1
I-1
I0
tp39
bS'}b\xeb\x07a\xc1\xbc\xc0'
p40
tp41
Rp42
sS'clock'
p43
I00
sS'edge_to_blen'
p44
(dp45
g20
g33
(g37
S'g\x18\xfdhw\xcd\x02@'
p46
tp47
Rp48
sg10
g33
(g37
S'\xe4d\xba4K\xe0\xd0?'
p49
tp50
Rp51
sg13
g33
(g37
S'{\xce\xaf\xff\xda0\xc9?'
p52
tp53
Rp54
sg15
g33
(g37
S'\xe0\xc9\x81\xd2\xfcH\xc2?'
p55
tp56
Rp57
sg17
g33
(g37
S'\xbb\xf0e\x10\x8d\xe9\xd4?'
p58
tp59
Rp60
sg19
g33
(g37
S'\x84,\xc0D\xfa,\xd1?'
p61
tp62
Rp63
sg7
g33
(g37
S'\xe4\x85T\x02\xbdW\xc1?'
p64
tp65
Rp66
sg22
g33
(g37
S'\x81\xfbv$\xd8\xa0\x07@'
p67
tp68
Rp69
sg24
g33
(g37
S'\x96\xa9^\x9a\x1f\xd9\xc5?'
p70
tp71
Rp72
sg26
g33
(g37
S'R\x04\xa7,<D\xda?'
p73
tp74
Rp75
sg27
g33
(g37
S'\xfa\x8e\xf1\xc1}\x97\xc7?'
p76
tp77
Rp78
sg29
g33
(g37
S'\x11v\xc5D\x86J\x08@'
p79
tp80
Rp81
ssS'paralog'
p82
(lp83
S'YLR284C'
p84
aS'YOR180C'
p85
asS'alignment_file'
p86
S'../PairsAlignemt/YLR284C_YOR180C/YLR284C_YOR180C_input.fasta'
p87
sS'x_clock'
p88
(lp89
F-0.6316874575440513
aF-0.545729148546448
aF-0.9750788058832884
aF0.1823215567939546
aF-0.10536051565782628
aF0.3364722366212129
aF-0.10536051565782628
aF-0.10536051565782628
aF-0.10536051565782628
aF-0.10536051565782628
aF-0.10536051565782628
aF-0.10536051565782628
aF-0.10536051565782628
asS'x'
p90
(lp91
F-0.6218570784850612
aF-0.5955663489979125
aF-0.9423020519228947
aF0.8754891284113477
aF-2.3752484428752276
aF1.19617746
aF0.8545537921710706
aF-1.3329818458305476
aF-1.6255497618015187
aF-1.9459433188689772
aF-1.1185451639305481
aF-1.3153878504266494
aF-1.9988569923662105
aF1.083003522883968
aF-1.7679145417228688
aF-0.8905870761076841
aF-1.6911326527076929
aF1.110668950671641
asS'Model'
p92
S'MG94'
p93
s.