(dp0
S'Force'
p1
(dp2
I5
F0.0
ssS'ExpectedGeneconv'
p3
(dp4
(S'N0'
p5
S'N1'
p6
tp7
F1.7424807304993344
s(S'N5'
p8
S'cerevisiae'
p9
tp10
F25.543251191607755
s(S'N2'
p11
S'N3'
p12
tp13
F12.86456274040788
s(S'N4'
p14
g8
tp15
F13.711071657308073
s(g6
S'castellii'
p16
tp17
F300.12637363186496
s(g11
S'bayanus'
p18
tp19
F38.07858292997131
s(g6
g11
tp20
F297.71657138038927
s(g12
S'kudriavzevii'
p21
tp22
F29.81130379115515
s(g8
S'paradoxus'
p23
tp24
F20.909924969606042
s(g5
S'kluyveri'
p25
tp26
F0.0
s(g12
g14
tp27
F18.491700114220254
s(g14
S'mikatae'
p28
tp29
F39.89404055002589
ssS'newicktree'
p30
S'../PairsAlignemt/YeastTree.newick'
p31
sS'll'
p32
cnumpy.core.multiarray
scalar
p33
(cnumpy
dtype
p34
(S'f8'
p35
I0
I1
tp36
Rp37
(I3
S'<'
p38
NNNI-1
I-1
I0
tp39
bS"\x05\x1a\xeb'l\xd3\xc8\xc0"
p40
tp41
Rp42
sS'clock'
p43
I00
sS'edge_to_blen'
p44
(dp45
g20
g33
(g37
S'\xedN\xd1@\xb4;\xfe?'
p46
tp47
Rp48
sg10
g33
(g37
S'H\x81R\xc9\x83=\xc2?'
p49
tp50
Rp51
sg13
g33
(g37
S'\x13Zc\xad(\xc9\xbe?'
p52
tp53
Rp54
sg15
g33
(g37
S'\x93\xc7@x\xe1\x15\xb7?'
p55
tp56
Rp57
sg17
g33
(g37
S'\xc9\xdcWJ\xe8y\xfb?'
p58
tp59
Rp60
sg19
g33
(g37
S'd\x1a#\xb0\xeb\xcc\xd0?'
p61
tp62
Rp63
sg7
g33
(g37
S'_3\xd4}\x1d5\xb0?'
p64
tp65
Rp66
sg22
g33
(g37
S'\xd9\xe7\x8e\xbd\x98\xb5\xcb?'
p67
tp68
Rp69
sg24
g33
(g37
S'\xdbo\x8e\x92\x8a\xc3\xbe?'
p70
tp71
Rp72
sg26
g33
(g37
S'\x84>V\xf2\x085\xf5?'
p73
tp74
Rp75
sg27
g33
(g37
S'\xcc\x94=QD\xb2\xbc?'
p76
tp77
Rp78
sg29
g33
(g37
S'\xc4O\n;\xf3\xcc\xcc?'
p79
tp80
Rp81
ssS'paralog'
p82
(lp83
S'YDR518W'
p84
aS'YCL043C'
p85
asS'alignment_file'
p86
S'../PairsAlignemt/YDR518W_YCL043C/YDR518W_YCL043C_input.fasta'
p87
sS'x_clock'
p88
(lp89
F-0.7004188146746013
aF-0.5340398610927587
aF-0.7724249528332213
aF0.1823215567939546
aF-0.10536051565782628
aF0.3364722366212129
aF-0.10536051565782628
aF-0.10536051565782628
aF-0.10536051565782628
aF-0.10536051565782628
aF-0.10536051565782628
aF-0.10536051565782628
aF-0.10536051565782628
asS'x'
p90
(lp91
F-0.7438850545664417
aF-0.5232086309540949
aF-0.7403442164889318
aF0.9113709359546017
aF-2.052748380982622
aF1.19617746
aF0.6363525709732811
aF-1.948397262345208
aF-2.118124648939374
aF-2.4059739579223374
aF0.5407314793793647
aF-1.3374761429380093
aF-2.759704502984544
aF-1.5302599336574803
aF-2.1188376912753855
aF0.28175050440383165
aF-2.1884073353558198
aF-1.491634515706634
asS'Model'
p92
S'MG94'
p93
s.