(dp0
S'Force'
p1
(dp2
I5
F0.0
ssS'ExpectedGeneconv'
p3
(dp4
(S'N0'
p5
S'N1'
p6
tp7
F10.636589735941376
s(S'N5'
p8
S'cerevisiae'
p9
tp10
F37.69482859746031
s(S'N2'
p11
S'N3'
p12
tp13
F12.37840766464715
s(S'N4'
p14
g8
tp15
F6.711657545310209
s(g12
S'kudriavzevii'
p16
tp17
F38.278700600213405
s(g11
S'bayanus'
p18
tp19
F42.61489073607126
s(g6
g11
tp20
F42.656603073472546
s(g6
S'castellii'
p21
tp22
F113.39013628421138
s(g8
S'paradoxus'
p23
tp24
F27.676490990497534
s(g14
S'mikatae'
p25
tp26
F32.35070031523898
s(g12
g14
tp27
F7.003306114300345
s(g5
S'kluyveri'
p28
tp29
F0.0
ssS'newicktree'
p30
S'../PairsAlignemt/YeastTree.newick'
p31
sS'll'
p32
cnumpy.core.multiarray
scalar
p33
(cnumpy
dtype
p34
(S'f8'
p35
I0
I1
tp36
Rp37
(I3
S'<'
p38
NNNI-1
I-1
I0
tp39
bS'K\xff\xea\x15\xbd^\xd5\xc0'
p40
tp41
Rp42
sS'clock'
p43
I01
sS'edge_to_blen'
p44
(dp45
g20
g33
(g37
S'\x15\x16\xa3j\xfe\x19\xb6?'
p46
tp47
Rp48
sg10
g33
(g37
S'\xe8\x88z\xa9Q!\xa9?'
p49
tp50
Rp51
sg13
g33
(g37
S'\xfd0Id\xfd\x95\x96?'
p52
tp53
Rp54
sg15
g33
(g37
S'?\x07n\r\xcd^\x8a?'
p55
tp56
Rp57
sg17
g33
(g37
S'\xf9\xef\xc4.\xa8~\xb3?'
p58
tp59
Rp60
sg19
g33
(g37
S"8<\xd7\x87'$\xb9?"
p61
tp62
Rp63
sg7
g33
(g37
S'\xf1YL\xfdc\xab\xa8?'
p64
tp65
Rp66
sg22
g33
(g37
S'&)=\xf9\x12\x9f\xc7?'
p67
tp68
Rp69
sg24
g33
(g37
S'\xe8\x88z\xa9Q!\xa9?'
p70
tp71
Rp72
sg26
g33
(g37
S'\xb5\n\xd6\xec\x04\xb9\xaf?'
p73
tp74
Rp75
sg27
g33
(g37
S'\xebT\xcf\xc2-\x11\x8d?'
p76
tp77
Rp78
sg29
g33
(g37
S'\x8b\xa3tj\xa4\xd2\xd3?'
p79
tp80
Rp81
ssS'paralog'
p82
(lp83
S'YAL056W'
p84
aS'YOR371C'
p85
asS'alignment_file'
p86
S'../PairsAlignemt/YAL056W_YOR371C/YAL056W_YOR371C_input.fasta'
p87
sS'x_clock'
p88
(lp89
F-0.6441855916643632
aF-0.5585205466456497
aF-0.9383488233080935
aF2.156511624591151
aF-2.0101580812231057
aF1.23836258
aF-1.3047950304002809
aF-0.15310419707178724
aF-0.23197866414162108
aF-0.6307904968989256
aF-0.2543636643262242
aF-0.20625906937807886
aF-0.2329650902576462
asS'x'
p90
(lp91
F-0.6441855916643632
aF-0.5585205466456497
aF-0.9383488233080935
aF2.156511624591151
aF-2.0101580812231057
aF1.23836258
aF-2.449530230302109
aF-3.014256212474564
aF-3.8141460896122927
aF-4.352379989194333
aF-2.5750320528388393
aF-2.320668388512615
aF-3.032757186484884
aF-1.6898778916136892
aF-3.014256212474564
aF-2.7812911222169183
aF-4.255011880708981
aF-1.1720492191462206
asS'Model'
p92
S'MG94'
p93
s.