(dp0
S'Force'
p1
(dp2
I5
F0.0
ssS'ExpectedGeneconv'
p3
(dp4
(S'N0'
p5
S'N1'
p6
tp7
F6.670400269675556e-12
s(S'N5'
p8
S'cerevisiae'
p9
tp10
F4.766212240826151
s(S'N2'
p11
S'N3'
p12
tp13
F0.2909436096990337
s(S'N4'
p14
g8
tp15
F0.4787598991654231
s(g12
S'kudriavzevii'
p16
tp17
F0.3995959830866811
s(g11
S'bayanus'
p18
tp19
F0.4803206018867785
s(g6
g11
tp20
F2.5545900907296932
s(g6
S'castellii'
p21
tp22
F29.780903832377398
s(g8
S'paradoxus'
p23
tp24
F1.4425784873424934
s(g14
S'mikatae'
p25
tp26
F2.341988621234393
s(g12
g14
tp27
F1.9008611423768782
s(g5
S'kluyveri'
p28
tp29
F0.0
ssS'newicktree'
p30
S'../PairsAlignemt/YeastTree.newick'
p31
sS'll'
p32
cnumpy.core.multiarray
scalar
p33
(cnumpy
dtype
p34
(S'f8'
p35
I0
I1
tp36
Rp37
(I3
S'<'
p38
NNNI-1
I-1
I0
tp39
bS'\x13*v\xe5\xe4-\x95\xc0'
p40
tp41
Rp42
sS'clock'
p43
I00
sS'edge_to_blen'
p44
(dp45
g20
g33
(g37
S'\xba%x\x8b U\x9c?'
p46
tp47
Rp48
sg10
g33
(g37
S'\x98u%\x17\xe9\xf6\xa3?'
p49
tp50
Rp51
sg13
g33
(g37
S'F\xbc;\x03\xcc\xf5\x93?'
p52
tp53
Rp54
sg15
g33
(g37
S'\xc2%\xf0\x14\x9e\xbd\x95?'
p55
tp56
Rp57
sg17
g33
(g37
S'7\x98 \xf7\x96Y\xa5?'
p58
tp59
Rp60
sg19
g33
(g37
S'\xf9\xb1\xc5\xfc\xa4\x05\x95?'
p61
tp62
Rp63
sg7
g33
(g37
S'\xe0\x13\xbc7@=\x86>'
p64
tp65
Rp66
sg22
g33
(g37
S'\x8eN=\xd5*\xb3\xd4?'
p67
tp68
Rp69
sg24
g33
(g37
S'L\xee\x8b\x8f\xa4 \xa0?'
p70
tp71
Rp72
sg26
g33
(g37
S'[\xc4\xef!\x1c\xf7\xa5?'
p73
tp74
Rp75
sg27
g33
(g37
S'\xde\xc8\xbe2\xeb\xda\x93?'
p76
tp77
Rp78
sg29
g33
(g37
S'\x8b\xfbYvsN\xd4?'
p79
tp80
Rp81
ssS'paralog'
p82
(lp83
S'YLR333C'
p84
aS'YGR027C'
p85
asS'alignment_file'
p86
S'../PairsAlignemt/YLR333C_YGR027C/YLR333C_YGR027C_input.fasta'
p87
sS'x_clock'
p88
(lp89
F-0.6234581285442587
aF-0.5225563990184349
aF-0.7403010179171368
aF0.1823215567939546
aF-0.10536051565782628
aF0.3364722366212129
aF-0.10536051565782628
aF-0.10536051565782628
aF-0.10536051565782628
aF-0.10536051565782628
aF-0.10536051565782628
aF-0.10536051565782628
aF-0.10536051565782628
asS'x'
p90
(lp91
F-0.7106928743289267
aF-0.5334997859865251
aF-0.8660564641467706
aF1.3592440926774885
aF-1.9179163211638275
aF1.19617746
aF-3.587461267207137
aF-3.244369220308328
aF-3.937734308505224
aF-3.85228602990358
aF-3.177274768350457
aF-3.8858999778305
aF-15.613114628655566
aF-1.1287555507786693
aF-3.4577980537087596
aF-3.14886191796572
aF-3.9430083187797407
aF-1.147944547519644
asS'Model'
p92
S'MG94'
p93
s.