(dp0
S'Force'
p1
(dp2
I5
F0.0
ssS'ExpectedGeneconv'
p3
(dp4
(S'N0'
p5
S'N1'
p6
tp7
F5.031856278868975
s(S'N5'
p8
S'cerevisiae'
p9
tp10
F32.31064756793532
s(S'N2'
p11
S'N3'
p12
tp13
F22.11448449179514
s(S'N4'
p14
g8
tp15
F9.947079011581632
s(g12
S'kudriavzevii'
p16
tp17
F40.84615641200284
s(g11
S'bayanus'
p18
tp19
F38.83870966968972
s(g6
g11
tp20
F147.71521256539762
s(g6
S'castellii'
p21
tp22
F157.60128061381226
s(g8
S'paradoxus'
p23
tp24
F14.775390598018884
s(g14
S'mikatae'
p25
tp26
F46.4834451449568
s(g12
g14
tp27
F10.940081281153498
s(g5
S'kluyveri'
p28
tp29
F0.0
ssS'newicktree'
p30
S'../PairsAlignemt/YeastTree.newick'
p31
sS'll'
p32
cnumpy.core.multiarray
scalar
p33
(cnumpy
dtype
p34
(S'f8'
p35
I0
I1
tp36
Rp37
(I3
S'<'
p38
NNNI-1
I-1
I0
tp39
bS'\x1a\x93\xb9\t;Q\xc1\xc0'
p40
tp41
Rp42
sS'clock'
p43
I00
sS'edge_to_blen'
p44
(dp45
g20
g33
(g37
S'\xe4e#Q\xc0\r\xf0?'
p46
tp47
Rp48
sg10
g33
(g37
S'a\x17R\xabv\xef\xc8?'
p49
tp50
Rp51
sg13
g33
(g37
S'\x9c\xc5\x16\xbf\xf0\xae\xc1?'
p52
tp53
Rp54
sg15
g33
(g37
S'8^t\xdb\xb9\xb4\xb6?'
p55
tp56
Rp57
sg17
g33
(g37
S'h\x9e\x97yQf\xd3?'
p58
tp59
Rp60
sg19
g33
(g37
S'E\xc8\xffrO\xea\xcc?'
p61
tp62
Rp63
sg7
g33
(g37
S'_\xbf\xf4\xc7\xb1-\xbf?'
p64
tp65
Rp66
sg22
g33
(g37
S'\x9a\x0f\x07.\xa9x\xf0?'
p67
tp68
Rp69
sg24
g33
(g37
S'\xe4D6|u?\xbb?'
p70
tp71
Rp72
sg26
g33
(g37
S'\xdd\x16\xa2I\xc1\xa5\xd2?'
p73
tp74
Rp75
sg27
g33
(g37
S'\xa7\xa9.\xef\xbb\xaa\xb3?'
p76
tp77
Rp78
sg29
g33
(g37
S'_\x93\x82\x16\x8d"\xf1?'
p79
tp80
Rp81
ssS'paralog'
p82
(lp83
S'YMR243C'
p84
aS'YOR316C'
p85
asS'alignment_file'
p86
S'../PairsAlignemt/YMR243C_YOR316C/YMR243C_YOR316C_input.fasta'
p87
sS'x_clock'
p88
(lp89
F-0.7556609556277195
aF-0.5645148233719282
aF-0.8915261742497587
aF0.1823215567939546
aF-0.10536051565782628
aF0.3364722366212129
aF-0.10536051565782628
aF-0.10536051565782628
aF-0.10536051565782628
aF-0.10536051565782628
aF-0.10536051565782628
aF-0.10536051565782628
aF-0.10536051565782628
asS'x'
p90
(lp91
F-0.742786423690688
aF-0.5424616029660418
aF-0.9280392319136358
aF0.9856983158296168
aF-2.263018518391357
aF1.19617746
aF0.0033516129225696725
aF-1.6357416029309104
aF-1.979406123014492
aF-2.4225499572627096
aF-1.1936264757053348
aF-1.4876602686776317
aF-2.1054488830436258
aF0.029032661354259096
aF-2.240201488509351
aF-1.233172035662383
aF-2.5662388918776657
aF0.06853240979685454
asS'Model'
p92
S'MG94'
p93
s.