(dp0
S'Force'
p1
(dp2
I4
F0.0
ssS'ExpectedGeneconv'
p3
(dp4
(S'N1'
p5
S'N2'
p6
tp7
F4.0845365788529895
s(S'N5'
p8
S'cerevisiae'
p9
tp10
F8.397287154559775
s(g6
S'N3'
p11
tp12
F2.3043047078511822
s(S'N4'
p13
g8
tp14
F1.0097165864906497
s(g11
S'kudriavzevii'
p15
tp16
F3.38812154803408
s(g6
S'bayanus'
p17
tp18
F1.2511813336979951
s(S'N0'
p19
g5
tp20
F0.017543185365719194
s(g5
S'castellii'
p21
tp22
F4.931366906666609
s(g8
S'paradoxus'
p23
tp24
F2.138855204344702
s(g13
S'mikatae'
p25
tp26
F7.2510625368449935
s(g11
g13
tp27
F3.2207459887709056
s(g19
S'kluyveri'
p28
tp29
F0.0
ssS'newicktree'
p30
S'/Users/xji3/Genconv/PairsAlignemt/YeastTree.newick'
p31
sS'll'
p32
cnumpy.core.multiarray
scalar
p33
(cnumpy
dtype
p34
(S'f8'
p35
I0
I1
tp36
Rp37
(I3
S'<'
p38
NNNI-1
I-1
I0
tp39
bS',jKE\xfc\x8f\x95\xc0'
p40
tp41
Rp42
sS'clock'
p43
I00
sS'edge_to_blen'
p44
(dp45
g20
g33
(g37
S'\x88\x05\xd2U\x85]Z?'
p46
tp47
Rp48
sg10
g33
(g37
S'\xdd\x0b\x82\xb0\xf7/x?'
p49
tp50
Rp51
sg12
g33
(g37
S'q\xb6\xb8e\x00\x9cs?'
p52
tp53
Rp54
sg14
g33
(g37
S'\x95\xe9\xef\x1f\t\xa3W?'
p55
tp56
Rp57
sg16
g33
(g37
S'\xd7q(r@\xd5t?'
p58
tp59
Rp60
sg18
g33
(g37
S'C/\xf7u\x1f\xeav?'
p61
tp62
Rp63
sg7
g33
(g37
S'w\xc4(\xa5@4\x85?'
p64
tp65
Rp66
sg22
g33
(g37
S'\xcap\xaf\x08]\xaa\x91?'
p67
tp68
Rp69
sg24
g33
(g37
S'\xa6\xee\x18dP\x03v?'
p70
tp71
Rp72
sg26
g33
(g37
S'r\x83BOzL\x7f?'
p73
tp74
Rp75
sg27
g33
(g37
S'\xd4\xba\xe5q\xccWm?'
p76
tp77
Rp78
sg29
g33
(g37
S'\xedA\x17\x8bE\x19\x8e?'
p79
tp80
Rp81
ssS'paralog'
p82
(lp83
S'YER131W'
p84
aS'YGL189C'
p85
asS'alignment_file'
p86
S'/Users/xji3/Genconv/PairsAlignemt/YER131W_YGL189C/YER131W_YGL189C_input.fasta'
p87
sS'x_clock'
p88
(lp89
F-0.7088796916825
aF-0.45659685636767017
aF-0.6660240280817864
aF2.3043947671175204
aF2.9682069915931892
aF-3.7775365896175095
aF0.0
aF-0.33883798324629083
aF-0.7045435181953759
aF-0.2771379023054439
aF-0.30170469469933026
aF-0.20056814872317555
asS'x'
p90
(lp91
F-0.7535818804401282
aF-0.450838316002721
aF-0.6565027959830164
aF2.4946945147966875
aF2.9682069915931892
aF-6.43201117752517
aF-5.1319354386678535
aF-5.341758089320464
aF-6.541253255187902
aF-5.281227197153498
aF-5.1859944116999745
aF-4.570423889003202
aF-4.059859234752121
aF-5.226135458262696
aF-4.874188284150572
aF-5.631860579944686
aF-4.220136426710932
asS'Model'
p92
S'HKY'
p93
s.