(dp0
S'Force'
p1
(dp2
I4
F0.0
ssS'ExpectedGeneconv'
p3
(dp4
(S'N1'
p5
S'N2'
p6
tp7
F56.11696654404109
s(S'N5'
p8
S'cerevisiae'
p9
tp10
F52.50174385699693
s(g6
S'N3'
p11
tp12
F15.631975150743513
s(S'N4'
p13
g8
tp14
F30.608332451706048
s(g5
S'castellii'
p15
tp16
F138.41609848008252
s(g6
S'bayanus'
p17
tp18
F94.27738111279812
s(S'N0'
p19
g5
tp20
F0.6997325551492665
s(g11
S'kudriavzevii'
p21
tp22
F82.66113139845456
s(g8
S'paradoxus'
p23
tp24
F48.95718345841429
s(g13
S'mikatae'
p25
tp26
F95.57747010179611
s(g11
g13
tp27
F21.250834932402398
s(g19
S'kluyveri'
p28
tp29
F0.0
ssS'newicktree'
p30
S'/Users/xji3/Genconv/PairsAlignemt/YeastTree.newick'
p31
sS'll'
p32
cnumpy.core.multiarray
scalar
p33
(cnumpy
dtype
p34
(S'f8'
p35
I0
I1
tp36
Rp37
(I3
S'<'
p38
NNNI-1
I-1
I0
tp39
bS'x\xc6\xbdaLW\xcf\xc0'
p40
tp41
Rp42
sS'clock'
p43
I01
sS'edge_to_blen'
p44
(dp45
g20
g33
(g37
S'\xee\xe6\xc9dR\xb9\x8c?'
p46
tp47
Rp48
sg10
g33
(g37
S'\xbd\xcf\xf6S\xda\xfb\x9d?'
p49
tp50
Rp51
sg12
g33
(g37
S'\xe0\xcc^B\xe1\x8b\x90?'
p52
tp53
Rp54
sg14
g33
(g37
S'\xfd\xd2+z\xd1\xc7\x92?'
p55
tp56
Rp57
sg16
g33
(g37
S'6)\xae\x89\xcb\xdc\xc6?'
p58
tp59
Rp60
sg18
g33
(g37
S'\x81\x9e\x9cB\x87\x00\xb4?'
p61
tp62
Rp63
sg7
g33
(g37
S'\xea\xb3\xbf\xd0\x0f\xb9\xb9?'
p64
tp65
Rp66
sg22
g33
(g37
S'\x91\xd6\t\xe4\x1d\xbb\xaf?'
p67
tp68
Rp69
sg24
g33
(g37
S'\xbd\xcf\xf6S\xda\xfb\x9d?'
p70
tp71
Rp72
sg26
g33
(g37
S'^Q\x11\xe7\xd5a\xa8?'
p73
tp74
Rp75
sg27
g33
(g37
S'\xd5\x14\xe2\xf3\x1fe\x8d?'
p76
tp77
Rp78
sg29
g33
(g37
S'>!\xfbT8O\xcd?'
p79
tp80
Rp81
ssS'paralog'
p82
(lp83
S'YPR159W'
p84
aS'YGR143W'
p85
asS'alignment_file'
p86
S'/Users/xji3/Genconv/PairsAlignemt/YPR159W_YGR143W/YPR159W_YGR143W_input.fasta'
p87
sS'x_clock'
p88
(lp89
F-0.7459915566771186
aF-0.516260132334603
aF-0.7997115124244771
aF1.2795973570969295
aF0.38989127502066817
aF-1.5568013856579315
aF-0.09013862594168151
aF-0.07559308100617276
aF-0.8268088882992725
aF-0.23169089156316305
aF-0.2634396191582264
aF-0.4863420724714051
asS'x'
p90
(lp91
F-0.7459915566771186
aF-0.516260132334603
aF-0.7997115124244771
aF1.2795973570969295
aF0.38989127502066817
aF-4.266888988094649
aF-3.5308145640978528
aF-4.12530289149781
aF-3.998650571908927
aF-1.7225330926057858
aF-2.549341980905058
aF-2.297795893048303
aF-2.7810328724682214
aF-3.5308145640978528
aF-3.0444724916264474
aF-4.243793754433696
aF-1.4741201614537303
asS'Model'
p92
S'HKY'
p93
s.