(dp0
S'Force'
p1
(dp2
I5
F0.0
ssS'ExpectedGeneconv'
p3
(dp4
(S'N0'
p5
S'N1'
p6
tp7
F0.15662543388080907
s(S'N5'
p8
S'cerevisiae'
p9
tp10
F1.9782724341770246
s(S'N2'
p11
S'N3'
p12
tp13
F3.3759880697514832
s(S'N4'
p14
g8
tp15
F0.9465465732229853
s(g12
S'kudriavzevii'
p16
tp17
F6.066177763804058
s(g11
S'bayanus'
p18
tp19
F4.824622640460239
s(g6
g11
tp20
F9.893371565426003
s(g6
S'castellii'
p21
tp22
F10.597941217429145
s(g8
S'paradoxus'
p23
tp24
F2.5553345633651965
s(g14
S'mikatae'
p25
tp26
F9.615133556389356
s(g12
g14
tp27
F4.57820953195084
s(g5
S'kluyveri'
p28
tp29
F0.0
ssS'newicktree'
p30
S'../PairsAlignemt/YeastTree.newick'
p31
sS'll'
p32
cnumpy.core.multiarray
scalar
p33
(cnumpy
dtype
p34
(S'f8'
p35
I0
I1
tp36
Rp37
(I3
S'<'
p38
NNNI-1
I-1
I0
tp39
bS'k\xd6\xc0\xcf-}\x98\xc0'
p40
tp41
Rp42
sS'clock'
p43
I01
sS'edge_to_blen'
p44
(dp45
g20
g33
(g37
S'\x07\x19\xac\xc13X\xa5?'
p46
tp47
Rp48
sg10
g33
(g37
S'i\x1d\xe7\x07\xabD\x94?'
p49
tp50
Rp51
sg13
g33
(g37
S')\r{7pv\x83?'
p52
tp53
Rp54
sg15
g33
(g37
S'F\xba\x8cj\x98q{?'
p55
tp56
Rp57
sg17
g33
(g37
S'Sd\xd7\xa0H\xa2\xa1?'
p58
tp59
Rp60
sg19
g33
(g37
S"\x9f'\xb6\xae\xe4\x7f\xa6?"
p61
tp62
Rp63
sg7
g33
(g37
S'\xf8\xed\xa1\x90(m\x90?'
p64
tp65
Rp66
sg22
g33
(g37
S'S 18\x0c\xec\xb5?'
p67
tp68
Rp69
sg24
g33
(g37
S'i\x1d\xe7\x07\xabD\x94?'
p70
tp71
Rp72
sg26
g33
(g37
S'\xfbK\x8a"\x11!\x9b?'
p73
tp74
Rp75
sg27
g33
(g37
S'Z\xf9H>\x00G\x80?'
p76
tp77
Rp78
sg29
g33
(g37
S'\x06J\xc5\xe9\xc6\x91\xc0?'
p79
tp80
Rp81
ssS'paralog'
p82
(lp83
S'YBR191W'
p84
aS'YPL079W'
p85
asS'alignment_file'
p86
S'../PairsAlignemt/YBR191W_YPL079W/YBR191W_YPL079W_input.fasta'
p87
sS'x_clock'
p88
(lp89
F-0.7627367279360139
aF-0.4731911535757302
aF-0.9126982655864979
aF1.7619468302014827
aF-2.4794469961146652
aF1.23836258
aF-2.1579514706747904
aF-0.12802767715957772
aF-0.17170479451798798
aF-0.6671438995361324
aF-0.2436724223732611
aF-0.26236209305223107
aF-0.2915545797258021
asS'x'
p90
(lp91
F-0.7627367279360139
aF-0.4731911535757302
aF-0.9126982655864979
aF1.7619468302014827
aF-2.4794469961146652
aF1.23836258
aF-3.177528667863269
aF-3.922416937039783
aF-4.656121752623987
aF-5.005628369581766
aF-3.36850026426175
aF-3.1248278418884885
aF-4.132581995405168
aF-2.457683942352356
aF-3.922416937039783
aF-3.6308623573139807
aF-4.8348445711400965
aF-2.044470143124686
asS'Model'
p92
S'MG94'
p93
s.