(dp0
S'Force'
p1
(dp2
I4
F0.0
ssS'ExpectedGeneconv'
p3
(dp4
(S'N0'
p5
S'N1'
p6
tp7
F0.1937944663344229
s(S'N5'
p8
S'cerevisiae'
p9
tp10
F29.575887380897747
s(S'N2'
p11
S'N3'
p12
tp13
F6.73118212674605
s(S'N4'
p14
g8
tp15
F13.297534139865629
s(g6
S'castellii'
p16
tp17
F51.57861236846023
s(g11
S'bayanus'
p18
tp19
F37.4147063105418
s(g6
g11
tp20
F13.215706401178464
s(g12
S'kudriavzevii'
p21
tp22
F34.71965090120219
s(g8
S'paradoxus'
p23
tp24
F22.1773604780661
s(g5
S'kluyveri'
p25
tp26
F0.0
s(g12
g14
tp27
F13.655567074305523
s(g14
S'mikatae'
p28
tp29
F37.35004314898003
ssS'newicktree'
p30
S'/Users/xji3/Genconv/PairsAlignemt/YeastTree.newick'
p31
sS'll'
p32
cnumpy.core.multiarray
scalar
p33
(cnumpy
dtype
p34
(S'f8'
p35
I0
I1
tp36
Rp37
(I3
S'<'
p38
NNNI-1
I-1
I0
tp39
bS'k&pl\x8a\xad\xba\xc0'
p40
tp41
Rp42
sS'clock'
p43
I01
sS'edge_to_blen'
p44
(dp45
g20
g33
(g37
S'\x12|U\xe4\xa1\xb5\xa6?'
p46
tp47
Rp48
sg10
g33
(g37
S'x\xa3\x82wQ\x05\x95?'
p49
tp50
Rp51
sg13
g33
(g37
S'\xb6\t\x8en?b\x84?'
p52
tp53
Rp54
sg15
g33
(g37
S'\x9aE\xa4\x00\x147\x8e?'
p55
tp56
Rp57
sg17
g33
(g37
S'\xdc,On*1\xba?'
p58
tp59
Rp60
sg19
g33
(g37
S'\xa3\xddH\xf8\xb2\xac\xad?'
p61
tp62
Rp63
sg7
g33
(g37
S'\xbc\xa4\x91q\x94\x9f\x80?'
p64
tp65
Rp66
sg22
g33
(g37
S'6[\xa5\x1c#\x94\xa8?'
p67
tp68
Rp69
sg24
g33
(g37
S'x\xa3\x82wQ\x05\x95?'
p70
tp71
Rp72
sg26
g33
(g37
S'sa\x81\xfc\x1cE\xbc?'
p73
tp74
Rp75
sg27
g33
(g37
S'R\xe0\xeb\x82\xd5\x0e\x8a?'
p76
tp77
Rp78
sg29
g33
(g37
S'$c\xea\xbbm\x10\xa2?'
p79
tp80
Rp81
ssS'paralog'
p82
(lp83
S'YHR106W'
p84
aS'YDR353W'
p85
asS'alignment_file'
p86
S'/Users/xji3/Genconv/PairsAlignemt/YHR106W_YDR353W/YHR106W_YDR353W_input.fasta'
p87
sS'x_clock'
p88
(lp89
F-0.7300943991774733
aF-0.5968164159221955
aF-0.7583179075545727
aF1.616891869819034
aF1.0434405157129165
aF-2.2033772085159935
aF0.0
aF-0.07634416531833708
aF-0.5683115925711816
aF-0.18841304072222576
aF-0.30794795551072107
aF-0.54156664016579
asS'x'
p90
(lp91
F-0.7300943991774733
aF-0.5968164159221955
aF-0.7583179075545727
aF1.616891869819034
aF1.0434405157129165
aF-3.1155412187533584
aF-3.885960602804249
aF-4.609879480312146
aF-4.216275566223038
aF-2.2797213738343305
aF-2.8480329664055124
aF-4.813810122083383
aF-3.036446007127738
aF-3.885960602804249
aF-2.2033772085159935
aF-4.364296257724495
aF-3.344393962638459
asS'Model'
p92
S'HKY'
p93
s.