(dp0
S'Force'
p1
(dp2
I4
F0.0
ssS'ExpectedGeneconv'
p3
(dp4
(S'N0'
p5
S'N1'
p6
tp7
F8.87814076964119
s(S'N5'
p8
S'cerevisiae'
p9
tp10
F91.59677745398818
s(S'N2'
p11
S'N3'
p12
tp13
F61.17658221319233
s(S'N4'
p14
g8
tp15
F57.94560961022826
s(g12
S'kudriavzevii'
p16
tp17
F119.6936794628049
s(g11
S'bayanus'
p18
tp19
F139.14007314401346
s(g6
g11
tp20
F327.07240546694226
s(g6
S'castellii'
p21
tp22
F449.470013200258
s(g8
S'paradoxus'
p23
tp24
F74.75827711415005
s(g5
S'kluyveri'
p25
tp26
F0.0
s(g12
g14
tp27
F53.11119903630007
s(g14
S'mikatae'
p28
tp29
F141.14835534093376
ssS'newicktree'
p30
S'/Users/xji3/Genconv/PairsAlignemt/YeastTree.newick'
p31
sS'll'
p32
cnumpy.core.multiarray
scalar
p33
(cnumpy
dtype
p34
(S'f8'
p35
I0
I1
tp36
Rp37
(I3
S'<'
p38
NNNI-1
I-1
I0
tp39
bS'\x8d;%G\xe5\xa5\xd9\xc0'
p40
tp41
Rp42
sS'clock'
p43
I00
sS'edge_to_blen'
p44
(dp45
g20
g33
(g37
S'$\x1b\x00gX\xc4\xd2?'
p46
tp47
Rp48
sg10
g33
(g37
S'\xe3l\xb3Sr=\xa8?'
p49
tp50
Rp51
sg13
g33
(g37
S';\xddZM\xf5\x11\xa3?'
p52
tp53
Rp54
sg15
g33
(g37
S'\xbf\th\x03P \x9f?'
p55
tp56
Rp57
sg17
g33
(g37
S'\xa1\xab\xc4m*a\xaf?'
p58
tp59
Rp60
sg19
g33
(g37
S'\x95\x16\xb5\xd6\xd8\xe4\xb2?'
p61
tp62
Rp63
sg7
g33
(g37
S'\xaa\xf1\x19*\xf3h\xa8?'
p64
tp65
Rp66
sg22
g33
(g37
S'\xb3\x88N\xe3\x9c\x04\xd7?'
p67
tp68
Rp69
sg24
g33
(g37
S'l\x1dS3y\xff\xa1?'
p70
tp71
Rp72
sg26
g33
(g37
S'\xa3\x84\xf1"\xd4\xbf\xd6?'
p73
tp74
Rp75
sg27
g33
(g37
S'9\xa4+\xf2a\xd3\x9d?'
p76
tp77
Rp78
sg29
g33
(g37
S'\x1d^\x84C\x13\x15\xb3?'
p79
tp80
Rp81
ssS'paralog'
p82
(lp83
S'YIR033W'
p84
aS'YKL020C'
p85
asS'alignment_file'
p86
S'/Users/xji3/Genconv/PairsAlignemt/YIR033W_YKL020C/YIR033W_YKL020C_input.fasta'
p87
sS'x_clock'
p88
(lp89
F-0.6874575128437931
aF-0.4620676027692603
aF-0.8402382022020809
aF1.2304927015571854
aF-1.183351820299602
aF-0.8606049477298381
aF0.0
aF-0.18119003698155803
aF-1.378433355202692
aF-0.17212429294523413
aF-0.24239433864917323
aF-0.5282345603797723
asS'x'
p90
(lp91
F-0.6885726876342638
aF-0.45887928677570144
aF-0.8429912380673776
aF1.2048430895379347
aF-1.183351820299602
aF-1.2267844651116828
aF-3.050319401920049
aF-3.29020037829295
aF-3.493421225683104
aF-2.792168101486581
aF-2.606336542401275
aF-3.043333363119453
aF-1.022605742864226
aF-3.3480671446358143
aF-1.0343473583483673
aF-3.536100922158812
aF-2.5964149205111
asS'Model'
p92
S'HKY'
p93
s.