(dp0
S'Force'
p1
(dp2
I5
F0.0
ssS'ExpectedGeneconv'
p3
(dp4
(S'N0'
p5
S'N1'
p6
tp7
F2.1741842042117185
s(S'N5'
p8
S'cerevisiae'
p9
tp10
F20.552177107990016
s(S'N2'
p11
S'N3'
p12
tp13
F10.925119662406436
s(S'N4'
p14
g8
tp15
F11.08771259197284
s(g6
S'castellii'
p16
tp17
F189.43815630411817
s(g11
S'bayanus'
p18
tp19
F29.058606899210854
s(g6
g11
tp20
F156.33206457790632
s(g12
S'kudriavzevii'
p21
tp22
F27.83919546176642
s(g8
S'paradoxus'
p23
tp24
F7.786549205547392
s(g5
S'kluyveri'
p25
tp26
F0.0
s(g12
g14
tp27
F18.32805608514034
s(g14
S'mikatae'
p28
tp29
F32.43068081884752
ssS'newicktree'
p30
S'../PairsAlignemt/YeastTree.newick'
p31
sS'll'
p32
cnumpy.core.multiarray
scalar
p33
(cnumpy
dtype
p34
(S'f8'
p35
I0
I1
tp36
Rp37
(I3
S'<'
p38
NNNI-1
I-1
I0
tp39
bS"-M>?o'\xbb\xc0"
p40
tp41
Rp42
sS'clock'
p43
I00
sS'edge_to_blen'
p44
(dp45
g20
g33
(g37
S'\xbd\x1f2\xa9\xef\xc5\xf9?'
p46
tp47
Rp48
sg10
g33
(g37
S'\xb4D\xc4Q\x9a\xf8\xc5?'
p49
tp50
Rp51
sg13
g33
(g37
S' H\x90!\x81\x8d\xbf?'
p52
tp53
Rp54
sg15
g33
(g37
S'*\x9cZ,\xf3\xea\xbf?'
p55
tp56
Rp57
sg17
g33
(g37
S'\xa6\x9b\xd1\xa9\xf9d\xff?'
p58
tp59
Rp60
sg19
g33
(g37
S'4\x94\xd5@\xb6-\xd7?'
p61
tp62
Rp63
sg7
g33
(g37
S'y\xa18%\x05G\xba?'
p64
tp65
Rp66
sg22
g33
(g37
S'B\x7fc"\x84\xaf\xd2?'
p67
tp68
Rp69
sg24
g33
(g37
S'O\xbb\xf0Oa\x06\xb9?'
p70
tp71
Rp72
sg26
g33
(g37
S':\xadI\xb0\x7f\xe6\xf6?'
p73
tp74
Rp75
sg27
g33
(g37
S'B\x9f\xf9\tI\xf8\xc2?'
p76
tp77
Rp78
sg29
g33
(g37
S'k\x80\xd2\xf9\x15|\xd3?'
p79
tp80
Rp81
ssS'paralog'
p82
(lp83
S'YBR024W'
p84
aS'YBR037C'
p85
asS'alignment_file'
p86
S'../PairsAlignemt/YBR024W_YBR037C/YBR024W_YBR037C_input.fasta'
p87
sS'x_clock'
p88
(lp89
F-0.6248383036277048
aF-0.587102670347408
aF-0.8498632293323529
aF0.1823215567939546
aF-0.10536051565782628
aF0.3364722366212129
aF-0.10536051565782628
aF-0.10536051565782628
aF-0.10536051565782628
aF-0.10536051565782628
aF-0.10536051565782628
aF-0.10536051565782628
aF-0.10536051565782628
asS'x'
p90
(lp91
F-0.6598938521497747
aF-0.5810010901964882
aF-0.8737654079652872
aF0.8682081813956966
aF-2.3146810068112114
aF1.19617746
aF0.476746011708206
aF-1.7623020953467063
aF-2.093516644260943
aF-2.0820144415798176
aF0.6740419116676742
aF-1.0156552743763778
aF-2.2764673430978384
aF-1.2311293765943152
aF-2.325305221486658
aF0.35856503856196636
aF-1.9091786235847654
aF-1.1892530112364441
asS'Model'
p92
S'MG94'
p93
s.