(dp0
S'Force'
p1
(dp2
I4
F0.0
ssS'ExpectedGeneconv'
p3
(dp4
(S'N1'
p5
S'N2'
p6
tp7
F50.242852363771405
s(S'N5'
p8
S'cerevisiae'
p9
tp10
F41.051448570382114
s(g6
S'N3'
p11
tp12
F4.914160213394642
s(S'N4'
p13
g8
tp14
F19.133137346336
s(g5
S'castellii'
p15
tp16
F106.38074224627397
s(g6
S'bayanus'
p17
tp18
F49.56812494194046
s(S'N0'
p19
g5
tp20
F1.057947355064075
s(g11
S'kudriavzevii'
p21
tp22
F40.62541408288331
s(g8
S'paradoxus'
p23
tp24
F19.61375925485788
s(g19
S'kluyveri'
p25
tp26
F0.0
s(g11
g13
tp27
F9.885202250868877
s(g13
S'mikatae'
p28
tp29
F49.20088591801054
ssS'newicktree'
p30
S'/Users/xji3/Genconv/PairsAlignemt/YeastTree.newick'
p31
sS'll'
p32
cnumpy.core.multiarray
scalar
p33
(cnumpy
dtype
p34
(S'f8'
p35
I0
I1
tp36
Rp37
(I3
S'<'
p38
NNNI-1
I-1
I0
tp39
bS'\xac\xf5\x80\xf6\xfc\xf4\xbf\xc0'
p40
tp41
Rp42
sS'clock'
p43
I01
sS'edge_to_blen'
p44
(dp45
g20
g33
(g37
S'\x995\x13\xb2\rA\x9c?'
p46
tp47
Rp48
sg10
g33
(g37
S'9\xefe\xcc\xc3\xf8\xa0?'
p49
tp50
Rp51
sg12
g33
(g37
S'\xcc^\xe3\xd6\x04b\x8e?'
p52
tp53
Rp54
sg14
g33
(g37
S'\xd75"\x96b\r\x98?'
p55
tp56
Rp57
sg16
g33
(g37
S'hhO=d\xd2\xd1?'
p58
tp59
Rp60
sg18
g33
(g37
S'\x8aWH~4]\xb5?'
p61
tp62
Rp63
sg7
g33
(g37
S'\n\xa5z;.\xf6\xc8?'
p64
tp65
Rp66
sg22
g33
(g37
S'\xb0\xebk\xe3\xf3\x90\xb1?'
p67
tp68
Rp69
sg24
g33
(g37
S'9\xefe\xcc\xc3\xf8\xa0?'
p70
tp71
Rp72
sg26
g33
(g37
S'\xc2\x9bp\x18u\x96\xd3?'
p73
tp74
Rp75
sg27
g33
(g37
S'\xeb4\x83\xbd\xca\x89\x88?'
p76
tp77
Rp78
sg29
g33
(g37
S"'\nw\x17u\xff\xac?"
p79
tp80
Rp81
ssS'paralog'
p82
(lp83
S'YPL087W'
p84
aS'YBR183W'
p85
asS'alignment_file'
p86
S'/Users/xji3/Genconv/PairsAlignemt/YPL087W_YBR183W/YPL087W_YBR183W_input.fasta'
p87
sS'x_clock'
p88
(lp89
F-0.7544751751956259
aF-0.5784574210223741
aF-1.038925978283976
aF1.226250774193209
aF-0.654471194669594
aF-1.1839800278783248
aF0.0
aF-0.09447826991004911
aF-1.2050080350327226
aF-0.19573329000801087
aF-0.19190226362113352
aF-0.5356732693613472
asS'x'
p90
(lp91
F-0.7544751751956259
aF-0.5784574210223741
aF-1.038925978283976
aF1.226250774193209
aF-0.654471194669594
aF-3.590232686815858
aF-3.406775155811588
aF-4.210739485489968
aF-3.751241779883677
aF-1.278458297788374
aF-2.4834663328210964
aF-1.6346898992863168
aF-2.6791996228291075
aF-3.406775155811588
aF-1.1839800278783248
aF-4.424385868848777
aF-2.8711018864502407
asS'Model'
p92
S'HKY'
p93
s.