(dp0
S'Force'
p1
(dp2
I5
F0.0
ssS'ExpectedGeneconv'
p3
(dp4
(S'N0'
p5
S'N1'
p6
tp7
F5.530643785504533e-10
s(S'N5'
p8
S'cerevisiae'
p9
tp10
F9.53352855914203
s(S'N2'
p11
S'N3'
p12
tp13
F2.5686613871245676
s(S'N4'
p14
g8
tp15
F0.2065235698047993
s(g6
S'castellii'
p16
tp17
F21.006656738003468
s(g11
S'bayanus'
p18
tp19
F9.428361795824893
s(g6
g11
tp20
F2.032241244898679
s(g12
S'kudriavzevii'
p21
tp22
F6.861926637029564
s(g8
S'paradoxus'
p23
tp24
F5.124692868352483
s(g5
S'kluyveri'
p25
tp26
F0.0
s(g12
g14
tp27
F0.2923931446193198
s(g14
S'mikatae'
p28
tp29
F6.6019995936110645
ssS'newicktree'
p30
S'../PairsAlignemt/YeastTree.newick'
p31
sS'll'
p32
cnumpy.core.multiarray
scalar
p33
(cnumpy
dtype
p34
(S'f8'
p35
I0
I1
tp36
Rp37
(I3
S'<'
p38
NNNI-1
I-1
I0
tp39
bS'\xb8\xa5\x05\xeef[\xa1\xc0'
p40
tp41
Rp42
sS'clock'
p43
I00
sS'edge_to_blen'
p44
(dp45
g20
g33
(g37
S'5\xb4\xc3.\xf4\xc4\x9c?'
p46
tp47
Rp48
sg10
g33
(g37
S'\x01q*\xf5\n*\xa1?'
p49
tp50
Rp51
sg13
g33
(g37
S'\x13\xb2\xfclG>\x84?'
p52
tp53
Rp54
sg15
g33
(g37
S'\x04\x89\xad\x02\xf3\x96t?'
p55
tp56
Rp57
sg17
g33
(g37
S'\xcb\x94C\x81\x04%\xc3?'
p58
tp59
Rp60
sg19
g33
(g37
S'\xcb\xcd\xb99w\x19\xae?'
p61
tp62
Rp63
sg7
g33
(g37
S'\xd4\x93\x06\xc0\x04U\xaf>'
p64
tp65
Rp66
sg22
g33
(g37
S'swnJ\xdbo\xb1?'
p67
tp68
Rp69
sg24
g33
(g37
S'8\xa5\xf4\xe5\x9dQ\xaf?'
p70
tp71
Rp72
sg26
g33
(g37
S'\xf8\xbc\xf2\xb1K\xd1\xbe?'
p73
tp74
Rp75
sg27
g33
(g37
S'\\\x87\x0c\xfeU\x01x?'
p76
tp77
Rp78
sg29
g33
(g37
S'g\xdd#`Q\xb8\xb1?'
p79
tp80
Rp81
ssS'paralog'
p82
(lp83
S'YNL301C'
p84
aS'YOL120C'
p85
asS'alignment_file'
p86
S'../PairsAlignemt/YNL301C_YOL120C/YNL301C_YOL120C_input.fasta'
p87
sS'x_clock'
p88
(lp89
F-0.6581984795146941
aF-0.5924300164520414
aF-0.821708505512958
aF0.1823215567939546
aF-0.10536051565782628
aF0.3364722366212129
aF-0.10536051565782628
aF-0.10536051565782628
aF-0.10536051565782628
aF-0.10536051565782628
aF-0.10536051565782628
aF-0.10536051565782628
aF-0.10536051565782628
asS'x'
p90
(lp91
F-0.7365009745341059
aF-0.5570995758814694
aF-0.9137869047876486
aF1.5537653267290477
aF-2.2070761394815896
aF1.19617746
aF-3.572161188877533
aF-3.39549707528536
aF-4.616796229445457
aF-5.292977860720694
aF-1.9000095729202888
aF-2.833816879130061
aF-13.884036263801448
aF-2.6865865080651954
aF-2.794105571161106
aF-2.1170927460208455
aF-5.139494927107873
aF-2.670483968133979
asS'Model'
p92
S'MG94'
p93
s.