(dp0
S'Force'
p1
(dp2
I4
F0.0
ssS'ExpectedGeneconv'
p3
(dp4
(S'N0'
p5
S'N1'
p6
tp7
F1.535406254279336
s(S'N5'
p8
S'cerevisiae'
p9
tp10
F31.60598597235778
s(S'N2'
p11
S'N3'
p12
tp13
F17.875998311203272
s(S'N4'
p14
g8
tp15
F17.158174101673477
s(g12
S'kudriavzevii'
p16
tp17
F39.96596789839325
s(g11
S'bayanus'
p18
tp19
F33.93585579312716
s(g6
g11
tp20
F61.34048838872708
s(g6
S'castellii'
p21
tp22
F74.48197651724911
s(g8
S'paradoxus'
p23
tp24
F17.20922188902893
s(g14
S'mikatae'
p25
tp26
F47.26288625542503
s(g12
g14
tp27
F27.597880794948395
s(g5
S'kluyveri'
p28
tp29
F0.0
ssS'newicktree'
p30
S'/Users/xji3/Genconv/PairsAlignemt/YeastTree.newick'
p31
sS'll'
p32
cnumpy.core.multiarray
scalar
p33
(cnumpy
dtype
p34
(S'f8'
p35
I0
I1
tp36
Rp37
(I3
S'<'
p38
NNNI-1
I-1
I0
tp39
bS'\x91*\xe5\xc1.\xfd\xbd\xc0'
p40
tp41
Rp42
sS'clock'
p43
I00
sS'edge_to_blen'
p44
(dp45
g20
g33
(g37
S'\xd8c^8\xe6\x90\xc9?'
p46
tp47
Rp48
sg10
g33
(g37
S'\x82t\x9c\xff\xa7\x9c\xa4?'
p49
tp50
Rp51
sg13
g33
(g37
S'e\xb89\xac\x85W\xa1?'
p52
tp53
Rp54
sg15
g33
(g37
S'\x1b\xd4]\x83\xd7\xdb\x9d?'
p55
tp56
Rp57
sg17
g33
(g37
S'o`Y\xc7+\x95\xb0?'
p58
tp59
Rp60
sg19
g33
(g37
S'\xa8/\xe9\x1d\xe8\xf7\xb1?'
p61
tp62
Rp63
sg7
g33
(g37
S't\xca\xe9\x039A\xa1?'
p64
tp65
Rp66
sg22
g33
(g37
S'QK\xe2\x03Kp\xcd?'
p67
tp68
Rp69
sg24
g33
(g37
S'Sq\x95r\xfe)\x99?'
p70
tp71
Rp72
sg26
g33
(g37
S'g\x07\xf0\xb2\xf5\r\xb1?'
p73
tp74
Rp75
sg27
g33
(g37
S'y\xc9\xb3\xf7\xbbO\xa1?'
p76
tp77
Rp78
sg29
g33
(g37
S'\x13c\x84\t\x8d^\xca?'
p79
tp80
Rp81
ssS'paralog'
p82
(lp83
S'YBR024W'
p84
aS'YBR037C'
p85
asS'alignment_file'
p86
S'/Users/xji3/Genconv/PairsAlignemt/YBR024W_YBR037C/YBR024W_YBR037C_input.fasta'
p87
sS'x_clock'
p88
(lp89
F-0.6985663339454291
aF-0.552668658823505
aF-0.8283342028890135
aF1.2676631538144814
aF-0.7780707120544387
aF-1.2474063000273254
aF0.0
aF-0.16213362404245593
aF-1.0692685941459579
aF-0.17584893093467885
aF-0.33040862691880074
aF-0.6240081589151607
asS'x'
p90
(lp91
F-0.6976050187836181
aF-0.5541529798454005
aF-0.8279399050044982
aF1.2561784307946378
aF-0.7780707120544387
aF-1.610766416328128
aF-3.2124541805383315
aF-3.3852000416857666
aF-3.5349936345922286
aF-2.736817505848121
aF-2.656563587904157
aF-3.3902356367437725
aF-1.4697220091390415
aF-3.7060558615249444
aF-2.708761568194663
aF-3.386955804896278
aF-1.5798283091269383
asS'Model'
p92
S'HKY'
p93
s.