(dp0
S'Force'
p1
(dp2
I4
F0.0
ssS'ExpectedGeneconv'
p3
(dp4
(S'N1'
p5
S'N2'
p6
tp7
F44.96524259728308
s(S'N5'
p8
S'cerevisiae'
p9
tp10
F50.017033788831846
s(g6
S'N3'
p11
tp12
F15.050998533244758
s(S'N4'
p13
g8
tp14
F25.007968836852747
s(g11
S'kudriavzevii'
p15
tp16
F56.691568646339995
s(g6
S'bayanus'
p17
tp18
F42.403312606327795
s(S'N0'
p19
g5
tp20
F0.5184047627041711
s(g5
S'castellii'
p21
tp22
F126.16777321072891
s(g8
S'paradoxus'
p23
tp24
F34.267308422821124
s(g19
S'kluyveri'
p25
tp26
F0.0
s(g11
g13
tp27
F31.417178988056143
s(g13
S'mikatae'
p28
tp29
F56.642416461045165
ssS'newicktree'
p30
S'/Users/xji3/Genconv/PairsAlignemt/YeastTree.newick'
p31
sS'll'
p32
cnumpy.core.multiarray
scalar
p33
(cnumpy
dtype
p34
(S'f8'
p35
I0
I1
tp36
Rp37
(I3
S'<'
p38
NNNI-1
I-1
I0
tp39
bS'\x92w\xfe\xe4\x11\x9a\xc5\xc0'
p40
tp41
Rp42
sS'clock'
p43
I00
sS'edge_to_blen'
p44
(dp45
g20
g33
(g37
S'\xaeh\xae\xfe\xf3s\x91?'
p46
tp47
Rp48
sg10
g33
(g37
S'\xd3h\xd8JRg\xa7?'
p49
tp50
Rp51
sg12
g33
(g37
S'\xf4En\x07\x13$\x9f?'
p52
tp53
Rp54
sg14
g33
(g37
S'\xae9\xe0\xb9\xf6"\x9a?'
p55
tp56
Rp57
sg16
g33
(g37
S'\x89\xef\xbdO\x7f\x89\xae?'
p58
tp59
Rp60
sg18
g33
(g37
S'9\x8b\x92C\xb9\xc4\xb0?'
p61
tp62
Rp63
sg7
g33
(g37
S'\x84~\xf6F\xd9\xc3\xc4?'
p64
tp65
Rp66
sg22
g33
(g37
S'\x0fM\xf9\xa6\x9b\x97\xd2?'
p67
tp68
Rp69
sg24
g33
(g37
S'\x89[\xda\xb3\x99\xae\xa2?'
p70
tp71
Rp72
sg26
g33
(g37
S'\x16\x85ir\x86B\xce?'
p73
tp74
Rp75
sg27
g33
(g37
S"\x1c\x93{'\x97U\x9b?"
p76
tp77
Rp78
sg29
g33
(g37
S'\x0ey\xb5v\x81m\xb0?'
p79
tp80
Rp81
ssS'paralog'
p82
(lp83
S'YPR157W'
p84
aS'YGR141W'
p85
asS'alignment_file'
p86
S'/Users/xji3/Genconv/PairsAlignemt/YPR157W_YGR141W/YPR157W_YGR141W_input.fasta'
p87
sS'x_clock'
p88
(lp89
F-0.7162946086006955
aF-0.6028379416051277
aF-0.8406328108881963
aF1.1768175199178308
aF-0.5412122771607046
aF-1.2654518200675806
aF0.0
aF-0.13559022567306875
aF-1.1421526769106407
aF-0.15481261150321246
aF-0.2600023116387679
aF-0.4485796875047738
asS'x'
p90
(lp91
F-0.7175376123643833
aF-0.5931901271989338
aF-0.8468129504924611
aF1.170010523520679
aF-0.5412122771607046
aF-4.071963585719848
aF-3.0854347926319927
aF-3.49294924463848
aF-3.668136045487982
aF-2.819382324220982
aF-2.725678186345804
aF-1.818759742872776
aF-1.2361399334650744
aF-3.310762375097603
aF-1.4422080500429992
aF-3.6233281032697757
aF-2.7462050580037025
asS'Model'
p92
S'HKY'
p93
s.