(dp0
S'Force'
p1
(dp2
I4
F0.0
ssS'ExpectedGeneconv'
p3
(dp4
(S'N1'
p5
S'N2'
p6
tp7
F11.175632395781191
s(S'N5'
p8
S'cerevisiae'
p9
tp10
F1.868111434561604
s(g6
S'N3'
p11
tp12
F6.02665072894069
s(S'N4'
p13
g8
tp14
F1.264921718734751
s(g5
S'castellii'
p15
tp16
F7.335261537893017
s(g6
S'bayanus'
p17
tp18
F2.344915682511153
s(S'N0'
p19
g5
tp20
F0.009347107503992341
s(g11
S'kudriavzevii'
p21
tp22
F6.676280631497562
s(g8
S'paradoxus'
p23
tp24
F2.168258505686547
s(g19
S'kluyveri'
p25
tp26
F0.0
s(g11
g13
tp27
F5.485796461656376
s(g13
S'mikatae'
p28
tp29
F10.371773706864428
ssS'newicktree'
p30
S'/Users/xji3/Genconv/PairsAlignemt/YeastTree.newick'
p31
sS'll'
p32
cnumpy.core.multiarray
scalar
p33
(cnumpy
dtype
p34
(S'f8'
p35
I0
I1
tp36
Rp37
(I3
S'<'
p38
NNNI-1
I-1
I0
tp39
bS'\xa4\xed\xe4N\xb0J\x9a\xc0'
p40
tp41
Rp42
sS'clock'
p43
I00
sS'edge_to_blen'
p44
(dp45
g20
g33
(g37
S'\xe2\x9cr\x81H\x15O?'
p46
tp47
Rp48
sg10
g33
(g37
S'\xa3Q\xf9[\x07}f?'
p49
tp50
Rp51
sg12
g33
(g37
S'\xa1\xdd\x80nzii?'
p52
tp53
Rp54
sg14
g33
(g37
S'r\x0b\xf6[]\x08]?'
p55
tp56
Rp57
sg16
g33
(g37
S'\x15\xb7R\xf9\xf3\xdb\x86?'
p58
tp59
Rp60
sg18
g33
(g37
S',/.\xb1\x84Se?'
p61
tp62
Rp63
sg7
g33
(g37
S'S\x14zD$\xd4\x87?'
p64
tp65
Rp66
sg22
g33
(g37
S'\x04\xf6g\xa1(K\x80?'
p67
tp68
Rp69
sg24
g33
(g37
S'\xf0\xb3\xbb\x80\xf5a]?'
p70
tp71
Rp72
sg26
g33
(g37
S'\x18\x99\xaf\xa2\xda^\x87?'
p73
tp74
Rp75
sg27
g33
(g37
S'`\x11\xa4|\xa23f?'
p76
tp77
Rp78
sg29
g33
(g37
S'\x1f\xc8\xda4\xf2\xeey?'
p79
tp80
Rp81
ssS'paralog'
p82
(lp83
S'YBR191W'
p84
aS'YPL079W'
p85
asS'alignment_file'
p86
S'/Users/xji3/Genconv/PairsAlignemt/YBR191W_YPL079W/YBR191W_YPL079W_input.fasta'
p87
sS'x_clock'
p88
(lp89
F-0.7524030609050798
aF-0.5055946699222426
aF-0.8023370039091774
aF2.4948014554947266
aF3.9223511375823796
aF-4.12666588521746
aF0.0
aF-0.3713834959141948
aF-0.8348597438095506
aF-0.07772857875950662
aF-0.3045546890011736
aF-0.7996005668353239
asS'x'
p90
(lp91
F-0.7917328142906581
aF-0.47475321661272357
aF-0.8210037244943472
aF2.5880263627127067
aF3.9223511375823796
aF-6.960542235662482
aF-5.897914013668313
aF-5.775690883353645
aF-6.335638623536901
aF-4.495265696022847
aF-5.950974945124092
aF-4.453729156177711
aF-4.833847285652746
aF-6.323656084571259
aF-4.473143432517194
aF-5.910744570200041
aF-5.062235098343764
asS'Model'
p92
S'HKY'
p93
s.