(dp0
S'Force'
p1
(dp2
I5
F0.0
ssS'ExpectedGeneconv'
p3
(dp4
(S'N0'
p5
S'N1'
p6
tp7
F3.6259488951117793e-10
s(S'N5'
p8
S'cerevisiae'
p9
tp10
F3.3473748513684267
s(S'N2'
p11
S'N3'
p12
tp13
F4.7865672003444
s(S'N4'
p14
g8
tp15
F9.12724935626625
s(g12
S'kudriavzevii'
p16
tp17
F8.073103474567581
s(g11
S'bayanus'
p18
tp19
F15.103188795876083
s(g6
g11
tp20
F7.19541568313219
s(g6
S'castellii'
p21
tp22
F21.082433243646907
s(g8
S'paradoxus'
p23
tp24
F5.1700551978205125
s(g14
S'mikatae'
p25
tp26
F4.989422932226294
s(g12
g14
tp27
F3.5346974952029058
s(g5
S'kluyveri'
p28
tp29
F0.0
ssS'newicktree'
p30
S'../PairsAlignemt/YeastTree.newick'
p31
sS'll'
p32
cnumpy.core.multiarray
scalar
p33
(cnumpy
dtype
p34
(S'f8'
p35
I0
I1
tp36
Rp37
(I3
S'<'
p38
NNNI-1
I-1
I0
tp39
bS'\x15\xe9\x9c\xaa\x163\xa1\xc0'
p40
tp41
Rp42
sS'clock'
p43
I00
sS'edge_to_blen'
p44
(dp45
g20
g33
(g37
S'\x7f\x1eL<\xef \xa2?'
p46
tp47
Rp48
sg10
g33
(g37
S'\n\xed\x14\x84\xb3\xdct?'
p49
tp50
Rp51
sg13
g33
(g37
S'\xcaz\x84\xd7\xafu\x92?'
p52
tp53
Rp54
sg15
g33
(g37
S'>&:\x04\xa6\xd9\x8d?'
p55
tp56
Rp57
sg17
g33
(g37
S'\xaa\xdf,\x9f.\x84\xb0?'
p58
tp59
Rp60
sg19
g33
(g37
S'\x95\x96\x14\xac\n\xa6\xa8?'
p61
tp62
Rp63
sg7
g33
(g37
S'[wK\xfc\x01\x13\xa5>'
p64
tp65
Rp66
sg22
g33
(g37
S'3\x8fi\xc1\x9a\xbc\xbb?'
p67
tp68
Rp69
sg24
g33
(g37
S';*e\x04\\\xaf\x90?'
p70
tp71
Rp72
sg26
g33
(g37
S'\xe6n\xf9\xb45\x9b\x99?'
p73
tp74
Rp75
sg27
g33
(g37
S'\x90tH\x0f\xe95\x82?'
p76
tp77
Rp78
sg29
g33
(g37
S'\x8bG\x80\xe8\xa4n\xbc?'
p79
tp80
Rp81
ssS'paralog'
p82
(lp83
S'YER102W'
p84
aS'YBL072C'
p85
asS'alignment_file'
p86
S'../PairsAlignemt/YER102W_YBL072C/YER102W_YBL072C_input.fasta'
p87
sS'x_clock'
p88
(lp89
F-0.6118861020835681
aF-0.5481000259870481
aF-0.7987579777858408
aF0.1823215567939546
aF-0.10536051565782628
aF0.3364722366212129
aF-0.10536051565782628
aF-0.10536051565782628
aF-0.10536051565782628
aF-0.10536051565782628
aF-0.10536051565782628
aF-0.10536051565782628
aF-0.10536051565782628
asS'x'
p90
(lp91
F-0.7206059097976583
aF-0.5125277361979865
aF-0.8726036011005617
aF1.755049289525008
aF-2.008346352692501
aF1.19617746
aF-3.34083104073849
aF-5.279831370608075
aF-4.015881048804253
aF-4.2284277992406984
aF-2.740827469026701
aF-3.033604507311678
aF-14.280627643166422
aF-2.2224196867741424
aF-4.116961824018442
aF-3.688633849404896
aF-4.722615832710081
aF-2.1976550051289996
asS'Model'
p92
S'MG94'
p93
s.