(dp0
S'Force'
p1
(dp2
I5
F0.0
ssS'ExpectedGeneconv'
p3
(dp4
(S'N0'
p5
S'N1'
p6
tp7
F4.241881073649596
s(S'N5'
p8
S'cerevisiae'
p9
tp10
F28.21819989037668
s(S'N2'
p11
S'N3'
p12
tp13
F8.095481873815208
s(S'N4'
p14
g8
tp15
F11.242488881710567
s(g12
S'kudriavzevii'
p16
tp17
F41.30113149800031
s(g11
S'bayanus'
p18
tp19
F59.361192962044484
s(g6
g11
tp20
F119.57890936838002
s(g6
S'castellii'
p21
tp22
F190.36480184843595
s(g8
S'paradoxus'
p23
tp24
F18.91655273589565
s(g14
S'mikatae'
p25
tp26
F43.23525364178606
s(g12
g14
tp27
F7.808305008704331
s(g5
S'kluyveri'
p28
tp29
F0.0
ssS'newicktree'
p30
S'../PairsAlignemt/YeastTree.newick'
p31
sS'll'
p32
cnumpy.core.multiarray
scalar
p33
(cnumpy
dtype
p34
(S'f8'
p35
I0
I1
tp36
Rp37
(I3
S'<'
p38
NNNI-1
I-1
I0
tp39
bS'78\xf3&3\\\xc1\xc0'
p40
tp41
Rp42
sS'clock'
p43
I01
sS'edge_to_blen'
p44
(dp45
g20
g33
(g37
S'K\xca\x1d}\x82)\xeb?'
p46
tp47
Rp48
sg10
g33
(g37
S'\xean\xfd\xe6\x83P\xc3?'
p49
tp50
Rp51
sg13
g33
(g37
S'\xaf\xd9\x83\x8e2\x05\xac?'
p52
tp53
Rp54
sg15
g33
(g37
S'j}\xd4Z\x1a/\xb9?'
p55
tp56
Rp57
sg17
g33
(g37
S'\xd3\x9el\xf7s_\xd3?'
p58
tp59
Rp60
sg19
g33
(g37
S'\t\x1a=I\x1a\xe0\xd6?'
p61
tp62
Rp63
sg7
g33
(g37
S'\x88\x92.\xfb\xeb%\xbc?'
p64
tp65
Rp66
sg22
g33
(g37
S'\xa8+\xde\xd0\xc7L\xf3?'
p67
tp68
Rp69
sg24
g33
(g37
S'\xean\xfd\xe6\x83P\xc3?'
p70
tp71
Rp72
sg26
g33
(g37
S'\x9e\xadg\x14\x11\xe8\xcf?'
p73
tp74
Rp75
sg27
g33
(g37
S' @\xc6i[[\xab?'
p76
tp77
Rp78
sg29
g33
(g37
S'\xd1\x14\x91\x90&\x0f\xf5?'
p79
tp80
Rp81
ssS'paralog'
p82
(lp83
S'YMR243C'
p84
aS'YOR316C'
p85
asS'alignment_file'
p86
S'../PairsAlignemt/YMR243C_YOR316C/YMR243C_YOR316C_input.fasta'
p87
sS'x_clock'
p88
(lp89
F-0.7423501583869739
aF-0.5450453105585457
aF-0.9259283743699948
aF0.99899684083022
aF-2.2928865520603363
aF1.23836258
aF0.2747479518427744
aF0.0
aF-0.08723551867079245
aF-1.2163333713650561
aF-0.16618885944732428
aF-0.19421038277850533
aF-0.5019533183793845
asS'x'
p90
(lp91
F-0.7423501583869739
aF-0.5450453105585457
aF-0.9259283743699948
aF0.99899684083022
aF-2.2928865520603363
aF1.23836258
aF-0.16391154027081667
aF-1.8911734987982884
aF-2.905395281761745
aF-2.3189687353478305
aF-1.1950097976403986
aF-1.0288209381930744
aF-2.2076964495720297
aF0.18751243317198185
aF-1.8911734987982884
aF-1.389220180418904
aF-2.929357173196411
aF0.27474795184277434
asS'Model'
p92
S'MG94'
p93
s.