(dp0
S'Force'
p1
(dp2
I5
F0.0
ssS'ExpectedGeneconv'
p3
(dp4
(S'N0'
p5
S'N1'
p6
tp7
F9.582921433989458
s(S'N5'
p8
S'cerevisiae'
p9
tp10
F24.885652782938635
s(S'N2'
p11
S'N3'
p12
tp13
F4.812487045536263
s(S'N4'
p14
g8
tp15
F10.39676518609365
s(g6
S'castellii'
p16
tp17
F91.7372081178608
s(g11
S'bayanus'
p18
tp19
F33.790028415205235
s(g6
g11
tp20
F55.09832281170798
s(g12
S'kudriavzevii'
p21
tp22
F30.84974648007825
s(g8
S'paradoxus'
p23
tp24
F17.25297012980168
s(g5
S'kluyveri'
p25
tp26
F0.0
s(g12
g14
tp27
F7.790090509956754
s(g14
S'mikatae'
p28
tp29
F32.18899372151306
ssS'newicktree'
p30
S'../PairsAlignemt/YeastTree.newick'
p31
sS'll'
p32
cnumpy.core.multiarray
scalar
p33
(cnumpy
dtype
p34
(S'f8'
p35
I0
I1
tp36
Rp37
(I3
S'<'
p38
NNNI-1
I-1
I0
tp39
bS'\xdd_\r\xb47\xc4\xba\xc0'
p40
tp41
Rp42
sS'clock'
p43
I01
sS'edge_to_blen'
p44
(dp45
g20
g33
(g37
S'\x94\r\xebb9\xb2\xdc?'
p46
tp47
Rp48
sg10
g33
(g37
S'\x1e\x9d\xda\xa9\xb8\xa4\xbb?'
p49
tp50
Rp51
sg13
g33
(g37
S'\xf8\xdd\x9e#\xc1+\xa1?'
p52
tp53
Rp54
sg15
g33
(g37
S'\x80\xe9\xe5{\x00S\xb1?'
p55
tp56
Rp57
sg17
g33
(g37
S'\x19Y2\xe9JD\xe6?'
p58
tp59
Rp60
sg19
g33
(g37
S'<I\xf3\xde\xb8\xac\xcf?'
p61
tp62
Rp63
sg7
g33
(g37
S'/9\xd1\x08\xc0\x88\xc6?'
p64
tp65
Rp66
sg22
g33
(g37
S'\xbe\x91\x0b\x96\xc8a\xcb?'
p67
tp68
Rp69
sg24
g33
(g37
S'\x1e\x9d\xda\xa9\xb8\xa4\xbb?'
p70
tp71
Rp72
sg26
g33
(g37
S'e\xa7f\xebz\xe6\xeb?'
p73
tp74
Rp75
sg27
g33
(g37
S'\xbc9\xad\x0c\xb0\x97\xa3?'
p76
tp77
Rp78
sg29
g33
(g37
S'OC\xe0\x92\xdc{\xc6?'
p79
tp80
Rp81
ssS'paralog'
p82
(lp83
S'YGR043C'
p84
aS'YLR354C'
p85
asS'alignment_file'
p86
S'../PairsAlignemt/YGR043C_YLR354C/YGR043C_YLR354C_input.fasta'
p87
sS'x_clock'
p88
(lp89
F-0.7398226266262764
aF-0.5307742527367812
aF-0.8345561182358758
aF1.0904096211986911
aF-2.241985819416418
aF1.23836258
aF-0.13709799169637593
aF0.0
aF-0.22554256609571874
aF-1.0338715804064014
aF-0.14563346946365227
aF-0.19708807468828607
aF-0.48655521450019557
asS'x'
p90
(lp91
F-0.7398226266262764
aF-0.5307742527367812
aF-0.8345561182358758
aF1.0904096211986911
aF-2.241985819416418
aF1.23836258
aF-0.8021187865941974
aF-2.22578889685063
aF-3.395107613204237
aF-2.69307156793935
aF-0.3626405577920947
aF-1.396512138198496
aF-1.7369969868256345
aF-1.5421456076621483
aF-2.22578889685063
aF-0.13709799169637596
aF-3.2631762512199334
aF-1.7392336823504342
asS'Model'
p92
S'MG94'
p93
s.