(dp0
S'Force'
p1
(dp2
I5
F0.0
ssS'ExpectedGeneconv'
p3
(dp4
(S'N0'
p5
S'N1'
p6
tp7
F9.94572015711353
s(S'N5'
p8
S'cerevisiae'
p9
tp10
F32.45974556748166
s(S'N2'
p11
S'N3'
p12
tp13
F17.677978699336002
s(S'N4'
p14
g8
tp15
F10.387059804919064
s(g12
S'kudriavzevii'
p16
tp17
F27.835182484814535
s(g11
S'bayanus'
p18
tp19
F38.60078935845381
s(g6
g11
tp20
F140.60896805246432
s(g6
S'castellii'
p21
tp22
F307.4436283409977
s(g8
S'paradoxus'
p23
tp24
F10.637373273330166
s(g14
S'mikatae'
p25
tp26
F32.47299661383155
s(g12
g14
tp27
F13.143435172450511
s(g5
S'kluyveri'
p28
tp29
F0.0
ssS'newicktree'
p30
S'../PairsAlignemt/YeastTree.newick'
p31
sS'll'
p32
cnumpy.core.multiarray
scalar
p33
(cnumpy
dtype
p34
(S'f8'
p35
I0
I1
tp36
Rp37
(I3
S'<'
p38
NNNI-1
I-1
I0
tp39
bS'{VJp\x175\xb6\xc0'
p40
tp41
Rp42
sS'clock'
p43
I00
sS'edge_to_blen'
p44
(dp45
g20
g33
(g37
S'\xb6\xed\xa7"\xcc\xb2\xed?'
p46
tp47
Rp48
sg10
g33
(g37
S'\xbf\xb9\xc3\xaf\x89\x8b\xc7?'
p49
tp50
Rp51
sg13
g33
(g37
S'\x12X\xb0\xcf\xb2R\xba?'
p52
tp53
Rp54
sg15
g33
(g37
S'7C\xad\xf9\xd4\n\xb4?'
p55
tp56
Rp57
sg17
g33
(g37
S'\xba\xb7"\x0b\xa2,\xc7?'
p58
tp59
Rp60
sg19
g33
(g37
S'*;\\\x00\xa6\x1d\xcf?'
p61
tp62
Rp63
sg7
g33
(g37
S'\xd0-\x9d\xd2?\xf6\xc7?'
p64
tp65
Rp66
sg22
g33
(g37
S'\x0fK\xb5\x12\xdb\x12\x00@'
p67
tp68
Rp69
sg24
g33
(g37
S'\xfe%\xdc%\xe9(\xb1?'
p70
tp71
Rp72
sg26
g33
(g37
S'\xf6\x85@\x1dN\xbc\xce?'
p73
tp74
Rp75
sg27
g33
(g37
S'\x1e\xa1\xff2\x00\xca\xb4?'
p76
tp77
Rp78
sg29
g33
(g37
S"\x12<\xaf\xe0'q\xfa?"
p79
tp80
Rp81
ssS'paralog'
p82
(lp83
S'YPL232W'
p84
aS'YMR183C'
p85
asS'alignment_file'
p86
S'../PairsAlignemt/YPL232W_YMR183C/YPL232W_YMR183C_input.fasta'
p87
sS'x_clock'
p88
(lp89
F-0.5352633580593684
aF-0.511799258832272
aF-0.7455034961994331
aF0.1823215567939546
aF-0.10536051565782628
aF0.3364722366212129
aF-0.10536051565782628
aF-0.10536051565782628
aF-0.10536051565782628
aF-0.10536051565782628
aF-0.10536051565782628
aF-0.10536051565782628
aF-0.10536051565782628
asS'x'
p90
(lp91
F-0.6218812013138653
aF-0.5169239297627365
aF-0.8086020181964683
aF1.1256712148184753
aF-2.951048913755646
aF1.19617746
aF-0.07464180928104772
aF-1.693113820768495
aF-2.2747328073227844
aF-2.5473317934228916
aF-1.7089843044254471
aF-1.4143140778185637
aF-1.6755647210125493
aF0.6977400726834582
aF-2.7026075652564834
aF-1.426609748014006
aF-2.510750291202758
aF0.5023654901058863
asS'Model'
p92
S'MG94'
p93
s.