(dp0
S'Force'
p1
(dp2
I4
F0.0
ssS'ExpectedGeneconv'
p3
(dp4
(S'N1'
p5
S'N2'
p6
tp7
F8.982559022107203
s(S'N5'
p8
S'cerevisiae'
p9
tp10
F7.364883923586869
s(g6
S'N3'
p11
tp12
F4.329204926305351
s(S'N4'
p13
g8
tp14
F0.7942569786148663
s(g11
S'kudriavzevii'
p15
tp16
F5.308556580471469
s(g6
S'bayanus'
p17
tp18
F6.188104730686795
s(S'N0'
p19
g5
tp20
F0.0039201505610064295
s(g5
S'castellii'
p21
tp22
F9.889720506161549
s(g8
S'paradoxus'
p23
tp24
F2.8120492410530824
s(g13
S'mikatae'
p25
tp26
F4.058355861416989
s(g11
g13
tp27
F2.652699669261254
s(g19
S'kluyveri'
p28
tp29
F0.0
ssS'newicktree'
p30
S'/Users/xji3/Genconv/PairsAlignemt/YeastTree.newick'
p31
sS'll'
p32
cnumpy.core.multiarray
scalar
p33
(cnumpy
dtype
p34
(S'f8'
p35
I0
I1
tp36
Rp37
(I3
S'<'
p38
NNNI-1
I-1
I0
tp39
bS'\xa2l\x90\xa1\xa2\x06\x99\xc0'
p40
tp41
Rp42
sS'clock'
p43
I00
sS'edge_to_blen'
p44
(dp45
g20
g33
(g37
S'p/d\xfc\xfc\x1fG?'
p46
tp47
Rp48
sg10
g33
(g37
S'\xa4}\xd2P\xd6[v?'
p49
tp50
Rp51
sg12
g33
(g37
S'\xc5\xed\xc3w}\x08v?'
p52
tp53
Rp54
sg14
g33
(g37
S'\x9b\xa9\xbd\xcd\x81tG?'
p55
tp56
Rp57
sg16
g33
(g37
S'\x90\x1f7\xc2\xa5#}?'
p58
tp59
Rp60
sg18
g33
(g37
S'c\xa6\xab\x0f\x1dGt?'
p61
tp62
Rp63
sg7
g33
(g37
S'j\x10\x8a\x91\xdf~\x86?'
p64
tp65
Rp66
sg22
g33
(g37
S'fX~\xca\x8f\xb1\x8d?'
p67
tp68
Rp69
sg24
g33
(g37
S'-\x93?\xc96]s?'
p70
tp71
Rp72
sg26
g33
(g37
S'\xb4\xf1\x10X\xaa.\x82?'
p73
tp74
Rp75
sg27
g33
(g37
S'\xb1.\xdaR\x9a\x18f?'
p76
tp77
Rp78
sg29
g33
(g37
S'\xda\xc5\x1f\xf2\xf8\x84\x94?'
p79
tp80
Rp81
ssS'paralog'
p82
(lp83
S'YBL087C'
p84
aS'YER117W'
p85
asS'alignment_file'
p86
S'/Users/xji3/Genconv/PairsAlignemt/YBL087C_YER117W/YBL087C_YER117W_input.fasta'
p87
sS'x_clock'
p88
(lp89
F-0.7757874587650485
aF-0.6754876074077723
aF-0.9010437013773518
aF2.325551380656812
aF3.6688677199675115
aF-3.7888173336619406
aF0.0
aF-0.43490975515130526
aF-0.6781502917753288
aF-0.28070753355310185
aF-0.3009139602541116
aF-0.2618492704200716
asS'x'
p90
(lp91
F-0.8179081988308732
aF-0.6813465532955191
aF-0.9225540598894495
aF2.5184305064884263
aF3.6688677199675115
aF-7.256295413822541
aF-5.210548917686554
aF-5.225217371772318
aF-7.242119512390979
aF-4.945680171833271
aF-5.308240106922107
aF-4.51129930120309
aF-4.2336874407951814
aF-5.354344441161707
aF-4.724171121860599
aF-5.915512008050461
aF-3.9100998748040015
asS'Model'
p92
S'HKY'
p93
s.