(dp0
S'Force'
p1
(dp2
I4
F0.0
ssS'ExpectedGeneconv'
p3
(dp4
(S'N1'
p5
S'N2'
p6
tp7
F224.2051686501287
s(S'N5'
p8
S'cerevisiae'
p9
tp10
F145.89971642522622
s(g6
S'N3'
p11
tp12
F25.839967542352703
s(S'N4'
p13
g8
tp14
F75.22202290872313
s(g11
S'kudriavzevii'
p15
tp16
F218.9932354542313
s(g6
S'bayanus'
p17
tp18
F231.31588634651055
s(S'N0'
p19
g5
tp20
F24.416167722167447
s(g5
S'castellii'
p21
tp22
F485.4715571546815
s(g8
S'paradoxus'
p23
tp24
F108.03718935362845
s(g19
S'kluyveri'
p25
tp26
F0.0
s(g11
g13
tp27
F59.339843780729986
s(g13
S'mikatae'
p28
tp29
F190.72475152091673
ssS'newicktree'
p30
S'/Users/xji3/Genconv/PairsAlignemt/YeastTree.newick'
p31
sS'll'
p32
cnumpy.core.multiarray
scalar
p33
(cnumpy
dtype
p34
(S'f8'
p35
I0
I1
tp36
Rp37
(I3
S'<'
p38
NNNI-1
I-1
I0
tp39
bS'l\x86\xa5\xd3\xdb\x19\xdf\xc0'
p40
tp41
Rp42
sS'clock'
p43
I01
sS'edge_to_blen'
p44
(dp45
g20
g33
(g37
S'\xe1[\x1eV6\x91\xb3?'
p46
tp47
Rp48
sg10
g33
(g37
S'\x96\x1dw\xdc\xf9\xa0\xad?'
p49
tp50
Rp51
sg12
g33
(g37
S'D@\xa1"/\xed\x90?'
p52
tp53
Rp54
sg14
g33
(g37
S'\xd5R\xe4\x0cc\x02\xa0?'
p55
tp56
Rp57
sg16
g33
(g37
S'$i\xee\xe3\x95\xe3\xbd?'
p58
tp59
Rp60
sg18
g33
(g37
S'\x9b\\K\xd6p\x0f\xc1?'
p61
tp62
Rp63
sg7
g33
(g37
S'r=J\xcfIw\xca?'
p64
tp65
Rp66
sg22
g33
(g37
S'\x06\xcd\xcaR]\xc3\xd5?'
p67
tp68
Rp69
sg24
g33
(g37
S'\x96\x1dw\xdc\xf9\xa0\xad?'
p70
tp71
Rp72
sg26
g33
(g37
S'\xfecR\xe8\xaa\xa7\xda?'
p73
tp74
Rp75
sg27
g33
(g37
S'\xba\xc3\x02\xbd\x9dG\x9c?'
p76
tp77
Rp78
sg29
g33
(g37
S'4\xb8\xadt\xae\xd1\xb6?'
p79
tp80
Rp81
ssS'paralog'
p82
(lp83
S'YGL133W'
p84
aS'YPL216W'
p85
asS'alignment_file'
p86
S'/Users/xji3/Genconv/PairsAlignemt/YGL133W_YPL216W/YGL133W_YPL216W_input.fasta'
p87
sS'x_clock'
p88
(lp89
F-0.629834176046041
aF-0.45446109428974163
aF-0.8962083389608144
aF1.2321272319506742
aF-2.071811865130997
aF-0.8759081491960969
aF0.0
aF-0.20275709465500746
aF-0.9366099841950122
aF-0.13241149946171185
aF-0.26989420448960705
aF-0.431996407209598
asS'x'
p90
(lp91
F-0.629834176046041
aF-0.45446109428974163
aF-0.8962083389608144
aF1.2321272319506742
aF-2.071811865130997
aF-2.571320942459456
aF-2.8495773392070336
aF-4.102591336243953
aF-3.4651533294951595
aF-2.1476867275078284
aF-2.0152752280461166
aF-1.5761705072107388
aF-1.0786652438511044
aF-2.8495773392070336
aF-0.8759081491960969
aF-3.589325781943605
aF-2.4175809319974357
asS'Model'
p92
S'HKY'
p93
s.