(dp0
S'Force'
p1
(dp2
I5
F0.0
ssS'ExpectedGeneconv'
p3
(dp4
(S'N0'
p5
S'N1'
p6
tp7
F2.2121302923600322e-11
s(S'N5'
p8
S'cerevisiae'
p9
tp10
F3.6774429093385597
s(S'N2'
p11
S'N3'
p12
tp13
F3.057666947352242
s(S'N4'
p14
g8
tp15
F2.770107896767561
s(g6
S'castellii'
p16
tp17
F9.088046406072332
s(g11
S'bayanus'
p18
tp19
F4.218666266484095
s(g6
g11
tp20
F12.62129587350253
s(g12
S'kudriavzevii'
p21
tp22
F4.111880073272645
s(g8
S'paradoxus'
p23
tp24
F7.054895043619109
s(g5
S'kluyveri'
p25
tp26
F0.0
s(g12
g14
tp27
F3.690484435446249
s(g14
S'mikatae'
p28
tp29
F7.777449445325246
ssS'newicktree'
p30
S'../PairsAlignemt/YeastTree.newick'
p31
sS'll'
p32
cnumpy.core.multiarray
scalar
p33
(cnumpy
dtype
p34
(S'f8'
p35
I0
I1
tp36
Rp37
(I3
S'<'
p38
NNNI-1
I-1
I0
tp39
bS'~\x91D\xf1\xf2^\x9d\xc0'
p40
tp41
Rp42
sS'clock'
p43
I00
sS'edge_to_blen'
p44
(dp45
g20
g33
(g37
S'\x07;\x13\x92\xb8\x1c\xb3?'
p46
tp47
Rp48
sg10
g33
(g37
S'=\x99\xd8\xfe\xe8\x13\x90?'
p49
tp50
Rp51
sg13
g33
(g37
S'.\x04\x86\xba\xb1>\x92?'
p52
tp53
Rp54
sg15
g33
(g37
S'\x90y\x93\xf0\xd1\xf4w?'
p55
tp56
Rp57
sg17
g33
(g37
S'\x94%c\xc3o\x06\xb5?'
p58
tp59
Rp60
sg19
g33
(g37
S'\x8c\x19\x90\x83`\xfa\x90?'
p61
tp62
Rp63
sg7
g33
(g37
S'\x8cZOJ \x15\x84>'
p64
tp65
Rp66
sg22
g33
(g37
S'\xef\xbf\x15x^\xb5\xa1?'
p67
tp68
Rp69
sg24
g33
(g37
S'\xdc\xcc\x95\x12\x99{\x97?'
p70
tp71
Rp72
sg26
g33
(g37
S'\xcb\xcb\x03\x97fo\xbc?'
p73
tp74
Rp75
sg27
g33
(g37
S'\xb3\x8d\xa8\x99\xbdX\x87?'
p76
tp77
Rp78
sg29
g33
(g37
S"[\x04\xa6+\x11'\x9c?"
p79
tp80
Rp81
ssS'paralog'
p82
(lp83
S'YJL177W'
p84
aS'YKL180W'
p85
asS'alignment_file'
p86
S'../PairsAlignemt/YJL177W_YKL180W/YJL177W_YKL180W_input.fasta'
p87
sS'x_clock'
p88
(lp89
F-0.647920186592178
aF-0.527569534667218
aF-0.7337013364148708
aF0.1823215567939546
aF-0.10536051565782628
aF0.3364722366212129
aF-0.10536051565782628
aF-0.10536051565782628
aF-0.10536051565782628
aF-0.10536051565782628
aF-0.10536051565782628
aF-0.10536051565782628
aF-0.10536051565782628
asS'x'
p90
(lp91
F-0.7329689213225528
aF-0.44470771186431435
aF-0.8221622281804674
aF1.852082041352601
aF-2.4839027751534273
aF1.19617746
aF-2.5948510238352154
aF-4.15403398556877
aF-4.027586248286878
aF-5.141533642845004
aF-2.499458443324919
aF-4.09955134486803
aF-15.715123892951466
aF-3.364281414468049
aF-3.775203377717087
aF-2.19755106684286
aF-4.474165778123337
aF-3.5938318886523946
asS'Model'
p92
S'MG94'
p93
s.