(dp0
S'Force'
p1
(dp2
I4
F0.0
ssS'ExpectedGeneconv'
p3
(dp4
(S'N1'
p5
S'N2'
p6
tp7
F31.007153269646604
s(S'N5'
p8
S'cerevisiae'
p9
tp10
F32.33711375471125
s(g6
S'N3'
p11
tp12
F5.703600968780652
s(S'N4'
p13
g8
tp14
F13.930989459270569
s(g5
S'castellii'
p15
tp16
F78.26227512779079
s(g6
S'bayanus'
p17
tp18
F44.48092821749411
s(S'N0'
p19
g5
tp20
F0.4637266958544583
s(g11
S'kudriavzevii'
p21
tp22
F34.08305191959755
s(g8
S'paradoxus'
p23
tp24
F19.391441836257236
s(g13
S'mikatae'
p25
tp26
F34.628452496363245
s(g11
g13
tp27
F8.19765379796072
s(g19
S'kluyveri'
p28
tp29
F0.0
ssS'newicktree'
p30
S'/Users/xji3/Genconv/PairsAlignemt/YeastTree.newick'
p31
sS'll'
p32
cnumpy.core.multiarray
scalar
p33
(cnumpy
dtype
p34
(S'f8'
p35
I0
I1
tp36
Rp37
(I3
S'<'
p38
NNNI-1
I-1
I0
tp39
bS'\xa2:+\xbc\xd2\xc6\xb9\xc0'
p40
tp41
Rp42
sS'clock'
p43
I01
sS'edge_to_blen'
p44
(dp45
g20
g33
(g37
S'\x7f\xc7\x02Y.\x93\x8c?'
p46
tp47
Rp48
sg10
g33
(g37
S'\xe8\x9a\x1f\xe3\x00\xe1\x98?'
p49
tp50
Rp51
sg12
g33
(g37
S':B\xbe\xe7I\xe7\x85?'
p52
tp53
Rp54
sg14
g33
(g37
S'\xf5^\xe1\x94\xea\x8d\x8d?'
p55
tp56
Rp57
sg16
g33
(g37
S'\x00qr0:\x83\xc3?'
p58
tp59
Rp60
sg18
g33
(g37
S'\xf0\x97\x95i\\\xf8\xad?'
p61
tp62
Rp63
sg7
g33
(g37
S'\t\x16\x1a,F\n\xb8?'
p64
tp65
Rp66
sg22
g33
(g37
S'^\x07\xa6\xef\x89~\xa8?'
p67
tp68
Rp69
sg24
g33
(g37
S'\xe8\x9a\x1f\xe3\x00\xe1\x98?'
p70
tp71
Rp72
sg26
g33
(g37
S'1%\xc8\x16\xfb\xd3\xa3?'
p73
tp74
Rp75
sg27
g33
(g37
S'\xbc\x88wc;\xaa\x82?'
p76
tp77
Rp78
sg29
g33
(g37
S'x\x9d\x02\x16mL\xc5?'
p79
tp80
Rp81
ssS'paralog'
p82
(lp83
S'YPL232W'
p84
aS'YMR183C'
p85
asS'alignment_file'
p86
S'/Users/xji3/Genconv/PairsAlignemt/YPL232W_YMR183C/YPL232W_YMR183C_input.fasta'
p87
sS'x_clock'
p88
(lp89
F-0.6592011803434877
aF-0.4838230536976447
aF-0.7573864324982565
aF1.5700597415441089
aF0.49915016461097217
aF-1.7933917606950305
aF0.0
aF-0.08757775180237802
aF-0.957152889155344
aF-0.20176210284437077
aF-0.21134251547515948
aF-0.46622393559531616
asS'x'
p90
(lp91
F-0.6592011803434877
aF-0.4838230536976447
aF-0.7573864324982565
aF1.5700597415441089
aF0.49915016461097217
aF-4.272089367566488
aF-3.7174509555675987
aF-4.537973847991522
aF-4.238387683631112
aF-1.8809695124974084
aF-2.838122401652752
aF-2.3654527922358866
aF-3.0398845044971234
aF-3.7174509555675987
aF-3.2512270199722826
aF-4.697970550877262
aF-1.7933917606950305
asS'Model'
p92
S'HKY'
p93
s.