(dp0
S'Force'
p1
(dp2
I4
F0.0
ssS'ExpectedGeneconv'
p3
(dp4
(S'N0'
p5
S'N1'
p6
tp7
F0.39438471657998225
s(S'N5'
p8
S'cerevisiae'
p9
tp10
F54.60793102398467
s(S'N2'
p11
S'N3'
p12
tp13
F21.50808575570371
s(S'N4'
p14
g8
tp15
F31.388356470807455
s(g6
S'castellii'
p16
tp17
F170.9839837435065
s(g11
S'bayanus'
p18
tp19
F64.59687194113941
s(g6
g11
tp20
F132.70117941561247
s(g12
S'kudriavzevii'
p21
tp22
F67.28689929222013
s(g8
S'paradoxus'
p23
tp24
F44.17951964860602
s(g14
S'mikatae'
p25
tp26
F70.38828870996471
s(g12
g14
tp27
F43.763536326318196
s(g5
S'kluyveri'
p28
tp29
F0.0
ssS'newicktree'
p30
S'/Users/xji3/Genconv/PairsAlignemt/YeastTree.newick'
p31
sS'll'
p32
cnumpy.core.multiarray
scalar
p33
(cnumpy
dtype
p34
(S'f8'
p35
I0
I1
tp36
Rp37
(I3
S'<'
p38
NNNI-1
I-1
I0
tp39
bS'\xc3Q\xe4-\xf9\xa0\xca\xc0'
p40
tp41
Rp42
sS'clock'
p43
I00
sS'edge_to_blen'
p44
(dp45
g20
g33
(g37
S'\x84\xdb\x80\x02\xcf\xd3\xd0?'
p46
tp47
Rp48
sg10
g33
(g37
S'\x9d#\xb2\x10\xbe\xd8\xa2?'
p49
tp50
Rp51
sg13
g33
(g37
S'w\xa8\xda{\xc3\xe9\x9b?'
p52
tp53
Rp54
sg15
g33
(g37
S'\x0c\xe3\x8c\x9b\xfe=\x99?'
p55
tp56
Rp57
sg17
g33
(g37
S"'\x91\xdaa\xb3\x1a\xd1?"
p58
tp59
Rp60
sg19
g33
(g37
S'2\x84p*\x1b\xeb\xb0?'
p61
tp62
Rp63
sg7
g33
(g37
S'\r\xd2\xda\x03\xfb\xfe\x88?'
p64
tp65
Rp66
sg22
g33
(g37
S'\xad\xba\x92*\xbbW\xab?'
p67
tp68
Rp69
sg24
g33
(g37
S'4\xa7C\x95\x19{\xa0?'
p70
tp71
Rp72
sg26
g33
(g37
S'\xa8\xa9\xb5|\xbe\xea\xac?'
p73
tp74
Rp75
sg27
g33
(g37
S'\xaeZ^\xac5:\x9e?'
p76
tp77
Rp78
sg29
g33
(g37
S'\xe2\xf9\xcf\xaa\xf8\x81\xcb?'
p79
tp80
Rp81
ssS'paralog'
p82
(lp83
S'YDR518W'
p84
aS'YCL043C'
p85
asS'alignment_file'
p86
S'/Users/xji3/Genconv/PairsAlignemt/YDR518W_YCL043C/YDR518W_YCL043C_input.fasta'
p87
sS'x_clock'
p88
(lp89
F-0.7401114827043538
aF-0.5188069262363665
aF-0.7525462379648173
aF1.2849280167185078
aF-1.1209435730118897
aF-1.1877242273540072
aF0.0
aF-0.05000728210674902
aF-1.3547452200084467
aF-0.163831474379722
aF-0.3056840617021935
aF-0.496469379280062
asS'x'
p90
(lp91
F-0.7457898311870694
aF-0.5124634009085054
aF-0.7597016184597429
aF1.27652272711949
aF-1.1209435730118897
aF-1.3358759121029915
aF-3.3019894370135274
aF-3.602374292281546
aF-3.702955945383286
aF-1.3195532095986775
aF-2.7167766464686607
aF-4.405902466546936
aF-2.9298750538815264
aF-3.4361249710570965
aF-2.8738960360352457
aF-3.522723620149996
aF-1.5375642762314372
asS'Model'
p92
S'HKY'
p93
s.