(dp0
S'Force'
p1
(dp2
I4
F0.0
ssS'ExpectedGeneconv'
p3
(dp4
(S'N1'
p5
S'N2'
p6
tp7
F8.392240242036777
s(S'N5'
p8
S'cerevisiae'
p9
tp10
F24.2094677668292
s(g6
S'N3'
p11
tp12
F5.853796860157756
s(S'N4'
p13
g8
tp14
F15.082416451850026
s(g5
S'castellii'
p15
tp16
F61.28148975591314
s(g6
S'bayanus'
p17
tp18
F28.090791431991185
s(S'N0'
p19
g5
tp20
F0.46891176684518165
s(g11
S'kudriavzevii'
p21
tp22
F40.65060426362653
s(g8
S'paradoxus'
p23
tp24
F19.59146304399118
s(g13
S'mikatae'
p25
tp26
F37.53319100153683
s(g11
g13
tp27
F14.534584990319983
s(g19
S'kluyveri'
p28
tp29
F0.0
ssS'newicktree'
p30
S'/Users/xji3/Genconv/PairsAlignemt/YeastTree.newick'
p31
sS'll'
p32
cnumpy.core.multiarray
scalar
p33
(cnumpy
dtype
p34
(S'f8'
p35
I0
I1
tp36
Rp37
(I3
S'<'
p38
NNNI-1
I-1
I0
tp39
bS'\xe4U\x81\xdb\xa0\x19\xbb\xc0'
p40
tp41
Rp42
sS'clock'
p43
I01
sS'edge_to_blen'
p44
(dp45
g20
g33
(g37
S'8\x08\xdb\xe1\x86l\x81?'
p46
tp47
Rp48
sg10
g33
(g37
S"A\x9a'I\x86\xe0\x8b?"
p49
tp50
Rp51
sg12
g33
(g37
S'\xf5\x88G\x1dkkz?'
p52
tp53
Rp54
sg14
g33
(g37
S'J\xe8\xfb{\xe4\xce\x83?'
p55
tp56
Rp57
sg16
g33
(g37
S'\x1a\xc9_\xd2\x94\x10\xae?'
p58
tp59
Rp60
sg18
g33
(g37
S'(\x1e\xab\xfc\x08\xeb\xa2?'
p61
tp62
Rp63
sg7
g33
(g37
S'\xe4Ui\xab\x17K\x96?'
p64
tp65
Rp66
sg22
g33
(g37
S'\x16Z\x0427;\x9f?'
p67
tp68
Rp69
sg24
g33
(g37
S"A\x9a'I\x86\xe0\x8b?"
p70
tp71
Rp72
sg26
g33
(g37
S'D\xc1\x91b\xb5\xd7\x97?'
p73
tp74
Rp75
sg27
g33
(g37
S'Cc\xca=\x07\x8e}?'
p76
tp77
Rp78
sg29
g33
(g37
S'\x94EkE\xdb5\xb1?'
p79
tp80
Rp81
ssS'paralog'
p82
(lp83
S'YDR502C'
p84
aS'YLR180W'
p85
asS'alignment_file'
p86
S'/Users/xji3/Genconv/PairsAlignemt/YDR502C_YLR180W/YDR502C_YLR180W_input.fasta'
p87
sS'x_clock'
p88
(lp89
F-0.8452470604399446
aF-0.6005482307356054
aF-0.8282890811737332
aF1.9340329113338657
aF1.6694118068798016
aF-2.699664924995756
aF0.0
aF-0.135305617731328
aF-0.4632346357232553
aF-0.19184547900081167
aF-0.269946770590818
aF-0.5368178229456716
asS'x'
p90
(lp91
F-0.8452470604399446
aF-0.6005482307356054
aF-0.8282890811737332
aF1.9340329113338657
aF1.6694118068798016
aF-4.76677425722496
aF-4.29681525098764
aF-5.043659887207302
aF-4.638524310721126
aF-2.834970542727084
aF-3.2982051784503392
aF-3.827184278642981
aF-3.4900506574511505
aF-4.29681525098764
aF-3.759997428041969
aF-4.931520067366425
aF-2.699664924995756
asS'Model'
p92
S'HKY'
p93
s.