(dp0
S'Force'
p1
(dp2
I5
F0.0
ssS'ExpectedGeneconv'
p3
(dp4
(S'N0'
p5
S'N1'
p6
tp7
F87.38138124142337
s(S'N5'
p8
S'cerevisiae'
p9
tp10
F11.562000883139504
s(S'N2'
p11
S'N3'
p12
tp13
F11.495172972474078
s(S'N4'
p14
g8
tp15
F9.049246149117028
s(g6
S'castellii'
p16
tp17
F190.29850705476224
s(g11
S'bayanus'
p18
tp19
F24.26548895563109
s(g6
g11
tp20
F201.4282421582247
s(g12
S'kudriavzevii'
p21
tp22
F16.85918989127222
s(g8
S'paradoxus'
p23
tp24
F9.534685767652658
s(g5
S'kluyveri'
p25
tp26
F0.0
s(g12
g14
tp27
F8.384769678894635
s(g14
S'mikatae'
p28
tp29
F18.508208997416684
ssS'newicktree'
p30
S'../PairsAlignemt/YeastTree.newick'
p31
sS'll'
p32
cnumpy.core.multiarray
scalar
p33
(cnumpy
dtype
p34
(S'f8'
p35
I0
I1
tp36
Rp37
(I3
S'<'
p38
NNNI-1
I-1
I0
tp39
bS'B\xa7\x90Z~f\xc1\xc0'
p40
tp41
Rp42
sS'clock'
p43
I00
sS'edge_to_blen'
p44
(dp45
g20
g33
(g37
S'm\x9b\xc5\rS~\xfc?'
p46
tp47
Rp48
sg10
g33
(g37
S"bhD'$v\xc6?"
p49
tp50
Rp51
sg13
g33
(g37
S' .\xb2Z\x8ba\xc0?'
p52
tp53
Rp54
sg15
g33
(g37
S'\xb2\x976\xecV\x1f\xbb?'
p55
tp56
Rp57
sg17
g33
(g37
S'\xfcig\xf5$\xaf\xf8?'
p58
tp59
Rp60
sg19
g33
(g37
S'B\xd1\xd2\xe7\x10+\xd1?'
p61
tp62
Rp63
sg7
g33
(g37
S'^\xba\xdcHL\xb7\xe8?'
p64
tp65
Rp66
sg22
g33
(g37
S'Ng\xfbf\xd0\x95\xca?'
p67
tp68
Rp69
sg24
g33
(g37
S'\xc9\x8c\x8fA%\x86\xbc?'
p70
tp71
Rp72
sg26
g33
(g37
S'l\xe5\x86\xbe\xfbF\xef?'
p73
tp74
Rp75
sg27
g33
(g37
S'\x149\xf7\xe6\\\xe2\xb9?'
p76
tp77
Rp78
sg29
g33
(g37
S'o\xd0\xaf\xb6\x19\xbc\xca?'
p79
tp80
Rp81
ssS'paralog'
p82
(lp83
S'YDR438W'
p84
aS'YML018C'
p85
asS'alignment_file'
p86
S'../PairsAlignemt/YDR438W_YML018C/YDR438W_YML018C_input.fasta'
p87
sS'x_clock'
p88
(lp89
F-0.8084249956993916
aF-0.5979128243898835
aF-0.9994101068698901
aF0.1823215567939546
aF-0.10536051565782628
aF0.3364722366212129
aF-0.10536051565782628
aF-0.10536051565782628
aF-0.10536051565782628
aF-0.10536051565782628
aF-0.10536051565782628
aF-0.10536051565782628
aF-0.10536051565782628
asS'x'
p90
(lp91
F-0.713674918475203
aF-0.5721878264016478
aF-0.9576449259305476
aF1.02903228750309
aF-2.193708799531978
aF1.19617746
aF0.5770856825321525
aF-1.7402280141841422
aF-2.0559061455047396
aF-2.244816749206291
aF0.4335729266941023
aF-1.3158226922706164
aF-0.2582847815981533
aF-1.57167517205099
aF-2.19443139656314
aF-0.022843985397100638
aF-2.2915435386197074
aF-1.566065397307041
asS'Model'
p92
S'MG94'
p93
s.