(dp0
S'Force'
p1
(dp2
I5
F0.0
ssS'ExpectedGeneconv'
p3
(dp4
(S'N0'
p5
S'N1'
p6
tp7
F0.6023128121074645
s(S'N5'
p8
S'cerevisiae'
p9
tp10
F33.306601869606425
s(S'N2'
p11
S'N3'
p12
tp13
F20.79459085212662
s(S'N4'
p14
g8
tp15
F16.486870095417927
s(g6
S'castellii'
p16
tp17
F391.77162291599785
s(g11
S'bayanus'
p18
tp19
F46.37715469139326
s(g6
g11
tp20
F229.15899989076243
s(g12
S'kudriavzevii'
p21
tp22
F46.43581442974561
s(g8
S'paradoxus'
p23
tp24
F20.029476424841807
s(g5
S'kluyveri'
p25
tp26
F0.0
s(g12
g14
tp27
F19.126082170694268
s(g14
S'mikatae'
p28
tp29
F44.581152245260036
ssS'newicktree'
p30
S'../PairsAlignemt/YeastTree.newick'
p31
sS'll'
p32
cnumpy.core.multiarray
scalar
p33
(cnumpy
dtype
p34
(S'f8'
p35
I0
I1
tp36
Rp37
(I3
S'<'
p38
NNNI-1
I-1
I0
tp39
bS'\xe8\x96\x9f\xb3\x9bX\xc3\xc0'
p40
tp41
Rp42
sS'clock'
p43
I00
sS'edge_to_blen'
p44
(dp45
g20
g33
(g37
S"Ze-\x00^'\xfa?"
p46
tp47
Rp48
sg10
g33
(g37
S'Ut\x0f/q\x08\xca?'
p49
tp50
Rp51
sg13
g33
(g37
S'\xd1\xa2I\x99\xc5\x12\xc4?'
p52
tp53
Rp54
sg15
g33
(g37
S'\rE\xa83\x1e7\xbe?'
p55
tp56
Rp57
sg17
g33
(g37
S'yA\xee}\x18b\x07@'
p58
tp59
Rp60
sg19
g33
(g37
S'u\xff\xdb\xb9\x19\x8e\xd4?'
p61
tp62
Rp63
sg7
g33
(g37
S'O\xccJ\x90\x9a\x7f\xa5?'
p64
tp65
Rp66
sg22
g33
(g37
S'35\xbe\xad?m\xd2?'
p67
tp68
Rp69
sg24
g33
(g37
S'\xfa\x06w\xbf\xd5e\xc4?'
p70
tp71
Rp72
sg26
g33
(g37
S'\x03\xec3\x91\x87\t\x02@'
p73
tp74
Rp75
sg27
g33
(g37
S'\xc8\x8f_"\xceJ\xbb?'
p76
tp77
Rp78
sg29
g33
(g37
S'\x92\xd95\n\xde\x85\xd3?'
p79
tp80
Rp81
ssS'paralog'
p82
(lp83
S'YPR157W'
p84
aS'YGR141W'
p85
asS'alignment_file'
p86
S'../PairsAlignemt/YPR157W_YGR141W/YPR157W_YGR141W_input.fasta'
p87
sS'x_clock'
p88
(lp89
F-0.6417793871780968
aF-0.623666891511595
aF-0.9240544395328898
aF0.1823215567939546
aF-0.10536051565782628
aF0.3364722366212129
aF-0.10536051565782628
aF-0.10536051565782628
aF-0.10536051565782628
aF-0.10536051565782628
aF-0.10536051565782628
aF-0.10536051565782628
aF-0.10536051565782628
asS'x'
p90
(lp91
F-0.6546839967371872
aF-0.5370341012502111
aF-0.9679730272073178
aF0.922080275599036
aF-2.5723081449324674
aF1.19617746
aF0.4914049353397337
aF-1.5926661815650343
aF-1.8526383142518474
aF-2.136828873873327
aF1.072575684676442
aF-1.13577496869447
aF-3.170343683008971
aF-1.2450795122464313
aF-1.8366035657726254
aF0.8129961274894354
aF-2.2385762094277872
aF-1.1872939587538447
asS'Model'
p92
S'MG94'
p93
s.