(dp0
S'Force'
p1
(dp2
I5
F0.0
ssS'ExpectedGeneconv'
p3
(dp4
(S'N0'
p5
S'N1'
p6
tp7
F0.22019895800799733
s(S'N5'
p8
S'cerevisiae'
p9
tp10
F137.85528690376645
s(S'N2'
p11
S'N3'
p12
tp13
F39.28967248382411
s(S'N4'
p14
g8
tp15
F64.52086708749854
s(g12
S'kudriavzevii'
p16
tp17
F137.9120156852474
s(g11
S'bayanus'
p18
tp19
F135.61936545317016
s(g6
g11
tp20
F37.733119212195646
s(g6
S'castellii'
p21
tp22
F482.0778944235162
s(g8
S'paradoxus'
p23
tp24
F76.39803096247213
s(g14
S'mikatae'
p25
tp26
F174.1656608337841
s(g12
g14
tp27
F74.80886248519089
s(g5
S'kluyveri'
p28
tp29
F0.0
ssS'newicktree'
p30
S'../PairsAlignemt/YeastTree.newick'
p31
sS'll'
p32
cnumpy.core.multiarray
scalar
p33
(cnumpy
dtype
p34
(S'f8'
p35
I0
I1
tp36
Rp37
(I3
S'<'
p38
NNNI-1
I-1
I0
tp39
bS'\x83s\xfeC#\xec\xd2\xc0'
p40
tp41
Rp42
sS'clock'
p43
I00
sS'edge_to_blen'
p44
(dp45
g20
g33
(g37
S' \xd7\xab\xe8c4\xc0?'
p46
tp47
Rp48
sg10
g33
(g37
S'\xd1\x87\xe7\x04y\xa0\xc1?'
p49
tp50
Rp51
sg13
g33
(g37
S'\x9d\x01O\x95G2\xb2?'
p52
tp53
Rp54
sg15
g33
(g37
S'W\x10\x1f\xa9as\xb3?'
p55
tp56
Rp57
sg17
g33
(g37
S'm\x85\xb5\x98\x1fD\xca?'
p58
tp59
Rp60
sg19
g33
(g37
S'q"\xdc\xedo\xb0\xc9?'
p61
tp62
Rp63
sg7
g33
(g37
S'`\xd8@]\xed\x14\x87?'
p64
tp65
Rp66
sg22
g33
(g37
S'G\x84\xddQ\x00F\xe7?'
p67
tp68
Rp69
sg24
g33
(g37
S'\x1c\x1f0h"S\xbb?'
p70
tp71
Rp72
sg26
g33
(g37
S'\xf4\xbbw \xff\xa4\xcb?'
p73
tp74
Rp75
sg27
g33
(g37
S'\xc3\xd8"\xd8\xc0\xbb\xb8?'
p76
tp77
Rp78
sg29
g33
(g37
S'7Kr\xc5\xc1\xfa\xec?'
p79
tp80
Rp81
ssS'paralog'
p82
(lp83
S'YGL062W'
p84
aS'YBR218C'
p85
asS'alignment_file'
p86
S'../PairsAlignemt/YGL062W_YBR218C/YGL062W_YBR218C_input.fasta'
p87
sS'x_clock'
p88
(lp89
F-0.6581942422714446
aF-0.5986692573138761
aF-0.8419057479204775
aF0.1823215567939546
aF-0.10536051565782628
aF0.3364722366212129
aF-0.10536051565782628
aF-0.10536051565782628
aF-0.10536051565782628
aF-0.10536051565782628
aF-0.10536051565782628
aF-0.10536051565782628
aF-0.10536051565782628
asS'x'
p90
(lp91
F-0.7442285943741354
aF-0.5102225978056908
aF-0.9573844941147952
aF1.2096764382819882
aF-3.0967977821242214
aF1.19617746
aF-2.0667320574024
aF-1.9826071487490553
aF-2.6439534098273922
aF-2.5772939260841556
aF-1.5837508583125697
aF-1.6059592861598628
aF-4.4855768588509015
aF-0.31842300434422727
aF-2.2373847879937623
aF-1.5326028222836687
aF-2.337022429870818
aF-0.09914655627893035
asS'Model'
p92
S'MG94'
p93
s.