(dp0
S'Force'
p1
(dp2
I5
F0.0
ssS'ExpectedGeneconv'
p3
(dp4
(S'N0'
p5
S'N1'
p6
tp7
F1.0586642403433595
s(S'N5'
p8
S'cerevisiae'
p9
tp10
F54.92724562834076
s(S'N2'
p11
S'N3'
p12
tp13
F32.02591017797988
s(S'N4'
p14
g8
tp15
F16.24317194181705
s(g12
S'kudriavzevii'
p16
tp17
F48.27983651069521
s(g11
S'bayanus'
p18
tp19
F59.01709989101757
s(g6
g11
tp20
F185.4077588545538
s(g6
S'castellii'
p21
tp22
F248.66097942386477
s(g8
S'paradoxus'
p23
tp24
F31.802740077209528
s(g14
S'mikatae'
p25
tp26
F67.65798961093165
s(g12
g14
tp27
F31.49955422182433
s(g5
S'kluyveri'
p28
tp29
F0.0
ssS'newicktree'
p30
S'../PairsAlignemt/YeastTree.newick'
p31
sS'll'
p32
cnumpy.core.multiarray
scalar
p33
(cnumpy
dtype
p34
(S'f8'
p35
I0
I1
tp36
Rp37
(I3
S'<'
p38
NNNI-1
I-1
I0
tp39
bS'O;\x0c\x07\xe0=\xca\xc0'
p40
tp41
Rp42
sS'clock'
p43
I00
sS'edge_to_blen'
p44
(dp45
g20
g33
(g37
S'\xcf\xfd*\x87/\xc5\xe7?'
p46
tp47
Rp48
sg10
g33
(g37
S'\x00\xa6E{\xc4\x8b\xc0?'
p49
tp50
Rp51
sg13
g33
(g37
S'[\xa5o\x80^\xe0\xb6?'
p52
tp53
Rp54
sg15
g33
(g37
S'\xa1\x03\xd1\x8f|\xda\xad?'
p55
tp56
Rp57
sg17
g33
(g37
S'\xbb\x06a\x8c\x1c\x1e\xc5?'
p58
tp59
Rp60
sg19
g33
(g37
S'\xad}Vj\x9c\xd4\xc4?'
p61
tp62
Rp63
sg7
g33
(g37
S'a\x1f\x8bw\xd3=\xa3?'
p64
tp65
Rp66
sg22
g33
(g37
S'\x04\xaa=\xc2\xf2\xb0\xed?'
p67
tp68
Rp69
sg24
g33
(g37
S'\xe5\xa2\xc9\xc7\xf2U\xb9?'
p70
tp71
Rp72
sg26
g33
(g37
S'\x07\x87H\x0fDD\xc9?'
p73
tp74
Rp75
sg27
g33
(g37
S'\xaf+\x0c\x97\x9cP\xb6?'
p76
tp77
Rp78
sg29
g33
(g37
S'\x0e\xf5\x9b#\xe1\x85\xe0?'
p79
tp80
Rp81
ssS'paralog'
p82
(lp83
S'YBR117C'
p84
aS'YPR074C'
p85
asS'alignment_file'
p86
S'../PairsAlignemt/YBR117C_YPR074C/YBR117C_YPR074C_input.fasta'
p87
sS'x_clock'
p88
(lp89
F-0.6947321463621419
aF-0.5994107274100917
aF-0.790416963041395
aF0.1823215567939546
aF-0.10536051565782628
aF0.3364722366212129
aF-0.10536051565782628
aF-0.10536051565782628
aF-0.10536051565782628
aF-0.10536051565782628
aF-0.10536051565782628
aF-0.10536051565782628
aF-0.10536051565782628
asS'x'
p90
(lp91
F-0.7602842385380939
aF-0.5196341273192785
aF-0.8589199136886322
aF1.039043855179287
aF-2.4441646223699407
aF1.19617746
aF-0.2973008318466771
aF-2.045887888457405
aF-2.415069797859464
aF-2.842023773103999
aF-1.8019223533971385
aF-1.8156114429703747
aF-3.281254805542889
aF-0.07488505558042927
aF-2.3129615637304806
aF-1.6225443849283585
aF-2.439923303872916
aF-0.6609845745567945
asS'Model'
p92
S'MG94'
p93
s.