(dp0
S'Force'
p1
(dp2
I4
F0.0
ssS'ExpectedGeneconv'
p3
(dp4
(S'N1'
p5
S'N2'
p6
tp7
F33.053335646897345
s(S'N5'
p8
S'cerevisiae'
p9
tp10
F37.4003192157836
s(g6
S'N3'
p11
tp12
F8.638671250431488
s(S'N4'
p13
g8
tp14
F14.374467080032476
s(g5
S'castellii'
p15
tp16
F84.48193333294431
s(g6
S'bayanus'
p17
tp18
F38.014620333910145
s(S'N0'
p19
g5
tp20
F0.6487499766082828
s(g11
S'kudriavzevii'
p21
tp22
F28.720763834783906
s(g8
S'paradoxus'
p23
tp24
F15.427998363889829
s(g13
S'mikatae'
p25
tp26
F35.4229017823338
s(g11
g13
tp27
F13.074493482613784
s(g19
S'kluyveri'
p28
tp29
F0.0
ssS'newicktree'
p30
S'/Users/xji3/Genconv/PairsAlignemt/YeastTree.newick'
p31
sS'll'
p32
cnumpy.core.multiarray
scalar
p33
(cnumpy
dtype
p34
(S'f8'
p35
I0
I1
tp36
Rp37
(I3
S'<'
p38
NNNI-1
I-1
I0
tp39
bS'[>\xab\xa8<\xb8\xb9\xc0'
p40
tp41
Rp42
sS'clock'
p43
I00
sS'edge_to_blen'
p44
(dp45
g20
g33
(g37
S'\xe1\xa6\xb3\x8a^\xbd\x90?'
p46
tp47
Rp48
sg10
g33
(g37
S',/\xf3`\xd0\x1c\xa2?'
p49
tp50
Rp51
sg12
g33
(g37
S']\x83&\xd3h\xa2\x8f?'
p52
tp53
Rp54
sg14
g33
(g37
S'C\x08.\x7f\x8f\xeb\x8f?'
p55
tp56
Rp57
sg16
g33
(g37
S'jm\xf9\xb2\xf3\\\xc4?'
p58
tp59
Rp60
sg18
g33
(g37
S'f(\xe3g\x81;\xa9?'
p61
tp62
Rp63
sg7
g33
(g37
S'\x8b\xf0\xa3t`!\xb8?'
p64
tp65
Rp66
sg22
g33
(g37
S'\x99zv \xa1\xef\xa2?'
p67
tp68
Rp69
sg24
g33
(g37
S'~\x0f\xd3\x98\xae\xc5\x8e?'
p70
tp71
Rp72
sg26
g33
(g37
S'ub<\xf7?b\xa6?'
p73
tp74
Rp75
sg27
g33
(g37
S')\xedVPj\r\x8f?'
p76
tp77
Rp78
sg29
g33
(g37
S'go\x13\xef\x99\x9b\xc2?'
p79
tp80
Rp81
ssS'paralog'
p82
(lp83
S'YPL232W'
p84
aS'YMR183C'
p85
asS'alignment_file'
p86
S'/Users/xji3/Genconv/PairsAlignemt/YPL232W_YMR183C/YPL232W_YMR183C_input.fasta'
p87
sS'x_clock'
p88
(lp89
F-0.6374661005445575
aF-0.48349450186164533
aF-0.7664305225957693
aF1.5212967305101766
aF0.49915016461097217
aF-1.7353559139143595
aF0.0
aF-0.25846883090531814
aF-1.0580682903025544
aF-0.1906450446268523
aF-0.21196882641744358
aF-0.46284104594360215
asS'x'
p90
(lp91
F-0.6598994666170299
aF-0.4777479851659364
aF-0.7677260516279588
aF1.5717846107646354
aF0.49915016461097217
aF-4.1136872374817655
aF-3.341719302529528
aF-4.1703734707536935
aF-4.161381253147
aF-1.8383061410759167
aF-3.0101940249844006
aF-2.361705897909445
aF-3.297256988257649
aF-4.19800745103314
aF-3.129987654082128
aF-4.188942774326317
aF-1.9284484707084555
asS'Model'
p92
S'HKY'
p93
s.