(dp0
S'Force'
p1
(dp2
I4
F0.0
ssS'ExpectedGeneconv'
p3
(dp4
(S'N0'
p5
S'N1'
p6
tp7
F0.31662466881098494
s(S'N5'
p8
S'cerevisiae'
p9
tp10
F16.781015387152273
s(S'N2'
p11
S'N3'
p12
tp13
F6.281315418382142
s(S'N4'
p14
g8
tp15
F6.636420839830911
s(g12
S'kudriavzevii'
p16
tp17
F17.155973208226392
s(g11
S'bayanus'
p18
tp19
F13.98267911550333
s(g6
g11
tp20
F13.942666892866042
s(g6
S'castellii'
p21
tp22
F42.758471906358515
s(g8
S'paradoxus'
p23
tp24
F8.832697720311838
s(g5
S'kluyveri'
p25
tp26
F0.0
s(g12
g14
tp27
F6.88752989246815
s(g14
S'mikatae'
p28
tp29
F24.542154524799635
ssS'newicktree'
p30
S'/Users/xji3/Genconv/PairsAlignemt/YeastTree.newick'
p31
sS'll'
p32
cnumpy.core.multiarray
scalar
p33
(cnumpy
dtype
p34
(S'f8'
p35
I0
I1
tp36
Rp37
(I3
S'<'
p38
NNNI-1
I-1
I0
tp39
bS"a'\xceVQ\xfb\xad\xc0"
p40
tp41
Rp42
sS'clock'
p43
I00
sS'edge_to_blen'
p44
(dp45
g20
g33
(g37
S'\xa5\xfeV\\\xa0=\xbb?'
p46
tp47
Rp48
sg10
g33
(g37
S'1\x1fj\xd9\xf62\xa6?'
p49
tp50
Rp51
sg13
g33
(g37
S'W\xf6\xd9\xf5L\xb4\x93?'
p52
tp53
Rp54
sg15
g33
(g37
S'n\xae\x17\xa7\xfe\xb9\x96?'
p55
tp56
Rp57
sg17
g33
(g37
S'\x94\xcb^1\x82R\xa8?'
p58
tp59
Rp60
sg19
g33
(g37
S'\xea^bneg\xad?'
p61
tp62
Rp63
sg7
g33
(g37
S'\xe1T\x1b\x02\xc9k\x92?'
p64
tp65
Rp66
sg22
g33
(g37
S'\xb5\xa2\x9a\x8cd\x9c\xc5?'
p67
tp68
Rp69
sg24
g33
(g37
S'7\x94\xc1\xbeQV\x93?'
p70
tp71
Rp72
sg26
g33
(g37
S'\x01\xdb\x08p\t\xd0\xcd?'
p73
tp74
Rp75
sg27
g33
(g37
S'T\xad9\x07T\xc4\x99?'
p76
tp77
Rp78
sg29
g33
(g37
S'\xe4\x7f\x0bj*\x00\xa9?'
p79
tp80
Rp81
ssS'paralog'
p82
(lp83
S'YIL057C'
p84
aS'YER067W'
p85
asS'alignment_file'
p86
S'/Users/xji3/Genconv/PairsAlignemt/YIL057C_YER067W/YIL057C_YER067W_input.fasta'
p87
sS'x_clock'
p88
(lp89
F-0.6708365186359099
aF-0.46845898426420995
aF-0.7359239647907744
aF1.3840829948221867
aF0.22004650536411005
aF-1.5431375787725001
aF0.0
aF-0.28450338932689184
aF-1.0046355852585025
aF-0.13073870164153661
aF-0.3146296234354575
aF-0.49062654273330025
asS'x'
p90
(lp91
F-0.683487617539802
aF-0.4587346002880392
aF-0.7512420559946126
aF1.3952125169111151
aF0.22004650536411005
aF-2.2404642322731334
aF-3.138273818056514
aF-3.950634953978255
aF-3.8079383156084488
aF-3.0469310376532164
aF-2.8571975966271883
aF-4.0179785389933755
aF-1.7788320184155375
aF-3.9694418881204725
aF-1.4570976648631477
aF-3.6823808048648585
aF-3.019422912909968
asS'Model'
p92
S'HKY'
p93
s.