(dp0
S'Force'
p1
(dp2
I5
F0.0
ssS'ExpectedGeneconv'
p3
(dp4
(S'N0'
p5
S'N1'
p6
tp7
F14.97239457490229
s(S'N5'
p8
S'cerevisiae'
p9
tp10
F26.922676428108204
s(S'N2'
p11
S'N3'
p12
tp13
F12.394155184453576
s(S'N4'
p14
g8
tp15
F10.785426699171481
s(g6
S'castellii'
p16
tp17
F104.14284016571341
s(g11
S'bayanus'
p18
tp19
F21.58774477380537
s(g6
g11
tp20
F55.39264418144356
s(g12
S'kudriavzevii'
p21
tp22
F28.12044456480541
s(g8
S'paradoxus'
p23
tp24
F16.167060941093286
s(g5
S'kluyveri'
p25
tp26
F0.0
s(g12
g14
tp27
F12.272923910234109
s(g14
S'mikatae'
p28
tp29
F34.03801216973501
ssS'newicktree'
p30
S'../PairsAlignemt/YeastTree.newick'
p31
sS'll'
p32
cnumpy.core.multiarray
scalar
p33
(cnumpy
dtype
p34
(S'f8'
p35
I0
I1
tp36
Rp37
(I3
S'<'
p38
NNNI-1
I-1
I0
tp39
bS'[\xb2b\x00\xd9\xa6\xba\xc0'
p40
tp41
Rp42
sS'clock'
p43
I00
sS'edge_to_blen'
p44
(dp45
g20
g33
(g37
S"}'\xe3q((\xdc?"
p46
tp47
Rp48
sg10
g33
(g37
S'cS\xf1\xd0\x9a~\xc0?'
p49
tp50
Rp51
sg13
g33
(g37
S'7\xcc\x08\xeb\x10(\xb4?'
p52
tp53
Rp54
sg15
g33
(g37
S'5\xcf,\\x\xb9\xb2?'
p55
tp56
Rp57
sg17
g33
(g37
S'\x7f\xb0\xaf\x8cc\x1f\xe8?'
p58
tp59
Rp60
sg19
g33
(g37
S'%\xcf?\xf7J\x8b\xc4?'
p61
tp62
Rp63
sg7
g33
(g37
S'\x08\xa1\x81\x837m\xcd?'
p64
tp65
Rp66
sg22
g33
(g37
S'\x91\x0f\xf2\xd1P]\xc7?'
p67
tp68
Rp69
sg24
g33
(g37
S'}\xe4\xb0\x19\xa8\x96\xb8?'
p70
tp71
Rp72
sg26
g33
(g37
S'!\xb50\x0fs~\xd9?'
p73
tp74
Rp75
sg27
g33
(g37
S'\xf1\xdc\xc5\x15!7\xb0?'
p76
tp77
Rp78
sg29
g33
(g37
S'@\xf3\x7f\x92\x8ec\xc9?'
p79
tp80
Rp81
ssS'paralog'
p82
(lp83
S'YGR043C'
p84
aS'YLR354C'
p85
asS'alignment_file'
p86
S'../PairsAlignemt/YGR043C_YLR354C/YGR043C_YLR354C_input.fasta'
p87
sS'x_clock'
p88
(lp89
F-0.625081522862186
aF-0.5445779105708821
aF-0.8273909761496979
aF0.1823215567939546
aF-0.10536051565782628
aF0.3364722366212129
aF-0.10536051565782628
aF-0.10536051565782628
aF-0.10536051565782628
aF-0.10536051565782628
aF-0.10536051565782628
aF-0.10536051565782628
aF-0.10536051565782628
asS'x'
p90
(lp91
F-0.7303189698806758
aF-0.5218514415063416
aF-0.8533870529011703
aF1.0808378205441092
aF-2.187431624949411
aF1.19617746
aF-0.8210918103974508
aF-2.049000252277801
aF-2.5416502231353344
aF-2.615345002292383
aF-0.28258621360357244
aF-1.8294558536781378
aF-1.4701302742656774
aF-1.7008118683445834
aF-2.34289848852534
aF-0.9204421823043037
aF-2.759219207091031
aF-1.6177184205450494
asS'Model'
p92
S'MG94'
p93
s.