(dp0
S'Force'
p1
(dp2
I5
F0.0
ssS'ExpectedGeneconv'
p3
(dp4
(S'N0'
p5
S'N1'
p6
tp7
F0.1363534754037963
s(S'N5'
p8
S'cerevisiae'
p9
tp10
F4.536102080578963
s(S'N2'
p11
S'N3'
p12
tp13
F0.5982498540056841
s(S'N4'
p14
g8
tp15
F0.3165834201722723
s(g12
S'kudriavzevii'
p16
tp17
F1.6440974496725442
s(g11
S'bayanus'
p18
tp19
F5.312633519065667
s(g6
g11
tp20
F10.139123706086174
s(g6
S'castellii'
p21
tp22
F19.391776275785084
s(g8
S'paradoxus'
p23
tp24
F1.5248919263481315
s(g14
S'mikatae'
p25
tp26
F3.192778994149482
s(g12
g14
tp27
F1.7060723407531602
s(g5
S'kluyveri'
p28
tp29
F0.0
ssS'newicktree'
p30
S'../PairsAlignemt/YeastTree.newick'
p31
sS'll'
p32
cnumpy.core.multiarray
scalar
p33
(cnumpy
dtype
p34
(S'f8'
p35
I0
I1
tp36
Rp37
(I3
S'<'
p38
NNNI-1
I-1
I0
tp39
bS'\xb0\xd3\xc1\xc3\x01\xb0\x95\xc0'
p40
tp41
Rp42
sS'clock'
p43
I01
sS'edge_to_blen'
p44
(dp45
g20
g33
(g37
S'`\x8c\x81\x05\xbd\xfb\xae?'
p46
tp47
Rp48
sg10
g33
(g37
S'7\xed\xfb\x05\x14M\x9d?'
p49
tp50
Rp51
sg13
g33
(g37
S'\x06LO\xf6\xc9\x0b\x8b?'
p52
tp53
Rp54
sg15
g33
(g37
S'\xd5\xc9\xc4\xadr\x8d\x82?'
p55
tp56
Rp57
sg17
g33
(g37
S'^r\x0eA\xbb\x10\xa8?'
p58
tp59
Rp60
sg19
g33
(g37
S'`E\xa2\xbe\xad\xd3\xae?'
p61
tp62
Rp63
sg7
g33
(g37
S'\x1ax\x86\xbb\x04\xd7\x8e?'
p64
tp65
Rp66
sg22
g33
(g37
S'\xe0\xe8\x11b\xb5\xe7\xbe?'
p67
tp68
Rp69
sg24
g33
(g37
S'7\xed\xfb\x05\x14M\x9d?'
p70
tp71
Rp72
sg26
g33
(g37
S'\x13)o\xae\xe6I\xa3?'
p73
tp74
Rp75
sg27
g33
(g37
S'4%}JR\x1b\x83?'
p76
tp77
Rp78
sg29
g33
(g37
S'\xb1\x0e\x1b\xb1]F\xc6?'
p79
tp80
Rp81
ssS'paralog'
p82
(lp83
S'YLR333C'
p84
aS'YGR027C'
p85
asS'alignment_file'
p86
S'../PairsAlignemt/YLR333C_YGR027C/YLR333C_YGR027C_input.fasta'
p87
sS'x_clock'
p88
(lp89
F-0.7098976015507241
aF-0.5146296963304512
aF-0.910062217777885
aF1.868949026083577
aF-2.2943479557214896
aF1.23836258
aF-1.8649624791336594
aF-0.13174476128313198
aF-0.11754861519050833
aF-0.695682060967054
aF-0.24761335972760737
aF-0.22125515203524404
aF-0.2750407703755404
asS'x'
p90
(lp91
F-0.7098976015507241
aF-0.5146296963304512
aF-0.910062217777885
aF1.868949026083577
aF-2.2943479557214896
aF1.23836258
aF-2.8048745651352385
aF-3.553847198712746
aF-4.327078000850525
aF-4.704012758469382
aF-3.0575512763019614
aF-2.809937916574354
aF-4.1958091624182625
aF-2.1142558556072997
aF-3.553847198712746
aF-3.278806428337205
aF-4.674578649685197
aF-1.7485712558463176
asS'Model'
p92
S'MG94'
p93
s.