(dp0
S'Force'
p1
(dp2
I4
F0.0
ssS'ExpectedGeneconv'
p3
(dp4
(S'N1'
p5
S'N2'
p6
tp7
F48.082463578724855
s(S'N5'
p8
S'cerevisiae'
p9
tp10
F129.6791215223576
s(g6
S'N3'
p11
tp12
F36.54286248604444
s(S'N4'
p13
g8
tp14
F63.16369060783429
s(g5
S'castellii'
p15
tp16
F203.14006730784615
s(g6
S'bayanus'
p17
tp18
F126.52161462975253
s(S'N0'
p19
g5
tp20
F0.06301559913702241
s(g11
S'kudriavzevii'
p21
tp22
F114.31363368670287
s(g8
S'paradoxus'
p23
tp24
F69.4286613319801
s(g13
S'mikatae'
p25
tp26
F138.85835753327765
s(g11
g13
tp27
F67.27134380703119
s(g19
S'kluyveri'
p28
tp29
F0.0
ssS'newicktree'
p30
S'/Users/xji3/Genconv/PairsAlignemt/YeastTree.newick'
p31
sS'll'
p32
cnumpy.core.multiarray
scalar
p33
(cnumpy
dtype
p34
(S'f8'
p35
I0
I1
tp36
Rp37
(I3
S'<'
p38
NNNI-1
I-1
I0
tp39
bS'}\xd3\xf3%\xd7z\xd6\xc0'
p40
tp41
Rp42
sS'clock'
p43
I00
sS'edge_to_blen'
p44
(dp45
g20
g33
(g37
S'G\x92IG\x03\xc9b?'
p46
tp47
Rp48
sg10
g33
(g37
S'\xc0\x11\rB\x82|\x9b?'
p49
tp50
Rp51
sg12
g33
(g37
S'\xa8\xfbH\xff\xf2q\x8d?'
p52
tp53
Rp54
sg14
g33
(g37
S'\xefk\xfc\xbc\x88\n\x90?'
p55
tp56
Rp57
sg16
g33
(g37
S'5\xcc\xd2\xb5\xc1\x0e\xb7?'
p58
tp59
Rp60
sg18
g33
(g37
S'\x14yzq\xec\xb2\xa4?'
p61
tp62
Rp63
sg7
g33
(g37
S'/\xbe\x93\xa2\x1dk\x9f?'
p64
tp65
Rp66
sg22
g33
(g37
S'\x94\xa5f\xe8 \x9f\xa3?'
p67
tp68
Rp69
sg24
g33
(g37
S'\xf0\x91\xb4\xa4\xbd_\x96?'
p70
tp71
Rp72
sg26
g33
(g37
S'9sX\xd6\x00\x9a\xa3?'
p73
tp74
Rp75
sg27
g33
(g37
S'zgy\xab&\xa9\x92?'
p76
tp77
Rp78
sg29
g33
(g37
S'\x8a\xd6\x02\xbfmr\xbd?'
p79
tp80
Rp81
ssS'paralog'
p82
(lp83
S'YGL062W'
p84
aS'YBR218C'
p85
asS'alignment_file'
p86
S'/Users/xji3/Genconv/PairsAlignemt/YGL062W_YBR218C/YGL062W_YBR218C_input.fasta'
p87
sS'x_clock'
p88
(lp89
F-0.7565038197569574
aF-0.6027846534783665
aF-0.7850580114174681
aF1.606477278685953
aF1.9484919469101494
aF-2.264971928284194
aF0.0
aF-0.43078589997972666
aF-0.5511877951406441
aF-0.13477573533214737
aF-0.29150822538103555
aF-0.463774250392388
asS'x'
p90
(lp91
F-0.7861291560148427
aF-0.5818275796942602
aF-0.8077549846325618
aF1.6478612693309236
aF1.9484919469101494
aF-6.077843687455161
aF-3.617781830128069
aF-4.242090994982454
aF-4.156314574818899
aF-2.4071801341757557
aF-3.208243083710126
aF-3.484077430392785
aF-3.2616938345859734
aF-3.823572794827289
aF-3.262714690808759
aF-4.005049616090145
aF-2.1625858454506846
asS'Model'
p92
S'HKY'
p93
s.