(dp0
S'Force'
p1
(dp2
I4
F0.0
ssS'ExpectedGeneconv'
p3
(dp4
(S'N1'
p5
S'N2'
p6
tp7
F9.117287606119802
s(S'N5'
p8
S'cerevisiae'
p9
tp10
F5.854852628247915
s(g6
S'N3'
p11
tp12
F3.87894459597489
s(S'N4'
p13
g8
tp14
F2.2691659132631927
s(g5
S'castellii'
p15
tp16
F17.311385913703734
s(g6
S'bayanus'
p17
tp18
F13.170751109292626
s(S'N0'
p19
g5
tp20
F0.1798540033559557
s(g11
S'kudriavzevii'
p21
tp22
F8.415407975809066
s(g8
S'paradoxus'
p23
tp24
F0.44469697720252055
s(g13
S'mikatae'
p25
tp26
F4.737174772287119
s(g11
g13
tp27
F1.2340516011231366
s(g19
S'kluyveri'
p28
tp29
F0.0
ssS'newicktree'
p30
S'/Users/xji3/Genconv/PairsAlignemt/YeastTree.newick'
p31
sS'll'
p32
cnumpy.core.multiarray
scalar
p33
(cnumpy
dtype
p34
(S'f8'
p35
I0
I1
tp36
Rp37
(I3
S'<'
p38
NNNI-1
I-1
I0
tp39
bS'\xdc[.\xa2\x00\x08\xa4\xc0'
p40
tp41
Rp42
sS'clock'
p43
I00
sS'edge_to_blen'
p44
(dp45
g20
g33
(g37
S'\xd1\xdd\xc22\xda\xb2|?'
p46
tp47
Rp48
sg10
g33
(g37
S']\x1fz\xd0\x16a\x80?'
p49
tp50
Rp51
sg12
g33
(g37
S'AK\xe3\xfbjss?'
p52
tp53
Rp54
sg14
g33
(g37
S'k\xcaj\x13\xff\xf9p?'
p55
tp56
Rp57
sg16
g33
(g37
S'\xeeWP\xe2\xfc{\xa0?'
p58
tp59
Rp60
sg18
g33
(g37
S'\xf6\x99\xad\xaf}\x8d\x90?'
p61
tp62
Rp63
sg7
g33
(g37
S'\x1d+\xb6\x15\xee\xb4\x9a?'
p64
tp65
Rp66
sg22
g33
(g37
S'i\x14)\xb1\xd1\x82\x8e?'
p67
tp68
Rp69
sg24
g33
(g37
S'\xe4\xb1\xa4oQeb?'
p70
tp71
Rp72
sg26
g33
(g37
S'on\x95Cc|\x89?'
p73
tp74
Rp75
sg27
g33
(g37
S'b"p\xdc\xc3|U?'
p76
tp77
Rp78
sg29
g33
(g37
S'\x0e\xe7\xd7\x08\x94/\xa1?'
p79
tp80
Rp81
ssS'paralog'
p82
(lp83
S'YNL069C'
p84
aS'YIL133C'
p85
asS'alignment_file'
p86
S'/Users/xji3/Genconv/PairsAlignemt/YNL069C_YIL133C/YNL069C_YIL133C_input.fasta'
p87
sS'x_clock'
p88
(lp89
F-0.754086106835435
aF-0.5583937415722291
aF-0.8324903769656259
aF1.9918965705026213
aF2.2157616745987663
aF-3.1865813345990484
aF0.0
aF-0.4101427303540932
aF-0.9540992723357467
aF-0.2472889996515484
aF-0.1588998299230236
aF-0.7148663779589275
asS'x'
p90
(lp91
F-0.7746592063621074
aF-0.541015874877923
aF-0.8532456234885567
aF1.9244763148152095
aF2.2157616745987663
aF-4.960916364180713
aF-4.8286034295545
aF-5.349875334356561
aF-5.485933281024336
aF-3.435914546788155
aF-4.1249226312809535
aF-3.6465551678775956
aF-4.206531313726704
aF-6.098792390220346
aF-4.3864940342687975
aF-6.636595504887594
aF-3.394238104220463
asS'Model'
p92
S'HKY'
p93
s.