(dp0
S'Force'
p1
(dp2
I4
F0.0
ssS'ExpectedGeneconv'
p3
(dp4
(S'N0'
p5
S'N1'
p6
tp7
F0.4011933817351524
s(S'N5'
p8
S'cerevisiae'
p9
tp10
F31.356678970758555
s(S'N2'
p11
S'N3'
p12
tp13
F15.136733885813669
s(S'N4'
p14
g8
tp15
F15.947763898386823
s(g6
S'castellii'
p16
tp17
F37.69743620839695
s(g11
S'bayanus'
p18
tp19
F31.859501952573552
s(g6
g11
tp20
F23.84953089924904
s(g12
S'kudriavzevii'
p21
tp22
F34.181081587434036
s(g8
S'paradoxus'
p23
tp24
F22.518453688778248
s(g5
S'kluyveri'
p25
tp26
F0.0
s(g12
g14
tp27
F22.894516803588044
s(g14
S'mikatae'
p28
tp29
F39.882593750062654
ssS'newicktree'
p30
S'/Users/xji3/Genconv/PairsAlignemt/YeastTree.newick'
p31
sS'll'
p32
cnumpy.core.multiarray
scalar
p33
(cnumpy
dtype
p34
(S'f8'
p35
I0
I1
tp36
Rp37
(I3
S'<'
p38
NNNI-1
I-1
I0
tp39
bS'\x08\xe7g\xc2\x1b\x8c\xba\xc0'
p40
tp41
Rp42
sS'clock'
p43
I00
sS'edge_to_blen'
p44
(dp45
g20
g33
(g37
S'\x9diK\xbe\x80\x81\xb0?'
p46
tp47
Rp48
sg10
g33
(g37
S'\xe9\xa3\x99A\xb66\x98?'
p49
tp50
Rp51
sg13
g33
(g37
S'Qp \x05\xe3W\x94?'
p52
tp53
Rp54
sg15
g33
(g37
S'\xbf\xfd\xf5\xb2\x162\x93?'
p55
tp56
Rp57
sg17
g33
(g37
S'\xd0\x97\xc7\x92yb\xb3?'
p58
tp59
Rp60
sg19
g33
(g37
S'\x18\xd9\x97:%7\xa6?'
p61
tp62
Rp63
sg7
g33
(g37
S'6\x92q\x84$6\x87?'
p64
tp65
Rp66
sg22
g33
(g37
S'\x03Q\xfc\x84B\x18\xa5?'
p67
tp68
Rp69
sg24
g33
(g37
S'\x93]\xe2\xf4\x839\x97?'
p70
tp71
Rp72
sg26
g33
(g37
S'<\xd2[C\xc3\x07\xb5?'
p73
tp74
Rp75
sg27
g33
(g37
S'/\x10$\x06\xd8\xa9\x96?'
p76
tp77
Rp78
sg29
g33
(g37
S'\x8fP\xc9\xd5SX\xa4?'
p79
tp80
Rp81
ssS'paralog'
p82
(lp83
S'YHR106W'
p84
aS'YDR353W'
p85
asS'alignment_file'
p86
S'/Users/xji3/Genconv/PairsAlignemt/YHR106W_YDR353W/YHR106W_YDR353W_input.fasta'
p87
sS'x_clock'
p88
(lp89
F-0.7197150811127141
aF-0.5981201611311027
aF-0.7598055543377462
aF1.6306298734946192
aF1.0434405157129165
aF-2.1975417160155235
aF0.0
aF-0.2678739685977559
aF-0.6581713544351299
aF-0.17603969078023232
aF-0.34862460562594766
aF-0.5440468515568405
asS'x'
p90
(lp91
F-0.730867428185826
aF-0.5956761111020534
aF-0.7698483828269579
aF1.6108653793096919
aF1.0434405157129165
aF-2.7414613257981917
aF-3.744552452487471
aF-3.9187198027983072
aF-3.9767876531585107
aF-2.58069502273116
aF-3.1375383510057873
aF-4.479971368521264
aF-3.1892997192911583
aF-3.7862567406947165
aF-2.4992120849944732
aF-3.810718199978704
aF-3.225488007255908
asS'Model'
p92
S'HKY'
p93
s.