(dp0
S'Force'
p1
(dp2
I5
F0.0
ssS'ExpectedGeneconv'
p3
(dp4
(S'N0'
p5
S'N1'
p6
tp7
F5.96988955680705
s(S'N5'
p8
S'cerevisiae'
p9
tp10
F10.205530669734026
s(S'N2'
p11
S'N3'
p12
tp13
F4.621011667448775
s(S'N4'
p14
g8
tp15
F5.045631908657992
s(g6
S'castellii'
p16
tp17
F63.889449079472854
s(g11
S'bayanus'
p18
tp19
F23.853311990114864
s(g6
g11
tp20
F23.07754809420379
s(g12
S'kudriavzevii'
p21
tp22
F18.29205284696004
s(g8
S'paradoxus'
p23
tp24
F11.042934670147643
s(g5
S'kluyveri'
p25
tp26
F0.0
s(g12
g14
tp27
F4.401626897879766
s(g14
S'mikatae'
p28
tp29
F18.05065980006251
ssS'newicktree'
p30
S'../PairsAlignemt/YeastTree.newick'
p31
sS'll'
p32
cnumpy.core.multiarray
scalar
p33
(cnumpy
dtype
p34
(S'f8'
p35
I0
I1
tp36
Rp37
(I3
S'<'
p38
NNNI-1
I-1
I0
tp39
bS'\xe5~Q\xc4\xe9\x84\xc3\xc0'
p40
tp41
Rp42
sS'clock'
p43
I01
sS'edge_to_blen'
p44
(dp45
g20
g33
(g37
S'\xf8\xbb\x84\x0cO(\xb6?'
p46
tp47
Rp48
sg10
g33
(g37
S'P\x9c\xc7\x15)\x9a\xa8?'
p49
tp50
Rp51
sg13
g33
(g37
S'G-\x0cYN\xa5\x96?'
p52
tp53
Rp54
sg15
g33
(g37
S'\xb73\xf3\xdc|\xdc\x8c?'
p55
tp56
Rp57
sg17
g33
(g37
S')jj\xa0x\xaf\xc7?'
p58
tp59
Rp60
sg19
g33
(g37
S'Y\x18P4\xa26\xb9?'
p61
tp62
Rp63
sg7
g33
(g37
S'\x9e\xe8\xea\xa8\xb9\xba\xa8?'
p64
tp65
Rp66
sg22
g33
(g37
S'\t\r\r\x9eN\x8d\xb3?'
p67
tp68
Rp69
sg24
g33
(g37
S'P\x9c\xc7\x15)\x9a\xa8?'
p70
tp71
Rp72
sg26
g33
(g37
S'z\xb4O\xb2\xc2\xdf\xd3?'
p73
tp74
Rp75
sg27
g33
(g37
S'H\xc3V\xbcS%\x8d?'
p76
tp77
Rp78
sg29
g33
(g37
S'>i\x04MH\xd1\xaf?'
p79
tp80
Rp81
ssS'paralog'
p82
(lp83
S'YDR438W'
p84
aS'YML018C'
p85
asS'alignment_file'
p86
S'../PairsAlignemt/YDR438W_YML018C/YDR438W_YML018C_input.fasta'
p87
sS'x_clock'
p88
(lp89
F-0.7694297508583732
aF-0.5786641065079019
aF-0.9381247083256476
aF2.194328274359677
aF-2.0772394486905252
aF1.23836258
aF-1.3021842769225758
aF-0.1530655715414338
aF-0.23192013995283642
aF-0.6306313594098781
aF-0.2542994927905958
aF-0.20620703379644684
aF-0.25718131130119276
asS'x'
p90
(lp91
F-0.7694297508583732
aF-0.5786641065079019
aF-0.9381247083256476
aF2.194328274359677
aF-2.0772394486905252
aF1.23836258
aF-2.4470033820373236
aF-3.0354891857149595
aF-3.8115006362294293
aF-4.262118072761889
aF-1.6871699884168458
aF-2.317801347826724
aF-3.0303319900544587
aF-2.5721008406173196
aF-3.0354891857149595
aF-1.1694674889199417
aF-4.252307858815604
aF-2.7783078744137666
asS'Model'
p92
S'MG94'
p93
s.