(dp0
S'Force'
p1
(dp2
I4
F0.0
ssS'ExpectedGeneconv'
p3
(dp4
(S'N0'
p5
S'N1'
p6
tp7
F4.367966436939836
s(S'N5'
p8
S'cerevisiae'
p9
tp10
F37.15949810269498
s(S'N2'
p11
S'N3'
p12
tp13
F12.43248089459368
s(S'N4'
p14
g8
tp15
F16.02141748273376
s(g12
S'kudriavzevii'
p16
tp17
F34.93743559403633
s(g11
S'bayanus'
p18
tp19
F23.23299683059146
s(g6
g11
tp20
F26.826332953437753
s(g6
S'castellii'
p21
tp22
F69.95298514617107
s(g8
S'paradoxus'
p23
tp24
F24.133196069772687
s(g5
S'kluyveri'
p25
tp26
F0.0
s(g12
g14
tp27
F17.265290256292186
s(g14
S'mikatae'
p28
tp29
F54.17438803210954
ssS'newicktree'
p30
S'/Users/xji3/Genconv/PairsAlignemt/YeastTree.newick'
p31
sS'll'
p32
cnumpy.core.multiarray
scalar
p33
(cnumpy
dtype
p34
(S'f8'
p35
I0
I1
tp36
Rp37
(I3
S'<'
p38
NNNI-1
I-1
I0
tp39
bS'H0\x82\xb8}r\xbd\xc0'
p40
tp41
Rp42
sS'clock'
p43
I00
sS'edge_to_blen'
p44
(dp45
g20
g33
(g37
S'+)\x10\xfb5\x83\xb4?'
p46
tp47
Rp48
sg10
g33
(g37
S'\x10\xf6\x9c\xeb\x18\x86\x9f?'
p49
tp50
Rp51
sg13
g33
(g37
S'\x80\xd2E\xa6@m\x94?'
p52
tp53
Rp54
sg15
g33
(g37
S'Rq/\x17\x8aJ\x91?'
p55
tp56
Rp57
sg17
g33
(g37
S'\xa9\xdc\x02\x8e5\xfe\xa5?'
p58
tp59
Rp60
sg19
g33
(g37
S'\x88\x1b\xb9\x02\x0c\xd5\xa2?'
p61
tp62
Rp63
sg7
g33
(g37
S'\xdc{\x05\xe4=\xc1\xa5?'
p64
tp65
Rp66
sg22
g33
(g37
S'\xcc/\x0c\x07oO\xc1?'
p67
tp68
Rp69
sg24
g33
(g37
S'\x0b\xa2w&&a\x98?'
p70
tp71
Rp72
sg26
g33
(g37
S'r-+\xa7\x04\xd8\xb4?'
p73
tp74
Rp75
sg27
g33
(g37
S'\xf79*\xc7W\xa9\x90?'
p76
tp77
Rp78
sg29
g33
(g37
S'\xee\x9b\x19\xf6.\xdf\xa7?'
p79
tp80
Rp81
ssS'paralog'
p82
(lp83
S'YGR043C'
p84
aS'YLR354C'
p85
asS'alignment_file'
p86
S'/Users/xji3/Genconv/PairsAlignemt/YGR043C_YLR354C/YGR043C_YLR354C_input.fasta'
p87
sS'x_clock'
p88
(lp89
F-0.7236522434271444
aF-0.5160869799776538
aF-0.8080644444781252
aF1.5021251967678448
aF-0.1601175695578638
aF-1.821726531542385
aF0.0
aF-0.31185650934811787
aF-0.8609413702108631
aF-0.13660352353731062
aF-0.23264897606990972
aF-0.45077564382142254
asS'x'
p90
(lp91
F-0.7314845180487854
aF-0.504554844462371
aF-0.837085083920508
aF1.5168001963961693
aF-0.1601175695578638
aF-2.524140919553664
aF-3.480728426289131
aF-3.914625621566404
aF-4.081275862452184
aF-3.1476001913192486
aF-3.3027556834555845
aF-3.1584878750238023
aF-2.0007292631161433
aF-3.7377296671309574
aF-2.5081198951117165
aF-4.118371398832322
aF-3.0656263466344225
asS'Model'
p92
S'HKY'
p93
s.