(dp0
S'Force'
p1
NsS'ExpectedGeneconv'
p2
(dp3
(S'N0'
p4
S'N1'
p5
tp6
F2.9824915709168396
s(S'N5'
p7
S'cerevisiae'
p8
tp9
F22.236323185671388
s(S'N2'
p10
S'N3'
p11
tp12
F7.93925140465469
s(S'N4'
p13
g7
tp14
F11.131958014798306
s(g5
S'castellii'
p15
tp16
F101.43891113066682
s(g10
S'bayanus'
p17
tp18
F39.97083331652287
s(g5
g10
tp19
F50.46517991998813
s(g11
S'kudriavzevii'
p20
tp21
F35.044279106072075
s(g7
S'paradoxus'
p22
tp23
F17.394092264989467
s(g13
S'mikatae'
p24
tp25
F44.931600720173904
s(g11
g13
tp26
F7.435290700356013
s(g4
S'kluyveri'
p27
tp28
F0.0
ssS'newicktree'
p29
S'../PairsAlignemt/YeastTree.newick'
p30
sS'll'
p31
cnumpy.core.multiarray
scalar
p32
(cnumpy
dtype
p33
(S'f8'
p34
I0
I1
tp35
Rp36
(I3
S'<'
p37
NNNI-1
I-1
I0
tp38
bS'\x1e\xf4\x1f-F\x95\xad\xc0'
p39
tp40
Rp41
sS'clock'
p42
I01
sS'edge_to_blen'
p43
(dp44
g19
g32
(g36
S'$\xc6:k"\x1e\xcd?'
p45
tp46
Rp47
sg9
g32
(g36
S'a\xd5\xa0\xad\xe3M\xb0?'
p48
tp49
Rp50
sg12
g32
(g36
S'\xd70\x13I\xa0\x84\x99?'
p51
tp52
Rp53
sg14
g32
(g36
S'X\xe5\xa6m\x07\x0b\xa0?'
p54
tp55
Rp56
sg16
g32
(g36
S'%\r\xd5\xa3yE\xd7?'
p57
tp58
Rp59
sg18
g32
(g36
S'(To\xdc\xd0l\xc1?'
p60
tp61
Rp62
sg6
g32
(g36
S's^@\xe7]\x89\xaa?'
p63
tp64
Rp65
sg21
g32
(g36
S'\x1a\xdc\x99\xa6yx\xbc?'
p66
tp67
Rp68
sg23
g32
(g36
S'a\xd5\xa0\xad\xe3M\xb0?'
p69
tp70
Rp71
sg25
g32
(g36
S'\rHtdgS\xb8?'
p72
tp73
Rp74
sg26
g32
(g36
S':P\x96\x08I\x94\x90?'
p75
tp76
Rp77
sg28
g32
(g36
S'\xf4\x18\xbd`\xa5\x96\xda?'
p78
tp79
Rp80
ssS'paralog'
p81
(lp82
S'YDR099W'
p83
aS'YER177W'
p84
asS'alignment_file'
p85
S'../PairsAlignemt/YDR099W_YER177W/YDR099W_YER177W_input.fasta'
p86
sS'x_clock'
p87
(lp88
F-0.760608292219393
aF-0.46281174174515055
aF-0.8626825511801581
aF1.570651388984017
aF-3.2458162335876737
aF-0.4373907675706241
aF-0.8784057599502714
aF0.0
aF-0.13325272910831656
aF-0.9824622620045472
aF-0.20218449823058193
aF-0.15733482796577
aF-0.4001112294192822
asS'x'
p89
(lp90
F-0.760608292219393
aF-0.46281174174515055
aF-0.8626825511801581
aF1.570651388984017
aF-3.2458162335876737
aF-0.4373907675706241
aF-1.4806835914024883
aF-2.7537513066787693
aF-3.6920849470863755
aF-3.463046890355969
aF-1.011658489058588
aF-1.9941207510631354
aF-2.9598001235717284
aF-2.1963052492937174
aF-2.7537513066787693
aF-2.353640077259487
aF-4.123320531284957
aF-0.8784057599502714
asS'Model'
p91
S'MG94'
p92
s.