(dp0
S'Force'
p1
(dp2
I4
F0.0
ssS'ExpectedGeneconv'
p3
(dp4
(S'N0'
p5
S'N1'
p6
tp7
F1.5690834636157056
s(S'N5'
p8
S'cerevisiae'
p9
tp10
F49.8290383250372
s(S'N2'
p11
S'N3'
p12
tp13
F22.0984733919824
s(S'N4'
p14
g8
tp15
F16.43724486773334
s(g12
S'kudriavzevii'
p16
tp17
F56.465126021859724
s(g11
S'bayanus'
p18
tp19
F44.496515514531765
s(g6
g11
tp20
F56.763512599780164
s(g6
S'castellii'
p21
tp22
F78.44781538615138
s(g8
S'paradoxus'
p23
tp24
F21.043931315010173
s(g5
S'kluyveri'
p25
tp26
F0.0
s(g12
g14
tp27
F16.966191877540183
s(g14
S'mikatae'
p28
tp29
F63.85991188254001
ssS'newicktree'
p30
S'/Users/xji3/Genconv/PairsAlignemt/YeastTree.newick'
p31
sS'll'
p32
cnumpy.core.multiarray
scalar
p33
(cnumpy
dtype
p34
(S'f8'
p35
I0
I1
tp36
Rp37
(I3
S'<'
p38
NNNI-1
I-1
I0
tp39
bS'\xcc\x18\x19\xbe06\xc3\xc0'
p40
tp41
Rp42
sS'clock'
p43
I00
sS'edge_to_blen'
p44
(dp45
g20
g33
(g37
S'J\xc0xr\x1c\xbc\xc3?'
p46
tp47
Rp48
sg10
g33
(g37
S'N\xc1\xf4\x89\n\xe4\xa9?'
p49
tp50
Rp51
sg13
g33
(g37
S'\x19\xd3\x85\xed\x92\x9b\xa0?'
p52
tp53
Rp54
sg15
g33
(g37
S'\xab\xc9\x9cCMs\x97?'
p55
tp56
Rp57
sg17
g33
(g37
S'\xd4\x12\x83\xd9J\xf8\xb2?'
p58
tp59
Rp60
sg19
g33
(g37
S'\xfe\x0fa\xda\x93\xf7\xae?'
p61
tp62
Rp63
sg7
g33
(g37
S'\xfc\xb6\x15\xe4\xe2\xb9\x9d?'
p64
tp65
Rp66
sg22
g33
(g37
S'p\xba\x82c\x0fn\xc6?'
p67
tp68
Rp69
sg24
g33
(g37
S'*\xdf\xd13Y\x84\x9e?'
p70
tp71
Rp72
sg26
g33
(g37
S'\xfa\x16\xdfvQ\xcb\xc6?'
p73
tp74
Rp75
sg27
g33
(g37
S'?W\xcf\xc1\x0e3\x95?'
p76
tp77
Rp78
sg29
g33
(g37
S'\x04\xad1\xb4\x1a\x80\xb2?'
p79
tp80
Rp81
ssS'paralog'
p82
(lp83
S'YMR243C'
p84
aS'YOR316C'
p85
asS'alignment_file'
p86
S'/Users/xji3/Genconv/PairsAlignemt/YMR243C_YOR316C/YMR243C_YOR316C_input.fasta'
p87
sS'x_clock'
p88
(lp89
F-0.7714918120792209
aF-0.5628373654789749
aF-0.8168136666700667
aF1.2660304436709522
aF-0.2858818377240206
aF-1.4445441760160265
aF0.0
aF-0.20336295682200187
aF-0.9473928812556265
aF-0.15496101494155184
aF-0.20645914556008696
aF-0.4654173604548781
asS'x'
p90
(lp91
F-0.7746466381113533
aF-0.5512951964760323
aF-0.8309389007673892
aF1.2455358791149214
aF-0.2858818377240206
aF-1.869646229584933
aF-2.984437479835804
aF-3.4284575380859845
aF-3.776584351073837
aF-2.602324347680257
aF-2.8053992806313777
aF-3.539445741148553
aF-1.7416343789185398
aF-3.5131883550119483
aF-1.7255236287329678
aF-3.87749685421745
aF-2.6273846872909328
asS'Model'
p92
S'HKY'
p93
s.