(dp0
S'Force'
p1
(dp2
I5
F0.0
ssS'ExpectedGeneconv'
p3
(dp4
(S'N0'
p5
S'N1'
p6
tp7
F6.912856502269075
s(S'N5'
p8
S'cerevisiae'
p9
tp10
F25.662499084655764
s(S'N2'
p11
S'N3'
p12
tp13
F11.173104684758448
s(S'N4'
p14
g8
tp15
F10.831249899668
s(g12
S'kudriavzevii'
p16
tp17
F35.63952904389155
s(g11
S'bayanus'
p18
tp19
F47.85045303311159
s(g6
g11
tp20
F185.20083167754996
s(g6
S'castellii'
p21
tp22
F226.97443989857092
s(g8
S'paradoxus'
p23
tp24
F16.692908417821528
s(g14
S'mikatae'
p25
tp26
F29.941465681464308
s(g12
g14
tp27
F6.822901298743417
s(g5
S'kluyveri'
p28
tp29
F0.0
ssS'newicktree'
p30
S'../PairsAlignemt/YeastTree.newick'
p31
sS'll'
p32
cnumpy.core.multiarray
scalar
p33
(cnumpy
dtype
p34
(S'f8'
p35
I0
I1
tp36
Rp37
(I3
S'<'
p38
NNNI-1
I-1
I0
tp39
bS'[\x96%<\x9fH\xb6\xc0'
p40
tp41
Rp42
sS'clock'
p43
I01
sS'edge_to_blen'
p44
(dp45
g20
g33
(g37
S'\x9e\x17\tT\x1f\\\xf3?'
p46
tp47
Rp48
sg10
g33
(g37
S'\xc0\xae:\x0fz\xc7\xbf?'
p49
tp50
Rp51
sg13
g33
(g37
S'-Z\xa1o\x04\x84\xb0?'
p52
tp53
Rp54
sg15
g33
(g37
S'p\x18\xc3g;\xa7\xb4?'
p55
tp56
Rp57
sg17
g33
(g37
S'\x17\xbd\xd6\xc5sk\xcf?'
p58
tp59
Rp60
sg19
g33
(g37
S'\x16\xb5\xd3\xfe\xba\xd6\xd3?'
p61
tp62
Rp63
sg7
g33
(g37
S'\xa1\x96\x89\xf2"\x9c\xc3?'
p64
tp65
Rp66
sg22
g33
(g37
S'\xe3\x04\xbe\x13\xceQ\xf8?'
p67
tp68
Rp69
sg24
g33
(g37
S'\xc0\xae:\x0fz\xc7\xbf?'
p70
tp71
Rp72
sg26
g33
(g37
S'\x97\xe3~\xbbZ7\xca?'
p73
tp74
Rp75
sg27
g33
(g37
S'\xf7e_)d\xd0\xa4?'
p76
tp77
Rp78
sg29
g33
(g37
S'\xb77\x0frR\xc5\xfa?'
p79
tp80
Rp81
ssS'paralog'
p82
(lp83
S'YPL232W'
p84
aS'YMR183C'
p85
asS'alignment_file'
p86
S'../PairsAlignemt/YPL232W_YMR183C/YPL232W_YMR183C_input.fasta'
p87
sS'x_clock'
p88
(lp89
F-0.6221261161216246
aF-0.5195772126673488
aF-0.8020962776806179
aF1.121879969882771
aF-2.907775039408713
aF1.23836258
aF0.5147226182039795
aF0.0
aF-0.09603075649021336
aF-1.589935791463264
aF-0.23335012585760412
aF-0.18105759171175562
aF-0.5007136133936947
asS'x'
p90
(lp91
F-0.6221261161216246
aF-0.5195772126673488
aF-0.8020962776806179
aF1.121879969882771
aF-2.907775039408713
aF1.23836258
aF0.19061276822487935
aF-2.0863652607125522
aF-2.7408664435046117
aF-2.5173047426269255
aF-1.4045940556071017
aF-1.1712439297494976
aF-1.87599530219314
aF0.4186918617137661
aF-2.0863652607125522
aF-1.5856516473188575
aF-3.202697426005399
aF0.5147226182039795
asS'Model'
p92
S'MG94'
p93
s.