(dp0
S'Force'
p1
(dp2
I5
F0.0
ssS'ExpectedGeneconv'
p3
(dp4
(S'N0'
p5
S'N1'
p6
tp7
F1.640302548644694
s(S'N5'
p8
S'cerevisiae'
p9
tp10
F25.600880478970502
s(S'N2'
p11
S'N3'
p12
tp13
F5.642173865698698
s(S'N4'
p14
g8
tp15
F17.23861650606155
s(g6
S'castellii'
p16
tp17
F92.03931853735482
s(g11
S'bayanus'
p18
tp19
F46.67603059502478
s(g6
g11
tp20
F25.8497851062779
s(g12
S'kudriavzevii'
p21
tp22
F49.32164042622445
s(g8
S'paradoxus'
p23
tp24
F21.268786776045644
s(g5
S'kluyveri'
p25
tp26
F0.0
s(g12
g14
tp27
F13.434834021633703
s(g14
S'mikatae'
p28
tp29
F42.86738432344846
ssS'newicktree'
p30
S'../PairsAlignemt/YeastTree.newick'
p31
sS'll'
p32
cnumpy.core.multiarray
scalar
p33
(cnumpy
dtype
p34
(S'f8'
p35
I0
I1
tp36
Rp37
(I3
S'<'
p38
NNNI-1
I-1
I0
tp39
bS'\xfas\xe3\xba\x98\xfa\xb6\xc0'
p40
tp41
Rp42
sS'clock'
p43
I01
sS'edge_to_blen'
p44
(dp45
g20
g33
(g37
S'\xc5\xad;K{\xc6\xc5?'
p46
tp47
Rp48
sg10
g33
(g37
S'\x0e\x13o\xcef\xe4\xb3?'
p49
tp50
Rp51
sg13
g33
(g37
S'm\xf4\xb19\xc8\xa6\x99?'
p52
tp53
Rp54
sg15
g33
(g37
S't\xb8\x85\x8c\xda\xa1\xae?'
p55
tp56
Rp57
sg17
g33
(g37
S'\xcdJ;\xf0\x9d\xff\xd7?'
p58
tp59
Rp60
sg19
g33
(g37
S'\xd6\xe7:\x95\xc08\xca?'
p61
tp62
Rp63
sg7
g33
(g37
S'\xa6\xe4\x8dc\x13\xc4\xa8?'
p64
tp65
Rp66
sg22
g33
(g37
S'G\xa9\x04\x8e\xe7\x03\xc7?'
p67
tp68
Rp69
sg24
g33
(g37
S'\x0e\x13o\xcef\xe4\xb3?'
p70
tp71
Rp72
sg26
g33
(g37
S'b\x07\xad\\ \x18\xdb?'
p73
tp74
Rp75
sg27
g33
(g37
S'\x8a\xc6\xae\x0e\xf6\xa4\xa5?'
p76
tp77
Rp78
sg29
g33
(g37
S'\xa4\xf7X\n\xaa\x9a\xc1?'
p79
tp80
Rp81
ssS'paralog'
p82
(lp83
S'YDR502C'
p84
aS'YLR180W'
p85
asS'alignment_file'
p86
S'../PairsAlignemt/YDR502C_YLR180W/YDR502C_YLR180W_input.fasta'
p87
sS'x_clock'
p88
(lp89
F-0.7841135641685815
aF-0.5719628707121887
aF-0.8420687536883995
aF1.334542136110971
aF-3.1614332839489094
aF1.23836258
aF-0.8595617837488203
aF0.0
aF-0.12132981708971635
aF-0.6045517862734968
aF-0.13042975042524757
aF-0.268022052745902
aF-0.570954875762968
asS'x'
p90
(lp91
F-0.7841135641685815
aF-0.5719628707121887
aF-0.8420687536883995
aF1.334542136110971
aF-3.1614332839489094
aF1.23836258
aF-1.7712530999427418
aF-2.5548500660461513
aF-3.686870040872395
aF-2.8162715419414353
aF-0.9808916008385367
aF-1.5854433871120335
aF-3.0288560761295606
aF-1.715873137537281
aF-2.5548500660461513
aF-0.8595617837488203
aF-3.1635788099633313
aF-1.9838951902831832
asS'Model'
p92
S'MG94'
p93
s.