(dp0
S'Force'
p1
(dp2
I5
F0.0
ssS'ExpectedGeneconv'
p3
(dp4
(S'N0'
p5
S'N1'
p6
tp7
F0.016723010249282348
s(S'N5'
p8
S'cerevisiae'
p9
tp10
F10.51458932568368
s(S'N2'
p11
S'N3'
p12
tp13
F6.972798054057384
s(S'N4'
p14
g8
tp15
F5.423622584816422
s(g6
S'castellii'
p16
tp17
F26.479897352436705
s(g11
S'bayanus'
p18
tp19
F6.178039150222362
s(g6
g11
tp20
F24.125153993466316
s(g12
S'kudriavzevii'
p21
tp22
F13.358083251614422
s(g8
S'paradoxus'
p23
tp24
F6.9601714698077775
s(g5
S'kluyveri'
p25
tp26
F0.0
s(g12
g14
tp27
F2.8917189540361585
s(g14
S'mikatae'
p28
tp29
F14.550655708626891
ssS'newicktree'
p30
S'../PairsAlignemt/YeastTree.newick'
p31
sS'll'
p32
cnumpy.core.multiarray
scalar
p33
(cnumpy
dtype
p34
(S'f8'
p35
I0
I1
tp36
Rp37
(I3
S'<'
p38
NNNI-1
I-1
I0
tp39
bS'\xd9\x03\x9d\xf6\x1ds\x9e\xc0'
p40
tp41
Rp42
sS'clock'
p43
I00
sS'edge_to_blen'
p44
(dp45
g20
g33
(g37
S'\xfa9+\n\x91\x91\xe4?'
p46
tp47
Rp48
sg10
g33
(g37
S'\x15\x83\xf77\x9c\xd5\xc5?'
p49
tp50
Rp51
sg13
g33
(g37
S'\xfcg\x88\xcf\xec\xd0\xc0?'
p52
tp53
Rp54
sg15
g33
(g37
S'\xbf\xac\x91\x19\xb1\n\xb5?'
p55
tp56
Rp57
sg17
g33
(g37
S'\x8fW_J:\x7f\xe4?'
p58
tp59
Rp60
sg19
g33
(g37
S'\xe4\x02\x7f\x1e\x0c\xc0\xc0?'
p61
tp62
Rp63
sg7
g33
(g37
S'|\x04\xe8\xfb\xcfo\x8b?'
p64
tp65
Rp66
sg22
g33
(g37
S'\x9d=b{;m\xd0?'
p67
tp68
Rp69
sg24
g33
(g37
S'\xf3\x01\x10\xb0\xc8&\xbf?'
p70
tp71
Rp72
sg26
g33
(g37
S'\xd2\x18d\x88\xe7\xd6\xe3?'
p73
tp74
Rp75
sg27
g33
(g37
S'dp\xc6\xfbF\xe3\xa1?'
p76
tp77
Rp78
sg29
g33
(g37
S'\x85\xf3M\x93E\x0c\xcb?'
p79
tp80
Rp81
ssS'paralog'
p82
(lp83
S'YJR048W'
p84
aS'YEL039C'
p85
asS'alignment_file'
p86
S'../PairsAlignemt/YJR048W_YEL039C/YJR048W_YEL039C_input.fasta'
p87
sS'x_clock'
p88
(lp89
F-0.5409138533559995
aF-0.5223394658283297
aF-0.7764798286921125
aF0.1823215567939546
aF-0.10536051565782628
aF0.3364722366212129
aF-0.10536051565782628
aF-0.10536051565782628
aF-0.10536051565782628
aF-0.10536051565782628
aF-0.10536051565782628
aF-0.10536051565782628
aF-0.10536051565782628
asS'x'
p90
(lp91
F-0.6583936461222639
aF-0.5419730372705616
aF-0.8634119258054104
aF0.9341677657030877
aF-2.7013483022145075
aF1.19617746
aF-0.44196931949506496
aF-1.7685428711593454
aF-2.0296927036053654
aF-2.4986681803892763
aF-0.445458188815978
aF-2.0336209655196207
aF-4.312734998764913
aF-1.3599757009690498
aF-2.106315054274846
aF-0.47806249435315856
aF-3.3542056041454384
aF-1.5544195411492248
asS'Model'
p92
S'MG94'
p93
s.