(dp0
S'Force'
p1
(dp2
I4
F0.0
ssS'ExpectedGeneconv'
p3
(dp4
(S'N0'
p5
S'N1'
p6
tp7
F1.3266508266327313
s(S'N5'
p8
S'cerevisiae'
p9
tp10
F84.86504514555061
s(S'N2'
p11
S'N3'
p12
tp13
F45.508029412680806
s(S'N4'
p14
g8
tp15
F32.87379622300104
s(g6
S'castellii'
p16
tp17
F258.79009881156753
s(g11
S'bayanus'
p18
tp19
F64.97154487424831
s(g6
g11
tp20
F169.23748011378856
s(g12
S'kudriavzevii'
p21
tp22
F87.03600818043085
s(g8
S'paradoxus'
p23
tp24
F93.80771954801165
s(g5
S'kluyveri'
p25
tp26
F0.0
s(g12
g14
tp27
F39.08620923460395
s(g14
S'mikatae'
p28
tp29
F78.20957744625454
ssS'newicktree'
p30
S'/Users/xji3/Genconv/PairsAlignemt/YeastTree.newick'
p31
sS'll'
p32
cnumpy.core.multiarray
scalar
p33
(cnumpy
dtype
p34
(S'f8'
p35
I0
I1
tp36
Rp37
(I3
S'<'
p38
NNNI-1
I-1
I0
tp39
bS'{t\xf0\xa6\xb0\x9f\xd3\xc0'
p40
tp41
Rp42
sS'clock'
p43
I00
sS'edge_to_blen'
p44
(dp45
g20
g33
(g37
S'\x84LA\x1e0#\xd3?'
p46
tp47
Rp48
sg10
g33
(g37
S'\xac\x93\xe8\xfd6\x1a\xab?'
p49
tp50
Rp51
sg13
g33
(g37
S'HH\\\x93Zo\xa7?'
p52
tp53
Rp54
sg15
g33
(g37
S'\xa0\xa4\xc9a\x95\x80\x9e?'
p55
tp56
Rp57
sg17
g33
(g37
S':"\xb9dF\x19\xd8?'
p58
tp59
Rp60
sg19
g33
(g37
S'\xa97Y\xff\x9c`\xb2?'
p61
tp62
Rp63
sg7
g33
(g37
S'\xab\xcdu&\x16\xf8\x97?'
p64
tp65
Rp66
sg22
g33
(g37
S',\xa4\xca\x1a\xfbC\xb4?'
p67
tp68
Rp69
sg24
g33
(g37
S'\x14;\xed\x84\xe8\x0f\xb6?'
p70
tp71
Rp72
sg26
g33
(g37
S"'\xd1\x94\x7f\xf4\xc4\xde?"
p73
tp74
Rp75
sg27
g33
(g37
S'\xd2\x91\xc7\x80b\x1b\x9f?'
p76
tp77
Rp78
sg29
g33
(g37
S'\xfbC\x82z\x9f\xdd\xb1?'
p79
tp80
Rp81
ssS'paralog'
p82
(lp83
S'YAL056W'
p84
aS'YOR371C'
p85
asS'alignment_file'
p86
S'/Users/xji3/Genconv/PairsAlignemt/YAL056W_YOR371C/YAL056W_YOR371C_input.fasta'
p87
sS'x_clock'
p88
(lp89
F-0.6568920603047862
aF-0.48917961437300944
aF-0.8832642203742137
aF1.0902587750011778
aF-1.6189794264791255
aF-0.8172161436776691
aF0.0
aF-0.12000371383235771
aF-1.315040080691331
aF-0.14020175127461143
aF-0.21294418398587175
aF-0.2888909933036715
asS'x'
p90
(lp91
F-0.6606041340219642
aF-0.49043923447663634
aF-0.8855369700608781
aF1.0664008046804594
aF-1.6189794264791255
aF-1.2072357795850062
aF-2.9387022808318517
aF-3.0840950252683332
aF-3.5136703907401907
aF-0.9767239260431765
aF-2.6340560355763123
aF-3.754706806030363
aF-2.536255029428412
aF-2.4513143495956364
aF-0.7323638318799413
aF-3.494039838315829
aF-2.662293948231628
asS'Model'
p92
S'HKY'
p93
s.