(dp0
S'Force'
p1
(dp2
I4
F0.0
ssS'ExpectedGeneconv'
p3
(dp4
(S'N0'
p5
S'N1'
p6
tp7
F0.0789719143432463
s(S'N5'
p8
S'cerevisiae'
p9
tp10
F22.528456054271757
s(S'N2'
p11
S'N3'
p12
tp13
F10.250242239498236
s(S'N4'
p14
g8
tp15
F9.014909289683434
s(g12
S'kudriavzevii'
p16
tp17
F21.75354235427328
s(g11
S'bayanus'
p18
tp19
F19.422123122658284
s(g6
g11
tp20
F15.379849666509715
s(g6
S'castellii'
p21
tp22
F24.58237171048327
s(g8
S'paradoxus'
p23
tp24
F16.30801179390978
s(g5
S'kluyveri'
p25
tp26
F0.0
s(g12
g14
tp27
F14.18518239378784
s(g14
S'mikatae'
p28
tp29
F43.40421985716367
ssS'newicktree'
p30
S'/Users/xji3/Genconv/PairsAlignemt/YeastTree.newick'
p31
sS'll'
p32
cnumpy.core.multiarray
scalar
p33
(cnumpy
dtype
p34
(S'f8'
p35
I0
I1
tp36
Rp37
(I3
S'<'
p38
NNNI-1
I-1
I0
tp39
bS'\x05:R\xdaQ\x92\xb1\xc0'
p40
tp41
Rp42
sS'clock'
p43
I00
sS'edge_to_blen'
p44
(dp45
g20
g33
(g37
S'\xe2\xd5\x96W\xebj\xa2?'
p46
tp47
Rp48
sg10
g33
(g37
S'\x18C\xef\x18\x16\xbe\x90?'
p49
tp50
Rp51
sg13
g33
(g37
S'\x85iU0\xf1\xad\x84?'
p52
tp53
Rp54
sg15
g33
(g37
S'vS \xb5}c\x7f?'
p55
tp56
Rp57
sg17
g33
(g37
S'\xca\x14WM\xdah\x8e?'
p58
tp59
Rp60
sg19
g33
(g37
S' \xf6j\x1em\x8d\x96?'
p61
tp62
Rp63
sg7
g33
(g37
S'\xc5\rH\xe6o\x9al?'
p64
tp65
Rp66
sg22
g33
(g37
S'\xe0^\x85h\xe1\xa1\xa4?'
p67
tp68
Rp69
sg24
g33
(g37
S'^=\x02\xdf\x14\xa0\x8b?'
p70
tp71
Rp72
sg26
g33
(g37
S'A\xf5\xdb\x94R\xc5\xad?'
p73
tp74
Rp75
sg27
g33
(g37
S'\t|\xb9\x8d\x11\xeb\x81?'
p76
tp77
Rp78
sg29
g33
(g37
S'\x82\xc7\x08\xfa\xd9\t\x98?'
p79
tp80
Rp81
ssS'paralog'
p82
(lp83
S'YDR099W'
p84
aS'YER177W'
p85
asS'alignment_file'
p86
S'/Users/xji3/Genconv/PairsAlignemt/YDR099W_YER177W/YDR099W_YER177W_input.fasta'
p87
sS'x_clock'
p88
(lp89
F-0.7806127501924371
aF-0.5063212108018161
aF-0.7567375001791639
aF2.028735106260135
aF2.024903285074456
aF-2.732553020127631
aF0.0
aF-0.4046191799976683
aF-0.7635749035447711
aF-0.16807893922318728
aF-0.20969449519246458
aF-0.368738057885127
asS'x'
p90
(lp91
F-0.8112925720528568
aF-0.5120208679086822
aF-0.7681989024611372
aF2.1056026097031304
aF2.024903285074456
aF-3.3250149890719554
aF-4.113519934730776
aF-4.595477976554844
aF-4.87132022163793
aF-4.2098612620774185
aF-3.8156282634480005
aF-5.657392302023008
aF-3.2114646007131493
aF-4.305886298129524
aF-2.844796868457036
aF-4.738799987647958
aF-3.751815829770942
asS'Model'
p92
S'HKY'
p93
s.