(dp0
S'Force'
p1
(dp2
I5
F0.0
ssS'ExpectedGeneconv'
p3
(dp4
(S'N0'
p5
S'N1'
p6
tp7
F15.131851899578423
s(S'N5'
p8
S'cerevisiae'
p9
tp10
F39.745447709795435
s(S'N2'
p11
S'N3'
p12
tp13
F15.264294236235658
s(S'N4'
p14
g8
tp15
F15.085206702953963
s(g6
S'castellii'
p16
tp17
F153.15336444859184
s(g11
S'bayanus'
p18
tp19
F58.62958829950173
s(g6
g11
tp20
F56.72507928728886
s(g12
S'kudriavzevii'
p21
tp22
F53.78708361344215
s(g8
S'paradoxus'
p23
tp24
F33.51322715908779
s(g5
S'kluyveri'
p25
tp26
F0.0
s(g12
g14
tp27
F10.0642140282171
s(g14
S'mikatae'
p28
tp29
F61.23813922749978
ssS'newicktree'
p30
S'../PairsAlignemt/YeastTree.newick'
p31
sS'll'
p32
cnumpy.core.multiarray
scalar
p33
(cnumpy
dtype
p34
(S'f8'
p35
I0
I1
tp36
Rp37
(I3
S'<'
p38
NNNI-1
I-1
I0
tp39
bS'}\xa5\xa8\xf10\x18\xe1\xc0'
p40
tp41
Rp42
sS'clock'
p43
I01
sS'edge_to_blen'
p44
(dp45
g20
g33
(g37
S'\xde\xe9`\x8f!\xaa\xb5?'
p46
tp47
Rp48
sg10
g33
(g37
S'\x03\xe5\xd8w\xc3w\xa8?'
p49
tp50
Rp51
sg13
g33
(g37
S'FQ\x95{x#\x96?'
p52
tp53
Rp54
sg15
g33
(g37
S'D[T\xae[~\x8a?'
p55
tp56
Rp57
sg17
g33
(g37
S"\x17\xdf\x82\x1c1'\xc7?"
p58
tp59
Rp60
sg19
g33
(g37
S'Q\xd4\xa4\xa9@\xa4\xb8?'
p61
tp62
Rp63
sg7
g33
(g37
S'*p\xd6\xf6\xb8.\xa8?'
p64
tp65
Rp66
sg22
g33
(g37
S'\xfe\x7f\xbf\x8ab\x1b\xb3?'
p67
tp68
Rp69
sg24
g33
(g37
S'\x03\xe5\xd8w\xc3w\xa8?'
p70
tp71
Rp72
sg26
g33
(g37
S'\x97\xd0\xb0\xc9:n\xd3?'
p73
tp74
Rp75
sg27
g33
(g37
S'\xad\x10D\xc8\xaa}\x8c?'
p76
tp77
Rp78
sg29
g33
(g37
S'\xd2\xfbmcZ\x17\xaf?'
p79
tp80
Rp81
ssS'paralog'
p82
(lp83
S'YGL133W'
p84
aS'YPL216W'
p85
asS'alignment_file'
p86
S'../PairsAlignemt/YGL133W_YPL216W/YGL133W_YPL216W_input.fasta'
p87
sS'x_clock'
p88
(lp89
F-0.6442312983195594
aF-0.5496133921617941
aF-0.9384171579394454
aF2.1789350296608236
aF-1.9933705620009379
aF1.23836258
aF-1.3247893967648063
aF-0.15311597433606766
aF-0.23199650868205346
aF-0.6308390193204506
aF-0.2543832307924309
aF-0.20627493548506196
aF-0.23956651502903467
asS'x'
p90
(lp91
F-0.6442312983195594
aF-0.5496133921617941
aF-0.9384171579394454
aF2.1789350296608236
aF-1.9933705620009379
aF1.23836258
aF-2.469499025480123
aF-3.040965580409906
aF-3.8341510488786286
aF-4.347716303566465
aF-1.7099018797829275
aF-2.3407408991033782
aF-3.052694987478604
aF-2.5951241298958094
aF-3.040965580409906
aF-1.1920347364564376
aF-4.275034698053089
aF-2.8013990653808714
asS'Model'
p92
S'MG94'
p93
s.