(dp0
S'Force'
p1
(dp2
I4
F0.0
ssS'ExpectedGeneconv'
p3
(dp4
(S'N1'
p5
S'N2'
p6
tp7
F69.72339173598142
s(S'N5'
p8
S'cerevisiae'
p9
tp10
F29.74240865676045
s(g6
S'N3'
p11
tp12
F10.304552963186975
s(S'N4'
p13
g8
tp14
F19.227041969699766
s(g5
S'castellii'
p15
tp16
F134.1180447358161
s(g6
S'bayanus'
p17
tp18
F62.24218267985233
s(S'N0'
p19
g5
tp20
F5.297925393908464
s(g11
S'kudriavzevii'
p21
tp22
F39.354198629286635
s(g8
S'paradoxus'
p23
tp24
F30.296172160975782
s(g13
S'mikatae'
p25
tp26
F45.234170889609274
s(g11
g13
tp27
F15.248195929439108
s(g19
S'kluyveri'
p28
tp29
F0.0
ssS'newicktree'
p30
S'/Users/xji3/Genconv/PairsAlignemt/YeastTree.newick'
p31
sS'll'
p32
cnumpy.core.multiarray
scalar
p33
(cnumpy
dtype
p34
(S'f8'
p35
I0
I1
tp36
Rp37
(I3
S'<'
p38
NNNI-1
I-1
I0
tp39
bS'X\xb6\xb8R\xb6\x02\xc3\xc0'
p40
tp41
Rp42
sS'clock'
p43
I01
sS'edge_to_blen'
p44
(dp45
g20
g33
(g37
S'T3#/|\r\xaf?'
p46
tp47
Rp48
sg10
g33
(g37
S'nd>\xe2N\x8d\xa2?'
p49
tp50
Rp51
sg12
g33
(g37
S'e\xf2x\xfa\xcaq\x92?'
p52
tp53
Rp54
sg14
g33
(g37
S'\xa5\x1a\xd6\x0c\x85L\x96?'
p55
tp56
Rp57
sg16
g33
(g37
S'y\x1di\xb0l\x85\xd2?'
p58
tp59
Rp60
sg18
g33
(g37
S'\xb7=BL2\xe6\xb7?'
p61
tp62
Rp63
sg7
g33
(g37
S'\x16\x1c\xb1:\xc0\x17\xc9?'
p64
tp65
Rp66
sg22
g33
(g37
S'\x1f\x01\xa4\x8d\xbfI\xb3?'
p67
tp68
Rp69
sg24
g33
(g37
S'nd>\xe2N\x8d\xa2?'
p70
tp71
Rp72
sg26
g33
(g37
S'\xc0q\xa9h\x91\xb3\xad?'
p73
tp74
Rp75
sg27
g33
(g37
S'\xfc =e\xdb\xbf\x91?'
p76
tp77
Rp78
sg29
g33
(g37
S'\xe4\x83M6\x1cg\xd6?'
p79
tp80
Rp81
ssS'paralog'
p82
(lp83
S'YDR438W'
p84
aS'YML018C'
p85
asS'alignment_file'
p86
S'/Users/xji3/Genconv/PairsAlignemt/YDR438W_YML018C/YDR438W_YML018C_input.fasta'
p87
sS'x_clock'
p88
(lp89
F-0.7622588826397779
aF-0.5545064860742447
aF-0.9402748368138099
aF1.2286798131356562
aF-1.6471709063680333
aF-1.04969828248918
aF0.0
aF-0.1902693342929218
aF-1.1313646335463552
aF-0.2143579511886179
aF-0.26143897778241604
aF-0.47061865859848817
asS'x'
p90
(lp91
F-0.7622588826397779
aF-0.5545064860742447
aF-0.9402748368138099
aF1.2286798131356562
aF-1.6471709063680333
aF-2.8026396319856905
aF-3.3177478378979792
aF-4.016705395232394
aF-3.826934223224177
aF-1.239967616782102
aF-2.3713322503284573
aF-1.6294502306778713
aF-2.585690201517075
aF-3.3177478378979792
aF-2.847129179299491
aF-4.05511775726572
aF-1.04969828248918
asS'Model'
p92
S'HKY'
p93
s.