(dp0
S'Force'
p1
NsS'ExpectedGeneconv'
p2
(dp3
(S'N1'
p4
S'N2'
p5
tp6
F7.919711290488075
s(S'N5'
p7
S'cerevisiae'
p8
tp9
F11.118934680869236
s(g5
S'N3'
p10
tp11
F2.7035664498599252
s(S'N4'
p12
g7
tp13
F1.415205972828916
s(g10
S'kudriavzevii'
p14
tp15
F7.062949367358203
s(g5
S'bayanus'
p16
tp17
F8.756746720689431
s(S'N0'
p18
g4
tp19
F1.3196464719499388
s(g4
S'castellii'
p20
tp21
F16.118125860198344
s(g7
S'paradoxus'
p22
tp23
F2.96815998180644
s(g12
S'mikatae'
p24
tp25
F8.859132380913637
s(g10
g12
tp26
F2.8467370940383834
s(g18
S'kluyveri'
p27
tp28
F0.0
ssS'newicktree'
p29
S'/Users/xji3/Genconv/PairsAlignemt/YeastTree.newick'
p30
sS'll'
p31
cnumpy.core.multiarray
scalar
p32
(cnumpy
dtype
p33
(S'f8'
p34
I0
I1
tp35
Rp36
(I3
S'<'
p37
NNNI-1
I-1
I0
tp38
bS'\x06}\x97\xe4\xa1\xf0\x94\xc0'
p39
tp40
Rp41
sS'clock'
p42
I01
sS'edge_to_blen'
p43
(dp44
g19
g32
(g36
S'\xfa\x18^\xaf\xe0\xeez?'
p45
tp46
Rp47
sg9
g32
(g36
S'\x93\x1c\xdc\xbdnHn?'
p48
tp49
Rp50
sg11
g32
(g36
S'+\x89\xfc\xef#\xf6_?'
p51
tp52
Rp53
sg13
g32
(g36
S'\xa9JH/*\xe7J?'
p54
tp55
Rp56
sg15
g32
(g36
S'\xba\x90&\x91W\x05y?'
p57
tp58
Rp59
sg17
g32
(g36
S'\x84\xd9\x92Fp\x81\x80?'
p60
tp61
Rp62
sg6
g32
(g36
S'\x88|\xa2jL\xe2\x80?'
p63
tp64
Rp65
sg21
g32
(g36
S'\x05\xab\x9aX\xde\xb1\x90?'
p66
tp67
Rp68
sg23
g32
(g36
S'\x93\x1c\xdc\xbdnHn?'
p69
tp70
Rp71
sg25
g32
(g36
S'\x9e\x17\xd7\xa4\x1c\x81r?'
p72
tp73
Rp74
sg26
g32
(g36
S't\xe4=\xb1\xeb\x10Z?'
p75
tp76
Rp77
sg28
g32
(g36
S'D1r\x84\x96m\x97?'
p78
tp79
Rp80
ssS'paralog'
p81
(lp82
S'YER131W'
p83
aS'YGL189C'
p84
asS'alignment_file'
p85
S'/Users/xji3/Genconv/PairsAlignemt/YER131W_YGL189C/YER131W_YGL189C_input.fasta'
p86
sS'x_clock'
p87
(lp88
F-0.7088796916825
aF-0.45659685636767017
aF-0.6660240280817864
aF2.3043947671175204
aF2.9682069915931892
aF-3.7775365896175095
aF0.0
aF-0.33883798324629083
aF-0.7045435181953759
aF-0.2771379023054439
aF-0.30170469469933026
aF-0.20056814872317555
asS'x'
p89
(lp90
F-0.7088796916825
aF-0.45659685636767017
aF-0.6660240280817864
aF2.3043947671175204
aF2.9682069915931892
aF-5.024409562115572
aF-5.600328836787126
aF-6.239528916722556
aF-7.104970370805707
aF-5.09805599336462
aF-4.820918091059176
aF-4.798253830219763
aF-4.1163745728638
aF-5.600328836787126
aF-5.39976068806395
aF-6.443425047205805
aF-3.7775365896175095
asS'Model'
p91
S'HKY'
p92
s.