(dp0
S'Force'
p1
NsS'ExpectedGeneconv'
p2
(dp3
(S'N1'
p4
S'N2'
p5
tp6
F24.094831852498498
s(S'N5'
p7
S'cerevisiae'
p8
tp9
F2.438914676372015
s(g5
S'N3'
p10
tp11
F5.24465132820694
s(S'N4'
p12
g7
tp13
F4.363261727811013
s(g4
S'castellii'
p14
tp15
F23.07869588515769
s(g5
S'bayanus'
p16
tp17
F7.9082919969329435
s(S'N0'
p18
g4
tp19
F27.395900721942454
s(g10
S'kudriavzevii'
p20
tp21
F15.306803989882496
s(g7
S'paradoxus'
p22
tp23
F6.613108767755735
s(g18
S'kluyveri'
p24
tp25
F0.0
s(g10
g12
tp26
F5.58281278968221
s(g12
S'mikatae'
p27
tp28
F17.931963295926177
ssS'newicktree'
p29
S'/Users/xji3/Genconv/PairsAlignemt/YeastTree.newick'
p30
sS'll'
p31
cnumpy.core.multiarray
scalar
p32
(cnumpy
dtype
p33
(S'f8'
p34
I0
I1
tp35
Rp36
(I3
S'<'
p37
NNNI-1
I-1
I0
tp38
bS'V\x81\x9b"\xd2u\x98\xc0'
p39
tp40
Rp41
sS'clock'
p42
I00
sS'edge_to_blen'
p43
(dp44
g19
g32
(g36
S'1\x92\x12V.\n\x91?'
p45
tp46
Rp47
sg9
g32
(g36
S'\x90\x83\x15\xe9\xe7^Q?'
p48
tp49
Rp50
sg11
g32
(g36
S'\xf3_y\xe7\xdf\xf0X?'
p51
tp52
Rp53
sg13
g32
(g36
S'\xa5\x9d\xd4=_\xeeW?'
p54
tp55
Rp56
sg15
g32
(g36
S'\xa1\xd0.\xf8\xe0\x94\x80?'
p57
tp58
Rp59
sg17
g32
(g36
S'\x04\xaa\xa6\xcf\xab\xcc_?'
p60
tp61
Rp62
sg6
g32
(g36
S'~\xff95,t\x81?'
p63
tp64
Rp65
sg21
g32
(g36
S'RYZ\x86\x9a}w?'
p66
tp67
Rp68
sg23
g32
(g36
S'\x8f\x1a\x96\x8c9\x1a^?'
p69
tp70
Rp71
sg25
g32
(g36
S'&\x1b`\x9aY\xcd\xc2>'
p72
tp73
Rp74
sg26
g32
(g36
S'B\x18\t\xceEWY?'
p75
tp76
Rp77
sg28
g32
(g36
S'\xe0\xa2\xc7\x1c\x1c\x14u?'
p78
tp79
Rp80
ssS'paralog'
p81
(lp82
S'YBR191W'
p83
aS'YPL079W'
p84
asS'alignment_file'
p85
S'/Users/xji3/Genconv/PairsAlignemt/YBR191W_YPL079W/YBR191W_YPL079W_input.fasta'
p86
sS'x_clock'
p87
(lp88
F-0.6523251860396901
aF-0.5320754515980355
aF-0.8123526320525246
aF0.1823215567939546
aF0.3364722366212129
aF-0.10536051565782628
aF-0.10536051565782628
aF-0.10536051565782628
aF-0.10536051565782628
aF-0.10536051565782628
aF-0.10536051565782628
aF-0.10536051565782628
asS'x'
p89
(lp90
F-0.749878284256649
aF-0.508182427484652
aF-0.807768467439584
aF2.4695293557603106
aF3.9217592074330443
aF-4.095921809253348
aF-6.849274142290542
aF-6.487550839790473
aF-6.528879955916541
aF-4.81632788660742
aF-6.244610067426951
aF-4.765061621426661
aF-5.161164160603662
aF-6.2994542752992615
aF-13.008414008523575
aF-6.471640485905191
aF-5.269510043050663
asS'Model'
p91
S'HKY'
p92
s.