(dp0
S'Force'
p1
NsS'ExpectedGeneconv'
p2
(dp3
(S'N1'
p4
S'N2'
p5
tp6
F15.525679345732664
s(S'N5'
p7
S'cerevisiae'
p8
tp9
F2.7229174071351845
s(g5
S'N3'
p10
tp11
F1.9720790561873287
s(S'N4'
p12
g7
tp13
F5.423910204274443
s(g4
S'castellii'
p14
tp15
F24.11058806835983
s(g5
S'bayanus'
p16
tp17
F12.68592705091219
s(S'N0'
p18
g4
tp19
F2.9738924079808675
s(g10
S'kudriavzevii'
p20
tp21
F14.696610447384513
s(g7
S'paradoxus'
p22
tp23
F6.036865551472536
s(g18
S'kluyveri'
p24
tp25
F0.0
s(g10
g12
tp26
F5.85054392049191
s(g12
S'mikatae'
p27
tp28
F16.31300257276962
ssS'newicktree'
p29
S'/Users/xji3/Genconv/PairsAlignemt/YeastTree.newick'
p30
sS'll'
p31
cnumpy.core.multiarray
scalar
p32
(cnumpy
dtype
p33
(S'f8'
p34
I0
I1
tp35
Rp36
(I3
S'<'
p37
NNNI-1
I-1
I0
tp38
bS'\x89[\xcf\x9f\xd1\xb4\x98\xc0'
p39
tp40
Rp41
sS'clock'
p42
I01
sS'edge_to_blen'
p43
(dp44
g19
g32
(g36
S'\xca\xca[\xf4\x11\x81t?'
p45
tp46
Rp47
sg9
g32
(g36
S'M\x8d\x96\xf2HEX?'
p48
tp49
Rp50
sg11
g32
(g36
S'\x8a\xc6\x89\x9c\x14\xac7?'
p51
tp52
Rp53
sg13
g32
(g36
S'\x9f\xdfB\xdf\x1c\xb9]?'
p54
tp55
Rp56
sg15
g32
(g36
S'\x1bu\xc5\x88\xaf\xcb\x86?'
p57
tp58
Rp59
sg17
g32
(g36
S'\xfc\xdb\x89\xd8\x9e\xc8s?'
p60
tp61
Rp62
sg6
g32
(g36
S'7\x0e\x019\xc0\xcey?'
p63
tp64
Rp65
sg21
g32
(g36
S'\x94?\xc1\x8e\xddMr?'
p66
tp67
Rp68
sg23
g32
(g36
S'M\x8d\x96\xf2HEX?'
p69
tp70
Rp71
sg25
g32
(g36
S'@\xadyA\x1c\x86\x90?'
p72
tp73
Rp74
sg26
g32
(g36
S'h\x91+i\x109S?'
p75
tp76
Rp77
sg28
g32
(g36
S'r\xb6\xec\xe82\xffj?'
p78
tp79
Rp80
ssS'paralog'
p81
(lp82
S'YBR191W'
p83
aS'YPL079W'
p84
asS'alignment_file'
p85
S'/Users/xji3/Genconv/PairsAlignemt/YBR191W_YPL079W/YBR191W_YPL079W_input.fasta'
p86
sS'x_clock'
p87
(lp88
F-0.7524030609050798
aF-0.5055946699222426
aF-0.8023370039091774
aF2.4948014554947266
aF3.9223511375823796
aF-4.12666588521746
aF0.0
aF-0.3713834959141948
aF-0.8348597438095506
aF-0.07772857875950662
aF-0.3045546890011736
aF-0.7996005668353239
asS'x'
p89
(lp90
F-0.7524030609050798
aF-0.5055946699222426
aF-0.8023370039091774
aF2.4948014554947266
aF3.9223511375823796
aF-5.29713738846876
aF-6.51479295953721
aF-7.9260539683937585
aF-6.312136114107827
aF-4.498049381131655
aF-5.332909124941206
aF-5.067096346885564
aF-5.410637703700712
aF-6.51479295953721
aF-4.12666588521746
aF-6.747957904760648
aF-5.715192392701886
asS'Model'
p91
S'HKY'
p92
s.