(dp0
S'Force'
p1
NsS'ExpectedGeneconv'
p2
(dp3
(S'N0'
p4
S'N1'
p5
tp6
F6.767926649533212
s(S'N5'
p7
S'cerevisiae'
p8
tp9
F49.983413404807884
s(S'N2'
p10
S'N3'
p11
tp12
F9.558548547979882
s(S'N4'
p13
g7
tp14
F20.594950425403013
s(g11
S'kudriavzevii'
p15
tp16
F69.44328239628791
s(g10
S'bayanus'
p17
tp18
F84.57953342444978
s(g5
g10
tp19
F70.51489865993861
s(g5
S'castellii'
p20
tp21
F157.05098440849164
s(g7
S'paradoxus'
p22
tp23
F29.102556353313755
s(g4
S'kluyveri'
p24
tp25
F0.0
s(g11
g13
tp26
F14.433257163911918
s(g13
S'mikatae'
p27
tp28
F70.63446464903645
ssS'newicktree'
p29
S'/Users/xji3/Genconv/PairsAlignemt/YeastTree.newick'
p30
sS'll'
p31
cnumpy.core.multiarray
scalar
p32
(cnumpy
dtype
p33
(S'f8'
p34
I0
I1
tp35
Rp36
(I3
S'<'
p37
NNNI-1
I-1
I0
tp38
bS'\xe2\xd5\xd2\x13\xba%\xc3\xc0'
p39
tp40
Rp41
sS'clock'
p42
I01
sS'edge_to_blen'
p43
(dp44
g19
g32
(g36
S'\x06\xfe\xf1\xe3\x06*\xbe?'
p45
tp46
Rp47
sg9
g32
(g36
S'\x9d$\x94k\x87\xb6\xa0?'
p48
tp49
Rp50
sg12
g32
(g36
S'mZ4\xadU\xf0\x85?'
p51
tp52
Rp53
sg14
g32
(g36
S'\x8c\xd8\xb0+\x96\xcf\x93?'
p54
tp55
Rp56
sg16
g32
(g36
S'\xef\xcbL\x9c{\\\xb0?'
p57
tp58
Rp59
sg18
g32
(g36
S'<W\xf3Q\x86\x1a\xb3?'
p60
tp61
Rp62
sg6
g32
(g36
S'\x1b\xac\xe4\xcf\xb18\xa6?'
p63
tp64
Rp65
sg21
g32
(g36
S'\xa0\xaa\xf2\x9aF\xa2\xc8?'
p66
tp67
Rp68
sg23
g32
(g36
S'\x9d$\x94k\x87\xb6\xa0?'
p69
tp70
Rp71
sg25
g32
(g36
S'\xa7\xd5\xeb\x0es0\xce?'
p72
tp73
Rp74
sg26
g32
(g36
S'\xe2\x1b\xb4\xdc\x92j\x88?'
p75
tp76
Rp77
sg28
g32
(g36
S'\xe4\x90l\x81R\x9e\xaa?'
p78
tp79
Rp80
ssS'paralog'
p81
(lp82
S'YMR243C'
p83
aS'YOR316C'
p84
asS'alignment_file'
p85
S'/Users/xji3/Genconv/PairsAlignemt/YMR243C_YOR316C/YMR243C_YOR316C_input.fasta'
p86
sS'x_clock'
p87
(lp88
F-0.7714918120792209
aF-0.5628373654789749
aF-0.8168136666700667
aF1.2660304436709522
aF-0.2858818377240206
aF-1.4445441760160265
aF0.0
aF-0.20336295682200187
aF-0.9473928812556265
aF-0.15496101494155184
aF-0.20645914556008696
aF-0.4654173604548781
asS'x'
p89
(lp90
F-0.7714918120792209
aF-0.5628373654789749
aF-0.8168136666700667
aF1.2660304436709522
aF-0.2858818377240206
aF-2.1385227265583993
aF-3.422137535050172
aF-4.536361893735079
aF-3.945240262770937
aF-2.7502610290352063
aF-2.5953000140936546
aF-3.1372659925429893
aF-1.6479071328380284
aF-3.422137535050172
aF-1.4445441760160265
aF-4.429367903293823
aF-2.9567201745952936
asS'Model'
p91
S'HKY'
p92
s.