(dp0
S'Force'
p1
NsS'ExpectedGeneconv'
p2
(dp3
(S'N0'
p4
S'N1'
p5
tp6
F40.393745223048754
s(S'N5'
p7
S'cerevisiae'
p8
tp9
F41.21462340780506
s(S'N2'
p10
S'N3'
p11
tp12
F19.315329065332755
s(S'N4'
p13
g7
tp14
F18.011112316173797
s(g11
S'kudriavzevii'
p15
tp16
F45.110447082112366
s(g10
S'bayanus'
p17
tp18
F36.708606797656486
s(g5
g10
tp19
F63.99774897536151
s(g5
S'castellii'
p20
tp21
F127.66821413063667
s(g7
S'paradoxus'
p22
tp23
F28.86024931717614
s(g4
S'kluyveri'
p24
tp25
F0.0
s(g11
g13
tp26
F19.633021823959854
s(g13
S'mikatae'
p27
tp28
F64.96112357042578
ssS'newicktree'
p29
S'/Users/xji3/Genconv/PairsAlignemt/YeastTree.newick'
p30
sS'll'
p31
cnumpy.core.multiarray
scalar
p32
(cnumpy
dtype
p33
(S'f8'
p34
I0
I1
tp35
Rp36
(I3
S'<'
p37
NNNI-1
I-1
I0
tp38
bS'\xf4w\x97\xdb\xa37\xbd\xc0'
p39
tp40
Rp41
sS'clock'
p42
I00
sS'edge_to_blen'
p43
(dp44
g19
g32
(g36
S'phH|\x1e\xc6\xb2?'
p45
tp46
Rp47
sg9
g32
(g36
S'\xe7\n\x9a\xc8\r&\x9a?'
p48
tp49
Rp50
sg12
g32
(g36
S'xk\x11\\*\x86\x91?'
p51
tp52
Rp53
sg14
g32
(g36
S'\x07R \x96k\x1b\x8b?'
p54
tp55
Rp56
sg16
g32
(g36
S'\xe6\r\x8c\xfc\xccP\xa2?'
p57
tp58
Rp59
sg18
g32
(g36
S'\x91\xfb/\xf1\xdc\xb6\x9e?'
p60
tp61
Rp62
sg6
g32
(g36
S'AV\x15I5o\xb7?'
p63
tp64
Rp65
sg21
g32
(g36
S'o\x03\xc0\xb1\x7f\t\xbf?'
p66
tp67
Rp68
sg23
g32
(g36
S'(\x16\xf7\x93\xcd\x98\x94?'
p69
tp70
Rp71
sg25
g32
(g36
S')\x8d\x05\x99\xe8<\xa6?'
p72
tp73
Rp74
sg26
g32
(g36
S',L\xc1\xe0\x19x\x8c?'
p75
tp76
Rp77
sg28
g32
(g36
S'\xf9:\xa4\xb7\x18\x99\xa4?'
p78
tp79
Rp80
ssS'paralog'
p81
(lp82
S'YGR043C'
p83
aS'YLR354C'
p84
asS'alignment_file'
p85
S'/Users/xji3/Genconv/PairsAlignemt/YGR043C_YLR354C/YGR043C_YLR354C_input.fasta'
p86
sS'x_clock'
p87
(lp88
F-0.625081522862186
aF-0.5445779105708821
aF-0.8273909761496979
aF0.1823215567939546
aF0.3364722366212129
aF-0.10536051565782628
aF-0.10536051565782628
aF-0.10536051565782628
aF-0.10536051565782628
aF-0.10536051565782628
aF-0.10536051565782628
aF-0.10536051565782628
asS'x'
p89
(lp90
F-0.7206765427116633
aF-0.508807587200905
aF-0.8284952274197265
aF1.4921878759590697
aF0.12679425259326557
aF-2.6127096947953827
aF-3.667674324989409
aF-4.067895650403384
aF-4.324822916723294
aF-3.33056994897324
aF-3.506743174590666
aF-2.390972125056248
aF-2.109994029580115
aF-3.9063318639828544
aF-3.1365254981489366
aF-4.2757981216334215
aF-3.213129019489201
asS'Model'
p91
S'HKY'
p92
s.