(dp0
S'Force'
p1
NsS'ExpectedGeneconv'
p2
(dp3
(S'N0'
p4
S'N1'
p5
tp6
F2.4271727977356155
s(S'N5'
p7
S'cerevisiae'
p8
tp9
F33.82578469794446
s(S'N2'
p10
S'N3'
p11
tp12
F4.192644439313385
s(S'N4'
p13
g7
tp14
F28.13859838441935
s(g11
S'kudriavzevii'
p15
tp16
F52.14365804245774
s(g10
S'bayanus'
p17
tp18
F57.50233907481216
s(g5
g10
tp19
F89.99139391227813
s(g5
S'castellii'
p20
tp21
F142.50359312840004
s(g7
S'paradoxus'
p22
tp23
F28.2359206400633
s(g13
S'mikatae'
p24
tp25
F54.44165139778704
s(g11
g13
tp26
F16.056047763861578
s(g4
S'kluyveri'
p27
tp28
F0.0
ssS'newicktree'
p29
S'/Users/xji3/Genconv/PairsAlignemt/YeastTree.newick'
p30
sS'll'
p31
cnumpy.core.multiarray
scalar
p32
(cnumpy
dtype
p33
(S'f8'
p34
I0
I1
tp35
Rp36
(I3
S'<'
p37
NNNI-1
I-1
I0
tp38
bS'\xe8\\\xfb\xd3\xb5|\xbf\xc0'
p39
tp40
Rp41
sS'clock'
p42
I01
sS'edge_to_blen'
p43
(dp44
g19
g32
(g36
S'\xe0\x01}\xbb\xd1_\xce?'
p45
tp46
Rp47
sg9
g32
(g36
S'T\x82\x07[q\xa6\xa4?'
p48
tp49
Rp50
sg12
g32
(g36
S'\xce\xf9V\x12\xef\xaaz?'
p51
tp52
Rp53
sg14
g32
(g36
S'\xb7\xe8p\xe0\t\x8f\x9a?'
p54
tp55
Rp56
sg16
g32
(g36
S'\xa8\x87\x8c\xedkH\xb6?'
p57
tp58
Rp59
sg18
g32
(g36
S'E\xf7\xb1\xde\x1a\xf3\xb7?'
p60
tp61
Rp62
sg6
g32
(g36
S'\xc8a9\xc6\xea\x83\xa2?'
p63
tp64
Rp65
sg21
g32
(g36
S'\xc1\xfej\x95\xaf,\xd5?'
p66
tp67
Rp68
sg23
g32
(g36
S'T\x82\x07[q\xa6\xa4?'
p69
tp70
Rp71
sg25
g32
(g36
S'X\xfb\x9f%\xfb\xf6\xb0?'
p72
tp73
Rp74
sg26
g32
(g36
S':1\xb2\x1f\xc3E\x95?'
p75
tp76
Rp77
sg28
g32
(g36
S'\xfa*2\xee,}\xd7?'
p78
tp79
Rp80
ssS'paralog'
p81
(lp82
S'YLR284C'
p83
aS'YOR180C'
p84
asS'alignment_file'
p85
S'/Users/xji3/Genconv/PairsAlignemt/YLR284C_YOR180C/YLR284C_YOR180C_input.fasta'
p86
sS'x_clock'
p87
(lp88
F-0.6727777608117265
aF-0.5616827669812707
aF-0.8933134240548011
aF1.2692677174592284
aF-1.304039266591505
aF-1.0023522688700686
aF0.0
aF-0.103730627580915
aF-1.2631417252445023
aF-0.0721333960040753
aF-0.27268060372140757
aF-0.4965625888963182
asS'x'
p89
(lp90
F-0.6727777608117265
aF-0.5616827669812707
aF-0.8933134240548011
aF1.2692677174592284
aF-1.304039266591505
aF-1.4384336049294029
aF-3.210601210317287
aF-5.034312679840079
aF-3.6521127540652505
aF-2.441358017699561
aF-2.3692246216954858
aF-3.319727147143177
aF-1.1060828964509837
aF-3.210601210317287
aF-2.714038621420969
aF-3.8740562424344174
aF-1.0023522688700686
asS'Model'
p91
S'HKY'
p92
s.