(dp0
S'Force'
p1
NsS'ExpectedGeneconv'
p2
(dp3
(S'N0'
p4
S'N1'
p5
tp6
F0.8154338938642672
s(S'N5'
p7
S'cerevisiae'
p8
tp9
F13.209070118879803
s(S'N2'
p10
S'N3'
p11
tp12
F3.098113070695139
s(S'N4'
p13
g7
tp14
F7.563897935921721
s(g5
S'castellii'
p15
tp16
F17.076822353510234
s(g10
S'bayanus'
p17
tp18
F18.477291050646556
s(g5
g10
tp19
F38.72697763463209
s(g11
S'kudriavzevii'
p20
tp21
F18.8493990379464
s(g7
S'paradoxus'
p22
tp23
F9.227439640396296
s(g13
S'mikatae'
p24
tp25
F24.145550305197123
s(g11
g13
tp26
F5.814221003780538
s(g4
S'kluyveri'
p27
tp28
F0.0
ssS'newicktree'
p29
S'/Users/xji3/Genconv/PairsAlignemt/YeastTree.newick'
p30
sS'll'
p31
cnumpy.core.multiarray
scalar
p32
(cnumpy
dtype
p33
(S'f8'
p34
I0
I1
tp35
Rp36
(I3
S'<'
p37
NNNI-1
I-1
I0
tp38
bS'\xc9\xed\xa8\x8c\x1a\xcc\xa8\xc0'
p39
tp40
Rp41
sS'clock'
p42
I00
sS'edge_to_blen'
p43
(dp44
g19
g32
(g36
S'\xf2[\xa7\xdd?x\xc6?'
p45
tp46
Rp47
sg9
g32
(g36
S'\x9bT\x92\x0c\xa3M\x9d?'
p48
tp49
Rp50
sg12
g32
(g36
S'\xa1\xf0E\x0bM\xf0\x80?'
p51
tp52
Rp53
sg14
g32
(g36
S'\\\x80\xa9k\x99<\x94?'
p54
tp55
Rp56
sg16
g32
(g36
S'd\xa9\xf7\xb66\\\xb3?'
p57
tp58
Rp59
sg18
g32
(g36
S'\x89\xf4i\xa0u\xe1\xa5?'
p60
tp61
Rp62
sg6
g32
(g36
S'\xe5\xdf\x8f\x86-\xa0\x96?'
p63
tp64
Rp65
sg21
g32
(g36
S'\x1c\xfd\xb1\x91(\xb0\xa3?'
p66
tp67
Rp68
sg23
g32
(g36
S'E[\xad\x9d<v\x94?'
p69
tp70
Rp71
sg25
g32
(g36
S'\xef\xc5\x01b\x06C\xa6?'
p72
tp73
Rp74
sg26
g32
(g36
S"\xabe\x9eT'J\x83?"
p75
tp76
Rp77
sg28
g32
(g36
S'<c\xcc\xd44L\xb6?'
p78
tp79
Rp80
ssS'paralog'
p81
(lp82
S'YPL037C'
p83
aS'YDR252W'
p84
asS'alignment_file'
p85
S'/Users/xji3/Genconv/PairsAlignemt/YPL037C_YDR252W/YPL037C_YDR252W_input.fasta'
p86
sS'x_clock'
p87
(lp88
F-0.5927478485034032
aF-0.45909994368366996
aF-0.7307333041599983
aF0.1823215567939546
aF0.3364722366212129
aF-0.10536051565782628
aF-0.10536051565782628
aF-0.10536051565782628
aF-0.10536051565782628
aF-0.10536051565782628
aF-0.10536051565782628
aF-0.10536051565782628
asS'x'
p89
(lp90
F-0.6729178214038487
aF-0.4503032537085088
aF-0.6951434875747249
aF1.46404189832686
aF-0.6335939909435738
aF-1.7398614379086266
aF-3.553772719625056
aF-4.795019481887186
aF-3.923973226721571
aF-2.5819575217643798
aF-3.152719605506705
aF-3.8123856130139266
aF-3.258309265865962
aF-3.9129090215728093
aF-3.135451694721362
aF-4.6650496484334045
aF-2.4406947561376002
asS'Model'
p91
S'HKY'
p92
s.