(dp0
S'Force'
p1
NsS'ExpectedGeneconv'
p2
(dp3
(S'N1'
p4
S'N2'
p5
tp6
F70.11291216118644
s(S'N5'
p7
S'cerevisiae'
p8
tp9
F37.94443206123242
s(g5
S'N3'
p10
tp11
F8.214289498461213
s(S'N4'
p12
g7
tp13
F16.652788464805628
s(g4
S'castellii'
p14
tp15
F133.1505226364542
s(g5
S'bayanus'
p16
tp17
F62.469251565271094
s(S'N0'
p18
g4
tp19
F8.828037898829283
s(g10
S'kudriavzevii'
p20
tp21
F45.76680024061139
s(g7
S'paradoxus'
p22
tp23
F24.669302980016457
s(g12
S'mikatae'
p24
tp25
F42.857779433128734
s(g10
g12
tp26
F11.119108915653191
s(g18
S'kluyveri'
p27
tp28
F0.0
ssS'newicktree'
p29
S'/Users/xji3/Genconv/PairsAlignemt/YeastTree.newick'
p30
sS'll'
p31
cnumpy.core.multiarray
scalar
p32
(cnumpy
dtype
p33
(S'f8'
p34
I0
I1
tp35
Rp36
(I3
S'<'
p37
NNNI-1
I-1
I0
tp38
bS'\x83?\xd1Q\x90h\xb9\xc0'
p39
tp40
Rp41
sS'clock'
p42
I01
sS'edge_to_blen'
p43
(dp44
g19
g32
(g36
S'\xb9d\x83zZ\x90\xa4?'
p45
tp46
Rp47
sg9
g32
(g36
S'3\x92\xa8@\t_\x94?'
p48
tp49
Rp50
sg11
g32
(g36
S'~\x9e\x16*\xa5\xcd\x80?'
p51
tp52
Rp53
sg13
g32
(g36
S'%\xfdY\xbe\xf0\xfa\x87?'
p54
tp55
Rp56
sg15
g32
(g36
S'q\xbe\xe6\xf0"n\xc1?'
p57
tp58
Rp59
sg17
g32
(g36
S'\xcd\xd2\x96m\xb03\xa8?'
p60
tp61
Rp62
sg6
g32
(g36
S'|\x13\x02\xabm\xc2\xb6?'
p63
tp64
Rp65
sg21
g32
(g36
S'-+\x11#G\x00\xa4?'
p66
tp67
Rp68
sg23
g32
(g36
S'3\x92\xa8@\t_\x94?'
p69
tp70
Rp71
sg25
g32
(g36
S'c\xc8\xea\xcf@.\xa0?'
p72
tp73
Rp74
sg26
g32
(g36
S'Q\x163\x992\x90~?'
p75
tp76
Rp77
sg28
g32
(g36
S'\x9f\x97\x87\x8f9\x92\xc6?'
p78
tp79
Rp80
ssS'paralog'
p81
(lp82
S'YPL232W'
p83
aS'YMR183C'
p84
asS'alignment_file'
p85
S'/Users/xji3/Genconv/PairsAlignemt/YPL232W_YMR183C/YPL232W_YMR183C_input.fasta'
p86
sS'x_clock'
p87
(lp88
F-0.6374661005445575
aF-0.48349450186164533
aF-0.7664305225957693
aF1.5212967305101766
aF0.49915016461097217
aF-1.7353559139143595
aF0.0
aF-0.25846883090531814
aF-1.0580682903025544
aF-0.1906450446268523
aF-0.21196882641744358
aF-0.46284104594360215
asS'x'
p89
(lp90
F-0.6374661005445575
aF-0.48349450186164533
aF-0.7664305225957693
aF1.5212967305101766
aF0.49915016461097217
aF-3.21478845744866
aF-3.91734795211013
aF-4.803043603648665
aF-4.447388996941648
aF-1.9938247448196778
aF-3.051893035122232
aF-2.4201954233110996
aF-3.2425380797490844
aF-3.91734795211013
aF-3.454506906166528
aF-4.897967137771155
aF-1.7353559139143595
asS'Model'
p91
S'HKY'
p92
s.