(dp0
S'Force'
p1
NsS'ExpectedGeneconv'
p2
(dp3
(S'N0'
p4
S'N1'
p5
tp6
F0.8245553976337932
s(S'N5'
p7
S'cerevisiae'
p8
tp9
F54.823411961306704
s(S'N2'
p10
S'N3'
p11
tp12
F10.263606437795454
s(S'N4'
p13
g7
tp14
F30.919239023861262
s(g5
S'castellii'
p15
tp16
F243.54892015650117
s(g10
S'bayanus'
p17
tp18
F92.40391089655643
s(g5
g10
tp19
F130.12689858850908
s(g11
S'kudriavzevii'
p20
tp21
F80.02910780578092
s(g7
S'paradoxus'
p22
tp23
F46.578843725689254
s(g13
S'mikatae'
p24
tp25
F74.31966982863064
s(g11
g13
tp26
F33.65914222792784
s(g4
S'kluyveri'
p27
tp28
F0.0
ssS'newicktree'
p29
S'/Users/xji3/Genconv/PairsAlignemt/YeastTree.newick'
p30
sS'll'
p31
cnumpy.core.multiarray
scalar
p32
(cnumpy
dtype
p33
(S'f8'
p34
I0
I1
tp35
Rp36
(I3
S'<'
p37
NNNI-1
I-1
I0
tp38
bS'\xcd\xe5\xa7\xe3\xa6\xa6\xca\xc0'
p39
tp40
Rp41
sS'clock'
p42
I01
sS'edge_to_blen'
p43
(dp44
g19
g32
(g36
S'Oe\x92\xd9\xe6\x8b\xcb?'
p45
tp46
Rp47
sg9
g32
(g36
S'\xf7\x9b\x11m\x8b*\x9d?'
p48
tp49
Rp50
sg12
g32
(g36
S'U>\xb7I\xf7(\x87?'
p51
tp52
Rp53
sg14
g32
(g36
S'\x10t\x0c\xf4Q\xc0\x92?'
p54
tp55
Rp56
sg16
g32
(g36
S'\xdc\xf5l\xec\t\x90\xd2?'
p57
tp58
Rp59
sg18
g32
(g36
S'\xd4\x0c\x8f\xfeY(\xb3?'
p60
tp61
Rp62
sg6
g32
(g36
S'\x06\x9fG:\xb7u\x8e?'
p63
tp64
Rp65
sg21
g32
(g36
S'\x0b%X\x15;C\xb0?'
p66
tp67
Rp68
sg23
g32
(g36
S'\xf7\x9b\x11m\x8b*\x9d?'
p69
tp70
Rp71
sg25
g32
(g36
S'\x04\x08\x8f\xb0n\xf5\xa7?'
p72
tp73
Rp74
sg26
g32
(g36
S'!\x84B\xf4\x0e"\x91?'
p75
tp76
Rp77
sg28
g32
(g36
S'\xd42?\xa6\xb7\x83\xd3?'
p78
tp79
Rp80
ssS'paralog'
p81
(lp82
S'YDR518W'
p83
aS'YCL043C'
p84
asS'alignment_file'
p85
S'/Users/xji3/Genconv/PairsAlignemt/YDR518W_YCL043C/YDR518W_YCL043C_input.fasta'
p86
sS'x_clock'
p87
(lp88
F-0.7401114827043538
aF-0.5188069262363665
aF-0.7525462379648173
aF1.2849280167185078
aF-1.1209435730118897
aF-1.1877242273540072
aF0.0
aF-0.05000728210674902
aF-1.3547452200084467
aF-0.163831474379722
aF-0.3056840617021935
aF-0.496469379280062
asS'x'
p89
(lp90
F-0.7401114827043538
aF-0.5188069262363665
aF-0.7525462379648173
aF1.2849280167185078
aF-1.1209435730118897
aF-1.5361550961493189
aF-3.5584616448311803
aF-4.4821913267753954
aF-4.0002113616284625
aF-1.2377315094607562
aF-2.592476729469203
aF-4.208210315591509
aF-2.7563082038489246
aF-3.5584616448311803
aF-3.061992265551118
aF-4.090463002765521
aF-1.1877242273540072
asS'Model'
p91
S'HKY'
p92
s.