(dp0
S'Force'
p1
NsS'ExpectedGeneconv'
p2
(dp3
(S'N0'
p4
S'N1'
p5
tp6
F2.7262726103477126
s(S'N5'
p7
S'cerevisiae'
p8
tp9
F13.871320335423308
s(S'N2'
p10
S'N3'
p11
tp12
F1.3956059438335995
s(S'N4'
p13
g7
tp14
F5.581821391248305
s(g11
S'kudriavzevii'
p15
tp16
F15.881727594130366
s(g10
S'bayanus'
p17
tp18
F13.178333493176819
s(g5
g10
tp19
F18.332634628986963
s(g5
S'castellii'
p20
tp21
F27.874794540435154
s(g7
S'paradoxus'
p22
tp23
F6.133521501417122
s(g13
S'mikatae'
p24
tp25
F12.388174239844478
s(g11
g13
tp26
F4.609873735990929
s(g4
S'kluyveri'
p27
tp28
F0.0
ssS'newicktree'
p29
S'/Users/xji3/Genconv/PairsAlignemt/YeastTree.newick'
p30
sS'll'
p31
cnumpy.core.multiarray
scalar
p32
(cnumpy
dtype
p33
(S'f8'
p34
I0
I1
tp35
Rp36
(I3
S'<'
p37
NNNI-1
I-1
I0
tp38
bS'\xc0w\xb0\xfb|\x8f\x9d\xc0'
p39
tp40
Rp41
sS'clock'
p42
I01
sS'edge_to_blen'
p43
(dp44
g19
g32
(g36
S'$\xa8\xde\x85\xb2R\x85?'
p45
tp46
Rp47
sg9
g32
(g36
S'\xb0\x93\x8cM\x11\xacf?'
p48
tp49
Rp50
sg12
g32
(g36
S';2\xa37w1:?'
p51
tp52
Rp53
sg14
g32
(g36
S'`\x99\x0e\xd3\xdb\xbfV?'
p54
tp55
Rp56
sg16
g32
(g36
S'\xeb\xc5\xf5a\x05\x87w?'
p57
tp58
Rp59
sg18
g32
(g36
S'\x0f\xf9o\xd5\x1c*y?'
p60
tp61
Rp62
sg6
g32
(g36
S'P\xca\x91\xaaxiy?'
p63
tp64
Rp65
sg21
g32
(g36
S'TRKx\xe0\xf3\x90?'
p66
tp67
Rp68
sg23
g32
(g36
S'\xb0\x93\x8cM\x11\xacf?'
p69
tp70
Rp71
sg25
g32
(g36
S'0\xf0\x89\x9b\xff\x05q?'
p72
tp73
Rp74
sg26
g32
(g36
S'\xf6V\xaf\x19\x17\x04Z?'
p75
tp76
Rp77
sg28
g32
(g36
S'\xe9\xc4\xef\xa2>N\x97?'
p78
tp79
Rp80
ssS'paralog'
p81
(lp82
S'YDR418W'
p83
aS'YEL054C'
p84
asS'alignment_file'
p85
S'/Users/xji3/Genconv/PairsAlignemt/YDR418W_YEL054C/YDR418W_YEL054C_input.fasta'
p86
sS'x_clock'
p87
(lp88
F-0.7656002488165625
aF-0.492249841145379
aF-0.7959237698617884
aF2.48188261486457
aF3.246066753059375
aF-3.7827762744950824
aF0.0
aF-0.3182717277990365
aF-0.9912837951869493
aF-0.0672675697285648
aF-0.32357608023234563
aF-0.4066010850401812
asS'x'
p89
(lp90
F-0.7656002488165625
aF-0.492249841145379
aF-0.7959237698617884
aF2.48188261486457
aF3.246066753059375
aF-4.564830970000131
aF-5.88977653248216
aF-7.824854085591788
aF-6.579519646262623
aF-5.159599367209633
aF-5.0923317974810685
aF-5.082544762818385
aF-4.101048002294119
aF-5.88977653248216
aF-5.483175447441979
aF-6.44534965997663
aF-3.7827762744950824
asS'Model'
p91
S'HKY'
p92
s.