(dp0
S'Force'
p1
NsS'ExpectedGeneconv'
p2
(dp3
(S'N1'
p4
S'N2'
p5
tp6
F45.398098249689845
s(S'N5'
p7
S'cerevisiae'
p8
tp9
F36.89076982043891
s(g5
S'N3'
p10
tp11
F29.161053046339973
s(S'N4'
p12
g7
tp13
F28.174833814150933
s(g4
S'castellii'
p14
tp15
F175.34273285704379
s(g5
S'bayanus'
p16
tp17
F44.50950515403211
s(S'N0'
p18
g4
tp19
F103.24787934093753
s(g10
S'kudriavzevii'
p20
tp21
F70.00369996521556
s(g7
S'paradoxus'
p22
tp23
F30.793406156485513
s(g12
S'mikatae'
p24
tp25
F65.09215063690966
s(g10
g12
tp26
F28.62994579375718
s(g18
S'kluyveri'
p27
tp28
F0.0
ssS'newicktree'
p29
S'/Users/xji3/Genconv/PairsAlignemt/YeastTree.newick'
p30
sS'll'
p31
cnumpy.core.multiarray
scalar
p32
(cnumpy
dtype
p33
(S'f8'
p34
I0
I1
tp35
Rp36
(I3
S'<'
p37
NNNI-1
I-1
I0
tp38
bS'\x003\xdc\x85R1\xba\xc0'
p39
tp40
Rp41
sS'clock'
p42
I00
sS'edge_to_blen'
p43
(dp44
g19
g32
(g36
S'\x03@%\x0b6\xdf\xb1?'
p45
tp46
Rp47
sg9
g32
(g36
S'a\x13i\x1c\xd2\xaf\x87?'
p48
tp49
Rp50
sg11
g32
(g36
S'\xc2;\xfe\xe5sE\x86?'
p51
tp52
Rp53
sg13
g32
(g36
S'\x8a@\xd2\xb3\x00z\x82?'
p54
tp55
Rp56
sg15
g32
(g36
S'Y\x16\xb0\xb8Bj\xae?'
p57
tp58
Rp59
sg17
g32
(g36
S'\xb4,\x008)1\x8f?'
p60
tp61
Rp62
sg6
g32
(g36
S'\xdc\x00\x04\x0eHQ\x91?'
p63
tp64
Rp65
sg21
g32
(g36
S'@\x88\x07\xa9\xcd\xaa\x95?'
p66
tp67
Rp68
sg23
g32
(g36
S'%\xbc\xdf\xeb\x03\r\x86?'
p69
tp70
Rp71
sg25
g32
(g36
S'\x19Y1\x06\xd0C\x96?'
p72
tp73
Rp74
sg26
g32
(g36
S'|\x1d\xb3\xbb\x1a\x84\x82?'
p75
tp76
Rp77
sg28
g32
(g36
S'\xb5\xf8G\xd7\x1e\x18\xd8>'
p78
tp79
Rp80
ssS'paralog'
p81
(lp82
S'YDR502C'
p83
aS'YLR180W'
p84
asS'alignment_file'
p85
S'/Users/xji3/Genconv/PairsAlignemt/YDR502C_YLR180W/YDR502C_YLR180W_input.fasta'
p86
sS'x_clock'
p87
(lp88
F-0.6697946532606092
aF-0.6092883084798876
aF-0.7799960768438013
aF0.1823215567939546
aF0.3364722366212129
aF-0.10536051565782628
aF-0.10536051565782628
aF-0.10536051565782628
aF-0.10536051565782628
aF-0.10536051565782628
aF-0.10536051565782628
aF-0.10536051565782628
asS'x'
p89
(lp90
F-0.7907064733012285
aF-0.5925939948883895
aF-0.8308644227088663
aF1.7741621371581677
aF1.8070202080133422
aF-2.6619467685836105
aF-4.45970106410837
aF-4.5213201446982225
aF-4.708115369056904
aF-2.82338606764578
aF-4.184456206041283
aF-4.0797539244865515
aF-3.855672180366522
aF-4.531268240524589
aF-3.8284606749558012
aF-4.705981985270649
aF-12.067265969899394
asS'Model'
p91
S'HKY'
p92
s.