(dp0
S'Force'
p1
NsS'ExpectedGeneconv'
p2
(dp3
(S'N0'
p4
S'N1'
p5
tp6
F2.8488607361697422
s(S'N5'
p7
S'cerevisiae'
p8
tp9
F6.13035451329513
s(S'N2'
p10
S'N3'
p11
tp12
F2.07527024393537
s(S'N4'
p13
g7
tp14
F3.5357894011906197
s(g5
S'castellii'
p15
tp16
F31.177127805765224
s(g10
S'bayanus'
p17
tp18
F16.25319911169223
s(g5
g10
tp19
F19.984320614857744
s(g11
S'kudriavzevii'
p20
tp21
F8.466658748267983
s(g7
S'paradoxus'
p22
tp23
F8.313162533518245
s(g4
S'kluyveri'
p24
tp25
F0.0
s(g11
g13
tp26
F6.515633010766642
s(g13
S'mikatae'
p27
tp28
F10.031333008651623
ssS'newicktree'
p29
S'/Users/xji3/Genconv/PairsAlignemt/YeastTree.newick'
p30
sS'll'
p31
cnumpy.core.multiarray
scalar
p32
(cnumpy
dtype
p33
(S'f8'
p34
I0
I1
tp35
Rp36
(I3
S'<'
p37
NNNI-1
I-1
I0
tp38
bS'\x89:\x9d"C\xc3\x9e\xc0'
p39
tp40
Rp41
sS'clock'
p42
I01
sS'edge_to_blen'
p43
(dp44
g19
g32
(g36
S'\xc9\x95M\x02\x13\x11\x8a?'
p45
tp46
Rp47
sg9
g32
(g36
S'\x1dB\x10\x18\x1fkh?'
p48
tp49
Rp50
sg12
g32
(g36
S'\x17g;\xf2\xc4\xcaP?'
p51
tp52
Rp53
sg14
g32
(g36
S'\xaa\xeb\x95E\x00\xb2J?'
p54
tp55
Rp56
sg16
g32
(g36
S'\xed\x93\x9f\xdfh\x9e\x93?'
p57
tp58
Rp59
sg18
g32
(g36
S'\x1c$\xe3y}Wz?'
p60
tp61
Rp62
sg6
g32
(g36
S'\xd6q\xd1\x1c\x9dc|?'
p63
tp64
Rp65
sg21
g32
(g36
S'\\JT=\xcc$v?'
p66
tp67
Rp68
sg23
g32
(g36
S'\x1dB\x10\x18\x1fkh?'
p69
tp70
Rp71
sg25
g32
(g36
S'c\xf0\xd3&P\xb7\x9a?'
p72
tp73
Rp74
sg26
g32
(g36
S'T\xafe\xa2\xf2cZ?'
p75
tp76
Rp77
sg28
g32
(g36
S'\x06\xbdu)\x9f\x17o?'
p78
tp79
Rp80
ssS'paralog'
p81
(lp82
S'YJL177W'
p83
aS'YKL180W'
p84
asS'alignment_file'
p85
S'/Users/xji3/Genconv/PairsAlignemt/YJL177W_YKL180W/YJL177W_YKL180W_input.fasta'
p86
sS'x_clock'
p87
(lp88
F-0.7478026216750145
aF-0.48568033175105463
aF-0.7174104104861037
aF2.188738361153189
aF3.183383321586945
aF-3.6462066695833473
aF0.0
aF-0.30877747058426
aF-1.0916265760607535
aF-0.17360054704163194
aF-0.3537427725914227
aF-0.24162059551449774
asS'x'
p89
(lp90
F-0.7478026216750145
aF-0.48568033175105463
aF-0.7174104104861037
aF2.188738361153189
aF3.183383321586945
aF-4.3639604902846
aF-5.815574631375913
aF-6.883153915981054
aF-7.11271956483442
aF-3.9549841401676074
aF-5.046610716228361
aF-4.971760331006641
aF-5.220211263269992
aF-5.815574631375913
aF-3.6462066695833473
aF-6.43105942229475
aF-5.573954035861416
asS'Model'
p91
S'HKY'
p92
s.