(dp0
S'Force'
p1
NsS'ExpectedGeneconv'
p2
(dp3
(S'N1'
p4
S'N2'
p5
tp6
F13.238667285171434
s(S'N5'
p7
S'cerevisiae'
p8
tp9
F12.075872217213595
s(g5
S'N3'
p10
tp11
F6.788515139874093
s(S'N4'
p12
g7
tp13
F1.5348540445563108
s(g10
S'kudriavzevii'
p14
tp15
F6.255987853439207
s(g5
S'bayanus'
p16
tp17
F6.1600897126519865
s(S'N0'
p18
g4
tp19
F13.445028076040963
s(g4
S'castellii'
p20
tp21
F20.85229792849391
s(g7
S'paradoxus'
p22
tp23
F2.765793570807352
s(g12
S'mikatae'
p24
tp25
F9.11404654082127
s(g10
g12
tp26
F3.971616947115998
s(g18
S'kluyveri'
p27
tp28
F0.0
ssS'newicktree'
p29
S'/Users/xji3/Genconv/PairsAlignemt/YeastTree.newick'
p30
sS'll'
p31
cnumpy.core.multiarray
scalar
p32
(cnumpy
dtype
p33
(S'f8'
p34
I0
I1
tp35
Rp36
(I3
S'<'
p37
NNNI-1
I-1
I0
tp38
bS'\x86\x99TL\xd3\xb3\x94\xc0'
p39
tp40
Rp41
sS'clock'
p42
I00
sS'edge_to_blen'
p43
(dp44
g19
g32
(g36
S'\xb8\x07\xb9\x96\xc8\xeb\x94?'
p45
tp46
Rp47
sg9
g32
(g36
S'\xa4\xff\xa6\xf58\x04w?'
p48
tp49
Rp50
sg11
g32
(g36
S"\xde\x8e'\x99\xcd\\r?"
p51
tp52
Rp53
sg13
g32
(g36
S'\x9d\x0e0\xce\xc2uR?'
p54
tp55
Rp56
sg15
g32
(g36
S'&#ML\xc1iq?'
p57
tp58
Rp59
sg17
g32
(g36
S'c\xbc\x1f"\x07\xa5p?'
p60
tp61
Rp62
sg6
g32
(g36
S'\x8f=i\x81rW\x83?'
p63
tp64
Rp65
sg21
g32
(g36
S'\x13d\xf1z\x97\xc4\x8f?'
p66
tp67
Rp68
sg23
g32
(g36
S'\xef?\x00\x92\xe4\x92i?'
p69
tp70
Rp71
sg25
g32
(g36
S'\xa7~Z\x1d\x8c\xf3u?'
p72
tp73
Rp74
sg26
g32
(g36
S'\xb8\x89\xc5Z!\x06i?'
p75
tp76
Rp77
sg28
g32
(g36
S'\xbb\n:O\xc4N\x99>'
p78
tp79
Rp80
ssS'paralog'
p81
(lp82
S'YER131W'
p83
aS'YGL189C'
p84
asS'alignment_file'
p85
S'/Users/xji3/Genconv/PairsAlignemt/YER131W_YGL189C/YER131W_YGL189C_input.fasta'
p86
sS'x_clock'
p87
(lp88
F-0.587528133359831
aF-0.507857305138181
aF-0.6873444563473778
aF0.1823215567939546
aF0.3364722366212129
aF-0.10536051565782628
aF-0.10536051565782628
aF-0.10536051565782628
aF-0.10536051565782628
aF-0.10536051565782628
aF-0.10536051565782628
aF-0.10536051565782628
asS'x'
p89
(lp90
F-0.7010183140678378
aF-0.46163892720687455
aF-0.6639763196868573
aF2.2484618790103057
aF3.05240221625397
aF-3.890716956734488
aF-5.181555071539631
aF-5.40745496188512
aF-6.788454095903004
aF-5.4605430403246356
aF-5.505677918306991
aF-4.6623612365675315
aF-4.166161494185943
aF-5.769344949298927
aF-5.228937219082201
aF-5.791080122846348
aF-14.790718671211703
asS'Model'
p91
S'HKY'
p92
s.