(dp0
S'Force'
p1
NsS'ExpectedGeneconv'
p2
(dp3
(S'N1'
p4
S'N2'
p5
tp6
F19.138284456453817
s(S'N5'
p7
S'cerevisiae'
p8
tp9
F6.464892157814319
s(g5
S'N3'
p10
tp11
F4.95168900064103
s(S'N4'
p12
g7
tp13
F4.922317495550006
s(g4
S'castellii'
p14
tp15
F40.28366742573566
s(g5
S'bayanus'
p16
tp17
F19.83972427590373
s(S'N0'
p18
g4
tp19
F3.993746533401702
s(g10
S'kudriavzevii'
p20
tp21
F13.040208948583292
s(g7
S'paradoxus'
p22
tp23
F3.4898600217052502
s(g12
S'mikatae'
p24
tp25
F7.909538045409978
s(g10
g12
tp26
F2.3491764247191367
s(g18
S'kluyveri'
p27
tp28
F0.0
ssS'newicktree'
p29
S'/Users/xji3/Genconv/PairsAlignemt/YeastTree.newick'
p30
sS'll'
p31
cnumpy.core.multiarray
scalar
p32
(cnumpy
dtype
p33
(S'f8'
p34
I0
I1
tp35
Rp36
(I3
S'<'
p37
NNNI-1
I-1
I0
tp38
bS'Tww\xd8\x05{\xa3\xc0'
p39
tp40
Rp41
sS'clock'
p42
I01
sS'edge_to_blen'
p43
(dp44
g19
g32
(g36
S'K\xc5\x8cAUw\x8c?'
p45
tp46
Rp47
sg9
g32
(g36
S'\x98\x07\xf6\x8a 1l?'
p48
tp49
Rp50
sg11
g32
(g36
S"\xc8)\xa4\xa2'\xf3b?"
p51
tp52
Rp53
sg13
g32
(g36
S'\xb9\x85\xfc\x8a\x0enm?'
p54
tp55
Rp56
sg15
g32
(g36
S'A\xa8\xa8\xc9@\x12\x9c?'
p57
tp58
Rp59
sg17
g32
(g36
S'\xefIc\xe6\xb2\x9f\x85?'
p60
tp61
Rp62
sg6
g32
(g36
S'I\x03wVgB\x91?'
p63
tp64
Rp65
sg21
g32
(g36
S'~?\xba\xfd\xe8\xe2\x80?'
p66
tp67
Rp68
sg23
g32
(g36
S'\x98\x07\xf6\x8a 1l?'
p69
tp70
Rp71
sg25
g32
(g36
S'\xa5F\xf9\x8a\x97\xcf|?'
p72
tp73
Rp74
sg26
g32
(g36
S'\\\xe1\xec\xc1\xe9\xd8S?'
p75
tp76
Rp77
sg28
g32
(g36
S's\x857\xb5\xf5&\xa5?'
p78
tp79
Rp80
ssS'paralog'
p81
(lp82
S'YNL069C'
p83
aS'YIL133C'
p84
asS'alignment_file'
p85
S'/Users/xji3/Genconv/PairsAlignemt/YNL069C_YIL133C/YNL069C_YIL133C_input.fasta'
p86
sS'x_clock'
p87
(lp88
F-0.754086106835435
aF-0.5583937415722291
aF-0.8324903769656259
aF1.9918965705026213
aF2.2157616745987663
aF-3.1865813345990484
aF0.0
aF-0.4101427303540932
aF-0.9540992723357467
aF-0.2472889996515484
aF-0.1588998299230236
aF-0.7148663779589275
asS'x'
p89
(lp90
F-0.754086106835435
aF-0.5583937415722291
aF-0.8324903769656259
aF1.9918965705026213
aF2.2157616745987663
aF-4.275903511877423
aF-5.671878544822388
aF-6.069118727828611
aF-5.628901863282519
aF-3.5967240649531416
aF-4.550823337288889
aF-4.08311550243671
aF-4.798112336940437
aF-5.671878544822388
aF-4.957012166863461
aF-6.715991700789504
aF-3.1865813345990484
asS'Model'
p91
S'HKY'
p92
s.