(dp0
S'Force'
p1
NsS'ExpectedGeneconv'
p2
(dp3
(S'N0'
p4
S'N1'
p5
tp6
F26.470515187298233
s(S'N5'
p7
S'cerevisiae'
p8
tp9
F33.81610787009227
s(S'N2'
p10
S'N3'
p11
tp12
F26.995307777538788
s(S'N4'
p13
g7
tp14
F19.07100104758764
s(g11
S'kudriavzevii'
p15
tp16
F48.50016254435408
s(g10
S'bayanus'
p17
tp18
F39.876586209047886
s(g5
g10
tp19
F115.03432834850648
s(g5
S'castellii'
p20
tp21
F151.96116774248634
s(g7
S'paradoxus'
p22
tp23
F19.566082829891982
s(g13
S'mikatae'
p24
tp25
F54.12917986875229
s(g11
g13
tp26
F30.607766386193738
s(g4
S'kluyveri'
p27
tp28
F0.0
ssS'newicktree'
p29
S'/Users/xji3/Genconv/PairsAlignemt/YeastTree.newick'
p30
sS'll'
p31
cnumpy.core.multiarray
scalar
p32
(cnumpy
dtype
p33
(S'f8'
p34
I0
I1
tp35
Rp36
(I3
S'<'
p37
NNNI-1
I-1
I0
tp38
bS'1\xe6\x1d\xa2\x0f\xd3\xbd\xc0'
p39
tp40
Rp41
sS'clock'
p42
I00
sS'edge_to_blen'
p43
(dp44
g19
g32
(g36
S'W\x8f\x00\x9d\x99o\xc7?'
p45
tp46
Rp47
sg9
g32
(g36
S'GZ\xb3\x1a\x84Q\xa1?'
p48
tp49
Rp50
sg12
g32
(g36
S'\x81\xf3\x82~/Y\xa1?'
p51
tp52
Rp53
sg14
g32
(g36
S'A)\x01\xffW\xa6\x98?'
p54
tp55
Rp56
sg16
g32
(g36
S'\xc23\xccv\\w\xac?'
p57
tp58
Rp59
sg18
g32
(g36
S'\xd1]w\x83b\xb5\xab?'
p60
tp61
Rp62
sg6
g32
(g36
S'\x91C\xed\xe2\xbbG\xbb?'
p63
tp64
Rp65
sg21
g32
(g36
S'\xea\x11\x8e\xd5}1\xcc?'
p66
tp67
Rp68
sg23
g32
(g36
S'\xf9\xc2$\x1f\x15\xab\x95?'
p69
tp70
Rp71
sg25
g32
(g36
S'e^\xf6\x16\xe0\x93\xad?'
p72
tp73
Rp74
sg26
g32
(g36
S'\xde\x81$kI|\x9d?'
p75
tp76
Rp77
sg28
g32
(g36
S'JO)\xd0\xed+\xc0?'
p78
tp79
Rp80
ssS'paralog'
p81
(lp82
S'YBR024W'
p83
aS'YBR037C'
p84
asS'alignment_file'
p85
S'/Users/xji3/Genconv/PairsAlignemt/YBR024W_YBR037C/YBR024W_YBR037C_input.fasta'
p86
sS'x_clock'
p87
(lp88
F-0.6248383036277048
aF-0.587102670347408
aF-0.8498632293323529
aF0.1823215567939546
aF0.3364722366212129
aF-0.10536051565782628
aF-0.10536051565782628
aF-0.10536051565782628
aF-0.10536051565782628
aF-0.10536051565782628
aF-0.10536051565782628
aF-0.10536051565782628
asS'x'
p89
(lp90
F-0.6903150890286536
aF-0.5511267880602048
aF-0.8317118299231259
aF1.2584765636470319
aF-0.4770062499087902
aF-1.697759620425189
aF-3.3865538345064343
aF-3.3848254397870527
aF-3.7267038214140658
aF-2.8896052870405704
aF-2.916584156508481
aF-2.2390158890470695
aF-1.5129449690359527
aF-3.8556218560648796
aF-2.851306019240559
aF-3.547573348668984
aF-2.068773801741456
asS'Model'
p91
S'HKY'
p92
s.