(dp0
S'Force'
p1
NsS'ExpectedGeneconv'
p2
(dp3
(S'N0'
p4
S'N1'
p5
tp6
F16.630484368350217
s(S'N5'
p7
S'cerevisiae'
p8
tp9
F19.317571424117386
s(S'N2'
p10
S'N3'
p11
tp12
F10.069654235195266
s(S'N4'
p13
g7
tp14
F7.227424528557019
s(g11
S'kudriavzevii'
p15
tp16
F23.65022217960966
s(g10
S'bayanus'
p17
tp18
F20.91676374701174
s(g5
g10
tp19
F41.16766062685273
s(g5
S'castellii'
p20
tp21
F97.49008471480494
s(g7
S'paradoxus'
p22
tp23
F12.400273196153986
s(g4
S'kluyveri'
p24
tp25
F0.0
s(g11
g13
tp26
F10.242265865593517
s(g13
S'mikatae'
p27
tp28
F31.22626935721486
ssS'newicktree'
p29
S'/Users/xji3/Genconv/PairsAlignemt/YeastTree.newick'
p30
sS'll'
p31
cnumpy.core.multiarray
scalar
p32
(cnumpy
dtype
p33
(S'f8'
p34
I0
I1
tp35
Rp36
(I3
S'<'
p37
NNNI-1
I-1
I0
tp38
bS'\x1f\x0b\xb5o3\xa8\xad\xc0'
p39
tp40
Rp41
sS'clock'
p42
I00
sS'edge_to_blen'
p43
(dp44
g19
g32
(g36
S'\xba\xffY\x05\xde)\xb8?'
p45
tp46
Rp47
sg9
g32
(g36
S'Bhl26\xac\xa0?'
p48
tp49
Rp50
sg12
g32
(g36
S'o\xd1\x1aCv\xc9\x91?'
p51
tp52
Rp53
sg14
g32
(g36
S'\x80R0]x\xcf\x8f?'
p54
tp55
Rp56
sg16
g32
(g36
S'f\x96\xe7\x9bK!\xa3?'
p57
tp58
Rp59
sg18
g32
(g36
S'\x0eN\xf3\xf2\xe9\xba\xa5?'
p60
tp61
Rp62
sg6
g32
(g36
S'\x18\x85\x108\xbe]\xb5?'
p63
tp64
Rp65
sg21
g32
(g36
S'\xd1b\xe5\xd2\xd4\x82\xc5?'
p66
tp67
Rp68
sg23
g32
(g36
S'1\x8e\xe8!\xb6R\x8f?'
p69
tp70
Rp71
sg25
g32
(g36
S'W\xc4\xe2\xd9\xca\t\xc4?'
p72
tp73
Rp74
sg26
g32
(g36
S'\xca\xd29\x06\xf5\x97\x96?'
p75
tp76
Rp77
sg28
g32
(g36
S'\xe1\x94\xf1\xc8}\xcd\xa4?'
p78
tp79
Rp80
ssS'paralog'
p81
(lp82
S'YIL057C'
p83
aS'YER067W'
p84
asS'alignment_file'
p85
S'/Users/xji3/Genconv/PairsAlignemt/YIL057C_YER067W/YIL057C_YER067W_input.fasta'
p86
sS'x_clock'
p87
(lp88
F-0.573098399274636
aF-0.5013113527746849
aF-0.81186663355229
aF0.1823215567939546
aF0.3364722366212129
aF-0.10536051565782628
aF-0.10536051565782628
aF-0.10536051565782628
aF-0.10536051565782628
aF-0.10536051565782628
aF-0.10536051565782628
aF-0.10536051565782628
asS'x'
p89
(lp90
F-0.667280142827083
aF-0.4662122979298335
aF-0.7406040609557979
aF1.3834344732557156
aF0.33834685971682527
aF-2.360332392595083
aF-3.4245518550237333
aF-4.0530061568037725
aF-4.164824751437037
aF-3.28706370767588
aF-3.1596247434070728
aF-2.48336797033628
aF-1.783463045533015
aF-4.180263409157785
aF-1.8543872413898428
aF-3.813805898742079
aF-3.2032418113846686
asS'Model'
p91
S'HKY'
p92
s.