(dp0
S'Force'
p1
NsS'ExpectedGeneconv'
p2
(dp3
(S'N0'
p4
S'N1'
p5
tp6
F41.25953949495469
s(S'N5'
p7
S'cerevisiae'
p8
tp9
F11.856539411623345
s(S'N2'
p10
S'N3'
p11
tp12
F0.004553469934040033
s(S'N4'
p13
g7
tp14
F3.4810472116543516
s(g11
S'kudriavzevii'
p15
tp16
F13.816987334421809
s(g10
S'bayanus'
p17
tp18
F14.237808027252399
s(g5
g10
tp19
F18.785492861565135
s(g5
S'castellii'
p20
tp21
F41.28896936694921
s(g7
S'paradoxus'
p22
tp23
F4.302166347294352
s(g13
S'mikatae'
p24
tp25
F16.534459024756256
s(g11
g13
tp26
F0.06870517805983777
s(g4
S'kluyveri'
p27
tp28
F0.0
ssS'newicktree'
p29
S'/Users/xji3/Genconv/PairsAlignemt/YeastTree.newick'
p30
sS'll'
p31
cnumpy.core.multiarray
scalar
p32
(cnumpy
dtype
p33
(S'f8'
p34
I0
I1
tp35
Rp36
(I3
S'<'
p37
NNNI-1
I-1
I0
tp38
bS'\x16%\x1c\xae\x98t\x94\xc0'
p39
tp40
Rp41
sS'clock'
p42
I00
sS'edge_to_blen'
p43
(dp44
g19
g32
(g36
S'\xe0w\x9d\xa8\x03?y?'
p45
tp46
Rp47
sg9
g32
(g36
S'\xdc\xb6\xfbe\xa3is?'
p48
tp49
Rp50
sg12
g32
(g36
S"'\xbc\\\xb2E\xda\xb9>"
p51
tp52
Rp53
sg14
g32
(g36
S'>\x1b.#\xffSM?'
p54
tp55
Rp56
sg16
g32
(g36
S'\xafa0\xc8\xc6tx?'
p57
tp58
Rp59
sg18
g32
(g36
S'\x0f\xed\x07{\x15\x9eq?'
p60
tp61
Rp62
sg6
g32
(g36
S'\x0e\x00R*\xa1\xaf\x93?'
p63
tp64
Rp65
sg21
g32
(g36
S'\xcc\x8e\x10\x19E_\x8d?'
p66
tp67
Rp68
sg23
g32
(g36
S'>4H\x15{\x17R?'
p69
tp70
Rp71
sg25
g32
(g36
S'\xd90\x8aq\xd2Nu?'
p72
tp73
Rp74
sg26
g32
(g36
S'\xd3p\n\xa5\rz\xf2>'
p75
tp76
Rp77
sg28
g32
(g36
S"+\x88'$K`P?"
p78
tp79
Rp80
ssS'paralog'
p81
(lp82
S'YER074W'
p83
aS'YIL069C'
p84
asS'alignment_file'
p85
S'/Users/xji3/Genconv/PairsAlignemt/YER074W_YIL069C/YER074W_YIL069C_input.fasta'
p86
sS'x_clock'
p87
(lp88
F-0.6051723195377897
aF-0.5829256176041383
aF-0.8039482773492105
aF0.1823215567939546
aF0.3364722366212129
aF-0.10536051565782628
aF-0.10536051565782628
aF-0.10536051565782628
aF-0.10536051565782628
aF-0.10536051565782628
aF-0.10536051565782628
aF-0.10536051565782628
asS'x'
p89
(lp90
F-0.7204890694054935
aF-0.5110076369745056
aF-0.8019944579012511
aF2.5984715092664734
aF4.501404140829229
aF-5.0890925146414725
aF-5.351841276469014
aF-13.383120152047445
aF-7.018661203952974
aF-5.120884114518914
aF-5.448872573874481
aF-3.9515613933009406
aF-4.2445721043514855
aF-6.808606050564487
aF-5.258688335832329
aF-10.946429305847413
aF-6.908234729584345
asS'Model'
p91
S'HKY'
p92
s.