(dp0
S'Force'
p1
NsS'ExpectedGeneconv'
p2
(dp3
(S'N1'
p4
S'N2'
p5
tp6
F418.7132552651719
s(S'N5'
p7
S'cerevisiae'
p8
tp9
F169.41230863706147
s(g5
S'N3'
p10
tp11
F95.58985506565098
s(S'N4'
p12
g7
tp13
F84.46897013172814
s(g10
S'kudriavzevii'
p14
tp15
F226.66462407137723
s(g5
S'bayanus'
p16
tp17
F172.40175123943234
s(S'N0'
p18
g4
tp19
F127.00073673843744
s(g4
S'castellii'
p20
tp21
F624.6563189139409
s(g7
S'paradoxus'
p22
tp23
F106.77083912643701
s(g18
S'kluyveri'
p24
tp25
F0.0
s(g10
g12
tp26
F97.44251761587867
s(g12
S'mikatae'
p27
tp28
F215.05823294072337
ssS'newicktree'
p29
S'/Users/xji3/Genconv/PairsAlignemt/YeastTree.newick'
p30
sS'll'
p31
cnumpy.core.multiarray
scalar
p32
(cnumpy
dtype
p33
(S'f8'
p34
I0
I1
tp35
Rp36
(I3
S'<'
p37
NNNI-1
I-1
I0
tp38
bS'u\xf7\xf6k#\xf4\xde\xc0'
p39
tp40
Rp41
sS'clock'
p42
I00
sS'edge_to_blen'
p43
(dp44
g19
g32
(g36
S'Z\x1f\xdd\xcfE\x19\xc4?'
p45
tp46
Rp47
sg9
g32
(g36
S'\xd0\xb8\xf9\x15KO\xb1?'
p48
tp49
Rp50
sg11
g32
(g36
S'\xec\x98\xda^\xa7z\xa6?'
p51
tp52
Rp53
sg13
g32
(g36
S'\xc2\x82Do\xb7\x9d\xa0?'
p54
tp55
Rp56
sg15
g32
(g36
S'tZ\xf1\xe4\xa9\x89\xb7?'
p57
tp58
Rp59
sg17
g32
(g36
S'\x12F(\xc8\x1fR\xb4?'
p60
tp61
Rp62
sg6
g32
(g36
S'\tj)\x18\x84\x92\xcd?'
p63
tp64
Rp65
sg21
g32
(g36
S'w\xb6\x19BX\x93\xd3?'
p66
tp67
Rp68
sg23
g32
(g36
S'\xcc\xa2\xc6\xaale\xa7?'
p69
tp70
Rp71
sg25
g32
(g36
S'_\xc2PP<o\xcb?'
p72
tp73
Rp74
sg26
g32
(g36
S'\xe1\x0fS\xd2\xd6n\xa4?'
p75
tp76
Rp77
sg28
g32
(g36
S'\x84\xdb\xc2\ri?\xb7?'
p78
tp79
Rp80
ssS'paralog'
p81
(lp82
S'YGL133W'
p83
aS'YPL216W'
p84
asS'alignment_file'
p85
S'/Users/xji3/Genconv/PairsAlignemt/YGL133W_YPL216W/YGL133W_YPL216W_input.fasta'
p86
sS'x_clock'
p87
(lp88
F-0.5867502110282133
aF-0.45573602852282474
aF-0.9702885393599554
aF0.1823215567939546
aF0.3364722366212129
aF-0.10536051565782628
aF-0.10536051565782628
aF-0.10536051565782628
aF-0.10536051565782628
aF-0.10536051565782628
aF-0.10536051565782628
aF-0.10536051565782628
asS'x'
p89
(lp90
F-0.6278689388954547
aF-0.452787599480549
aF-0.9011861361824057
aF1.2490674167534082
aF-1.6359746325107243
aF-1.8513740580372666
aF-2.693908126298983
aF-3.12573790810391
aF-3.4279537093689423
aF-2.3865719873484696
aF-2.5335325778165574
aF-1.465191201321135
aF-1.1846009548844063
aF-3.0857514630199168
aF-1.540228405811995
aF-3.221175076612344
aF-2.3989713821671717
asS'Model'
p91
S'HKY'
p92
s.