(dp0
S'Force'
p1
NsS'ExpectedGeneconv'
p2
(dp3
(S'N1'
p4
S'N2'
p5
tp6
F16.6845799497487
s(S'N5'
p7
S'cerevisiae'
p8
tp9
F14.4100009303737
s(g5
S'N3'
p10
tp11
F3.8980942273801182
s(S'N4'
p12
g7
tp13
F4.223652710431971
s(g10
S'kudriavzevii'
p14
tp15
F12.536871734003054
s(g5
S'bayanus'
p16
tp17
F24.126267032638555
s(S'N0'
p18
g4
tp19
F29.9301182523335
s(g4
S'castellii'
p20
tp21
F35.97521661038777
s(g7
S'paradoxus'
p22
tp23
F5.005190892693928
s(g12
S'mikatae'
p24
tp25
F8.114091378098696
s(g10
g12
tp26
F4.762814678761753
s(g18
S'kluyveri'
p27
tp28
F0.0
ssS'newicktree'
p29
S'/Users/xji3/Genconv/PairsAlignemt/YeastTree.newick'
p30
sS'll'
p31
cnumpy.core.multiarray
scalar
p32
(cnumpy
dtype
p33
(S'f8'
p34
I0
I1
tp35
Rp36
(I3
S'<'
p37
NNNI-1
I-1
I0
tp38
bS'eK\x05\x7f:E\x97\xc0'
p39
tp40
Rp41
sS'clock'
p42
I00
sS'edge_to_blen'
p43
(dp44
g19
g32
(g36
S"\xb5A\x0f\xcd '\x98?"
p45
tp46
Rp47
sg9
g32
(g36
S'k!XS\xe2\xces?'
p48
tp49
Rp50
sg11
g32
(g36
S'\x83k\xc4\x17It]?'
p51
tp52
Rp53
sg13
g32
(g36
S'\xe3j\xc3\xa4\x068R?'
p54
tp55
Rp56
sg15
g32
(g36
S'\xfe\xe5\x93\x1b\x969s?'
p57
tp58
Rp59
sg17
g32
(g36
S'\xb6!\xb3\x04:\xf1~?'
p60
tp61
Rp62
sg6
g32
(g36
S'\xda\xb2q\xe9\x19\xc0~?'
p63
tp64
Rp65
sg21
g32
(g36
S'7[V.\tK\x8e?'
p66
tp67
Rp68
sg23
g32
(g36
S'?z\xee84\x12a?'
p69
tp70
Rp71
sg25
g32
(g36
S'\x84\xech\xa8\x89\xb7q?'
p72
tp73
Rp74
sg26
g32
(g36
S'\xa1\xcc\xd9#\xd1\xe5`?'
p75
tp76
Rp77
sg28
g32
(g36
S'\x00\x10\xef\xfct\xff\x9a>'
p78
tp79
Rp80
ssS'paralog'
p81
(lp82
S'YBL087C'
p83
aS'YER117W'
p84
asS'alignment_file'
p85
S'/Users/xji3/Genconv/PairsAlignemt/YBL087C_YER117W/YBL087C_YER117W_input.fasta'
p86
sS'x_clock'
p87
(lp88
F-0.6429587448535277
aF-0.704964686037494
aF-0.9002402796574029
aF0.1823215567939546
aF0.3364722366212129
aF-0.10536051565782628
aF-0.10536051565782628
aF-0.10536051565782628
aF-0.10536051565782628
aF-0.10536051565782628
aF-0.10536051565782628
aF-0.10536051565782628
asS'x'
p89
(lp90
F-0.7718818845958271
aF-0.6740094914687343
aF-0.9036517238360801
aF2.303379976797366
aF3.6889047433629245
aF-3.7470696579531575
aF-5.331673154227072
aF-6.3212226448043385
aF-6.801603680069558
aF-5.3615574231327745
aF-4.885642260325702
aF-4.891863314530576
aF-4.21369873049981
aF-6.173525824276666
aF-5.443244683246517
aF-6.183734499296537
aF-14.7260683929158
asS'Model'
p91
S'HKY'
p92
s.