(dp0
S'Force'
p1
NsS'ExpectedGeneconv'
p2
(dp3
(S'N1'
p4
S'N2'
p5
tp6
F88.49105489526758
s(S'N5'
p7
S'cerevisiae'
p8
tp9
F30.859051734926986
s(g5
S'N3'
p10
tp11
F10.593971796416643
s(S'N4'
p12
g7
tp13
F20.10295591873188
s(g4
S'castellii'
p14
tp15
F161.90159483545685
s(g5
S'bayanus'
p16
tp17
F68.62177723110784
s(S'N0'
p18
g4
tp19
F9.87792892117393
s(g10
S'kudriavzevii'
p20
tp21
F42.92608028775655
s(g7
S'paradoxus'
p22
tp23
F31.43619903456477
s(g12
S'mikatae'
p24
tp25
F47.73657492521321
s(g10
g12
tp26
F16.435255430758517
s(g18
S'kluyveri'
p27
tp28
F0.0
ssS'newicktree'
p29
S'/Users/xji3/Genconv/PairsAlignemt/YeastTree.newick'
p30
sS'll'
p31
cnumpy.core.multiarray
scalar
p32
(cnumpy
dtype
p33
(S'f8'
p34
I0
I1
tp35
Rp36
(I3
S'<'
p37
NNNI-1
I-1
I0
tp38
bS'\xd9\x037\x01,\xfd\xc2\xc0'
p39
tp40
Rp41
sS'clock'
p42
I01
sS'edge_to_blen'
p43
(dp44
g19
g32
(g36
S'f\x91t}\x9f\xc2\xb2?'
p45
tp46
Rp47
sg9
g32
(g36
S'\xb1\x1d\xed\xb5<N\xa1?'
p48
tp49
Rp50
sg11
g32
(g36
S'\xca=\xa6~\xd8J\x90?'
p51
tp52
Rp53
sg13
g32
(g36
S'\xcd@\xd1Uv\xd4\x94?'
p54
tp55
Rp56
sg15
g32
(g36
S's\xb1\xa7Q\x04\xd0\xd1?'
p57
tp58
Rp59
sg17
g32
(g36
S'\x93\xe7F\xe0-.\xb6?'
p60
tp61
Rp62
sg6
g32
(g36
S'\x1d\xef+\xb3\xf1\x88\xc8?'
p63
tp64
Rp65
sg21
g32
(g36
S' X\x9d\xc0w\x1b\xb2?'
p66
tp67
Rp68
sg23
g32
(g36
S'\xb1\x1d\xed\xb5<N\xa1?'
p69
tp70
Rp71
sg25
g32
(g36
S'\x17\xbe\xd5\xe0w\xb8\xab?'
p72
tp73
Rp74
sg26
g32
(g36
S'O\xe4\xc9@\xef\xfc\x90?'
p75
tp76
Rp77
sg28
g32
(g36
S'\xcd\xd5\x041\xac\x80\xd6?'
p78
tp79
Rp80
ssS'paralog'
p81
(lp82
S'YDR438W'
p83
aS'YML018C'
p84
asS'alignment_file'
p85
S'/Users/xji3/Genconv/PairsAlignemt/YDR438W_YML018C/YDR438W_YML018C_input.fasta'
p86
sS'x_clock'
p87
(lp88
F-0.7633815781415422
aF-0.5563305639462164
aF-0.9394588943114655
aF1.2417813953293402
aF-1.6471709063680333
aF-1.045251006145963
aF0.0
aF-0.2337279194203666
aF-1.1669900658425962
aF-0.2028935006263439
aF-0.2672870643443777
aF-0.47114411858182964
asS'x'
p89
(lp90
F-0.7633815781415422
aF-0.5563305639462164
aF-0.9394588943114655
aF1.2417813953293402
aF-1.6471709063680333
aF-2.6134373813083283
aF-3.387293674961477
aF-4.140775154284992
aF-3.895080879558004
aF-1.2789789255663297
aF-2.4459689914089258
aF-1.651932119442089
aF-2.6488624920352697
aF-3.387293674961477
aF-2.9161495563796476
aF-4.0989630795935454
aF-1.045251006145963
asS'Model'
p91
S'HKY'
p92
s.