(dp0
S'Force'
p1
NsS'ExpectedGeneconv'
p2
(dp3
(S'N1'
p4
S'N2'
p5
tp6
F112.93851797206698
s(S'N5'
p7
S'cerevisiae'
p8
tp9
F43.80504336511085
s(g5
S'N3'
p10
tp11
F14.21574935708834
s(S'N4'
p12
g7
tp13
F17.498573644130765
s(g4
S'castellii'
p14
tp15
F179.3932318357014
s(g5
S'bayanus'
p16
tp17
F61.35304760896041
s(S'N0'
p18
g4
tp19
F68.45428694708245
s(g10
S'kudriavzevii'
p20
tp21
F41.47072050741551
s(g7
S'paradoxus'
p22
tp23
F20.692086537466533
s(g12
S'mikatae'
p24
tp25
F45.0712882172574
s(g10
g12
tp26
F17.15379045744504
s(g18
S'kluyveri'
p27
tp28
F0.0
ssS'newicktree'
p29
S'/Users/xji3/Genconv/PairsAlignemt/YeastTree.newick'
p30
sS'll'
p31
cnumpy.core.multiarray
scalar
p32
(cnumpy
dtype
p33
(S'f8'
p34
I0
I1
tp35
Rp36
(I3
S'<'
p37
NNNI-1
I-1
I0
tp38
bS'\x83mK\xe3-E\xb9\xc0'
p39
tp40
Rp41
sS'clock'
p42
I00
sS'edge_to_blen'
p43
(dp44
g19
g32
(g36
S'\xe2$\xcae\xef\xdf\xbb?'
p45
tp46
Rp47
sg9
g32
(g36
S'\xf4`~\xb3\xe8\xed\x9b?'
p48
tp49
Rp50
sg11
g32
(g36
S'\x92\xcd\xfe\x85(\xf6\x86?'
p51
tp52
Rp53
sg13
g32
(g36
S'\xb5\xfe\x1c\xe2\x18\xe5\x87?'
p54
tp55
Rp56
sg15
g32
(g36
S'\xb6\x89\r\x8c8\x14\xc1?'
p57
tp58
Rp59
sg17
g32
(g36
S'\x1f\xec\xcd\xa9\xb8\xe7\xa4?'
p60
tp61
Rp62
sg6
g32
(g36
S'\x12\xc2W!x\xe8\xb6?'
p63
tp64
Rp65
sg21
g32
(g36
S'\xdc\xba4s\x95)\x9d?'
p66
tp67
Rp68
sg23
g32
(g36
S'\x1d\xa6A\xe7\xe0\xd0\x87?'
p69
tp70
Rp71
sg25
g32
(g36
S'\xe4quw\x9aY\xa1?'
p72
tp73
Rp74
sg26
g32
(g36
S'\xc9\x99Sc|\x80\x87?'
p75
tp76
Rp77
sg28
g32
(g36
S'\xcdX\x91\xe9u\xc4\xa9?'
p78
tp79
Rp80
ssS'paralog'
p81
(lp82
S'YPL232W'
p83
aS'YMR183C'
p84
asS'alignment_file'
p85
S'/Users/xji3/Genconv/PairsAlignemt/YPL232W_YMR183C/YPL232W_YMR183C_input.fasta'
p86
sS'x_clock'
p87
(lp88
F-0.5352633580593684
aF-0.511799258832272
aF-0.7455034961994331
aF0.1823215567939546
aF0.3364722366212129
aF-0.10536051565782628
aF-0.10536051565782628
aF-0.10536051565782628
aF-0.10536051565782628
aF-0.10536051565782628
aF-0.10536051565782628
aF-0.10536051565782628
asS'x'
p89
(lp90
F-0.6336089528589877
aF-0.48078032208487187
aF-0.7727421910447763
aF1.5281063403761437
aF0.7163918394742437
aF-2.2174563028941057
aF-3.601794343303303
aF-4.49079765401141
aF-4.450953481345341
aF-2.0141813372688917
aF-3.198328535395114
aF-2.413687624929485
aF-3.558590339659951
aF-4.454264228056847
aF-3.3847313564674995
aF-4.46753780188057
aF-2.9892135588034394
asS'Model'
p91
S'HKY'
p92
s.