(dp0
S'Force'
p1
NsS'ExpectedGeneconv'
p2
(dp3
(S'N0'
p4
S'N1'
p5
tp6
F27.556250090577695
s(S'N5'
p7
S'cerevisiae'
p8
tp9
F90.62392286364489
s(S'N2'
p10
S'N3'
p11
tp12
F27.206347365045623
s(S'N4'
p13
g7
tp14
F59.83815652894443
s(g11
S'kudriavzevii'
p15
tp16
F150.6024825578375
s(g10
S'bayanus'
p17
tp18
F214.90747643551754
s(g5
g10
tp19
F405.1948941245331
s(g5
S'castellii'
p20
tp21
F618.7984457908111
s(g7
S'paradoxus'
p22
tp23
F83.5555038082497
s(g4
S'kluyveri'
p24
tp25
F0.0
s(g11
g13
tp26
F39.736477640308934
s(g13
S'mikatae'
p27
tp28
F147.6325501368175
ssS'newicktree'
p29
S'/Users/xji3/Genconv/PairsAlignemt/YeastTree.newick'
p30
sS'll'
p31
cnumpy.core.multiarray
scalar
p32
(cnumpy
dtype
p33
(S'f8'
p34
I0
I1
tp35
Rp36
(I3
S'<'
p37
NNNI-1
I-1
I0
tp38
bS'\xf6\xbf\x85\xa0\x88\x9f\xd9\xc0'
p39
tp40
Rp41
sS'clock'
p42
I01
sS'edge_to_blen'
p43
(dp44
g19
g32
(g36
S'\xf2&m\x92\x0e\xe4\xd0?'
p45
tp46
Rp47
sg9
g32
(g36
S' b\xd8\x04D\xbb\xa1?'
p48
tp49
Rp50
sg12
g32
(g36
S'XK\x87\x196\xca\x8c?'
p51
tp52
Rp53
sg14
g32
(g36
S'"\xdeS\xb8\x12\xae\x98?'
p54
tp55
Rp56
sg16
g32
(g36
S'v\x1c\x1f\xcf\xf5(\xb3?'
p57
tp58
Rp59
sg18
g32
(g36
S'\xe1\x05P\x92<\xc2\xb6?'
p60
tp61
Rp62
sg6
g32
(g36
S'2\xfe7H\x1d\xf1\xb1?'
p63
tp64
Rp65
sg21
g32
(g36
S'j(\x01\xb7\x9d\x94\xd6?'
p66
tp67
Rp68
sg23
g32
(g36
S' b\xd8\x04D\xbb\xa1?'
p69
tp70
Rp71
sg25
g32
(g36
S"\xf6'\x0f\t\xe5\x10\xdb?"
p72
tp73
Rp74
sg26
g32
(g36
S'o\xcfwz<\x7f\x90?'
p75
tp76
Rp77
sg28
g32
(g36
S'1Q\x02aM\x12\xae?'
p78
tp79
Rp80
ssS'paralog'
p81
(lp82
S'YIR033W'
p83
aS'YKL020C'
p84
asS'alignment_file'
p85
S'/Users/xji3/Genconv/PairsAlignemt/YIR033W_YKL020C/YIR033W_YKL020C_input.fasta'
p86
sS'x_clock'
p87
(lp88
F-0.6874575128437931
aF-0.4620676027692603
aF-0.8402382022020809
aF1.2304927015571854
aF-1.183351820299602
aF-0.8606049477298381
aF0.0
aF-0.18119003698155803
aF-1.378433355202692
aF-0.17212429294523413
aF-0.24239433864917323
aF-0.5282345603797723
asS'x'
p89
(lp90
F-0.6874575128437931
aF-0.4620676027692603
aF-0.8402382022020809
aF1.2304927015571854
aF-1.183351820299602
aF-1.3321111850157237
aF-3.3629815318882677
aF-4.26459477191363
aF-3.7254796946915154
aF-2.592352632859322
aF-2.420228339914088
aF-2.658041301128871
aF-1.041794984711396
aF-3.3629815318882677
aF-0.8606049477298381
aF-4.128292254556445
aF-2.8347469715084954
asS'Model'
p91
S'HKY'
p92
s.