(dp0
S'Force'
p1
NsS'ExpectedGeneconv'
p2
(dp3
(S'N1'
p4
S'N2'
p5
tp6
F360.27235578191284
s(S'N5'
p7
S'cerevisiae'
p8
tp9
F201.5015690974565
s(g5
S'N3'
p10
tp11
F82.95299754979379
s(S'N4'
p12
g7
tp13
F102.0178242281257
s(g4
S'castellii'
p14
tp15
F461.51728092535757
s(g5
S'bayanus'
p16
tp17
F325.1097335536832
s(S'N0'
p18
g4
tp19
F627.094028223739
s(g10
S'kudriavzevii'
p20
tp21
F265.94465372405136
s(g7
S'paradoxus'
p22
tp23
F114.68545654968767
s(g12
S'mikatae'
p24
tp25
F246.25521675736238
s(g10
g12
tp26
F110.22279521879453
s(g18
S'kluyveri'
p27
tp28
F0.0
ssS'newicktree'
p29
S'/Users/xji3/Genconv/PairsAlignemt/YeastTree.newick'
p30
sS'll'
p31
cnumpy.core.multiarray
scalar
p32
(cnumpy
dtype
p33
(S'f8'
p34
I0
I1
tp35
Rp36
(I3
S'<'
p37
NNNI-1
I-1
I0
tp38
bS's\xee\xd7\xd5\x83/\xd5\xc0'
p39
tp40
Rp41
sS'clock'
p42
I00
sS'edge_to_blen'
p43
(dp44
g19
g32
(g36
S'v\x0f\x8a\x11\xc2-\xbc?'
p45
tp46
Rp47
sg9
g32
(g36
S')nK\x90\x8f\x05\x94?'
p48
tp49
Rp50
sg11
g32
(g36
S'\x93\xf6\xc5n\x84|\x82?'
p51
tp52
Rp53
sg13
g32
(g36
S'\x06\xd3\xfc\xe33z\x85?'
p54
tp55
Rp56
sg15
g32
(g36
S'\xadK\x84B0\x17\xaa?'
p57
tp58
Rp59
sg17
g32
(g36
S'\x90\x01\xfbr`\xca\x9f?'
p60
tp61
Rp62
sg6
g32
(g36
S'\x95\xf1\x14\x07\x8c\x92\xa3?'
p63
tp64
Rp65
sg21
g32
(g36
S'\x0e/\xea\xfe\xed\x0e\x9d?'
p66
tp67
Rp68
sg23
g32
(g36
S'1\xa0\xa1\xce\x11\x92\x8b?'
p69
tp70
Rp71
sg25
g32
(g36
S'\xf1\x1f\x84\xee1E\x9b?'
p72
tp73
Rp74
sg26
g32
(g36
S'Er\xa1Rx\x03\x89?'
p75
tp76
Rp77
sg28
g32
(g36
S'\x13;`\xde\xb6 \xd4>'
p78
tp79
Rp80
ssS'paralog'
p81
(lp82
S'YGL062W'
p83
aS'YBR218C'
p84
asS'alignment_file'
p85
S'/Users/xji3/Genconv/PairsAlignemt/YGL062W_YBR218C/YGL062W_YBR218C_input.fasta'
p86
sS'x_clock'
p87
(lp88
F-0.6581942422714446
aF-0.5986692573138761
aF-0.8419057479204775
aF0.1823215567939546
aF0.3364722366212129
aF-0.10536051565782628
aF-0.10536051565782628
aF-0.10536051565782628
aF-0.10536051565782628
aF-0.10536051565782628
aF-0.10536051565782628
aF-0.10536051565782628
asS'x'
p89
(lp90
F-0.7550902857469624
aF-0.5998349479942602
aF-0.789764927542171
aF1.6150283419753044
aF2.0172277123056594
aF-2.2066095628335947
aF-3.93465402854426
aF-4.707583888763165
aF-4.5576198950843345
aF-2.976750290163229
aF-3.472303226882053
aF-3.26420170314421
aF-3.562166994033606
aF-4.307869571083339
aF-3.625673858989239
aF-4.40520111902833
aF-12.247136507482693
asS'Model'
p91
S'HKY'
p92
s.