(dp0
S'Force'
p1
NsS'ExpectedGeneconv'
p2
(dp3
(S'N0'
p4
S'N1'
p5
tp6
F40.48111923204612
s(S'N5'
p7
S'cerevisiae'
p8
tp9
F9.878522131876869
s(S'N2'
p10
S'N3'
p11
tp12
F2.512069875678343
s(S'N4'
p13
g7
tp14
F3.2968240830856126
s(g11
S'kudriavzevii'
p15
tp16
F20.075097724490877
s(g10
S'bayanus'
p17
tp18
F13.289329088334787
s(g5
g10
tp19
F16.375183258785572
s(g5
S'castellii'
p20
tp21
F34.72184886286041
s(g7
S'paradoxus'
p22
tp23
F6.089174565039015
s(g13
S'mikatae'
p24
tp25
F15.916052710808168
s(g11
g13
tp26
F2.102755146149187e-06
s(g4
S'kluyveri'
p27
tp28
F0.0
ssS'newicktree'
p29
S'/Users/xji3/Genconv/PairsAlignemt/YeastTree.newick'
p30
sS'll'
p31
cnumpy.core.multiarray
scalar
p32
(cnumpy
dtype
p33
(S'f8'
p34
I0
I1
tp35
Rp36
(I3
S'<'
p37
NNNI-1
I-1
I0
tp38
bS"\xe0\xba\x0c\xd4'\xea\x96\xc0"
p39
tp40
Rp41
sS'clock'
p42
I00
sS'edge_to_blen'
p43
(dp44
g19
g32
(g36
S'<\x85\xe4\x95?\x0b~?'
p45
tp46
Rp47
sg9
g32
(g36
S'\xa1\x03\x8a\xd1JYl?'
p48
tp49
Rp50
sg12
g32
(g36
S'g\x89\xf6\xa7\xbb\xa5O?'
p51
tp52
Rp53
sg14
g32
(g36
S'$\xe4\x02\xd0\xdd\xbeR?'
p54
tp55
Rp56
sg16
g32
(g36
S'\x01\x8b\x0b\x97[\x84\x80?'
p57
tp58
Rp59
sg18
g32
(g36
S'pn}\xc8\x17\x1at?'
p60
tp61
Rp62
sg6
g32
(g36
S'\x97\xad\xe6\xach`\x9d?'
p63
tp64
Rp65
sg21
g32
(g36
S'\xeeMy\x91\x8c\x16\x8c?'
p66
tp67
Rp68
sg23
g32
(g36
S'\x95\xabj{0ec?'
p69
tp70
Rp71
sg25
g32
(g36
S'\xc9\xc4\x8f6\xae\xd6{?'
p72
tp73
Rp74
sg26
g32
(g36
S'*H\x8c\xde\xfe:!>'
p75
tp76
Rp77
sg28
g32
(g36
S'\xf6\xa7\xc72\x87\x1d\x97>'
p78
tp79
Rp80
ssS'paralog'
p81
(lp82
S'YML026C'
p83
aS'YDR450W'
p84
asS'alignment_file'
p85
S'/Users/xji3/Genconv/PairsAlignemt/YML026C_YDR450W/YML026C_YDR450W_input.fasta'
p86
sS'x_clock'
p87
(lp88
F-0.6082900286551159
aF-0.5179788899895584
aF-0.8170342027473766
aF0.1823215567939546
aF0.3364722366212129
aF-0.10536051565782628
aF-0.10536051565782628
aF-0.10536051565782628
aF-0.10536051565782628
aF-0.10536051565782628
aF-0.10536051565782628
aF-0.10536051565782628
asS'x'
p89
(lp90
F-0.7253754119475202
aF-0.5167112541281828
aF-0.8051204368726557
aF2.218198375375552
aF3.767308275738547
aF-4.915105223652215
aF-5.666328720477367
aF-6.942551880576982
aF-6.77310295846799
aF-4.820227467192207
aF-5.316950565083702
aF-3.551273461174322
aF-4.2892736136110985
aF-6.045884072363706
aF-4.991342771410932
aF-20.02717870414268
aF-14.881330045892827
asS'Model'
p91
S'HKY'
p92
s.