(dp0
S'Force'
p1
NsS'ExpectedGeneconv'
p2
(dp3
(S'N0'
p4
S'N1'
p5
tp6
F84.47441918897584
s(S'N5'
p7
S'cerevisiae'
p8
tp9
F105.75697993039286
s(S'N2'
p10
S'N3'
p11
tp12
F44.19137444541586
s(S'N4'
p13
g7
tp14
F53.51295397989714
s(g5
S'castellii'
p15
tp16
F491.18849760160947
s(g10
S'bayanus'
p17
tp18
F116.06022752027992
s(g5
g10
tp19
F260.968312931155
s(g11
S'kudriavzevii'
p20
tp21
F124.63583262913376
s(g7
S'paradoxus'
p22
tp23
F73.8255339068194
s(g4
S'kluyveri'
p24
tp25
F0.0
s(g11
g13
tp26
F67.06695465535915
s(g13
S'mikatae'
p27
tp28
F129.85746141158015
ssS'newicktree'
p29
S'/Users/xji3/Genconv/PairsAlignemt/YeastTree.newick'
p30
sS'll'
p31
cnumpy.core.multiarray
scalar
p32
(cnumpy
dtype
p33
(S'f8'
p34
I0
I1
tp35
Rp36
(I3
S'<'
p37
NNNI-1
I-1
I0
tp38
bS'P\x9e\xd8]\xe0\xa8\xd4\xc0'
p39
tp40
Rp41
sS'clock'
p42
I00
sS'edge_to_blen'
p43
(dp44
g19
g32
(g36
S'Z\x13+\xbe\xe9\x9a\xc0?'
p45
tp46
Rp47
sg9
g32
(g36
S'k\xe4T\xa11\x0e\xa2?'
p48
tp49
Rp50
sg12
g32
(g36
S'\xe9m\xc1\xbe/q\x92?'
p51
tp52
Rp53
sg14
g32
(g36
S'v\xecD\xe39\xab\x94?'
p54
tp55
Rp56
sg16
g32
(g36
S'\x08\xb2\x1d\x16\xc1\xbf\xcb?'
p57
tp58
Rp59
sg18
g32
(g36
S'Z\xd8S*\xeeT\xa5?'
p60
tp61
Rp62
sg6
g32
(g36
S'\xac\x10\xce\xd3\xf3\xbd\xb9?'
p63
tp64
Rp65
sg21
g32
(g36
S'[\xaaB\x06\xa7\x12\xa8?'
p66
tp67
Rp68
sg23
g32
(g36
S'q\x7f]\xa3\xee\x0b\x97?'
p69
tp70
Rp71
sg25
g32
(g36
S'[\xd8\xccU^s\xbb?'
p72
tp73
Rp74
sg26
g32
(g36
S'O*\xc3\xad\xdaa\x9a?'
p75
tp76
Rp77
sg28
g32
(g36
S'\x0b/\xb7Q\x07,\xa7?'
p78
tp79
Rp80
ssS'paralog'
p81
(lp82
S'YNL049C'
p83
aS'YIL109C'
p84
asS'alignment_file'
p85
S'/Users/xji3/Genconv/PairsAlignemt/YNL049C_YIL109C/YNL049C_YIL109C_input.fasta'
p86
sS'x_clock'
p87
(lp88
F-0.702905758209313
aF-0.4895840452616257
aF-0.8657106772184939
aF0.1823215567939546
aF0.3364722366212129
aF-0.10536051565782628
aF-0.10536051565782628
aF-0.10536051565782628
aF-0.10536051565782628
aF-0.10536051565782628
aF-0.10536051565782628
aF-0.10536051565782628
asS'x'
p89
(lp90
F-0.7268397050863045
aF-0.4809971088337338
aF-0.8529921472107403
aF1.2978220356811345
aF-0.1996604979301725
aF-2.0423186323814058
aF-3.3448773349570793
aF-4.016833825028312
aF-3.9028439705898457
aF-1.5288290183974451
aF-3.178127624568469
aF-2.297053476869949
aF-3.0572395148775087
aF-3.793953115123217
aF-2.232787299024203
aF-3.658780634515523
aF-3.0953805465441846
asS'Model'
p91
S'HKY'
p92
s.