(dp0
S'Force'
p1
NsS'ExpectedGeneconv'
p2
(dp3
(S'N0'
p4
S'N1'
p5
tp6
F43.570397585452724
s(S'N5'
p7
S'cerevisiae'
p8
tp9
F41.403781249938525
s(S'N2'
p10
S'N3'
p11
tp12
F26.187106250976303
s(S'N4'
p13
g7
tp14
F25.474582046604485
s(g5
S'castellii'
p15
tp16
F111.20131200215879
s(g10
S'bayanus'
p17
tp18
F60.92496849268466
s(g5
g10
tp19
F75.81035927931445
s(g11
S'kudriavzevii'
p20
tp21
F53.99279293881577
s(g7
S'paradoxus'
p22
tp23
F27.02017547041483
s(g4
S'kluyveri'
p24
tp25
F0.0
s(g11
g13
tp26
F33.85415377820386
s(g13
S'mikatae'
p27
tp28
F54.1769602426379
ssS'newicktree'
p29
S'/Users/xji3/Genconv/PairsAlignemt/YeastTree.newick'
p30
sS'll'
p31
cnumpy.core.multiarray
scalar
p32
(cnumpy
dtype
p33
(S'f8'
p34
I0
I1
tp35
Rp36
(I3
S'<'
p37
NNNI-1
I-1
I0
tp38
bS'\xd0\xd7\xca\x87\x13\xe7\xb9\xc0'
p39
tp40
Rp41
sS'clock'
p42
I00
sS'edge_to_blen'
p43
(dp44
g19
g32
(g36
S'\xd1\xc8\xfd\xb64\xfa\xac?'
p45
tp46
Rp47
sg9
g32
(g36
S'\xad\xe3\x06\xbf\\B\x92?'
p48
tp49
Rp50
sg12
g32
(g36
S'\x17\x9ff\x11$\x9e\x8e?'
p51
tp52
Rp53
sg14
g32
(g36
S'\xf0\x06\x9bJ\x0f\x19\x8c?'
p54
tp55
Rp56
sg16
g32
(g36
S'\x1f&\xfc\xffZ\xae\xb0?'
p57
tp58
Rp59
sg18
g32
(g36
S'\xe0\xb1\xc1^FD\xa0?'
p60
tp61
Rp62
sg6
g32
(g36
S'\x88K\x06\x06\xa5,\xb0?'
p63
tp64
Rp65
sg21
g32
(g36
S'\xae^\x8d\x8bAo\x9d?'
p66
tp67
Rp68
sg23
g32
(g36
S'7\xce\x9c\xbb\xed"\x8e?'
p69
tp70
Rp71
sg25
g32
(g36
S'\r\x10\xb4@\xebJ\x9d?'
p72
tp73
Rp74
sg26
g32
(g36
S'guMw\xbf\xf8\x91?'
p75
tp76
Rp77
sg28
g32
(g36
S'vw\x08oz\xc7\x9b?'
p78
tp79
Rp80
ssS'paralog'
p81
(lp82
S'YHR106W'
p83
aS'YDR353W'
p84
asS'alignment_file'
p85
S'/Users/xji3/Genconv/PairsAlignemt/YHR106W_YDR353W/YHR106W_YDR353W_input.fasta'
p86
sS'x_clock'
p87
(lp88
F-0.6339278208999742
aF-0.6097534504822344
aF-0.8024913475704643
aF0.1823215567939546
aF0.3364722366212129
aF-0.10536051565782628
aF-0.10536051565782628
aF-0.10536051565782628
aF-0.10536051565782628
aF-0.10536051565782628
aF-0.10536051565782628
aF-0.10536051565782628
asS'x'
p89
(lp90
F-0.7176433449915444
aF-0.5972773032916371
aF-0.7732128171320835
aF1.6272673098723827
aF1.1654530017135805
aF-2.8718095527248115
aF-4.02680122625124
aF-4.203039476726301
aF-4.288924516601896
aF-2.730902538304306
aF-3.4492046277048227
aF-2.7617481281790686
aF-3.5493011600803848
aF-4.218883914881245
aF-3.554135100137656
aF-4.042675090782767
aF-3.6071838365535114
asS'Model'
p91
S'HKY'
p92
s.