(dp0
S'Force'
p1
NsS'ExpectedGeneconv'
p2
(dp3
(S'N0'
p4
S'N1'
p5
tp6
F6.592527986256048
s(S'N5'
p7
S'cerevisiae'
p8
tp9
F38.11915175501446
s(S'N2'
p10
S'N3'
p11
tp12
F10.732827503315072
s(S'N4'
p13
g7
tp14
F21.059597984434667
s(g5
S'castellii'
p15
tp16
F106.0802358988701
s(g10
S'bayanus'
p17
tp18
F69.43860124015667
s(g5
g10
tp19
F35.175773717846944
s(g11
S'kudriavzevii'
p20
tp21
F56.63005069087694
s(g7
S'paradoxus'
p22
tp23
F26.900789758001768
s(g4
S'kluyveri'
p24
tp25
F0.0
s(g11
g13
tp26
F22.74728896005361
s(g13
S'mikatae'
p27
tp28
F51.52632035522831
ssS'newicktree'
p29
S'/Users/xji3/Genconv/PairsAlignemt/YeastTree.newick'
p30
sS'll'
p31
cnumpy.core.multiarray
scalar
p32
(cnumpy
dtype
p33
(S'f8'
p34
I0
I1
tp35
Rp36
(I3
S'<'
p37
NNNI-1
I-1
I0
tp38
bS'@\xc5P\x97\xac\x1c\xba\xc0'
p39
tp40
Rp41
sS'clock'
p42
I01
sS'edge_to_blen'
p43
(dp44
g19
g32
(g36
S'\x82;I\x89\x9a\xfa\xa4?'
p45
tp46
Rp47
sg9
g32
(g36
S'\x87e\xd0R\xc9\xf2\x8e?'
p48
tp49
Rp50
sg12
g32
(g36
S'\x83j\xa7,\x1d\x17}?'
p51
tp52
Rp53
sg14
g32
(g36
S'\x9e\xa4&n\xe6_\x86?'
p54
tp55
Rp56
sg16
g32
(g36
S'\xc6\xb3\xb4\xfa\xd2\xc0\xb5?'
p57
tp58
Rp59
sg18
g32
(g36
S'\x0b, l\x0b\x87\xa6?'
p60
tp61
Rp62
sg6
g32
(g36
S'>\t\x0c%\x94\xba\x9a?'
p63
tp64
Rp65
sg21
g32
(g36
S"\xba>\x8b\xc6'\xe4\xa2?"
p66
tp67
Rp68
sg23
g32
(g36
S'\x87e\xd0R\xc9\xf2\x8e?'
p69
tp70
Rp71
sg25
g32
(g36
S'\x16\xb6\xf7\x03xo\xbc?'
p72
tp73
Rp74
sg26
g32
(g36
S'\xc8\xf05Y\xef=\x86?'
p75
tp76
Rp77
sg28
g32
(g36
S'\x11\x85{\xe0W\xa9\x9a?'
p78
tp79
Rp80
ssS'paralog'
p81
(lp82
S'YHR106W'
p83
aS'YDR353W'
p84
asS'alignment_file'
p85
S'/Users/xji3/Genconv/PairsAlignemt/YHR106W_YDR353W/YHR106W_YDR353W_input.fasta'
p86
sS'x_clock'
p87
(lp88
F-0.7197150811127141
aF-0.5981201611311027
aF-0.7598055543377462
aF1.6306298734946192
aF1.0434405157129165
aF-2.1975417160155235
aF0.0
aF-0.2678739685977559
aF-0.6581713544351299
aF-0.17603969078023232
aF-0.34862460562594766
aF-0.5440468515568405
asS'x'
p89
(lp90
F-0.7197150811127141
aF-0.5981201611311027
aF-0.7598055543377462
aF1.6306298734946192
aF1.0434405157129165
aF-3.1948064754254335
aF-4.1922981870114295
aF-4.947361762447639
aF-4.516692159603359
aF-2.4654156846132795
aF-3.123587039048409
aF-3.645729309004864
aF-3.2996267298286415
aF-4.1922981870114295
aF-2.1975417160155235
aF-4.522639586294864
aF-3.648251335454589
asS'Model'
p91
S'HKY'
p92
s.