(dp0
S'Force'
p1
NsS'ExpectedGeneconv'
p2
(dp3
(S'N0'
p4
S'N1'
p5
tp6
F4.77954047323479
s(S'N5'
p7
S'cerevisiae'
p8
tp9
F37.08519249668011
s(S'N2'
p10
S'N3'
p11
tp12
F22.411057301020687
s(S'N4'
p13
g7
tp14
F29.446487967113228
s(g11
S'kudriavzevii'
p15
tp16
F44.906970493130295
s(g10
S'bayanus'
p17
tp18
F34.53610868753416
s(g5
g10
tp19
F107.36865451057709
s(g5
S'castellii'
p20
tp21
F134.93720658323414
s(g7
S'paradoxus'
p22
tp23
F26.30146195237856
s(g13
S'mikatae'
p24
tp25
F56.02540640354861
s(g11
g13
tp26
F24.16699094912822
s(g4
S'kluyveri'
p27
tp28
F0.0
ssS'newicktree'
p29
S'/Users/xji3/Genconv/PairsAlignemt/YeastTree.newick'
p30
sS'll'
p31
cnumpy.core.multiarray
scalar
p32
(cnumpy
dtype
p33
(S'f8'
p34
I0
I1
tp35
Rp36
(I3
S'<'
p37
NNNI-1
I-1
I0
tp38
bS'\xd1]\xf2K\x1ea\xbf\xc0'
p39
tp40
Rp41
sS'clock'
p42
I00
sS'edge_to_blen'
p43
(dp44
g19
g32
(g36
S'\xa1\xecI\xc0\xe9X\xd0?'
p45
tp46
Rp47
sg9
g32
(g36
S',\xbfs~\xfb\x04\xab?'
p48
tp49
Rp50
sg12
g32
(g36
S'\x15\x18\xd1A\n^\xa0?'
p51
tp52
Rp53
sg14
g32
(g36
S'\x9b\xb3[\xc5Q=\xa0?'
p54
tp55
Rp56
sg16
g32
(g36
S'k\xe1M\xfdRS\xaf?'
p57
tp58
Rp59
sg18
g32
(g36
S'c\x0f\xa4\x87|\x99\xac?'
p60
tp61
Rp62
sg6
g32
(g36
S'K\xb5n\xcep\x06\xaa?'
p63
tp64
Rp65
sg21
g32
(g36
S'[W\x00Qa\xc7\xd3?'
p66
tp67
Rp68
sg23
g32
(g36
S'\x1d\x0fl4#\x8b\xa2?'
p69
tp70
Rp71
sg25
g32
(g36
S'rn\xb1\xc7\xb4\x1b\xb3?'
p72
tp73
Rp74
sg26
g32
(g36
S'\x88\x19\xc3\x91\xf2\x8c\xa2?'
p75
tp76
Rp77
sg28
g32
(g36
S'\x04\x1c\x07\x8d\xebL\xd3?'
p78
tp79
Rp80
ssS'paralog'
p81
(lp82
S'YLR284C'
p83
aS'YOR180C'
p84
asS'alignment_file'
p85
S'/Users/xji3/Genconv/PairsAlignemt/YLR284C_YOR180C/YLR284C_YOR180C_input.fasta'
p86
sS'x_clock'
p87
(lp88
F-0.6316874575440513
aF-0.5457291485464482
aF-0.9750788058832884
aF0.1823215567939546
aF0.3364722366212129
aF-0.10536051565782628
aF-0.10536051565782628
aF-0.10536051565782628
aF-0.10536051565782628
aF-0.10536051565782628
aF-0.10536051565782628
aF-0.10536051565782628
asS'x'
p89
(lp90
F-0.6736928995224735
aF-0.5572241221808432
aF-0.892850735648459
aF1.2573722757816006
aF-1.2578367510893231
aF-1.3648193120742496
aF-2.941767185629477
aF-3.443036494170262
aF-3.450876294705662
aF-2.7938926393393992
aF-2.884933416960934
aF-2.979260909165808
aF-1.1742709762797596
aF-3.3182049817964945
aF-2.5950584569005652
aF-3.317823768271807
aF-1.1987536757578405
asS'Model'
p91
S'HKY'
p92
s.