(dp0
S'Force'
p1
NsS'ExpectedGeneconv'
p2
(dp3
(S'N0'
p4
S'N1'
p5
tp6
F31.19301873556857
s(S'N5'
p7
S'cerevisiae'
p8
tp9
F27.621806766509955
s(S'N2'
p10
S'N3'
p11
tp12
F5.642684776258659
s(S'N4'
p13
g7
tp14
F2.22195177616176
s(g11
S'kudriavzevii'
p15
tp16
F24.55835093209387
s(g10
S'bayanus'
p17
tp18
F25.431322521814007
s(g5
g10
tp19
F9.365028564931931
s(g5
S'castellii'
p20
tp21
F62.61107225070532
s(g7
S'paradoxus'
p22
tp23
F11.357742378733574
s(g4
S'kluyveri'
p24
tp25
F0.0
s(g11
g13
tp26
F6.110193603299149
s(g13
S'mikatae'
p27
tp28
F15.120495675417281
ssS'newicktree'
p29
S'/Users/xji3/Genconv/PairsAlignemt/YeastTree.newick'
p30
sS'll'
p31
cnumpy.core.multiarray
scalar
p32
(cnumpy
dtype
p33
(S'f8'
p34
I0
I1
tp35
Rp36
(I3
S'<'
p37
NNNI-1
I-1
I0
tp38
bS'1\xa0\x88\xe5-\x97\xa1\xc0'
p39
tp40
Rp41
sS'clock'
p42
I00
sS'edge_to_blen'
p43
(dp44
g19
g32
(g36
S'P\x9e\xc0\xef\xe1\x1bt?'
p45
tp46
Rp47
sg9
g32
(g36
S'\xef\xfc\xab\xa9\xc7\xf4\x82?'
p48
tp49
Rp50
sg12
g32
(g36
S'\xde (\xb6\x8e\xf1c?'
p51
tp52
Rp53
sg14
g32
(g36
S'\xe1\xc7\xab\xfe57M?'
p54
tp55
Rp56
sg16
g32
(g36
S'?\x1e\xc8\xa4M\x94\x88?'
p57
tp58
Rp59
sg18
g32
(g36
S'\x0b7$\xbap\x9c\x84?'
p60
tp61
Rp62
sg6
g32
(g36
S'\xa8\x0e\xe0+0\x93\x9b?'
p63
tp64
Rp65
sg21
g32
(g36
S'\x1e Is7O\x9d?'
p66
tp67
Rp68
sg23
g32
(g36
S'~-\xf8.\x95\x8c|?'
p69
tp70
Rp71
sg25
g32
(g36
S'\x16z\xaf\n\xc7\xc4s?'
p72
tp73
Rp74
sg26
g32
(g36
S'\xdf/\x00%\xba.l?'
p75
tp76
Rp77
sg28
g32
(g36
S'~\xed\xffz\xf6\xd3\x80?'
p78
tp79
Rp80
ssS'paralog'
p81
(lp82
S'YNL301C'
p83
aS'YOL120C'
p84
asS'alignment_file'
p85
S'/Users/xji3/Genconv/PairsAlignemt/YNL301C_YOL120C/YNL301C_YOL120C_input.fasta'
p86
sS'x_clock'
p87
(lp88
F-0.6581984795146941
aF-0.5924300164520414
aF-0.821708505512958
aF0.1823215567939546
aF0.3364722366212129
aF-0.10536051565782628
aF-0.10536051565782628
aF-0.10536051565782628
aF-0.10536051565782628
aF-0.10536051565782628
aF-0.10536051565782628
aF-0.10536051565782628
asS'x'
p89
(lp90
F-0.7375591616786935
aF-0.5751218971117804
aF-0.7944075168532635
aF1.9898561440069953
aF3.2398351473348788
aF-5.316602854595931
aF-4.682489428905941
aF-6.018005866927782
aF-7.022502579825015
aF-4.4227139642501
aF-4.598789459273562
aF-3.614563916361849
aF-3.5535621621149365
aF-4.966138955781798
aF-5.333668203251706
aF-5.672211141489736
aF-4.801576024171815
asS'Model'
p91
S'HKY'
p92
s.