(dp0
S'Force'
p1
NsS'ExpectedGeneconv'
p2
(dp3
(S'N1'
p4
S'N2'
p5
tp6
F220.87184587694406
s(S'N5'
p7
S'cerevisiae'
p8
tp9
F68.4196989209799
s(g5
S'N3'
p10
tp11
F47.54459996523594
s(S'N4'
p12
g7
tp13
F41.14040763756017
s(g4
S'castellii'
p14
tp15
F306.9536381631274
s(g5
S'bayanus'
p16
tp17
F118.41873525960621
s(S'N0'
p18
g4
tp19
F72.24814400175052
s(g10
S'kudriavzevii'
p20
tp21
F106.00934204082985
s(g7
S'paradoxus'
p22
tp23
F60.142279939716424
s(g12
S'mikatae'
p24
tp25
F126.36339145664893
s(g10
g12
tp26
F39.22641403035232
s(g18
S'kluyveri'
p27
tp28
F0.0
ssS'newicktree'
p29
S'/Users/xji3/Genconv/PairsAlignemt/YeastTree.newick'
p30
sS'll'
p31
cnumpy.core.multiarray
scalar
p32
(cnumpy
dtype
p33
(S'f8'
p34
I0
I1
tp35
Rp36
(I3
S'<'
p37
NNNI-1
I-1
I0
tp38
bS'\x85\\\tD\xf1\xcc\xce\xc0'
p39
tp40
Rp41
sS'clock'
p42
I00
sS'edge_to_blen'
p43
(dp44
g19
g32
(g36
S'N\x0b\xf8\xa9P\x91\xb5?'
p45
tp46
Rp47
sg9
g32
(g36
S'X\xb9\n\xb5\x00\xe1\x9b?'
p48
tp49
Rp50
sg11
g32
(g36
S'\xf4cF^0\xa0\x95?'
p51
tp52
Rp53
sg13
g32
(g36
S'P\x8be\xf7&Q\x8f?'
p54
tp55
Rp56
sg15
g32
(g36
S'\xb2\xee\x8a\xc24\xe4\xc1?'
p57
tp58
Rp59
sg17
g32
(g36
S'V;z]9\xd4\xa6?'
p60
tp61
Rp62
sg6
g32
(g36
S'Uk2\x05\xa9\xbe\xbb?'
p63
tp64
Rp65
sg21
g32
(g36
S'\xecU2j^\xba\xa4?'
p66
tp67
Rp68
sg23
g32
(g36
S'\xeam\x1b\x89\x15J\x94?'
p69
tp70
Rp71
sg25
g32
(g36
S'\xe9\xd6\x99O\xfb\x97\xa5?'
p72
tp73
Rp74
sg26
g32
(g36
S'|b0\xb2`\x81\x91?'
p75
tp76
Rp77
sg28
g32
(g36
S'\x83\xf3/\xd5\x05\x8d\xc2?'
p78
tp79
Rp80
ssS'paralog'
p81
(lp82
S'YPR159W'
p83
aS'YGR143W'
p84
asS'alignment_file'
p85
S'/Users/xji3/Genconv/PairsAlignemt/YPR159W_YGR143W/YPR159W_YGR143W_input.fasta'
p86
sS'x_clock'
p87
(lp88
F-0.6827832045874571
aF-0.5347227581797637
aF-0.9200660102601093
aF0.1823215567939546
aF0.3364722366212129
aF-0.10536051565782628
aF-0.10536051565782628
aF-0.10536051565782628
aF-0.10536051565782628
aF-0.10536051565782628
aF-0.10536051565782628
aF-0.10536051565782628
asS'x'
p89
(lp90
F-0.738127053685483
aF-0.5200989834906508
aF-0.8049464694940646
aF1.2857928807333103
aF0.47932753277716994
aF-2.473983536483304
aF-3.6036010640434273
aF-3.857587624295655
aF-4.180457878562773
aF-1.9677084337256048
aF-3.1102929533379124
aF-2.2221302150418762
aF-3.206839029522672
aF-3.9213736617342994
aF-3.165924017506163
aF-4.068963445395599
aF-1.9315135621714876
asS'Model'
p91
S'HKY'
p92
s.