(dp0
S'Force'
p1
NsS'ExpectedGeneconv'
p2
(dp3
(S'N0'
p4
S'N1'
p5
tp6
F8.530321192008849
s(S'N5'
p7
S'cerevisiae'
p8
tp9
F77.76175249212075
s(S'N2'
p10
S'N3'
p11
tp12
F38.092701103566654
s(S'N4'
p13
g7
tp14
F28.152552947583835
s(g11
S'kudriavzevii'
p15
tp16
F71.89968272172177
s(g10
S'bayanus'
p17
tp18
F67.18768069100703
s(g5
g10
tp19
F133.16735874391438
s(g5
S'castellii'
p20
tp21
F221.5265195314414
s(g7
S'paradoxus'
p22
tp23
F49.81090683579364
s(g13
S'mikatae'
p24
tp25
F98.27147184219292
s(g11
g13
tp26
F38.679409301330395
s(g4
S'kluyveri'
p27
tp28
F0.0
ssS'newicktree'
p29
S'/Users/xji3/Genconv/PairsAlignemt/YeastTree.newick'
p30
sS'll'
p31
cnumpy.core.multiarray
scalar
p32
(cnumpy
dtype
p33
(S'f8'
p34
I0
I1
tp35
Rp36
(I3
S'<'
p37
NNNI-1
I-1
I0
tp38
bS'\x94\xa2\xcc\x19\x8d^\xcd\xc0'
p39
tp40
Rp41
sS'clock'
p42
I00
sS'edge_to_blen'
p43
(dp44
g19
g32
(g36
S'\xbd\xc58\x93:c\xbd?'
p45
tp46
Rp47
sg9
g32
(g36
S'{\xc5F)X!\x9b?'
p48
tp49
Rp50
sg12
g32
(g36
S'\xecDe\xc7\xec\xaf\x93?'
p51
tp52
Rp53
sg14
g32
(g36
S'\x99\xc6\x9bY\xdfC\x8a?'
p54
tp55
Rp56
sg16
g32
(g36
S'\xf99\x0b\x97\xb5\x05\xa1?'
p57
tp58
Rp59
sg18
g32
(g36
S'H\xb9\x8c\xfdN\x1d\xa0?'
p60
tp61
Rp62
sg6
g32
(g36
S'\xb3\x90\xc3\x13k?\x9e?'
p63
tp64
Rp65
sg21
g32
(g36
S'\x17\xadw\xfb\x7fh\xc3?'
p66
tp67
Rp68
sg23
g32
(g36
S'\x049LW\x9a\xc2\x94?'
p69
tp70
Rp71
sg25
g32
(g36
S'\xdd\xc4\xc9\xdf\xca\xab\xa3?'
p72
tp73
Rp74
sg26
g32
(g36
S'\xa3K\x0bh\xea@\x91?'
p75
tp76
Rp77
sg28
g32
(g36
S'\x96\xfcB@\xa3?\xb2?'
p78
tp79
Rp80
ssS'paralog'
p81
(lp82
S'YBR117C'
p83
aS'YPR074C'
p84
asS'alignment_file'
p85
S'/Users/xji3/Genconv/PairsAlignemt/YBR117C_YPR074C/YBR117C_YPR074C_input.fasta'
p86
sS'x_clock'
p87
(lp88
F-0.6947321463621419
aF-0.5994107274100917
aF-0.790416963041395
aF0.1823215567939546
aF0.3364722366212129
aF-0.10536051565782628
aF-0.10536051565782628
aF-0.10536051565782628
aF-0.10536051565782628
aF-0.10536051565782628
aF-0.10536051565782628
aF-0.10536051565782628
asS'x'
p89
(lp90
F-0.7602969348705289
aF-0.5693731739862414
aF-0.7887628452193642
aF1.3828853134459558
aF-0.019289352397457278
aF-2.164604201276027
aF-3.6308224093915644
aF-3.9515027864390238
aF-4.356376904007895
aF-3.4038002528895146
aF-3.4586059720056217
aF-3.5220507439954445
aF-1.886334459647595
aF-3.898435676194322
aF-3.259175883060069
aF-4.083452335317012
aF-2.641089914695758
asS'Model'
p91
S'HKY'
p92
s.