(dp0
S'Force'
p1
NsS'ExpectedGeneconv'
p2
(dp3
(S'N0'
p4
S'N1'
p5
tp6
F8.606998441960252
s(S'N5'
p7
S'cerevisiae'
p8
tp9
F57.65582785612722
s(S'N2'
p10
S'N3'
p11
tp12
F24.077273990467287
s(S'N4'
p13
g7
tp14
F33.42175619925093
s(g5
S'castellii'
p15
tp16
F269.19466379004416
s(g10
S'bayanus'
p17
tp18
F77.23400764462528
s(g5
g10
tp19
F215.52378165082442
s(g11
S'kudriavzevii'
p20
tp21
F74.16501618804969
s(g7
S'paradoxus'
p22
tp23
F46.60160127885165
s(g13
S'mikatae'
p24
tp25
F76.43827484776682
s(g11
g13
tp26
F46.17763593961675
s(g4
S'kluyveri'
p27
tp28
F0.0
ssS'newicktree'
p29
S'/Users/xji3/Genconv/PairsAlignemt/YeastTree.newick'
p30
sS'll'
p31
cnumpy.core.multiarray
scalar
p32
(cnumpy
dtype
p33
(S'f8'
p34
I0
I1
tp35
Rp36
(I3
S'<'
p37
NNNI-1
I-1
I0
tp38
bS'\xd8\xcc\x98\xb6\xaa\x8b\xca\xc0'
p39
tp40
Rp41
sS'clock'
p42
I00
sS'edge_to_blen'
p43
(dp44
g19
g32
(g36
S'\xa0{s\xban~\xd0?'
p45
tp46
Rp47
sg9
g32
(g36
S'\x8b-\x8c\x8e4\xa5\xa0?'
p48
tp49
Rp50
sg12
g32
(g36
S'L\x90\xff\xb2\xe0E\x97?'
p51
tp52
Rp53
sg14
g32
(g36
S'\x1c;.\xec(\xfd\x95?'
p54
tp55
Rp56
sg16
g32
(g36
S'\xb7E\xd7\x8f\xaa\xf9\xd0?'
p57
tp58
Rp59
sg18
g32
(g36
S'\xf9\xa2\xac\xf3%\x1e\xae?'
p60
tp61
Rp62
sg6
g32
(g36
S':m!\x9dE\x98\xa7?'
p63
tp64
Rp65
sg21
g32
(g36
S'\xfc\xa0\xa5\xf4\x1e\xf3\xa7?'
p66
tp67
Rp68
sg23
g32
(g36
S'\x81\xf2\xa3\xe3\xa4\xd6\x9c?'
p69
tp70
Rp71
sg25
g32
(g36
S'5\xaf\xbe)\xf0\x88\xa9?'
p72
tp73
Rp74
sg26
g32
(g36
S'\xec\xd5\xf7\x95\x9b\xcb\x9a?'
p75
tp76
Rp77
sg28
g32
(g36
S'\xea\xcb\x92\x1b\x18\xe3\xc5?'
p78
tp79
Rp80
ssS'paralog'
p81
(lp82
S'YDR518W'
p83
aS'YCL043C'
p84
asS'alignment_file'
p85
S'/Users/xji3/Genconv/PairsAlignemt/YDR518W_YCL043C/YDR518W_YCL043C_input.fasta'
p86
sS'x_clock'
p87
(lp88
F-0.7004188146746013
aF-0.5340398610927587
aF-0.7724249528332213
aF0.1823215567939546
aF0.3364722366212129
aF-0.10536051565782628
aF-0.10536051565782628
aF-0.10536051565782628
aF-0.10536051565782628
aF-0.10536051565782628
aF-0.10536051565782628
aF-0.10536051565782628
asS'x'
p89
(lp90
F-0.7380957462165447
aF-0.5128838908367589
aF-0.7636213650668046
aF1.2863705941795418
aF-0.9207612389984254
aF-1.355893857374194
aF-3.4261947359774645
aF-3.7841796387858766
aF-3.840933766753903
aF-1.32712616303693
aF-2.8332093749460765
aF-3.0772977582671714
aF-3.0623691991459845
aF-3.5697621177192067
aF-2.9982779094701613
aF-3.643243709261794
aF-1.7661334537759448
asS'Model'
p91
S'HKY'
p92
s.