(dp0
S'Force'
p1
NsS'ExpectedGeneconv'
p2
(dp3
(S'N1'
p4
S'N2'
p5
tp6
F164.71572613637514
s(S'N5'
p7
S'cerevisiae'
p8
tp9
F34.51378104707528
s(g5
S'N3'
p10
tp11
F27.976015589275757
s(S'N4'
p12
g7
tp13
F23.977504699556956
s(g4
S'castellii'
p14
tp15
F207.9931108041476
s(g5
S'bayanus'
p16
tp17
F54.38468904103696
s(S'N0'
p18
g4
tp19
F55.68103590176504
s(g10
S'kudriavzevii'
p20
tp21
F40.356377052315125
s(g7
S'paradoxus'
p22
tp23
F30.931891301800256
s(g12
S'mikatae'
p24
tp25
F47.930115579592375
s(g10
g12
tp26
F23.60562692969533
s(g18
S'kluyveri'
p27
tp28
F0.0
ssS'newicktree'
p29
S'/Users/xji3/Genconv/PairsAlignemt/YeastTree.newick'
p30
sS'll'
p31
cnumpy.core.multiarray
scalar
p32
(cnumpy
dtype
p33
(S'f8'
p34
I0
I1
tp35
Rp36
(I3
S'<'
p37
NNNI-1
I-1
I0
tp38
bS'/d3<\xf2\xdc\xc2\xc0'
p39
tp40
Rp41
sS'clock'
p42
I00
sS'edge_to_blen'
p43
(dp44
g19
g32
(g36
S"(\x94\x87\xc4'\x13\xc5?"
p45
tp46
Rp47
sg9
g32
(g36
S')\x90-^\x9e;\xa6?'
p48
tp49
Rp50
sg11
g32
(g36
S'Z7Vy\xc9\x81\xa1?'
p51
tp52
Rp53
sg13
g32
(g36
S'\\\x9d\xf5Uci\x9b?'
p54
tp55
Rp56
sg15
g32
(g36
S'\x8bj\xa7\xac\xe8F\xd0?'
p57
tp58
Rp59
sg17
g32
(g36
S'\x10\xa7\x88d\xb7\x92\xae?'
p60
tp61
Rp62
sg6
g32
(g36
S'\xa5y\x85\x96K\n\xcd?'
p63
tp64
Rp65
sg21
g32
(g36
S'\xaa#\xbcG\xeeJ\xaa?'
p66
tp67
Rp68
sg23
g32
(g36
S'6\x0f\xc1\xd7Z\r\x9e?'
p69
tp70
Rp71
sg25
g32
(g36
S':\xfdX\xa9\xed\x85\xa9?'
p72
tp73
Rp74
sg26
g32
(g36
S'<\xa0\x91\x05\x00\x1e\x9a?'
p75
tp76
Rp77
sg28
g32
(g36
S'\xa3\x8e\xe4\xfa\xda*\xbb?'
p78
tp79
Rp80
ssS'paralog'
p81
(lp82
S'YDR438W'
p83
aS'YML018C'
p84
asS'alignment_file'
p85
S'/Users/xji3/Genconv/PairsAlignemt/YDR438W_YML018C/YDR438W_YML018C_input.fasta'
p86
sS'x_clock'
p87
(lp88
F-0.8084249956993916
aF-0.5979128243898835
aF-0.9994101068698901
aF0.1823215567939546
aF0.3364722366212129
aF-0.10536051565782628
aF-0.10536051565782628
aF-0.10536051565782628
aF-0.10536051565782628
aF-0.10536051565782628
aF-0.10536051565782628
aF-0.10536051565782628
asS'x'
p89
(lp90
F-0.76272711252579
aF-0.5496152790673744
aF-0.9477393326910946
aF1.2574003221669372
aF-1.1077276254200783
aF-1.803951037320963
aF-3.1367521145670727
aF-3.3757249379959213
aF-3.6205028977398706
aF-1.3691307626288467
aF-2.8182037327609692
aF-1.4833486400735212
aF-2.9690333530127253
aF-3.5285370207312265
aF-2.998738440795943
aF-3.6688781703897395
aF-2.2431595769355934
asS'Model'
p91
S'HKY'
p92
s.