(dp0
S'Force'
p1
NsS'ExpectedGeneconv'
p2
(dp3
(S'N0'
p4
S'N1'
p5
tp6
F9.27366437291867
s(S'N5'
p7
S'cerevisiae'
p8
tp9
F7.580449907994033
s(S'N2'
p10
S'N3'
p11
tp12
F6.836050955643709
s(S'N4'
p13
g7
tp14
F16.252534524217765
s(g11
S'kudriavzevii'
p15
tp16
F18.081722531811025
s(g10
S'bayanus'
p17
tp18
F32.03447893745253
s(g5
g10
tp19
F19.32794955575892
s(g5
S'castellii'
p20
tp21
F48.62566187399762
s(g7
S'paradoxus'
p22
tp23
F6.227874424838456
s(g4
S'kluyveri'
p24
tp25
F0.0
s(g11
g13
tp26
F9.335933842001067
s(g13
S'mikatae'
p27
tp28
F11.863632872302968
ssS'newicktree'
p29
S'/Users/xji3/Genconv/PairsAlignemt/YeastTree.newick'
p30
sS'll'
p31
cnumpy.core.multiarray
scalar
p32
(cnumpy
dtype
p33
(S'f8'
p34
I0
I1
tp35
Rp36
(I3
S'<'
p37
NNNI-1
I-1
I0
tp38
bS'8\xb5\x9e\xadr\xa7\xa0\xc0'
p39
tp40
Rp41
sS'clock'
p42
I01
sS'edge_to_blen'
p43
(dp44
g19
g32
(g36
S'W:#\x84i%|?'
p45
tp46
Rp47
sg9
g32
(g36
S'\xd2jn\xd5a\xc4`?'
p48
tp49
Rp50
sg12
g32
(g36
S'+\xce\rY\xa4s`?'
p51
tp52
Rp53
sg14
g32
(g36
S'\xb2\x15$k\x00\xfdh?'
p54
tp55
Rp56
sg16
g32
(g36
S'\xa7A\xe9\x95,\x9d}?'
p57
tp58
Rp59
sg18
g32
(g36
S'^\x148a\x7f\xeb\x82?'
p60
tp61
Rp62
sg6
g32
(g36
S'\xf2Xm\x17\x92y\x84?'
p63
tp64
Rp65
sg21
g32
(g36
S'\xc4\xd8\xa4\x11\x1a\x7f\x90?'
p66
tp67
Rp68
sg23
g32
(g36
S'\xd2jn\xd5a\xc4`?'
p69
tp70
Rp71
sg25
g32
(g36
S'?\x85[\x1d\xe3\xbb\x9a?'
p72
tp73
Rp74
sg26
g32
(g36
S'\xcf\x02@\xeb\xf6xa?'
p75
tp76
Rp77
sg28
g32
(g36
S'D@I \xb1\xe0t?'
p78
tp79
Rp80
ssS'paralog'
p81
(lp82
S'YER102W'
p83
aS'YBL072C'
p84
asS'alignment_file'
p85
S'/Users/xji3/Genconv/PairsAlignemt/YER102W_YBL072C/YER102W_YBL072C_input.fasta'
p86
sS'x_clock'
p87
(lp88
F-0.7192892022151363
aF-0.5557647863581019
aF-0.7653813151478697
aF2.1786108127891115
aF3.780834868909661
aF-3.645538101656673
aF0.0
aF-0.4827859801809631
aF-0.5560799701527983
aF-0.24511618986866857
aF-0.3495641904050549
aF-0.9124092189453109
asS'x'
p89
(lp90
F-0.7192892022151363
aF-0.5557647863581019
aF-0.7653813151478697
aF2.1786108127891115
aF3.780834868909661
aF-4.980355897946285
aF-6.191493651209469
aF-6.210482921202349
aF-5.792506126745006
aF-4.9295202418591035
aF-4.684404051990435
aF-4.6054199520613475
aF-4.128324081837636
aF-6.191493651209469
aF-3.645538101656673
aF-6.150284118799931
aF-5.279084432264158
asS'Model'
p91
S'HKY'
p92
s.