(dp0
S'Force'
p1
NsS'ExpectedGeneconv'
p2
(dp3
(S'N1'
p4
S'N2'
p5
tp6
F152.523338742721
s(S'N5'
p7
S'cerevisiae'
p8
tp9
F63.03229451891662
s(g5
S'N3'
p10
tp11
F21.74985661484979
s(S'N4'
p12
g7
tp13
F40.52411212180128
s(g4
S'castellii'
p14
tp15
F296.1309592920457
s(g5
S'bayanus'
p16
tp17
F148.10728348946807
s(S'N0'
p18
g4
tp19
F27.686131884419947
s(g10
S'kudriavzevii'
p20
tp21
F114.5221333901893
s(g7
S'paradoxus'
p22
tp23
F62.48234947925262
s(g12
S'mikatae'
p24
tp25
F119.8476406029982
s(g10
g12
tp26
F29.310122114050667
s(g18
S'kluyveri'
p27
tp28
F0.0
ssS'newicktree'
p29
S'/Users/xji3/Genconv/PairsAlignemt/YeastTree.newick'
p30
sS'll'
p31
cnumpy.core.multiarray
scalar
p32
(cnumpy
dtype
p33
(S'f8'
p34
I0
I1
tp35
Rp36
(I3
S'<'
p37
NNNI-1
I-1
I0
tp38
bS'1EI$\x80\xdd\xce\xc0'
p39
tp40
Rp41
sS'clock'
p42
I01
sS'edge_to_blen'
p43
(dp44
g19
g32
(g36
S'9\xea\xd2M\x8b8\xab?'
p45
tp46
Rp47
sg9
g32
(g36
S'\xdb\x11\xb3A\xd6\x8c\x97?'
p48
tp49
Rp50
sg11
g32
(g36
S'8\xd4rwUz\x86?'
p51
tp52
Rp53
sg13
g32
(g36
S'\xbf\x14\xe6W,\x03\x8e?'
p54
tp55
Rp56
sg15
g32
(g36
S'\xb0"\xdf\xb4a\x13\xc4?'
p57
tp58
Rp59
sg17
g32
(g36
S'\x01H\xb3\xb4\xcb\r\xaf?'
p60
tp61
Rp62
sg6
g32
(g36
S'`\xa1d\x8f\xdd\x9f\xb8?'
p63
tp64
Rp65
sg21
g32
(g36
S'\xf5\x92\xd6V6o\xa9?'
p66
tp67
Rp68
sg23
g32
(g36
S'\xdb\x11\xb3A\xd6\x8c\x97?'
p69
tp70
Rp71
sg25
g32
(g36
S'\x1d\x0e\xd366G\xa3?'
p72
tp73
Rp74
sg26
g32
(g36
S'X\x13\x0e\x80\x00\xa0\x88?'
p75
tp76
Rp77
sg28
g32
(g36
S'>\xddS\x88\x84\xe1\xca?'
p78
tp79
Rp80
ssS'paralog'
p81
(lp82
S'YPR159W'
p83
aS'YGR143W'
p84
asS'alignment_file'
p85
S'/Users/xji3/Genconv/PairsAlignemt/YPR159W_YGR143W/YPR159W_YGR143W_input.fasta'
p86
sS'x_clock'
p87
(lp88
F-0.7387086365990847
aF-0.5213382203157385
aF-0.7973646625513344
aF1.2821035045566407
aF0.38989127502066817
aF-1.5606132051144854
aF0.0
aF-0.29190645048982833
aF-0.9500809014369966
aF-0.19962057916631637
aF-0.277130069688905
aF-0.49298865200431025
asS'x'
p89
(lp90
F-0.7387086365990847
aF-0.5213382203157385
aF-0.7973646625513344
aF1.2821035045566407
aF0.38989127502066817
aF-2.9343404604296404
aF-3.772339857900842
aF-4.512087867027065
aF-4.223008510635837
aF-1.8525196556043138
aF-2.8026005570413104
aF-2.341436598186103
aF-3.0022211362076265
aF-3.772339857900842
aF-3.279351205896532
aF-4.420856489145081
aF-1.5606132051144854
asS'Model'
p91
S'HKY'
p92
s.