(dp0
S'Force'
p1
NsS'ExpectedGeneconv'
p2
(dp3
(S'N0'
p4
S'N1'
p5
tp6
F11.13214647388987
s(S'N5'
p7
S'cerevisiae'
p8
tp9
F27.089215863912514
s(S'N2'
p10
S'N3'
p11
tp12
F7.419092723533778
s(S'N4'
p13
g7
tp14
F12.111653719556609
s(g11
S'kudriavzevii'
p15
tp16
F40.097540607700076
s(g10
S'bayanus'
p17
tp18
F47.429653905924546
s(g5
g10
tp19
F32.49986882388392
s(g5
S'castellii'
p20
tp21
F85.71561268470253
s(g7
S'paradoxus'
p22
tp23
F22.810847677496408
s(g4
S'kluyveri'
p24
tp25
F0.0
s(g11
g13
tp26
F11.919948627037884
s(g13
S'mikatae'
p27
tp28
F53.569981020054605
ssS'newicktree'
p29
S'/Users/xji3/Genconv/PairsAlignemt/YeastTree.newick'
p30
sS'll'
p31
cnumpy.core.multiarray
scalar
p32
(cnumpy
dtype
p33
(S'f8'
p34
I0
I1
tp35
Rp36
(I3
S'<'
p37
NNNI-1
I-1
I0
tp38
bS'\xe4\xc8\x99H+\x0f\xb1\xc0'
p39
tp40
Rp41
sS'clock'
p42
I01
sS'edge_to_blen'
p43
(dp44
g19
g32
(g36
S'\xe0\xc8\x81\xa1\x1f\xbc\x97?'
p45
tp46
Rp47
sg9
g32
(g36
S'\x05\x8e,u\xcb\xa2\x83?'
p48
tp49
Rp50
sg12
g32
(g36
S'\xa5g\x95\xc7\xb6\xa2i?'
p51
tp52
Rp53
sg14
g32
(g36
S'g2\x1e\xf0\xfb\x82q?'
p54
tp55
Rp56
sg16
g32
(g36
S'_\x0c\xebV\xfe\x81\x91?'
p57
tp58
Rp59
sg18
g32
(g36
S'S\xb9\xdd/U\xb6\x94?'
p60
tp61
Rp62
sg6
g32
(g36
S'`\x0b\xc9\xd5\xcb*\x96?'
p63
tp64
Rp65
sg21
g32
(g36
S'\x1b\xc1\xafh:9\xa6?'
p66
tp67
Rp68
sg23
g32
(g36
S'\x05\x8e,u\xcb\xa2\x83?'
p69
tp70
Rp71
sg25
g32
(g36
S'e#\xca)P\xa7\xb0?'
p72
tp73
Rp74
sg26
g32
(g36
S'\x06\xc6i\x02\xcd~j?'
p75
tp76
Rp77
sg28
g32
(g36
S'<\xa7;mId\x8c?'
p78
tp79
Rp80
ssS'paralog'
p81
(lp82
S'YDR099W'
p83
aS'YER177W'
p84
asS'alignment_file'
p85
S'/Users/xji3/Genconv/PairsAlignemt/YDR099W_YER177W/YDR099W_YER177W_input.fasta'
p86
sS'x_clock'
p87
(lp88
F-0.7806127501924371
aF-0.5063212108018161
aF-0.7567375001791639
aF2.028735106260135
aF2.024903285074456
aF-2.732553020127631
aF0.0
aF-0.4046191799976683
aF-0.7635749035447711
aF-0.16807893922318728
aF-0.20969449519246458
aF-0.368738057885127
asS'x'
p89
(lp90
F-0.7806127501924371
aF-0.5063212108018161
aF-0.7567375001791639
aF2.028735106260135
aF2.024903285074456
aF-3.764527051127256
aF-4.6472585959708494
aF-5.766931278471824
aF-5.454899406496697
aF-4.0688260428932574
aF-3.9007471036700703
aF-3.8328593148312886
aF-3.137172200125299
aF-4.6472585959708494
aF-2.732553020127631
aF-5.733945396116083
aF-4.278520538085722
asS'Model'
p91
S'HKY'
p92
s.