(dp0
S'Force'
p1
NsS'ExpectedGeneconv'
p2
(dp3
(S'N1'
p4
S'N2'
p5
tp6
F20.06309885354119
s(S'N5'
p7
S'cerevisiae'
p8
tp9
F7.089972385222594
s(g5
S'N3'
p10
tp11
F1.1571773767342892
s(S'N4'
p12
g7
tp13
F1.3215062721387068
s(g10
S'kudriavzevii'
p14
tp15
F8.775476019165982
s(g5
S'bayanus'
p16
tp17
F17.82582222655743
s(S'N0'
p18
g4
tp19
F11.54544902236361
s(g4
S'castellii'
p20
tp21
F17.66486668720812
s(g7
S'paradoxus'
p22
tp23
F10.128605974644277
s(g18
S'kluyveri'
p24
tp25
F0.0
s(g10
g12
tp26
F7.12194854969538
s(g12
S'mikatae'
p27
tp28
F10.434620548711273
ssS'newicktree'
p29
S'/Users/xji3/Genconv/PairsAlignemt/YeastTree.newick'
p30
sS'll'
p31
cnumpy.core.multiarray
scalar
p32
(cnumpy
dtype
p33
(S'f8'
p34
I0
I1
tp35
Rp36
(I3
S'<'
p37
NNNI-1
I-1
I0
tp38
bS'\xfa\xaf\x964W\xaf\x94\xc0'
p39
tp40
Rp41
sS'clock'
p42
I00
sS'edge_to_blen'
p43
(dp44
g19
g32
(g36
S'\xcf\x1di{|\x9d|?'
p45
tp46
Rp47
sg9
g32
(g36
S'\x1e%f\x93n\x8cV?'
p48
tp49
Rp50
sg11
g32
(g36
S'\xc9fM\xbde\xc2F?'
p51
tp52
Rp53
sg13
g32
(g36
S'}\x0cKa\xcf54?'
p54
tp55
Rp56
sg15
g32
(g36
S'ARj\xda\xd0\xe7d?'
p57
tp58
Rp59
sg17
g32
(g36
S'\xe8\x9d\xc9n.yl?'
p60
tp61
Rp62
sg6
g32
(g36
S'h\xcd\xbcsC\xc8w?'
p63
tp64
Rp65
sg21
g32
(g36
S'8\xe9\xd6\xb2\x96Nt?'
p66
tp67
Rp68
sg23
g32
(g36
S')\xc5Oy\xbb\x9e_?'
p69
tp70
Rp71
sg25
g32
(g36
S'\xa1\xa5\xb1f\xde\x18\x84>'
p72
tp73
Rp74
sg26
g32
(g36
S'1\r|yptV?'
p75
tp76
Rp77
sg28
g32
(g36
S'k\xb0pb\xa6\xefe?'
p78
tp79
Rp80
ssS'paralog'
p81
(lp82
S'YMR143W'
p83
aS'YDL083C'
p84
asS'alignment_file'
p85
S'/Users/xji3/Genconv/PairsAlignemt/YMR143W_YDL083C/YMR143W_YDL083C_input.fasta'
p86
sS'x_clock'
p87
(lp88
F-0.6655930689973748
aF-0.5569202432443039
aF-0.8939053689133549
aF0.1823215567939546
aF0.3364722366212129
aF-0.10536051565782628
aF-0.10536051565782628
aF-0.10536051565782628
aF-0.10536051565782628
aF-0.10536051565782628
aF-0.10536051565782628
aF-0.10536051565782628
asS'x'
p89
(lp90
F-0.7618489841605379
aF-0.5037087395476119
aF-0.8574919161417696
aF3.0267443755277172
aF4.324197813157971
aF-4.963828796159034
aF-6.588389222128858
aF-7.272231002825845
aF-8.084167678299982
aF-5.970899601463398
aF-5.661944266890914
aF-5.148825433230532
aF-5.306801153780496
aF-6.250269174101772
aF-15.714396180987652
aF-6.59255429211411
aF-5.922778180692171
asS'Model'
p91
S'HKY'
p92
s.