(dp0
S'Force'
p1
NsS'ExpectedGeneconv'
p2
(dp3
(S'N0'
p4
S'N1'
p5
tp6
F32.98564280319993
s(S'N5'
p7
S'cerevisiae'
p8
tp9
F55.926792781958845
s(S'N2'
p10
S'N3'
p11
tp12
F31.644991489354098
s(S'N4'
p13
g7
tp14
F20.630562613447477
s(g11
S'kudriavzevii'
p15
tp16
F71.27603502103506
s(g10
S'bayanus'
p17
tp18
F61.06284208140315
s(g5
g10
tp19
F128.71954890134975
s(g5
S'castellii'
p20
tp21
F174.012490457549
s(g7
S'paradoxus'
p22
tp23
F26.32976250971117
s(g4
S'kluyveri'
p24
tp25
F0.0
s(g11
g13
tp26
F21.2551616191385
s(g13
S'mikatae'
p27
tp28
F77.36065776759317
ssS'newicktree'
p29
S'/Users/xji3/Genconv/PairsAlignemt/YeastTree.newick'
p30
sS'll'
p31
cnumpy.core.multiarray
scalar
p32
(cnumpy
dtype
p33
(S'f8'
p34
I0
I1
tp35
Rp36
(I3
S'<'
p37
NNNI-1
I-1
I0
tp38
bS'\xb8\xad\x00\x07\x1a\r\xc3\xc0'
p39
tp40
Rp41
sS'clock'
p42
I00
sS'edge_to_blen'
p43
(dp44
g19
g32
(g36
S'\xef\x1c]4lZ\xc2?'
p45
tp46
Rp47
sg9
g32
(g36
S'9\x8b{\x99\r\xc7\xa4?'
p48
tp49
Rp50
sg12
g32
(g36
S'\xab\xcf`\xe5f\xe5\x9c?'
p51
tp52
Rp53
sg14
g32
(g36
S'\xa9\xcf\x86\x08"\xbb\x92?'
p54
tp55
Rp56
sg16
g32
(g36
S'\xb6\x80\x90\xb6f\x9c\xae?'
p57
tp58
Rp59
sg18
g32
(g36
S'b\xe4\x91\x964E\xa8?'
p60
tp61
Rp62
sg6
g32
(g36
S'}\xe0\x8bjOH\xb7?'
p63
tp64
Rp65
sg21
g32
(g36
S'\xb5\x06\xd9\xb558\xc5?'
p66
tp67
Rp68
sg23
g32
(g36
S'\xeb \xda(\xf8\x9f\x98?'
p69
tp70
Rp71
sg25
g32
(g36
S'\x0eb\xac\xacLD\xbb?'
p72
tp73
Rp74
sg26
g32
(g36
S'i\xfaXKt\x85\x91?'
p75
tp76
Rp77
sg28
g32
(g36
S'\xb8\x99U\xaa\xb7p\xae?'
p78
tp79
Rp80
ssS'paralog'
p81
(lp82
S'YMR243C'
p83
aS'YOR316C'
p84
asS'alignment_file'
p85
S'/Users/xji3/Genconv/PairsAlignemt/YMR243C_YOR316C/YMR243C_YOR316C_input.fasta'
p86
sS'x_clock'
p87
(lp88
F-0.7556609556277195
aF-0.5645148233719282
aF-0.8915261742497587
aF0.1823215567939546
aF0.3364722366212129
aF-0.10536051565782628
aF-0.10536051565782628
aF-0.10536051565782628
aF-0.10536051565782628
aF-0.10536051565782628
aF-0.10536051565782628
aF-0.10536051565782628
asS'x'
p89
(lp90
F-0.7690595951830488
aF-0.5578682804679591
aF-0.8296907549240253
aF1.2713093942234355
aF-0.10745046585714053
aF-1.9422255783028466
aF-3.204451487383778
aF-3.567765122055665
aF-4.001292537889155
aF-2.8169670892115084
aF-3.049069856664727
aF-2.397477079999439
aF-1.7971064158221146
aF-3.727714476841008
aF-2.2395077844117623
aF-4.0680541931539995
aF-2.822557154148017
asS'Model'
p91
S'HKY'
p92
s.