(dp0
S'Force'
p1
NsS'ExpectedGeneconv'
p2
(dp3
(S'N0'
p4
S'N1'
p5
tp6
F2.8284169521192695
s(S'N5'
p7
S'cerevisiae'
p8
tp9
F25.500474672594024
s(S'N2'
p10
S'N3'
p11
tp12
F2.738024143591858
s(S'N4'
p13
g7
tp14
F1.729455507111605
s(g11
S'kudriavzevii'
p15
tp16
F22.766948345892143
s(g10
S'bayanus'
p17
tp18
F26.68416326739869
s(g5
g10
tp19
F10.471476889082249
s(g5
S'castellii'
p20
tp21
F42.89730326827132
s(g7
S'paradoxus'
p22
tp23
F11.295555627600734
s(g4
S'kluyveri'
p24
tp25
F0.0
s(g11
g13
tp26
F5.184326125219522
s(g13
S'mikatae'
p27
tp28
F14.426785837824362
ssS'newicktree'
p29
S'/Users/xji3/Genconv/PairsAlignemt/YeastTree.newick'
p30
sS'll'
p31
cnumpy.core.multiarray
scalar
p32
(cnumpy
dtype
p33
(S'f8'
p34
I0
I1
tp35
Rp36
(I3
S'<'
p37
NNNI-1
I-1
I0
tp38
bS'/\x00\xa1\x139\xa9\xa1\xc0'
p39
tp40
Rp41
sS'clock'
p42
I01
sS'edge_to_blen'
p43
(dp44
g19
g32
(g36
S'\xf0-\xdf\xdf\xa5\xce\x82?'
p45
tp46
Rp47
sg9
g32
(g36
S'H+ (\x8b\x16\x80?'
p48
tp49
Rp50
sg12
g32
(g36
S'\xc6\xc2]f\xc8\xe9T?'
p51
tp52
Rp53
sg14
g32
(g36
S'w\xf9NnG!H?'
p54
tp55
Rp56
sg16
g32
(g36
S'&-B\xb0aI\x88?'
p57
tp58
Rp59
sg18
g32
(g36
S'\x84\xe5\r\xbd\x9a\xe6\x8a?'
p60
tp61
Rp62
sg6
g32
(g36
S'\x07`\xbdE#\r\x7f?'
p63
tp64
Rp65
sg21
g32
(g36
S'\xb8\x89vN\xa0\xda\x96?'
p66
tp67
Rp68
sg23
g32
(g36
S'H+ (\x8b\x16\x80?'
p69
tp70
Rp71
sg25
g32
(g36
S'\xb9\xe1\xe5\x1f\xe9\x9d\x9e?'
p72
tp73
Rp74
sg26
g32
(g36
S'&I\xf4D\x08\xc3j?'
p75
tp76
Rp77
sg28
g32
(g36
S'\xdd\x1a\x05\x9f\x9f\x98\x81?'
p78
tp79
Rp80
ssS'paralog'
p81
(lp82
S'YNL301C'
p83
aS'YOL120C'
p84
asS'alignment_file'
p85
S'/Users/xji3/Genconv/PairsAlignemt/YNL301C_YOL120C/YNL301C_YOL120C_input.fasta'
p86
sS'x_clock'
p87
(lp88
F-0.7434934897292682
aF-0.5752291474595587
aF-0.7876030970347935
aF2.0256552172164963
aF3.1720667432956495
aF-3.5099216718724984
aF0.0
aF-0.2924236014441081
aF-0.5301177381244302
aF-0.10222928741037601
aF-0.32224453455980834
aF-0.08960471713260662
asS'x'
p89
(lp90
F-0.7434934897292682
aF-0.5752291474595587
aF-0.7876030970347935
aF2.0256552172164963
aF3.1720667432956495
aF-4.690378224913163
aF-4.846541550543828
aF-6.663679314622554
aF-7.21375198628724
aF-4.434692298851413
aF-4.332463011441036
aF-4.882124864414072
aF-3.8023452733166065
aF-4.846541550543828
aF-3.5099216718724984
aF-5.723936170811847
aF-4.756936833411221
asS'Model'
p91
S'HKY'
p92
s.