(dp0
S'Force'
p1
NsS'ExpectedGeneconv'
p2
(dp3
(S'N0'
p4
S'N1'
p5
tp6
F3.946699645755514
s(S'N5'
p7
S'cerevisiae'
p8
tp9
F31.174025371942175
s(S'N2'
p10
S'N3'
p11
tp12
F8.961322540122927
s(S'N4'
p13
g7
tp14
F18.423645221765295
s(g11
S'kudriavzevii'
p15
tp16
F50.11060515074882
s(g10
S'bayanus'
p17
tp18
F53.56811884723302
s(g5
g10
tp19
F67.30655594917555
s(g5
S'castellii'
p20
tp21
F125.48875633545062
s(g7
S'paradoxus'
p22
tp23
F20.650209395073574
s(g13
S'mikatae'
p24
tp25
F49.252811016087776
s(g11
g13
tp26
F23.04130311424099
s(g4
S'kluyveri'
p27
tp28
F0.0
ssS'newicktree'
p29
S'/Users/xji3/Genconv/PairsAlignemt/YeastTree.newick'
p30
sS'll'
p31
cnumpy.core.multiarray
scalar
p32
(cnumpy
dtype
p33
(S'f8'
p34
I0
I1
tp35
Rp36
(I3
S'<'
p37
NNNI-1
I-1
I0
tp38
bS'\x12G\x9b|\x01\xf9\xbd\xc0'
p39
tp40
Rp41
sS'clock'
p42
I01
sS'edge_to_blen'
p43
(dp44
g19
g32
(g36
S'~x\xb4*f\x88\xc4?'
p45
tp46
Rp47
sg9
g32
(g36
S'\x97+A$\x0c\xba\x9b?'
p48
tp49
Rp50
sg12
g32
(g36
S'\xf8\x99\x96tr\xb0\x8b?'
p51
tp52
Rp53
sg14
g32
(g36
S'\x173\xe5m\xb4\x05\x98?'
p54
tp55
Rp56
sg16
g32
(g36
S'I"\x86\xe1\xae\x00\xb2?'
p57
tp58
Rp59
sg18
g32
(g36
S'\x88\xf5\x180\xbdv\xb5?'
p60
tp61
Rp62
sg6
g32
(g36
S'\x83\xeaB\x985\x03\xa6?'
p63
tp64
Rp65
sg21
g32
(g36
S'@\xf3\xc0\xc2\xc4C\xcf?'
p66
tp67
Rp68
sg23
g32
(g36
S'\x97+A$\x0c\xba\x9b?'
p69
tp70
Rp71
sg25
g32
(g36
S'U/\x13I\xe0\xdf\xa9?'
p72
tp73
Rp74
sg26
g32
(g36
S's*\xf2\xf3\xfaB\x94?'
p75
tp76
Rp77
sg28
g32
(g36
S'\xf1\xd6h\x14Ib\xd2?'
p78
tp79
Rp80
ssS'paralog'
p81
(lp82
S'YBR024W'
p83
aS'YBR037C'
p84
asS'alignment_file'
p85
S'/Users/xji3/Genconv/PairsAlignemt/YBR024W_YBR037C/YBR024W_YBR037C_input.fasta'
p86
sS'x_clock'
p87
(lp88
F-0.6985663339454291
aF-0.552668658823505
aF-0.8283342028890135
aF1.2676631538144814
aF-0.7780707120544387
aF-1.2474063000273254
aF0.0
aF-0.16213362404245593
aF-1.0692685941459579
aF-0.17584893093467885
aF-0.33040862691880074
aF-0.6240081589151607
asS'x'
p89
(lp90
F-0.6985663339454291
aF-0.552668658823505
aF-0.8283342028890135
aF1.2676631538144814
aF-0.7780707120544387
aF-1.8300062209182684
aF-3.6090742349843796
aF-4.303574863100655
aF-3.7524898901265122
aF-2.654657449150418
aF-2.478808518215739
aF-3.1467124911932833
aF-1.4095399240697815
aF-3.6090742349843796
aF-2.985066076069219
aF-3.922742276617825
aF-1.2474063000273254
asS'Model'
p91
S'HKY'
p92
s.