(dp0
S'Force'
p1
NsS'ExpectedGeneconv'
p2
(dp3
(S'N0'
p4
S'N1'
p5
tp6
F30.13713917662531
s(S'N5'
p7
S'cerevisiae'
p8
tp9
F6.667183108726968
s(S'N2'
p10
S'N3'
p11
tp12
F4.824566591750286
s(S'N4'
p13
g7
tp14
F3.432989161241348
s(g5
S'castellii'
p15
tp16
F41.08123982843462
s(g10
S'bayanus'
p17
tp18
F12.604403764034533
s(g5
g10
tp19
F26.74292645393451
s(g11
S'kudriavzevii'
p20
tp21
F7.836991075516364
s(g7
S'paradoxus'
p22
tp23
F8.689068971271443
s(g4
S'kluyveri'
p24
tp25
F0.0
s(g11
g13
tp26
F7.746423765218348
s(g13
S'mikatae'
p27
tp28
F10.928903241214375
ssS'newicktree'
p29
S'/Users/xji3/Genconv/PairsAlignemt/YeastTree.newick'
p30
sS'll'
p31
cnumpy.core.multiarray
scalar
p32
(cnumpy
dtype
p33
(S'f8'
p34
I0
I1
tp35
Rp36
(I3
S'<'
p37
NNNI-1
I-1
I0
tp38
bS':\xbe\xca\n\x10\xa6\x9e\xc0'
p39
tp40
Rp41
sS'clock'
p42
I00
sS'edge_to_blen'
p43
(dp44
g19
g32
(g36
S'\xf2\x14g]\xb9\xc2\x88?'
p45
tp46
Rp47
sg9
g32
(g36
S'TQ\x0f}X\xa6g?'
p48
tp49
Rp50
sg12
g32
(g36
S'Q\xe9\xdb[\x8e"e?'
p51
tp52
Rp53
sg14
g32
(g36
S'\xcaS\xe0\x9d4{M?'
p54
tp55
Rp56
sg16
g32
(g36
S'\x0c\x87\xf6\r\xea\xf9\x92?'
p57
tp58
Rp59
sg18
g32
(g36
S'\xa7B3n?\xe3o?'
p60
tp61
Rp62
sg6
g32
(g36
S'@7j\x15T\x85\x98?'
p63
tp64
Rp65
sg21
g32
(g36
S'\xfc\x17\xc7\xd8\xd1\xa5q?'
p66
tp67
Rp68
sg23
g32
(g36
S'\x98\xdf\xff\xc3\xbf\xedl?'
p69
tp70
Rp71
sg25
g32
(g36
S'\xe1\xd2\xb0\xa5>\x98u?'
p72
tp73
Rp74
sg26
g32
(g36
S'\xbb\x9d\xb2H\xd6\x9dc?'
p75
tp76
Rp77
sg28
g32
(g36
S'\xee\x12\xa5k\x8c(r?'
p78
tp79
Rp80
ssS'paralog'
p81
(lp82
S'YJL177W'
p83
aS'YKL180W'
p84
asS'alignment_file'
p85
S'/Users/xji3/Genconv/PairsAlignemt/YJL177W_YKL180W/YJL177W_YKL180W_input.fasta'
p86
sS'x_clock'
p87
(lp88
F-0.647920186592178
aF-0.527569534667218
aF-0.7337013364148708
aF0.1823215567939546
aF0.3364722366212129
aF-0.10536051565782628
aF-0.10536051565782628
aF-0.10536051565782628
aF-0.10536051565782628
aF-0.10536051565782628
aF-0.10536051565782628
aF-0.10536051565782628
asS'x'
p89
(lp90
F-0.7429760426020308
aF-0.48523261516111427
aF-0.723660750123347
aF2.151310393139141
aF3.278537205740596
aF-4.415363652441813
aF-5.847559207959449
aF-5.959983636077373
aF-7.0134525070968365
aF-3.988284786708317
aF-5.548693411310826
aF-3.7319494868972964
aF-5.4471588189035405
aF-5.646078910893651
aF-5.245317978326783
aF-6.034539700441289
aF-5.418633308113274
asS'Model'
p91
S'HKY'
p92
s.