(dp0
S'Force'
p1
NsS'ExpectedGeneconv'
p2
(dp3
(S'N1'
p4
S'N2'
p5
tp6
F87.56999405417989
s(S'N5'
p7
S'cerevisiae'
p8
tp9
F43.52792058948061
s(g5
S'N3'
p10
tp11
F5.72920599740179
s(S'N4'
p12
g7
tp13
F22.143645451221925
s(g4
S'castellii'
p14
tp15
F160.91671708211663
s(g5
S'bayanus'
p16
tp17
F61.32832606559673
s(S'N0'
p18
g4
tp19
F6.8753503384015175
s(g10
S'kudriavzevii'
p20
tp21
F46.09639925371315
s(g7
S'paradoxus'
p22
tp23
F21.58232519177235
s(g18
S'kluyveri'
p24
tp25
F0.0
s(g10
g12
tp26
F11.582244210908858
s(g12
S'mikatae'
p27
tp28
F54.64517110528303
ssS'newicktree'
p29
S'/Users/xji3/Genconv/PairsAlignemt/YeastTree.newick'
p30
sS'll'
p31
cnumpy.core.multiarray
scalar
p32
(cnumpy
dtype
p33
(S'f8'
p34
I0
I1
tp35
Rp36
(I3
S'<'
p37
NNNI-1
I-1
I0
tp38
bS'\xf1S\xb1\xf7\xb4\xca\xbf\xc0'
p39
tp40
Rp41
sS'clock'
p42
I01
sS'edge_to_blen'
p43
(dp44
g19
g32
(g36
S'\xd9Z,\x9f;o\xab?'
p45
tp46
Rp47
sg9
g32
(g36
S'\xcc\xbc\xfb 3\r\x9d?'
p48
tp49
Rp50
sg11
g32
(g36
S'\xdb\x19E\x15\x14\xc9\x86?'
p51
tp52
Rp53
sg13
g32
(g36
S'\xa4n\x9d\xa1E\x18\x95?'
p54
tp55
Rp56
sg15
g32
(g36
S'}\x82\xdf\x03\xdf\x81\xd0?'
p57
tp58
Rp59
sg17
g32
(g36
S'\xab\xe5\x9a\xd9\x9a\x17\xb2?'
p60
tp61
Rp62
sg6
g32
(g36
S'$\x92\xf1\x9a\xf0\xf7\xc7?'
p63
tp64
Rp65
sg21
g32
(g36
S'\xe2\x84\xe4\xad\xf0|\xae?'
p66
tp67
Rp68
sg23
g32
(g36
S'\xcc\xbc\xfb 3\r\x9d?'
p69
tp70
Rp71
sg25
g32
(g36
S'\xd8\r\xc5w\xc6\xef\xd3?'
p72
tp73
Rp74
sg26
g32
(g36
S'\x9f\xbc_2\xd1\xa8\x85?'
p75
tp76
Rp77
sg28
g32
(g36
S'\xb9\x95La\xbc\x12\xa9?'
p78
tp79
Rp80
ssS'paralog'
p81
(lp82
S'YPL087W'
p83
aS'YBR183W'
p84
asS'alignment_file'
p85
S'/Users/xji3/Genconv/PairsAlignemt/YPL087W_YBR183W/YPL087W_YBR183W_input.fasta'
p86
sS'x_clock'
p87
(lp88
F-0.7539807000603485
aF-0.5820495818178641
aF-1.0366505884288024
aF1.2434826901627354
aF-0.654471194669594
aF-1.1663247349279662
aF0.0
aF-0.1887550843509017
aF-1.2946163556871857
aF-0.17129372935981232
aF-0.1955356944917165
aF-0.5458739757303481
asS'x'
p89
(lp90
F-0.7539807000603485
aF-0.5820495818178641
aF-1.0366505884288024
aF1.2434826901627354
aF-0.654471194669594
aF-2.9265231517938224
aF-3.5623995745479307
aF-4.498496254712381
aF-3.882444648925034
aF-1.3550798192788678
aF-2.6496961749660537
aF-1.6752891658805134
aF-2.8209899043258657
aF-3.5623995745479307
aF-1.1663247349279662
aF-4.54917750256202
aF-3.0165255988175823
asS'Model'
p91
S'HKY'
p92
s.