(dp0
S'Force'
p1
NsS'ExpectedGeneconv'
p2
(dp3
(S'N0'
p4
S'N1'
p5
tp6
F7.343410451041001
s(S'N5'
p7
S'cerevisiae'
p8
tp9
F88.4529079361923
s(S'N2'
p10
S'N3'
p11
tp12
F51.297405930983
s(S'N4'
p13
g7
tp14
F34.96107668576265
s(g5
S'castellii'
p15
tp16
F344.4727040073972
s(g10
S'bayanus'
p17
tp18
F74.57699709473678
s(g5
g10
tp19
F237.77152148066338
s(g11
S'kudriavzevii'
p20
tp21
F92.57399088464473
s(g7
S'paradoxus'
p22
tp23
F99.0702241461884
s(g4
S'kluyveri'
p24
tp25
F0.0
s(g11
g13
tp26
F41.09017826808475
s(g13
S'mikatae'
p27
tp28
F83.49403817438159
ssS'newicktree'
p29
S'/Users/xji3/Genconv/PairsAlignemt/YeastTree.newick'
p30
sS'll'
p31
cnumpy.core.multiarray
scalar
p32
(cnumpy
dtype
p33
(S'f8'
p34
I0
I1
tp35
Rp36
(I3
S'<'
p37
NNNI-1
I-1
I0
tp38
bS'\x15\x9eH\xc0\xfe\x98\xd3\xc0'
p39
tp40
Rp41
sS'clock'
p42
I00
sS'edge_to_blen'
p43
(dp44
g19
g32
(g36
S'Z6\xea\ra\xfa\xd2?'
p45
tp46
Rp47
sg9
g32
(g36
S'\x08\xc6\xa3\xdc\xe8\x17\xa9?'
p48
tp49
Rp50
sg12
g32
(g36
S'\xb56\xc8\xa8]\xe7\xa5?'
p51
tp52
Rp53
sg14
g32
(g36
S'\t\x0bR\xda\xd65\x9c?'
p54
tp55
Rp56
sg16
g32
(g36
S'\x1b\x15\xd4K\xdb\xb0\xd7?'
p57
tp58
Rp59
sg18
g32
(g36
S'7\xf6_\x8f\xaf\xdc\xb0?'
p60
tp61
Rp62
sg6
g32
(g36
S'\xd8\x94\x9acz\\\xa8?'
p63
tp64
Rp65
sg21
g32
(g36
S'F\xb6\x89sg\x95\xb2?'
p66
tp67
Rp68
sg23
g32
(g36
S'b\xb1\xe5!\x82N\xb4?'
p69
tp70
Rp71
sg25
g32
(g36
S'k\xe3\xb07\x91c\xdc?'
p72
tp73
Rp74
sg26
g32
(g36
S'\x11\x15\rhU\x16\x9d?'
p75
tp76
Rp77
sg28
g32
(g36
S'\x87h\xf0\x1a\xcbz\xb0?'
p78
tp79
Rp80
ssS'paralog'
p81
(lp82
S'YAL056W'
p83
aS'YOR371C'
p84
asS'alignment_file'
p85
S'/Users/xji3/Genconv/PairsAlignemt/YAL056W_YOR371C/YAL056W_YOR371C_input.fasta'
p86
sS'x_clock'
p87
(lp88
F-0.6458422188763059
aF-0.5008309563512824
aF-0.9500146403668493
aF0.1823215567939546
aF0.3364722366212129
aF-0.10536051565782628
aF-0.10536051565782628
aF-0.10536051565782628
aF-0.10536051565782628
aF-0.10536051565782628
aF-0.10536051565782628
aF-0.10536051565782628
asS'x'
p89
(lp90
F-0.6591889664434796
aF-0.48926477170184807
aF-0.8851100907845464
aF1.0886538717138872
aF-1.677354673309383
aF-1.2156003812697158
aF-3.015719883621703
aF-3.151665725540096
aF-3.591784304262446
aF-0.9937943463447447
aF-2.720111682368057
aF-3.0453311773772023
aF-2.6228974462254824
aF-2.534227885208864
aF-0.8128836410937765
aF-3.5611721915273455
aF-2.743050451770003
asS'Model'
p91
S'HKY'
p92
s.