(dp0
S'Force'
p1
NsS'ExpectedGeneconv'
p2
(dp3
(S'N0'
p4
S'N1'
p5
tp6
F7.440090361789109
s(S'N5'
p7
S'cerevisiae'
p8
tp9
F4.198397796196188
s(S'N2'
p10
S'N3'
p11
tp12
F1.8459029748931235
s(S'N4'
p13
g7
tp14
F1.4867195373706172
s(g5
S'castellii'
p15
tp16
F12.242469091670277
s(g10
S'bayanus'
p17
tp18
F10.230236278166428
s(g5
g10
tp19
F16.602556917178923
s(g11
S'kudriavzevii'
p20
tp21
F4.388106957545281
s(g7
S'paradoxus'
p22
tp23
F5.846381081288887
s(g4
S'kluyveri'
p24
tp25
F0.0
s(g11
g13
tp26
F1.6908145292780006
s(g13
S'mikatae'
p27
tp28
F11.519669828139083
ssS'newicktree'
p29
S'/Users/xji3/Genconv/PairsAlignemt/YeastTree.newick'
p30
sS'll'
p31
cnumpy.core.multiarray
scalar
p32
(cnumpy
dtype
p33
(S'f8'
p34
I0
I1
tp35
Rp36
(I3
S'<'
p37
NNNI-1
I-1
I0
tp38
bS'\xfe\xa3\xb89\x15\x11\x94\xc0'
p39
tp40
Rp41
sS'clock'
p42
I00
sS'edge_to_blen'
p43
(dp44
g19
g32
(g36
S'\x1e7Z\xe1\\\xf5\x89?'
p45
tp46
Rp47
sg9
g32
(g36
S'\x85\xa6\x173\x16!n?'
p48
tp49
Rp50
sg12
g32
(g36
S'\xb1\xd4\x15?\xa38c?'
p51
tp52
Rp53
sg14
g32
(g36
S'\xd4\x1e$\xc0TNG?'
p54
tp55
Rp56
sg16
g32
(g36
S'\x02\xcc\xfa0R\xd0\x83?'
p57
tp58
Rp59
sg18
g32
(g36
S'\x8d\xf5.\x0c\xa9\xc7\x81?'
p60
tp61
Rp62
sg6
g32
(g36
S'\xf9\x0e\xaa\xa0eH\x8d?'
p63
tp64
Rp65
sg21
g32
(g36
S'\xb1p\xe0\xc2V\xa8w?'
p66
tp67
Rp68
sg23
g32
(g36
S'a\xf0\xf7&R\xfdp?'
p69
tp70
Rp71
sg25
g32
(g36
S'b\xb4^V@!\x94?'
p72
tp73
Rp74
sg26
g32
(g36
S'6\xf9\xc8y\x86\xd8^?'
p75
tp76
Rp77
sg28
g32
(g36
S'\x1d}\xeb03\xfd\x80?'
p78
tp79
Rp80
ssS'paralog'
p81
(lp82
S'YLR406C'
p83
aS'YDL075W'
p84
asS'alignment_file'
p85
S'/Users/xji3/Genconv/PairsAlignemt/YLR406C_YDL075W/YLR406C_YDL075W_input.fasta'
p86
sS'x_clock'
p87
(lp88
F-0.5713131624743949
aF-0.5570077013933508
aF-0.8292141849539082
aF0.1823215567939546
aF0.3364722366212129
aF-0.10536051565782628
aF-0.10536051565782628
aF-0.10536051565782628
aF-0.10536051565782628
aF-0.10536051565782628
aF-0.10536051565782628
aF-0.10536051565782628
asS'x'
p89
(lp90
F-0.6906034240231197
aF-0.5079114642983973
aF-0.8833407492964177
aF2.25206546833567
aF3.112586731756344
aF-4.368121861493055
aF-5.605417052907642
aF-6.054897380639662
aF-7.248497698756862
aF-4.638242636077627
aF-4.7465490748939425
aF-4.247618648839041
aF-5.154082854787055
aF-5.485168612610645
aF-3.929266131758096
aF-6.275059866595541
aF-4.792049239514976
asS'Model'
p91
S'HKY'
p92
s.