(dp0
S'Force'
p1
NsS'ExpectedGeneconv'
p2
(dp3
(S'N1'
p4
S'N2'
p5
tp6
F33.45175662925178
s(S'N5'
p7
S'cerevisiae'
p8
tp9
F35.1408807704776
s(g5
S'N3'
p10
tp11
F9.285552008140249
s(S'N4'
p12
g7
tp13
F25.349965578125733
s(g4
S'castellii'
p14
tp15
F115.90437726978467
s(g5
S'bayanus'
p16
tp17
F64.7436755271182
s(S'N0'
p18
g4
tp19
F13.59831873846278
s(g10
S'kudriavzevii'
p20
tp21
F70.80519713111164
s(g7
S'paradoxus'
p22
tp23
F29.180627817382202
s(g12
S'mikatae'
p24
tp25
F59.21321845226525
s(g10
g12
tp26
F19.99470718785461
s(g18
S'kluyveri'
p27
tp28
F0.0
ssS'newicktree'
p29
S'/Users/xji3/Genconv/PairsAlignemt/YeastTree.newick'
p30
sS'll'
p31
cnumpy.core.multiarray
scalar
p32
(cnumpy
dtype
p33
(S'f8'
p34
I0
I1
tp35
Rp36
(I3
S'<'
p37
NNNI-1
I-1
I0
tp38
bS'\x91\x19\xfe\xcf>q\xba\xc0'
p39
tp40
Rp41
sS'clock'
p42
I01
sS'edge_to_blen'
p43
(dp44
g19
g32
(g36
S'\xad\x9fF_\xb5%\x9a?'
p45
tp46
Rp47
sg9
g32
(g36
S'\xe4\xc2*\x8d0!\x86?'
p48
tp49
Rp50
sg11
g32
(g36
S'\x83\x89\xf9S\xf2Or?'
p51
tp52
Rp53
sg13
g32
(g36
S'\x8e\xbc!\x84\xc8\xcb\x80?'
p54
tp55
Rp56
sg15
g32
(g36
S'\xae\xd5\xd4\xb8\xbb\x90\xa9?'
p57
tp58
Rp59
sg17
g32
(g36
S'_k\xc8G\xcd\xfa\x9d?'
p60
tp61
Rp62
sg6
g32
(g36
S'\x01@\xe1)\xaa&\x95?'
p63
tp64
Rp65
sg21
g32
(g36
S'\xfd\x08\xca\xb2\xd0f\x99?'
p66
tp67
Rp68
sg23
g32
(g36
S'\xe4\xc2*\x8d0!\x86?'
p69
tp70
Rp71
sg25
g32
(g36
S'\xb8?\xa6\x88|v\x93?'
p72
tp73
Rp74
sg26
g32
(g36
S'\x11%\x8f\xa8P\xc1w?'
p75
tp76
Rp77
sg28
g32
(g36
S'\xc3\x12<4\xcbQ\xb3?'
p78
tp79
Rp80
ssS'paralog'
p81
(lp82
S'YDR502C'
p83
aS'YLR180W'
p84
asS'alignment_file'
p85
S'/Users/xji3/Genconv/PairsAlignemt/YDR502C_YLR180W/YDR502C_YLR180W_input.fasta'
p86
sS'x_clock'
p87
(lp88
F-0.8009984160032014
aF-0.6034086305402852
aF-0.8029435695237865
aF1.8067020951476374
aF1.6694118068798016
aF-2.5840621389190357
aF0.0
aF-0.41302400342200873
aF-0.5338653497434572
aF-0.16570728386030867
aF-0.2663061395412598
aF-0.5647358640449829
asS'x'
p89
(lp90
F-0.8009984160032014
aF-0.6034086305402852
aF-0.8029435695237865
aF1.8067020951476374
aF1.6694118068798016
aF-3.667725917949702
aF-4.527700779531053
aF-5.410193672103137
aF-4.803476533443636
aF-2.9970861423410446
aF-3.5309514920845015
aF-3.8797830128683053
aF-3.6966587759448104
aF-4.527700779531053
aF-3.9629649154860704
aF-5.149967364888762
aF-2.5840621389190357
asS'Model'
p91
S'HKY'
p92
s.