(dp0
S'Force'
p1
NsS'ExpectedGeneconv'
p2
(dp3
(S'N1'
p4
S'N2'
p5
tp6
F195.08033891279376
s(S'N5'
p7
S'cerevisiae'
p8
tp9
F182.04275468222116
s(g5
S'N3'
p10
tp11
F42.162829125464434
s(S'N4'
p12
g7
tp13
F96.90140429395511
s(g4
S'castellii'
p14
tp15
F470.0002172401071
s(g5
S'bayanus'
p16
tp17
F355.3194278838257
s(S'N0'
p18
g4
tp19
F86.08743691439577
s(g10
S'kudriavzevii'
p20
tp21
F283.25744599785304
s(g7
S'paradoxus'
p22
tp23
F124.22837630133795
s(g12
S'mikatae'
p24
tp25
F236.8678727127954
s(g10
g12
tp26
F82.42629574582
s(g18
S'kluyveri'
p27
tp28
F0.0
ssS'newicktree'
p29
S'/Users/xji3/Genconv/PairsAlignemt/YeastTree.newick'
p30
sS'll'
p31
cnumpy.core.multiarray
scalar
p32
(cnumpy
dtype
p33
(S'f8'
p34
I0
I1
tp35
Rp36
(I3
S'<'
p37
NNNI-1
I-1
I0
tp38
bS'\x14F\xb1\x83\xc3L\xd5\xc0'
p39
tp40
Rp41
sS'clock'
p42
I01
sS'edge_to_blen'
p43
(dp44
g19
g32
(g36
S'\xd3\xc6\xd8:b\x9b\xa2?'
p45
tp46
Rp47
sg9
g32
(g36
S'\xa9\xbc\x87\xdf\x9aZ\x90?'
p48
tp49
Rp50
sg11
g32
(g36
S'zq\x84\xb6"\x16t?'
p51
tp52
Rp53
sg13
g32
(g36
S' \xed\xaa\xc2\xbaL\x83?'
p54
tp55
Rp56
sg15
g32
(g36
S'(\x13\xef\xb3\x1aG\xb1?'
p57
tp58
Rp59
sg17
g32
(g36
S'y\xf7+{\xc2\xe9\xa3?'
p60
tp61
Rp62
sg6
g32
(g36
S'\xb1]d\xd9\xe5H\x9d?'
p63
tp64
Rp65
sg21
g32
(g36
S'Li[$\xfef\xa1?'
p66
tp67
Rp68
sg23
g32
(g36
S'\xa9\xbc\x87\xdf\x9aZ\x90?'
p69
tp70
Rp71
sg25
g32
(g36
S':3\xdd@\xf8\x00\x9a?'
p72
tp73
Rp74
sg26
g32
(g36
S'\xba>\xb3\x0f\x08\x9a\x81?'
p75
tp76
Rp77
sg28
g32
(g36
S'\x93v[\xd1\xcb\x94\xba?'
p78
tp79
Rp80
ssS'paralog'
p81
(lp82
S'YGL062W'
p83
aS'YBR218C'
p84
asS'alignment_file'
p85
S'/Users/xji3/Genconv/PairsAlignemt/YGL062W_YBR218C/YGL062W_YBR218C_input.fasta'
p86
sS'x_clock'
p87
(lp88
F-0.7565038197569574
aF-0.6027846534783665
aF-0.7850580114174681
aF1.606477278685953
aF1.9484919469101494
aF-2.264971928284194
aF0.0
aF-0.43078589997972666
aF-0.5511877951406441
aF-0.13477573533214737
aF-0.29150822538103555
aF-0.463774250392388
asS'x'
p89
(lp90
F-0.7565038197569574
aF-0.6027846534783665
aF-0.7850580114174681
aF1.606477278685953
aF1.9484919469101494
aF-3.314788511301559
aF-4.137003834510136
aF-5.317719853146315
aF-4.664528152637127
aF-2.695757828263921
aF-3.246945623404565
aF-3.5544046563337823
aF-3.381721358736712
aF-4.137003834510136
aF-3.6732295841177476
aF-4.756624321307747
aF-2.264971928284194
asS'Model'
p91
S'HKY'
p92
s.