(dp0
S'Force'
p1
NsS'ExpectedGeneconv'
p2
(dp3
(S'N0'
p4
S'N1'
p5
tp6
F115.2028178618641
s(S'N5'
p7
S'cerevisiae'
p8
tp9
F97.21294498731194
s(S'N2'
p10
S'N3'
p11
tp12
F63.33043451064296
s(S'N4'
p13
g7
tp14
F62.990363770269795
s(g11
S'kudriavzevii'
p15
tp16
F134.1100164266614
s(g10
S'bayanus'
p17
tp18
F178.736998711746
s(g5
g10
tp19
F578.6936580823226
s(g5
S'castellii'
p20
tp21
F725.3619111583669
s(g7
S'paradoxus'
p22
tp23
F80.77761268511696
s(g4
S'kluyveri'
p24
tp25
F0.0
s(g11
g13
tp26
F57.68873478670641
s(g13
S'mikatae'
p27
tp28
F154.39288863210524
ssS'newicktree'
p29
S'/Users/xji3/Genconv/PairsAlignemt/YeastTree.newick'
p30
sS'll'
p31
cnumpy.core.multiarray
scalar
p32
(cnumpy
dtype
p33
(S'f8'
p34
I0
I1
tp35
Rp36
(I3
S'<'
p37
NNNI-1
I-1
I0
tp38
bS'c\x8c\xdf\xddi\x8e\xd9\xc0'
p39
tp40
Rp41
sS'clock'
p42
I00
sS'edge_to_blen'
p43
(dp44
g19
g32
(g36
S'V\xa0\xad\xa2\xc1\x0e\xd2?'
p45
tp46
Rp47
sg9
g32
(g36
S'`\x01\xe2c\xcf\xc3\xa4?'
p48
tp49
Rp50
sg12
g32
(g36
S'\x10\x1f\x93\x9b\xe7d\x9c?'
p51
tp52
Rp53
sg14
g32
(g36
S'\xfa\xc5\xecw\xaf\xb6\x9a?'
p54
tp55
Rp56
sg16
g32
(g36
S'\x07\xcd\xd8\xf0\x88\x1a\xab?'
p57
tp58
Rp59
sg18
g32
(g36
S'}q"?([\xb1?'
p60
tp61
Rp62
sg6
g32
(g36
S'\xf1\xe1\xa2\xd7\xe9\x1b\xc2?'
p63
tp64
Rp65
sg21
g32
(g36
S'\x03f\xeer\xbe\x7f\xd5?'
p66
tp67
Rp68
sg23
g32
(g36
S'o\xf1?\xe9\x1a\xde\x9e?'
p69
tp70
Rp71
sg25
g32
(g36
S'\xf9\xd9_\x18M\xb6\xcf?'
p72
tp73
Rp74
sg26
g32
(g36
S'\x87:\xd7.\xe5\xa6\x99?'
p75
tp76
Rp77
sg28
g32
(g36
S'39:!\x1ee\xb0?'
p78
tp79
Rp80
ssS'paralog'
p81
(lp82
S'YIR033W'
p83
aS'YKL020C'
p84
asS'alignment_file'
p85
S'/Users/xji3/Genconv/PairsAlignemt/YIR033W_YKL020C/YIR033W_YKL020C_input.fasta'
p86
sS'x_clock'
p87
(lp88
F-0.6478951576748382
aF-0.4520086202596996
aF-0.8761185334130079
aF0.1823215567939546
aF0.3364722366212129
aF-0.10536051565782628
aF-0.10536051565782628
aF-0.10536051565782628
aF-0.10536051565782628
aF-0.10536051565782628
aF-0.10536051565782628
aF-0.10536051565782628
asS'x'
p89
(lp90
F-0.685459730728921
aF-0.45991758469287314
aF-0.8449382909570481
aF1.242235053051644
aF-0.9266089670055163
aF-1.2653141007785629
aF-3.2050613693153913
aF-3.5852883487238434
aF-3.646298447456776
aF-2.938656144207419
aF-2.6912344021440133
aF-1.9556191739589015
aF-1.090876671617188
aF-3.501764776031251
aF-1.3953315147219019
aF-3.6868528155939333
aF-2.7482015834858555
asS'Model'
p91
S'HKY'
p92
s.