(dp0
S'Force'
p1
NsS'ExpectedGeneconv'
p2
(dp3
(S'N0'
p4
S'N1'
p5
tp6
F3.729294156248525
s(S'N5'
p7
S'cerevisiae'
p8
tp9
F4.244349717587143
s(S'N2'
p10
S'N3'
p11
tp12
F1.5151392123274434
s(S'N4'
p13
g7
tp14
F2.166115012667037
s(g5
S'castellii'
p15
tp16
F17.83994361270208
s(g10
S'bayanus'
p17
tp18
F10.217865497076438
s(g5
g10
tp19
F9.932895009114327
s(g11
S'kudriavzevii'
p20
tp21
F4.907908642460013
s(g7
S'paradoxus'
p22
tp23
F5.781928807409312
s(g4
S'kluyveri'
p24
tp25
F0.0
s(g11
g13
tp26
F1.163131053127857
s(g13
S'mikatae'
p27
tp28
F10.328520690319463
ssS'newicktree'
p29
S'/Users/xji3/Genconv/PairsAlignemt/YeastTree.newick'
p30
sS'll'
p31
cnumpy.core.multiarray
scalar
p32
(cnumpy
dtype
p33
(S'f8'
p34
I0
I1
tp35
Rp36
(I3
S'<'
p37
NNNI-1
I-1
I0
tp38
bS'f\x1bH\x9cf$\x94\xc0'
p39
tp40
Rp41
sS'clock'
p42
I01
sS'edge_to_blen'
p43
(dp44
g19
g32
(g36
S'\xdc\x8d|s\x9d\x8b\x7f?'
p45
tp46
Rp47
sg9
g32
(g36
S'e\x86a\nhkq?'
p48
tp49
Rp50
sg12
g32
(g36
S"'\x80\xc3\xd7\x101a?"
p51
tp52
Rp53
sg14
g32
(g36
S'\x99\x94\xbe\xd1\x86IU?'
p54
tp55
Rp56
sg16
g32
(g36
S'T=\x99C\xf5\xee\x90?'
p57
tp58
Rp59
sg18
g32
(g36
S'\xbc3t\xcd\x1b\x18\x82?'
p60
tp61
Rp62
sg6
g32
(g36
S'?\x07&\x01p\xce\x84?'
p63
tp64
Rp65
sg21
g32
(g36
S'f\xa7\x06/\xaf\x97{?'
p66
tp67
Rp68
sg23
g32
(g36
S'e\x86a\nhkq?'
p69
tp70
Rp71
sg25
g32
(g36
S'\xf5@,D-V\x9b?'
p72
tp73
Rp74
sg26
g32
(g36
S's\xef\xd5\xc0\x95gS?'
p75
tp76
Rp77
sg28
g32
(g36
S'\x89+\xd1\xbe\xc9\xbdv?'
p78
tp79
Rp80
ssS'paralog'
p81
(lp82
S'YLR406C'
p83
aS'YDL075W'
p84
asS'alignment_file'
p85
S'/Users/xji3/Genconv/PairsAlignemt/YLR406C_YDL075W/YLR406C_YDL075W_input.fasta'
p86
sS'x_clock'
p87
(lp88
F-0.6922262668112477
aF-0.5100717209373061
aF-0.889209702118127
aF2.2571063474711366
aF3.086999986706915
aF-3.6232443100391345
aF0.0
aF-0.4789377249844538
aF-0.6268469302367254
aF-0.27119259444536165
aF-0.1933593297933021
aF-0.26659177783019256
asS'x'
p89
(lp90
F-0.6922262668112477
aF-0.5100717209373061
aF-0.889209702118127
aF2.2571063474711366
aF3.086999986706915
aF-4.866339299638931
aF-5.46017266732917
aF-6.166488775663366
aF-6.6459539438563375
aF-4.1021820350235885
aF-4.729028965260314
aF-4.589358520150184
aF-5.000221559705675
aF-5.46017266732917
aF-3.6232443100391345
aF-6.7385488921128
aF-5.1935808894989774
asS'Model'
p91
S'HKY'
p92
s.