(dp0
S'Force'
p1
NsS'ExpectedGeneconv'
p2
(dp3
(S'N0'
p4
S'N1'
p5
tp6
F14.370588315999507
s(S'N5'
p7
S'cerevisiae'
p8
tp9
F15.401492406737823
s(S'N2'
p10
S'N3'
p11
tp12
F4.0222887440608845
s(S'N4'
p13
g7
tp14
F6.4712194672495595
s(g11
S'kudriavzevii'
p15
tp16
F16.464698936909187
s(g10
S'bayanus'
p17
tp18
F8.26394985320196
s(g5
g10
tp19
F27.493384751323006
s(g5
S'castellii'
p20
tp21
F28.403722658070706
s(g7
S'paradoxus'
p22
tp23
F4.737898095718895
s(g13
S'mikatae'
p24
tp25
F12.003297600061499
s(g11
g13
tp26
F5.848213455401734
s(g4
S'kluyveri'
p27
tp28
F0.0
ssS'newicktree'
p29
S'/Users/xji3/Genconv/PairsAlignemt/YeastTree.newick'
p30
sS'll'
p31
cnumpy.core.multiarray
scalar
p32
(cnumpy
dtype
p33
(S'f8'
p34
I0
I1
tp35
Rp36
(I3
S'<'
p37
NNNI-1
I-1
I0
tp38
bS'p\xac\xcf:\x19V\x9d\xc0'
p39
tp40
Rp41
sS'clock'
p42
I00
sS'edge_to_blen'
p43
(dp44
g19
g32
(g36
S'd\xcd*Zi\x08\x8b?'
p45
tp46
Rp47
sg9
g32
(g36
S'Cx\xf4\xc9Sdr?'
p48
tp49
Rp50
sg12
g32
(g36
S'\t\x8f\x13~\xfc\rY?'
p51
tp52
Rp53
sg14
g32
(g36
S'2\x1a\xb4\xc5\x12^_?'
p54
tp55
Rp56
sg16
g32
(g36
S'\xf5\xde<\x10\x8e\x94z?'
p57
tp58
Rp59
sg18
g32
(g36
S'\xf0\xeb\x9f\x99S\x94c?'
p60
tp61
Rp62
sg6
g32
(g36
S'(\xd6\xce,g\xde\x8c?'
p63
tp64
Rp65
sg21
g32
(g36
S'\x9c!\xb5\xbf\x93E\x8b?'
p66
tp67
Rp68
sg23
g32
(g36
S'm\x8bS\xbf\xb9t\\?'
p69
tp70
Rp71
sg25
g32
(g36
S'{"\xc9\xd9\xe1Oq?'
p72
tp73
Rp74
sg26
g32
(g36
S'\x94\xd8A\x1e\xb9\x18d?'
p75
tp76
Rp77
sg28
g32
(g36
S'\xf3\x90\xa3\xb0(d\x83?'
p78
tp79
Rp80
ssS'paralog'
p81
(lp82
S'YDR418W'
p83
aS'YEL054C'
p84
asS'alignment_file'
p85
S'/Users/xji3/Genconv/PairsAlignemt/YDR418W_YEL054C/YDR418W_YEL054C_input.fasta'
p86
sS'x_clock'
p87
(lp88
F-0.6398702388921944
aF-0.5469480680886125
aF-0.8173184239451081
aF0.1823215567939546
aF0.3364722366212129
aF-0.10536051565782628
aF-0.10536051565782628
aF-0.10536051565782628
aF-0.10536051565782628
aF-0.10536051565782628
aF-0.10536051565782628
aF-0.10536051565782628
asS'x'
p89
(lp90
F-0.7618968248993782
aF-0.49561145596973727
aF-0.7945166005325788
aF2.469526361009974
aF3.284987902262847
aF-4.3275659138399885
aF-5.405855625197308
aF-6.483001728211849
aF-6.25828903351229
aF-5.037596100857795
aF-6.036435321664987
aF-4.261858881314358
aF-4.31876630854694
aF-6.355702924178239
aF-5.466363955914608
aF-6.010363960694234
aF-4.659797265226721
asS'Model'
p91
S'HKY'
p92
s.