(dp0
S'Force'
p1
NsS'ExpectedGeneconv'
p2
(dp3
(S'N0'
p4
S'N1'
p5
tp6
F54.253986002231684
s(S'N5'
p7
S'cerevisiae'
p8
tp9
F6.453920377076135
s(S'N2'
p10
S'N3'
p11
tp12
F8.018619590736813
s(S'N4'
p13
g7
tp14
F18.21352434843887
s(g11
S'kudriavzevii'
p15
tp16
F20.25999580145207
s(g10
S'bayanus'
p17
tp18
F32.19343648033549
s(g5
g10
tp19
F25.74969306232903
s(g5
S'castellii'
p20
tp21
F53.675476673937006
s(g7
S'paradoxus'
p22
tp23
F6.5800475315447375
s(g4
S'kluyveri'
p24
tp25
F0.0
s(g11
g13
tp26
F9.284878813662157
s(g13
S'mikatae'
p27
tp28
F9.523487317801077
ssS'newicktree'
p29
S'/Users/xji3/Genconv/PairsAlignemt/YeastTree.newick'
p30
sS'll'
p31
cnumpy.core.multiarray
scalar
p32
(cnumpy
dtype
p33
(S'f8'
p34
I0
I1
tp35
Rp36
(I3
S'<'
p37
NNNI-1
I-1
I0
tp38
bS'`\x9c\xa4WI\x93\xa0\xc0'
p39
tp40
Rp41
sS'clock'
p42
I00
sS'edge_to_blen'
p43
(dp44
g19
g32
(g36
S'\x85\x18\xefS\xa0\xd5~?'
p45
tp46
Rp47
sg9
g32
(g36
S'K\xb3X\x7f\xdd\xa8[?'
p48
tp49
Rp50
sg12
g32
(g36
S'\xd7\xa7\x89\x17o:c?'
p51
tp52
Rp53
sg14
g32
(g36
S'\x18R\x1d\\\x11Uq?'
p54
tp55
Rp56
sg16
g32
(g36
S'iH\xe4\x95\xc7\x91\x81?'
p57
tp58
Rp59
sg18
g32
(g36
S'Gh\xb6k.^\x82?'
p60
tp61
Rp62
sg6
g32
(g36
S'\x95|\xcc\xe4-h\x9d?'
p63
tp64
Rp65
sg21
g32
(g36
S'X\xbfw\x1cbZ\x90?'
p66
tp67
Rp68
sg23
g32
(g36
S'N]Vn+!h?'
p69
tp70
Rp71
sg25
g32
(g36
S'\xe3h\xf4\xf8\x87\xe6\x9b>'
p72
tp73
Rp74
sg26
g32
(g36
S'\n\xdd\xd0\xc5\x087a?'
p75
tp76
Rp77
sg28
g32
(g36
S't\x1fh\x1a\xa4\xe5k?'
p78
tp79
Rp80
ssS'paralog'
p81
(lp82
S'YER102W'
p83
aS'YBL072C'
p84
asS'alignment_file'
p85
S'/Users/xji3/Genconv/PairsAlignemt/YER102W_YBL072C/YER102W_YBL072C_input.fasta'
p86
sS'x_clock'
p87
(lp88
F-0.6118861020835681
aF-0.5481000259870481
aF-0.7987579777858408
aF0.1823215567939546
aF0.3364722366212129
aF-0.10536051565782628
aF-0.10536051565782628
aF-0.10536051565782628
aF-0.10536051565782628
aF-0.10536051565782628
aF-0.10536051565782628
aF-0.10536051565782628
asS'x'
p89
(lp90
F-0.7159913794570367
aF-0.5557223262518542
aF-0.7693745732580892
aF2.164069604784632
aF3.7534359203313574
aF-4.889132698289505
aF-6.384086586261073
aF-6.054532398723688
aF-5.4651945766809265
aF-4.758457292001897
aF-4.7140146376158585
aF-3.550240755010972
aF-4.137056796824458
aF-5.8274753312685865
aF-14.69318164477504
aF-6.165133551038162
aF-5.682392926988234
asS'Model'
p91
S'HKY'
p92
s.