(dp0
S'Force'
p1
NsS'ExpectedGeneconv'
p2
(dp3
(S'N1'
p4
S'N2'
p5
tp6
F33.772601752186326
s(S'N5'
p7
S'cerevisiae'
p8
tp9
F15.930182262368831
s(g5
S'N3'
p10
tp11
F7.460129234161688
s(S'N4'
p12
g7
tp13
F6.295859130572498
s(g4
S'castellii'
p14
tp15
F49.803518860721866
s(g5
S'bayanus'
p16
tp17
F12.54176386211737
s(S'N0'
p18
g4
tp19
F6.954978539544176
s(g10
S'kudriavzevii'
p20
tp21
F19.010600170084256
s(g7
S'paradoxus'
p22
tp23
F11.188644097162099
s(g18
S'kluyveri'
p24
tp25
F0.0
s(g10
g12
tp26
F4.380495977400747
s(g12
S'mikatae'
p27
tp28
F17.033399494499946
ssS'newicktree'
p29
S'/Users/xji3/Genconv/PairsAlignemt/YeastTree.newick'
p30
sS'll'
p31
cnumpy.core.multiarray
scalar
p32
(cnumpy
dtype
p33
(S'f8'
p34
I0
I1
tp35
Rp36
(I3
S'<'
p37
NNNI-1
I-1
I0
tp38
bS'\xc3;J\xe9\xf1\x0e\xa1\xc0'
p39
tp40
Rp41
sS'clock'
p42
I00
sS'edge_to_blen'
p43
(dp44
g19
g32
(g36
S'\xdf=\x1b1:\xcf\xa5?'
p45
tp46
Rp47
sg9
g32
(g36
S'\xe1\xf7o"7X\x96?'
p48
tp49
Rp50
sg11
g32
(g36
S'Y\x05@\xb4\xb1_\x8d?'
p51
tp52
Rp53
sg13
g32
(g36
S'AeP\xb6\x823\x85?'
p54
tp55
Rp56
sg15
g32
(g36
S'\xb7\xc2+T\xa0\x94\xb8?'
p57
tp58
Rp59
sg17
g32
(g36
S'\xe1\xdb\xb6\xc5\x91\x9e\x94?'
p60
tp61
Rp62
sg6
g32
(g36
S'\xfc!\xb5\xff\x04}\xb4?'
p63
tp64
Rp65
sg21
g32
(g36
S'%f\x8d^C\xae\x9f?'
p66
tp67
Rp68
sg23
g32
(g36
S'\xa8W\xddT,\xba\x8f?'
p69
tp70
Rp71
sg25
g32
(g36
S'\xfe\xf2\xb3\xb0\x8cO\xaa?'
p72
tp73
Rp74
sg26
g32
(g36
S'\x83}\xe4\xab\x90\xd0x?'
p75
tp76
Rp77
sg28
g32
(g36
S'q\xff/\xe5\t\x90\x9a?'
p78
tp79
Rp80
ssS'paralog'
p81
(lp82
S'YJR048W'
p83
aS'YEL039C'
p84
asS'alignment_file'
p85
S'/Users/xji3/Genconv/PairsAlignemt/YJR048W_YEL039C/YJR048W_YEL039C_input.fasta'
p86
sS'x_clock'
p87
(lp88
F-0.5409138533559995
aF-0.5223394658283297
aF-0.7764798286921125
aF0.1823215567939546
aF0.3364722366212129
aF-0.10536051565782628
aF-0.10536051565782628
aF-0.10536051565782628
aF-0.10536051565782628
aF-0.10536051565782628
aF-0.10536051565782628
aF-0.10536051565782628
asS'x'
p89
(lp90
F-0.657920365338231
aF-0.5116138866972012
aF-0.7815737673436497
aF1.5253570045949028
aF1.2265091517471507
aF-3.1559798100448155
aF-3.8248875144519863
aF-4.244515685180663
aF-4.570560576904715
aF-2.343221093124953
aF-3.9052388526791684
aF-2.525320645201899
aF-3.4757636544819324
aF-4.167443401525289
aF-2.9683473847055506
aF-5.106329644522775
aF-3.651965674611328
asS'Model'
p91
S'HKY'
p92
s.