(dp0
S'Force'
p1
NsS'ExpectedGeneconv'
p2
(dp3
(S'N1'
p4
S'N2'
p5
tp6
F22.264849628400754
s(S'N5'
p7
S'cerevisiae'
p8
tp9
F14.937105744229596
s(g5
S'N3'
p10
tp11
F1.823809149281331
s(S'N4'
p12
g7
tp13
F5.558867767782129
s(g4
S'castellii'
p14
tp15
F41.65693232850134
s(g5
S'bayanus'
p16
tp17
F19.834765281334736
s(S'N0'
p18
g4
tp19
F0.7363757838522075
s(g10
S'kudriavzevii'
p20
tp21
F18.209243000549332
s(g7
S'paradoxus'
p22
tp23
F11.70003223975494
s(g18
S'kluyveri'
p24
tp25
F0.0
s(g10
g12
tp26
F3.2156534221714472
s(g12
S'mikatae'
p27
tp28
F16.979164103218753
ssS'newicktree'
p29
S'/Users/xji3/Genconv/PairsAlignemt/YeastTree.newick'
p30
sS'll'
p31
cnumpy.core.multiarray
scalar
p32
(cnumpy
dtype
p33
(S'f8'
p34
I0
I1
tp35
Rp36
(I3
S'<'
p37
NNNI-1
I-1
I0
tp38
bS'L\xaah.X$\xa1\xc0'
p39
tp40
Rp41
sS'clock'
p42
I01
sS'edge_to_blen'
p43
(dp44
g19
g32
(g36
S'<S\xc4o"\x85\x8d?'
p45
tp46
Rp47
sg9
g32
(g36
S'\xfa \xaa\x17\x9a\xfb\x91?'
p48
tp49
Rp50
sg11
g32
(g36
S'\x11kw1\xdc^r?'
p51
tp52
Rp53
sg13
g32
(g36
S'w?\xa2z\x96\xd0\x81?'
p54
tp55
Rp56
sg15
g32
(g36
S'\xc5\x90\xb2S\x11\x0e\xbb?'
p57
tp58
Rp59
sg17
g32
(g36
S'\xde\xa3\xc9Z\x05\t\xa2?'
p60
tp61
Rp62
sg6
g32
(g36
S'\xd8\xbeM\xa6\x8e\t\xb2?'
p63
tp64
Rp65
sg21
g32
(g36
S'\xfal5\xa9Sz\x9f?'
p66
tp67
Rp68
sg23
g32
(g36
S'\xfa \xaa\x17\x9a\xfb\x91?'
p69
tp70
Rp71
sg25
g32
(g36
S'.\x1b\xab\xa1\xb5\xbe\xbe?'
p72
tp73
Rp74
sg26
g32
(g36
S'\x0c\xb1\xe8P\xb9Yr?'
p75
tp76
Rp77
sg28
g32
(g36
S'\xb6@\xfbT\xe5\xe3\x9a?'
p78
tp79
Rp80
ssS'paralog'
p81
(lp82
S'YJR048W'
p83
aS'YEL039C'
p84
asS'alignment_file'
p85
S'/Users/xji3/Genconv/PairsAlignemt/YJR048W_YEL039C/YJR048W_YEL039C_input.fasta'
p86
sS'x_clock'
p87
(lp88
F-0.6609015306480598
aF-0.5133155751179677
aF-0.7683695548303063
aF1.5240973072725965
aF1.16162397488392
aF-2.1194513993730557
aF0.0
aF-0.12785599231037303
aF-1.098689725003263
aF-0.136190912411064
aF-0.1575211962506556
aF-0.4023457217910569
asS'x'
p89
(lp90
F-0.6609015306480598
aF-0.5133155751179677
aF-0.7683695548303063
aF1.5240973072725965
aF1.16162397488392
aF-4.23954906533635
aF-4.0420549471394684
aF-5.407017470330067
aF-4.744589631012024
aF-2.247307391683429
aF-3.345997116686692
aF-2.652733783872545
aF-3.4821880290977556
aF-4.0420549471394684
aF-2.1194513993730557
aF-5.4081102193498625
aF-3.6397092253484113
asS'Model'
p91
S'HKY'
p92
s.