(dp0
S'Force'
p1
NsS'ExpectedGeneconv'
p2
(dp3
(S'N0'
p4
S'N1'
p5
tp6
F6.453812613322096
s(S'N5'
p7
S'cerevisiae'
p8
tp9
F16.466583755316343
s(S'N2'
p10
S'N3'
p11
tp12
F3.7989214966395113
s(S'N4'
p13
g7
tp14
F6.933302329129649
s(g11
S'kudriavzevii'
p15
tp16
F26.73900112833809
s(g10
S'bayanus'
p17
tp18
F27.457700837042985
s(g5
g10
tp19
F36.12491105890851
s(g5
S'castellii'
p20
tp21
F79.84361897783933
s(g7
S'paradoxus'
p22
tp23
F14.584033877061259
s(g4
S'kluyveri'
p24
tp25
F0.0
s(g11
g13
tp26
F6.347470185837236
s(g13
S'mikatae'
p27
tp28
F30.360983597494233
ssS'newicktree'
p29
S'/Users/xji3/Genconv/PairsAlignemt/YeastTree.newick'
p30
sS'll'
p31
cnumpy.core.multiarray
scalar
p32
(cnumpy
dtype
p33
(S'f8'
p34
I0
I1
tp35
Rp36
(I3
S'<'
p37
NNNI-1
I-1
I0
tp38
bS'\xa9\xb7?\t.\xbe\xad\xc0'
p39
tp40
Rp41
sS'clock'
p42
I01
sS'edge_to_blen'
p43
(dp44
g19
g32
(g36
S'\xd8(\x14i\x05\x17\xba?'
p45
tp46
Rp47
sg9
g32
(g36
S'\xe0\x1fA3j\xa5\x97?'
p48
tp49
Rp50
sg12
g32
(g36
S'\xab\xc4\x98\x91D\x8e}?'
p51
tp52
Rp53
sg14
g32
(g36
S'\x1f\x10\xc8\x02\xbb\xf3\x8d?'
p54
tp55
Rp56
sg16
g32
(g36
S'9\x85\xedp\x8fs\xaa?'
p57
tp58
Rp59
sg18
g32
(g36
S'\xce\x9d \x03X%\xae?'
p60
tp61
Rp62
sg6
g32
(g36
S'0?\xa9\xa7\xf2\x17\xab?'
p63
tp64
Rp65
sg21
g32
(g36
S'\xe0;R\xb5\xd8\x94\xc4?'
p66
tp67
Rp68
sg23
g32
(g36
S'\xe0\x1fA3j\xa5\x97?'
p69
tp70
Rp71
sg25
g32
(g36
S'\xac\x8b<_\xd5Z\xcb?'
p72
tp73
Rp74
sg26
g32
(g36
S'\x00\xc5kZ\xae\x8f\x8c?'
p75
tp76
Rp77
sg28
g32
(g36
S'\xf6\x93R\xda\xa3O\xa3?'
p78
tp79
Rp80
ssS'paralog'
p81
(lp82
S'YIL057C'
p83
aS'YER067W'
p84
asS'alignment_file'
p85
S'/Users/xji3/Genconv/PairsAlignemt/YIL057C_YER067W/YIL057C_YER067W_input.fasta'
p86
sS'x_clock'
p87
(lp88
F-0.6708365186359099
aF-0.46845898426420995
aF-0.7359239647907744
aF1.3840829948221867
aF0.22004650536411005
aF-1.5431375787725001
aF0.0
aF-0.28450338932689184
aF-1.0046355852585025
aF-0.13073870164153661
aF-0.3146296234354575
aF-0.49062654273330025
asS'x'
p89
(lp90
F-0.6708365186359099
aF-0.46845898426420995
aF-0.7359239647907744
aF1.3840829948221867
aF0.22004650536411005
aF-2.2836281698988556
aF-3.7682714211681887
aF-4.931488405280429
aF-4.22502047169296
aF-2.963015254999431
aF-2.8322765533578944
aF-2.939029066830063
aF-1.827640968099392
aF-3.7682714211681887
aF-1.5431375787725001
aF-4.27256793617855
aF-3.277644878434889
asS'Model'
p91
S'HKY'
p92
s.