(dp0
S'Force'
p1
NsS'ExpectedGeneconv'
p2
(dp3
(S'N1'
p4
S'N2'
p5
tp6
F93.5790583127797
s(S'N5'
p7
S'cerevisiae'
p8
tp9
F52.113255812060295
s(g5
S'N3'
p10
tp11
F7.862494622200228
s(S'N4'
p12
g7
tp13
F27.388132582626113
s(g10
S'kudriavzevii'
p14
tp15
F72.16258771983041
s(g5
S'bayanus'
p16
tp17
F80.1942213839196
s(S'N0'
p18
g4
tp19
F4.183858532646234
s(g4
S'castellii'
p20
tp21
F172.80001225946313
s(g7
S'paradoxus'
p22
tp23
F39.21233988800198
s(g18
S'kluyveri'
p24
tp25
F0.0
s(g10
g12
tp26
F27.160078883365053
s(g12
S'mikatae'
p27
tp28
F64.64890170468423
ssS'newicktree'
p29
S'/Users/xji3/Genconv/PairsAlignemt/YeastTree.newick'
p30
sS'll'
p31
cnumpy.core.multiarray
scalar
p32
(cnumpy
dtype
p33
(S'f8'
p34
I0
I1
tp35
Rp36
(I3
S'<'
p37
NNNI-1
I-1
I0
tp38
bS'n\xae\x9e\xca\xc3\x85\xc5\xc0'
p39
tp40
Rp41
sS'clock'
p42
I01
sS'edge_to_blen'
p43
(dp44
g19
g32
(g36
S'X\xcb\x04\x1b\xaaP\xa2?'
p45
tp46
Rp47
sg9
g32
(g36
S'\xf0\xcb#\x80\x92\xf9\xa0?'
p48
tp49
Rp50
sg11
g32
(g36
S'\x1ep\xf9\x9e~\x17\x87?'
p51
tp52
Rp53
sg13
g32
(g36
S'\xba\xe0\xde\x07\xf07\x93?'
p54
tp55
Rp56
sg15
g32
(g36
S'\x7f\t\xc3j*=\xb1?'
p57
tp58
Rp59
sg17
g32
(g36
S'\x827\xa2>\x1a \xb4?'
p60
tp61
Rp62
sg6
g32
(g36
S'\xb5\xe8\xfe\xae\x05x\xc5?'
p63
tp64
Rp65
sg21
g32
(g36
S'v\x04P\xce\x12\x88\xcf?'
p66
tp67
Rp68
sg23
g32
(g36
S'\xf0\xcb#\x80\x92\xf9\xa0?'
p69
tp70
Rp71
sg25
g32
(g36
S'\xa6\x9b\x88\xaa\x1e\x0e\xd2?'
p72
tp73
Rp74
sg26
g32
(g36
S'\xbcZ\xcbE)\x93\x8f?'
p75
tp76
Rp77
sg28
g32
(g36
S'K<\x13\x84\x8a\x95\xaa?'
p78
tp79
Rp80
ssS'paralog'
p81
(lp82
S'YPR157W'
p83
aS'YGR141W'
p84
asS'alignment_file'
p85
S'/Users/xji3/Genconv/PairsAlignemt/YPR157W_YGR141W/YPR157W_YGR141W_input.fasta'
p86
sS'x_clock'
p87
(lp88
F-0.7162946086006955
aF-0.6028379416051277
aF-0.8406328108881963
aF1.1768175199178308
aF-0.5412122771607046
aF-1.2654518200675806
aF0.0
aF-0.13559022567306875
aF-1.1421526769106407
aF-0.15481261150321246
aF-0.2600023116387679
aF-0.4485796875047738
asS'x'
p89
(lp90
F-0.7162946086006955
aF-0.6028379416051277
aF-0.8406328108881963
aF1.1768175199178308
aF-0.5412122771607046
aF-3.330599008806941
aF-3.406589333298044
aF-4.4851424565674805
aF-3.9755981195152996
aF-2.6980073341545023
aF-2.54319472265129
aF-1.7854278349358197
aF-1.4010420457406494
aF-3.406589333298044
aF-1.2654518200675806
aF-4.172258115387425
aF-2.9580096457932705
asS'Model'
p91
S'HKY'
p92
s.