(dp0
S'Force'
p1
NsS'ExpectedGeneconv'
p2
(dp3
(S'N0'
p4
S'N1'
p5
tp6
F99.53836342005941
s(S'N5'
p7
S'cerevisiae'
p8
tp9
F29.437917874222283
s(S'N2'
p10
S'N3'
p11
tp12
F12.910420381764176
s(S'N4'
p13
g7
tp14
F12.273678940260078
s(g11
S'kudriavzevii'
p15
tp16
F34.59792221089858
s(g10
S'bayanus'
p17
tp18
F45.381258406298194
s(g5
g10
tp19
F50.87438425214964
s(g5
S'castellii'
p20
tp21
F109.5637698300701
s(g7
S'paradoxus'
p22
tp23
F22.354067744390097
s(g4
S'kluyveri'
p24
tp25
F0.0
s(g11
g13
tp26
F17.376532370638227
s(g13
S'mikatae'
p27
tp28
F56.75694791300033
ssS'newicktree'
p29
S'/Users/xji3/Genconv/PairsAlignemt/YeastTree.newick'
p30
sS'll'
p31
cnumpy.core.multiarray
scalar
p32
(cnumpy
dtype
p33
(S'f8'
p34
I0
I1
tp35
Rp36
(I3
S'<'
p37
NNNI-1
I-1
I0
tp38
bS'\x03\xe3\xae\x9a\xd8\xf0\xb0\xc0'
p39
tp40
Rp41
sS'clock'
p42
I00
sS'edge_to_blen'
p43
(dp44
g19
g32
(g36
S"\xea'G\xd45d\x98?"
p45
tp46
Rp47
sg9
g32
(g36
S'\x99\xa1\x8du\xab\xb3\x86?'
p48
tp49
Rp50
sg12
g32
(g36
S'b\xa0\xac\x84\xb1\x7fs?'
p51
tp52
Rp53
sg14
g32
(g36
S'C\x0f\x02\xc7k\xd8r?'
p54
tp55
Rp56
sg16
g32
(g36
S'\xfd\x8e\xa9\xb4X%\x85?'
p57
tp58
Rp59
sg18
g32
(g36
S'Q,\xfe\xcf?R\x91?'
p60
tp61
Rp62
sg6
g32
(g36
S'6\xacwW\xa7d\xb1?'
p63
tp64
Rp65
sg21
g32
(g36
S']\xe7\xd0\xc1L\x8f\xa4?'
p66
tp67
Rp68
sg23
g32
(g36
S'\xe5j\xa7\xd1\xed\x14\x82?'
p69
tp70
Rp71
sg25
g32
(g36
S'\xe5\xe1kB\xebu\xfc>'
p72
tp73
Rp74
sg26
g32
(g36
S'\xb8\xd8\xc7\x1b?\xadx?'
p75
tp76
Rp77
sg28
g32
(g36
S'?e7N\x0e_\x91?'
p78
tp79
Rp80
ssS'paralog'
p81
(lp82
S'YDR099W'
p83
aS'YER177W'
p84
asS'alignment_file'
p85
S'/Users/xji3/Genconv/PairsAlignemt/YDR099W_YER177W/YDR099W_YER177W_input.fasta'
p86
sS'x_clock'
p87
(lp88
F-0.6936500721973982
aF-0.5277350560841323
aF-0.7828849752822118
aF0.1823215567939546
aF0.3364722366212129
aF-0.10536051565782628
aF-0.10536051565782628
aF-0.10536051565782628
aF-0.10536051565782628
aF-0.10536051565782628
aF-0.10536051565782628
aF-0.10536051565782628
asS'x'
p89
(lp90
F-0.7725075863466662
aF-0.5023259608283651
aF-0.7672123131722326
aF2.013493262742462
aF2.152729275009746
aF-3.73723929342542
aF-4.502173227509729
aF-5.347413115154936
aF-5.381497603512939
aF-4.573173672092791
aF-4.0795356441916795
aF-2.6890993593100423
aF-3.214988615923311
aF-4.729715632063735
aF-10.514422197817629
aF-5.111904896580228
aF-4.076651693650559
asS'Model'
p91
S'HKY'
p92
s.