(dp0
S'Force'
p1
NsS'ExpectedGeneconv'
p2
(dp3
(S'N0'
p4
S'N1'
p5
tp6
F8.184875755122924
s(S'N5'
p7
S'cerevisiae'
p8
tp9
F94.4121237534981
s(S'N2'
p10
S'N3'
p11
tp12
F16.470932528574544
s(S'N4'
p13
g7
tp14
F28.32898159721065
s(g5
S'castellii'
p15
tp16
F382.59346103853346
s(g10
S'bayanus'
p17
tp18
F126.84384351727344
s(g5
g10
tp19
F230.6319965538447
s(g11
S'kudriavzevii'
p20
tp21
F102.46519531606664
s(g7
S'paradoxus'
p22
tp23
F89.02398194740972
s(g4
S'kluyveri'
p24
tp25
F0.0
s(g11
g13
tp26
F28.055424297952754
s(g13
S'mikatae'
p27
tp28
F89.56180925060909
ssS'newicktree'
p29
S'/Users/xji3/Genconv/PairsAlignemt/YeastTree.newick'
p30
sS'll'
p31
cnumpy.core.multiarray
scalar
p32
(cnumpy
dtype
p33
(S'f8'
p34
I0
I1
tp35
Rp36
(I3
S'<'
p37
NNNI-1
I-1
I0
tp38
bS"'\xf5\x05q3\xa6\xd3\xc0"
p39
tp40
Rp41
sS'clock'
p42
I01
sS'edge_to_blen'
p43
(dp44
g19
g32
(g36
S'G\xab\xef\xcb\xe6V\xd2?'
p45
tp46
Rp47
sg9
g32
(g36
S'\xe2\xc2\xda\x84@U\xac?'
p48
tp49
Rp50
sg12
g32
(g36
S'\xd09\xe0\xe7\x93,\x8c?'
p51
tp52
Rp53
sg14
g32
(g36
S'\xc2\xeb{\x00\xe6\xfa\x92?'
p54
tp55
Rp56
sg16
g32
(g36
S'\x1e\xb1\xa0?\xdd\x11\xd9?'
p57
tp58
Rp59
sg18
g32
(g36
S'[\x17\xc4\xce\xd9\xeb\xba?'
p60
tp61
Rp62
sg6
g32
(g36
S'&\xc5n^F\x92\xa9?'
p63
tp64
Rp65
sg21
g32
(g36
S'#\x10\xc8QGf\xb7?'
p66
tp67
Rp68
sg23
g32
(g36
S'\xe2\xc2\xda\x84@U\xac?'
p69
tp70
Rp71
sg25
g32
(g36
S'\xc3\x89n\x0b&D\xdc?'
p72
tp73
Rp74
sg26
g32
(g36
S'\x05\xcf\xee<\xb6\xf3\x91?'
p75
tp76
Rp77
sg28
g32
(g36
S'b\\\x8c\xc2Y\xe9\xb2?'
p78
tp79
Rp80
ssS'paralog'
p81
(lp82
S'YAL056W'
p83
aS'YOR371C'
p84
asS'alignment_file'
p85
S'/Users/xji3/Genconv/PairsAlignemt/YAL056W_YOR371C/YAL056W_YOR371C_input.fasta'
p86
sS'x_clock'
p87
(lp88
F-0.6568920603047862
aF-0.48917961437300944
aF-0.8832642203742137
aF1.0902587750011778
aF-1.6189794264791255
aF-0.8172161436776691
aF0.0
aF-0.12000371383235771
aF-1.315040080691331
aF-0.14020175127461143
aF-0.21294418398587175
aF-0.2888909933036715
asS'x'
p89
(lp90
F-0.6568920603047862
aF-0.48917961437300944
aF-0.8832642203742137
aF1.0902587750011778
aF-1.6189794264791255
aF-1.249828105677737
aF-2.8942968667655125
aF-4.2862147390287015
aF-3.9880822163059637
aF-0.9372198575100269
aF-2.252259938201358
aF-2.996850623523416
aF-2.392461689475969
aF-2.8942968667655125
aF-0.8172161436776691
aF-4.043770305142298
aF-2.605405873461841
asS'Model'
p91
S'HKY'
p92
s.