(dp0
S'Force'
p1
NsS'ExpectedGeneconv'
p2
(dp3
(S'N0'
p4
S'N1'
p5
tp6
F47.21983127859148
s(S'N5'
p7
S'cerevisiae'
p8
tp9
F6.760994652864036
s(S'N2'
p10
S'N3'
p11
tp12
F1.3941814010311613
s(S'N4'
p13
g7
tp14
F2.0325200210078425
s(g11
S'kudriavzevii'
p15
tp16
F2.3137631849270406
s(g10
S'bayanus'
p17
tp18
F12.063093039943537
s(g5
g10
tp19
F37.84997975001793
s(g5
S'castellii'
p20
tp21
F56.65345906836869
s(g7
S'paradoxus'
p22
tp23
F2.8164751741127843
s(g4
S'kluyveri'
p24
tp25
F0.0
s(g11
g13
tp26
F5.559167846757539
s(g13
S'mikatae'
p27
tp28
F5.664180839700526
ssS'newicktree'
p29
S'/Users/xji3/Genconv/PairsAlignemt/YeastTree.newick'
p30
sS'll'
p31
cnumpy.core.multiarray
scalar
p32
(cnumpy
dtype
p33
(S'f8'
p34
I0
I1
tp35
Rp36
(I3
S'<'
p37
NNNI-1
I-1
I0
tp38
bS'\x8c\xe4*8C\xf8\x94\xc0'
p39
tp40
Rp41
sS'clock'
p42
I00
sS'edge_to_blen'
p43
(dp44
g19
g32
(g36
S'\xf3\x18\xb49\x12\x83\x9a?'
p45
tp46
Rp47
sg9
g32
(g36
S'N\xde\xfeI@\x98v?'
p48
tp49
Rp50
sg12
g32
(g36
S'\x8eL\x06\x9f6\x9c`?'
p51
tp52
Rp53
sg14
g32
(g36
S' e\x98#o\xf7i?'
p54
tp55
Rp56
sg16
g32
(g36
S'\xf6\x109\xdb}\ts?'
p57
tp58
Rp59
sg18
g32
(g36
S'\x17.\xfc\xf2\xc7v\x82?'
p60
tp61
Rp62
sg6
g32
(g36
S';\xc5\xb2\xfe\xb4\x84\xa9?'
p63
tp64
Rp65
sg21
g32
(g36
S'\xe9\xb1%\xec6[\xa5?'
p66
tp67
Rp68
sg23
g32
(g36
S'q|^9\x0b,p?'
p69
tp70
Rp71
sg25
g32
(g36
S'D\xc0\x80\x19\xa0\x126?'
p72
tp73
Rp74
sg26
g32
(g36
S'\x7f\xa4\xda\x0ehYu?'
p75
tp76
Rp77
sg28
g32
(g36
S'\xb2\x84\xb2\xa9\xeaVy?'
p78
tp79
Rp80
ssS'paralog'
p81
(lp82
S'YLR333C'
p83
aS'YGR027C'
p84
asS'alignment_file'
p85
S'/Users/xji3/Genconv/PairsAlignemt/YLR333C_YGR027C/YLR333C_YGR027C_input.fasta'
p86
sS'x_clock'
p87
(lp88
F-0.6234581285442587
aF-0.5225563990184349
aF-0.7403010179171368
aF0.1823215567939546
aF0.3364722366212129
aF-0.10536051565782628
aF-0.10536051565782628
aF-0.10536051565782628
aF-0.10536051565782628
aF-0.10536051565782628
aF-0.10536051565782628
aF-0.10536051565782628
asS'x'
p89
(lp90
F-0.7364278526476044
aF-0.5080506646066227
aF-0.7880990310410558
aF2.0153792496356986
aF3.250430977364965
aF-3.653874463819897
aF-5.200049430411593
aF-6.200895873870432
aF-5.754104576642462
aF-5.371377685628469
aF-4.7087967196389995
aF-2.998925383167854
aF-3.1769775285147746
aF-5.534481954065385
aF-7.996010827079653
aF-5.256749835192217
aF-5.085401006553691
asS'Model'
p91
S'HKY'
p92
s.