(dp0
S'Force'
p1
NsS'ExpectedGeneconv'
p2
(dp3
(S'N1'
p4
S'N2'
p5
tp6
F12.914381995005245
s(S'N5'
p7
S'cerevisiae'
p8
tp9
F12.902653018947298
s(g5
S'N3'
p10
tp11
F3.741369415694753
s(S'N4'
p12
g7
tp13
F3.786106439055663
s(g10
S'kudriavzevii'
p14
tp15
F12.745631308833897
s(g5
S'bayanus'
p16
tp17
F22.11874484312581
s(S'N0'
p18
g4
tp19
F4.306881593955337
s(g4
S'castellii'
p20
tp21
F29.56053548533274
s(g7
S'paradoxus'
p22
tp23
F5.717375307493476
s(g12
S'mikatae'
p24
tp25
F7.514426625674948
s(g10
g12
tp26
F3.579281268773884
s(g18
S'kluyveri'
p27
tp28
F0.0
ssS'newicktree'
p29
S'/Users/xji3/Genconv/PairsAlignemt/YeastTree.newick'
p30
sS'll'
p31
cnumpy.core.multiarray
scalar
p32
(cnumpy
dtype
p33
(S'f8'
p34
I0
I1
tp35
Rp36
(I3
S'<'
p37
NNNI-1
I-1
I0
tp38
bS'7\x13\x90\x9d\x16i\x97\xc0'
p39
tp40
Rp41
sS'clock'
p42
I01
sS'edge_to_blen'
p43
(dp44
g19
g32
(g36
S'\xcd) \xb0\xf7V\x80?'
p45
tp46
Rp47
sg9
g32
(g36
S'\n`\xb1\xc4\xe51j?'
p48
tp49
Rp50
sg11
g32
(g36
S'h\xc8jq\x05\xce]?'
p51
tp52
Rp53
sg13
g32
(g36
S'\x89\x89&\x9c\x1f]O?'
p54
tp55
Rp56
sg15
g32
(g36
S'\xd9\xfd\xdbU(\xfev?'
p57
tp58
Rp59
sg17
g32
(g36
S'\xf3\xaf6\xb2\xa9q~?'
p60
tp61
Rp62
sg6
g32
(g36
S'\x7f\x90+F\xa5\x89}?'
p63
tp64
Rp65
sg21
g32
(g36
S'8 1|\xa7\xfd\x8d?'
p66
tp67
Rp68
sg23
g32
(g36
S'\n`\xb1\xc4\xe51j?'
p69
tp70
Rp71
sg25
g32
(g36
S'7\x81\xdd\xd5\x96\x04q?'
p72
tp73
Rp74
sg26
g32
(g36
S'\x8f\xf2\xf9\xffE\xe6W?'
p75
tp76
Rp77
sg28
g32
(g36
S'\x02\xa5(\x96O*\x97?'
p78
tp79
Rp80
ssS'paralog'
p81
(lp82
S'YBL087C'
p83
aS'YER117W'
p84
asS'alignment_file'
p85
S'/Users/xji3/Genconv/PairsAlignemt/YBL087C_YER117W/YBL087C_YER117W_input.fasta'
p86
sS'x_clock'
p87
(lp88
F-0.7757874587650485
aF-0.6754876074077723
aF-0.9010437013773518
aF2.325551380656812
aF3.6688677199675115
aF-3.7888173336619406
aF0.0
aF-0.43490975515130526
aF-0.6781502917753288
aF-0.28070753355310185
aF-0.3009139602541116
aF-0.2618492704200716
asS'x'
p89
(lp90
F-0.7757874587650485
aF-0.6754876074077723
aF-0.9010437013773518
aF2.325551380656812
aF3.6688677199675115
aF-4.831020221308179
aF-5.74534814481586
aF-6.3093920614310814
aF-6.951554508008214
aF-5.182584914141676
aF-4.901877380588575
aF-4.932099493495308
aF-4.223727088813246
aF-5.74534814481586
aF-5.483498874395788
aF-6.530202754729729
aF-3.7888173336619406
asS'Model'
p91
S'HKY'
p92
s.