(dp0
S'Force'
p1
NsS'ExpectedGeneconv'
p2
(dp3
(S'N1'
p4
S'N2'
p5
tp6
F118.27906958529842
s(S'N5'
p7
S'cerevisiae'
p8
tp9
F50.03442850537465
s(g5
S'N3'
p10
tp11
F19.163070425473812
s(S'N4'
p12
g7
tp13
F23.90630526349787
s(g4
S'castellii'
p14
tp15
F217.22760360461635
s(g5
S'bayanus'
p16
tp17
F41.77653905682201
s(S'N0'
p18
g4
tp19
F34.98086736195926
s(g10
S'kudriavzevii'
p20
tp21
F43.732126356654945
s(g7
S'paradoxus'
p22
tp23
F17.504993749359297
s(g18
S'kluyveri'
p24
tp25
F0.0
s(g10
g12
tp26
F17.66100441625589
s(g12
S'mikatae'
p27
tp28
F56.239937269012366
ssS'newicktree'
p29
S'/Users/xji3/Genconv/PairsAlignemt/YeastTree.newick'
p30
sS'll'
p31
cnumpy.core.multiarray
scalar
p32
(cnumpy
dtype
p33
(S'f8'
p34
I0
I1
tp35
Rp36
(I3
S'<'
p37
NNNI-1
I-1
I0
tp38
bS'\x9e\xd0\xac\xb6\xf4\xa6\xbf\xc0'
p39
tp40
Rp41
sS'clock'
p42
I00
sS'edge_to_blen'
p43
(dp44
g19
g32
(g36
S'\xf0\xdcd.\x05\xae\xbd?'
p45
tp46
Rp47
sg9
g32
(g36
S'DO\xfc%Sj\xa5?'
p48
tp49
Rp50
sg11
g32
(g36
S'\xb8\xb8\x83\x12\x00\xf0\x9d?'
p51
tp52
Rp53
sg13
g32
(g36
S'\x7f\x85\x86,\x18\x96\x97?'
p54
tp55
Rp56
sg15
g32
(g36
S'\x1c@\x13;\xd7\xae\xd0?'
p57
tp58
Rp59
sg17
g32
(g36
S'\xc3\xf3\xf5\x01\x85\x13\xa5?'
p60
tp61
Rp62
sg6
g32
(g36
S'\xbdv\x06\xf6\x92~\xc6?'
p63
tp64
Rp65
sg21
g32
(g36
S't\xde\x90\x19mB\xa7?'
p66
tp67
Rp68
sg23
g32
(g36
S'W\xaaL%\x94\xf6\x90?'
p69
tp70
Rp71
sg25
g32
(g36
S'B\x85h\xea\x02\x1d\xc6?'
p72
tp73
Rp74
sg26
g32
(g36
S"'\x07\xf0\xc4\xb5\x1b\x92?"
p75
tp76
Rp77
sg28
g32
(g36
S'3a\xfc\x1f\xb4\x1c\xaa?'
p78
tp79
Rp80
ssS'paralog'
p81
(lp82
S'YPL087W'
p83
aS'YBR183W'
p84
asS'alignment_file'
p85
S'/Users/xji3/Genconv/PairsAlignemt/YPL087W_YBR183W/YPL087W_YBR183W_input.fasta'
p86
sS'x_clock'
p87
(lp88
F-0.7227293690266701
aF-0.6011585342201797
aF-1.0425906999607446
aF0.1823215567939546
aF0.3364722366212129
aF-0.10536051565782628
aF-0.10536051565782628
aF-0.10536051565782628
aF-0.10536051565782628
aF-0.10536051565782628
aF-0.10536051565782628
aF-0.10536051565782628
asS'x'
p89
(lp90
F-0.7490723014152304
aF-0.5788954672257488
aF-1.03879990868827
aF1.2635975610907215
aF-0.4053422146810098
aF-2.1547118914659307
aF-3.174217546260398
aF-3.5323598935664435
aF-3.770805500748563
aF-1.3444945451745907
aF-3.1901778922619926
aF-1.7387625432478349
aF-3.091611953186342
aF-4.100425630275379
aF-1.7558498624785606
aF-4.03510459367567
aF-2.9759249170817634
asS'Model'
p91
S'HKY'
p92
s.