(dp0
S'Force'
p1
NsS'ExpectedGeneconv'
p2
(dp3
(S'N1'
p4
S'N2'
p5
tp6
F114.71161614939221
s(S'N5'
p7
S'cerevisiae'
p8
tp9
F55.63513197899165
s(g5
S'N3'
p10
tp11
F20.11091538210833
s(S'N4'
p12
g7
tp13
F29.9171427922041
s(g10
S'kudriavzevii'
p14
tp15
F67.03214131358514
s(g5
S'bayanus'
p16
tp17
F63.71081309162654
s(S'N0'
p18
g4
tp19
F23.8408168434763
s(g4
S'castellii'
p20
tp21
F257.3930708085058
s(g7
S'paradoxus'
p22
tp23
F38.747627444162326
s(g18
S'kluyveri'
p24
tp25
F0.0
s(g10
g12
tp26
F36.177442338806145
s(g12
S'mikatae'
p27
tp28
F67.63576989051131
ssS'newicktree'
p29
S'/Users/xji3/Genconv/PairsAlignemt/YeastTree.newick'
p30
sS'll'
p31
cnumpy.core.multiarray
scalar
p32
(cnumpy
dtype
p33
(S'f8'
p34
I0
I1
tp35
Rp36
(I3
S'<'
p37
NNNI-1
I-1
I0
tp38
bS'\x93\x85\xab*St\xc5\xc0'
p39
tp40
Rp41
sS'clock'
p42
I00
sS'edge_to_blen'
p43
(dp44
g19
g32
(g36
S'\xe2\xb2j\xa3^\xfa\xb4?'
p45
tp46
Rp47
sg9
g32
(g36
S'\xd6\xde`\x19b\xde\xa3?'
p48
tp49
Rp50
sg11
g32
(g36
S'\xe3\x90+\xc7C\x8f\x98?'
p51
tp52
Rp53
sg13
g32
(g36
S'\xf9\xd0\xcbZ&\r\x96?'
p54
tp55
Rp56
sg15
g32
(g36
S'u\xbdk\xb9\xe9\x17\xa9?'
p57
tp58
Rp59
sg17
g32
(g36
S']\x04\x81&]\xe3\xac?'
p60
tp61
Rp62
sg6
g32
(g36
S']\xe8v\xe1T\xf7\xc2?'
p63
tp64
Rp65
sg21
g32
(g36
S'?z\x1f\xe9^\xa6\xd1?'
p66
tp67
Rp68
sg23
g32
(g36
S'\x91\xd3\x93\x13 =\x9f?'
p69
tp70
Rp71
sg25
g32
(g36
S'@\x92\xdcq\xae\x1a\xc5?'
p72
tp73
Rp74
sg26
g32
(g36
S'\xef\xcd`\x11\xb3\xaa\x97?'
p75
tp76
Rp77
sg28
g32
(g36
S'\x0e/\x1d\x02\x1c\xe4\xab?'
p78
tp79
Rp80
ssS'paralog'
p81
(lp82
S'YPR157W'
p83
aS'YGR141W'
p84
asS'alignment_file'
p85
S'/Users/xji3/Genconv/PairsAlignemt/YPR157W_YGR141W/YPR157W_YGR141W_input.fasta'
p86
sS'x_clock'
p87
(lp88
F-0.6417793871780968
aF-0.623666891511595
aF-0.9240544395328898
aF0.1823215567939546
aF0.3364722366212129
aF-0.10536051565782628
aF-0.10536051565782628
aF-0.10536051565782628
aF-0.10536051565782628
aF-0.10536051565782628
aF-0.10536051565782628
aF-0.10536051565782628
asS'x'
p89
(lp90
F-0.7118444694150791
aF-0.5973048264085729
aF-0.8476884644586273
aF1.1808306900767296
aF-0.345908630379916
aF-2.5017028619183805
aF-3.249179782343833
aF-3.730367850630076
aF-3.838097233025592
aF-3.0157193591978175
aF-2.8748934908823154
aF-1.909375036428932
aF-1.2881537747105034
aF-3.489811831653273
aF-1.8025570389271564
aF-3.767398800660909
aF-2.9100186911575907
asS'Model'
p91
S'HKY'
p92
s.