(dp0
S'Force'
p1
NsS'ExpectedGeneconv'
p2
(dp3
(S'N0'
p4
S'N1'
p5
tp6
F50.97338186354311
s(S'N5'
p7
S'cerevisiae'
p8
tp9
F8.152479617641607
s(S'N2'
p10
S'N3'
p11
tp12
F1.458144089738333e-13
s(S'N4'
p13
g7
tp14
F10.94773027765415
s(g11
S'kudriavzevii'
p15
tp16
F31.167026041583426
s(g10
S'bayanus'
p17
tp18
F20.84133263061694
s(g5
g10
tp19
F28.34334278467074
s(g5
S'castellii'
p20
tp21
F52.69051005247843
s(g7
S'paradoxus'
p22
tp23
F5.956620648454301
s(g4
S'kluyveri'
p24
tp25
F0.0
s(g11
g13
tp26
F8.958367651222625
s(g13
S'mikatae'
p27
tp28
F19.779012574541603
ssS'newicktree'
p29
S'/Users/xji3/Genconv/PairsAlignemt/YeastTree.newick'
p30
sS'll'
p31
cnumpy.core.multiarray
scalar
p32
(cnumpy
dtype
p33
(S'f8'
p34
I0
I1
tp35
Rp36
(I3
S'<'
p37
NNNI-1
I-1
I0
tp38
bS'\xb4up5#\xa4\xa0\xc0'
p39
tp40
Rp41
sS'clock'
p42
I00
sS'edge_to_blen'
p43
(dp44
g19
g32
(g36
S'\x7f6{|~\xad\x82?'
p45
tp46
Rp47
sg9
g32
(g36
S',\x17\x95~\x0cJp?'
p48
tp49
Rp50
sg12
g32
(g36
S'\x9a\x10@\x9c\x17\xe1\x90<'
p51
tp52
Rp53
sg14
g32
(g36
S'\xd8\x12\x9c\xbfZhh?'
p54
tp55
Rp56
sg16
g32
(g36
S'\xed}\x9d\xb5a\xed\x81?'
p57
tp58
Rp59
sg18
g32
(g36
S'\x04\xbe\xfc@y\x81t?'
p60
tp61
Rp62
sg6
g32
(g36
S'z\x85,lIt\x9a?'
p63
tp64
Rp65
sg21
g32
(g36
S'tD\xcej\x94\x99\x90?'
p66
tp67
Rp68
sg23
g32
(g36
S'WK\xd5\xb0k\\]?'
p69
tp70
Rp71
sg25
g32
(g36
S'\xac\xa1\xed%\xa5>\xb1>'
p72
tp73
Rp74
sg26
g32
(g36
S'\xa0\xf6@Y\xe88e?'
p75
tp76
Rp77
sg28
g32
(g36
S'\x855O\xdd\x00\x93|?'
p78
tp79
Rp80
ssS'paralog'
p81
(lp82
S'YMR142C'
p83
aS'YDL082W'
p84
asS'alignment_file'
p85
S'/Users/xji3/Genconv/PairsAlignemt/YMR142C_YDL082W/YMR142C_YDL082W_input.fasta'
p86
sS'x_clock'
p87
(lp88
F-0.5889528457923014
aF-0.5253214701507958
aF-0.7368586136503616
aF0.1823215567939546
aF0.3364722366212129
aF-0.10536051565782628
aF-0.10536051565782628
aF-0.10536051565782628
aF-0.10536051565782628
aF-0.10536051565782628
aF-0.10536051565782628
aF-0.10536051565782628
asS'x'
p89
(lp90
F-0.6889064441534394
aF-0.4946825749406349
aF-0.7318737556574629
aF2.239659289180262
aF3.801224347063641
aF-4.697288083505173
aF-5.5272605922793705
aF-37.3764504371329
aF-5.81601736589622
aF-4.738295847447775
aF-5.297060518186577
aF-3.6560551558543906
aF-4.1220738742905345
aF-6.324392643818653
aF-13.788027050899476
aF-5.955861050339151
aF-4.965260836102463
asS'Model'
p91
S'HKY'
p92
s.