(dp0
S'Force'
p1
NsS'ExpectedGeneconv'
p2
(dp3
(S'N1'
p4
S'N2'
p5
tp6
F268.97943114093164
s(S'N5'
p7
S'cerevisiae'
p8
tp9
F150.88560888038597
s(g5
S'N3'
p10
tp11
F26.06847761728178
s(S'N4'
p12
g7
tp13
F78.30144651874681
s(g10
S'kudriavzevii'
p14
tp15
F232.59366750905482
s(g5
S'bayanus'
p16
tp17
F250.5087577715176
s(S'N0'
p18
g4
tp19
F39.733719850830674
s(g4
S'castellii'
p20
tp21
F555.2768949809904
s(g7
S'paradoxus'
p22
tp23
F111.98774868162586
s(g18
S'kluyveri'
p24
tp25
F0.0
s(g10
g12
tp26
F64.10974386902747
s(g12
S'mikatae'
p27
tp28
F199.30895521558756
ssS'newicktree'
p29
S'/Users/xji3/Genconv/PairsAlignemt/YeastTree.newick'
p30
sS'll'
p31
cnumpy.core.multiarray
scalar
p32
(cnumpy
dtype
p33
(S'f8'
p34
I0
I1
tp35
Rp36
(I3
S'<'
p37
NNNI-1
I-1
I0
tp38
bS'&\x8dq\xcd\x8d\x14\xdf\xc0'
p39
tp40
Rp41
sS'clock'
p42
I01
sS'edge_to_blen'
p43
(dp44
g19
g32
(g36
S'\x96\xc0\xd8\x13\xcb\xee\xb6?'
p45
tp46
Rp47
sg9
g32
(g36
S'\x94\xcbZ~J\x01\xac?'
p48
tp49
Rp50
sg11
g32
(g36
S'?Q\xcb\xa0l\xd9\x8d?'
p51
tp52
Rp53
sg13
g32
(g36
S'\x9b\xea\x18\x95\xf7K\x9e?'
p54
tp55
Rp56
sg15
g32
(g36
S'\x81o\xcb\x04\x16a\xbc?'
p57
tp58
Rp59
sg17
g32
(g36
S'\xd5lr\xcc!\x0e\xc0?'
p60
tp61
Rp62
sg6
g32
(g36
S'\xa7\x078\xc3\x0b\n\xca?'
p63
tp64
Rp65
sg21
g32
(g36
S'>:\xd5\xc7\x16\x0c\xd5?'
p66
tp67
Rp68
sg23
g32
(g36
S'\x94\xcbZ~J\x01\xac?'
p69
tp70
Rp71
sg25
g32
(g36
S'cj\xcb\x8c\xc9\xc7\xda?'
p72
tp73
Rp74
sg26
g32
(g36
S'I<_\x81\xcb5\x9b?'
p75
tp76
Rp77
sg28
g32
(g36
S'q\xa0s$\xa3\x93\xb5?'
p78
tp79
Rp80
ssS'paralog'
p81
(lp82
S'YGL133W'
p83
aS'YPL216W'
p84
asS'alignment_file'
p85
S'/Users/xji3/Genconv/PairsAlignemt/YGL133W_YPL216W/YGL133W_YPL216W_input.fasta'
p86
sS'x_clock'
p87
(lp88
F-0.6297864013458292
aF-0.4551173494059396
aF-0.8961722926945144
aF1.2491222985681154
aF-2.071811865130997
aF-0.8712120912918312
aF0.0
aF-0.24090238343185866
aF-0.9638828036200647
aF-0.12352219563621429
aF-0.27404356608196445
aF-0.43237698631514065
asS'x'
p89
(lp90
F-0.6297864013458292
aF-0.4551173494059396
aF-0.8961722926945144
aF1.2491222985681154
aF-2.071811865130997
aF-2.4126098453039475
aF-2.905940026377074
aF-4.228457135419191
aF-3.520431473179469
aF-2.199519473979969
aF-2.075997278343755
aF-1.5924255567329415
aF-1.11211447472369
aF-2.905940026377074
aF-0.8712120912918312
aF-3.62788223644964
aF-2.4735630400619333
asS'Model'
p91
S'HKY'
p92
s.