(dp0
S'Force'
p1
NsS'ExpectedGeneconv'
p2
(dp3
(S'N1'
p4
S'N2'
p5
tp6
F33.63712557423977
s(S'N5'
p7
S'cerevisiae'
p8
tp9
F8.275817606421326
s(g5
S'N3'
p10
tp11
F7.127079871929483
s(S'N4'
p12
g7
tp13
F5.175980382364131
s(g4
S'castellii'
p14
tp15
F50.28615601733241
s(g5
S'bayanus'
p16
tp17
F20.054534893735603
s(S'N0'
p18
g4
tp19
F40.043097507571815
s(g10
S'kudriavzevii'
p20
tp21
F15.736655102578892
s(g7
S'paradoxus'
p22
tp23
F1.9728196626491772
s(g12
S'mikatae'
p24
tp25
F9.107693508688913
s(g10
g12
tp26
F2.321052150613996
s(g18
S'kluyveri'
p27
tp28
F0.0
ssS'newicktree'
p29
S'/Users/xji3/Genconv/PairsAlignemt/YeastTree.newick'
p30
sS'll'
p31
cnumpy.core.multiarray
scalar
p32
(cnumpy
dtype
p33
(S'f8'
p34
I0
I1
tp35
Rp36
(I3
S'<'
p37
NNNI-1
I-1
I0
tp38
bS'\xc8?\xa7W\x99S\xa3\xc0'
p39
tp40
Rp41
sS'clock'
p42
I00
sS'edge_to_blen'
p43
(dp44
g19
g32
(g36
S'l\xad?\xf9\x9d-\xa5?'
p45
tp46
Rp47
sg9
g32
(g36
S'\x95\x038\x8c\xc1\x1bt?'
p48
tp49
Rp50
sg11
g32
(g36
S'\xa4\xc9\x9d\xe8P\x82i?'
p51
tp52
Rp53
sg13
g32
(g36
S'\x96*\xc7\xfdLvg?'
p54
tp55
Rp56
sg15
g32
(g36
S'\xe7p+\x978)\x99?'
p57
tp58
Rp59
sg17
g32
(g36
S'\xa2_\x88\x9b\x9c\xbc\x82?'
p60
tp61
Rp62
sg6
g32
(g36
S'~\xb8\x0b\x8f--\x94?'
p63
tp64
Rp65
sg21
g32
(g36
S'\xd7\xa3\xf0\xb1i\x07\x84?'
p66
tp67
Rp68
sg23
g32
(g36
S'\xfc\xdd\xa1W\x8fmS?'
p69
tp70
Rp71
sg25
g32
(g36
S'"O\x8c\xbd\xd2(~?'
p72
tp73
Rp74
sg26
g32
(g36
S'a\x12\x9e\x9d^\x99N?'
p75
tp76
Rp77
sg28
g32
(g36
S'S\x13u\tF\r\xea>'
p78
tp79
Rp80
ssS'paralog'
p81
(lp82
S'YNL069C'
p83
aS'YIL133C'
p84
asS'alignment_file'
p85
S'/Users/xji3/Genconv/PairsAlignemt/YNL069C_YIL133C/YNL069C_YIL133C_input.fasta'
p86
sS'x_clock'
p87
(lp88
F-0.6820717292911986
aF-0.5960688182652529
aF-0.9197014658640619
aF0.1823215567939546
aF0.3364722366212129
aF-0.10536051565782628
aF-0.10536051565782628
aF-0.10536051565782628
aF-0.10536051565782628
aF-0.10536051565782628
aF-0.10536051565782628
aF-0.10536051565782628
asS'x'
p89
(lp90
F-0.7523496154615611
aF-0.5542421587277917
aF-0.8403166668540019
aF1.9702264558747447
aF2.4067492406219015
aF-3.185352664513563
aF-5.316627431752758
aF-5.7718801710510315
aF-5.855526469986265
aF-3.7061758438809584
aF-4.694131368780818
aF-3.9269544133675667
aF-4.627439933250464
aF-6.73734682575114
aF-4.911267341122178
aF-6.976237112588928
aF-11.296002011534442
asS'Model'
p91
S'HKY'
p92
s.