(dp0
S'Force'
p1
NsS'ExpectedGeneconv'
p2
(dp3
(S'N0'
p4
S'N1'
p5
tp6
F7.506338573615674
s(S'N5'
p7
S'cerevisiae'
p8
tp9
F38.44694688066719
s(S'N2'
p10
S'N3'
p11
tp12
F4.942850745710639
s(S'N4'
p13
g7
tp14
F17.260186998655698
s(g11
S'kudriavzevii'
p15
tp16
F44.546758316665034
s(g10
S'bayanus'
p17
tp18
F50.01734593752505
s(g5
g10
tp19
F35.86198571180817
s(g5
S'castellii'
p20
tp21
F89.20655113874922
s(g7
S'paradoxus'
p22
tp23
F28.34204974816375
s(g4
S'kluyveri'
p24
tp25
F0.0
s(g11
g13
tp26
F13.238998094983653
s(g13
S'mikatae'
p27
tp28
F59.092079170467855
ssS'newicktree'
p29
S'/Users/xji3/Genconv/PairsAlignemt/YeastTree.newick'
p30
sS'll'
p31
cnumpy.core.multiarray
scalar
p32
(cnumpy
dtype
p33
(S'f8'
p34
I0
I1
tp35
Rp36
(I3
S'<'
p37
NNNI-1
I-1
I0
tp38
bS'\xc4Km\xb6Tt\xbd\xc0'
p39
tp40
Rp41
sS'clock'
p42
I01
sS'edge_to_blen'
p43
(dp44
g19
g32
(g36
S'xk\xc5^\x81\x7f\xb1?'
p45
tp46
Rp47
sg9
g32
(g36
S'\x96\xd5r\xde\xa3\x93\x96?'
p48
tp49
Rp50
sg12
g32
(g36
S'p\x15\x03\xb8h.z?'
p51
tp52
Rp53
sg14
g32
(g36
S'\xf3\x84\xb2\xb8X\xb7\x89?'
p54
tp55
Rp56
sg16
g32
(g36
S'\xe5F\x001\xb8[\xa6?'
p57
tp58
Rp59
sg18
g32
(g36
S'\x92\xa9\x00H\x85\xa1\xa9?'
p60
tp61
Rp62
sg6
g32
(g36
S'\xfc\x8d\x07\x84\xdf/\xa6?'
p63
tp64
Rp65
sg21
g32
(g36
S'A\xc0\xc5\x02DP\xbe?'
p66
tp67
Rp68
sg23
g32
(g36
S'\x96\xd5r\xde\xa3\x93\x96?'
p69
tp70
Rp71
sg25
g32
(g36
S'\x9f\xc3d\xe2\x19\xb4\xc4?'
p72
tp73
Rp74
sg26
g32
(g36
S'u\xebhN@\x90\x82?'
p75
tp76
Rp77
sg28
g32
(g36
S'\x07\x0cf\x1d\xa8\xb7\xa1?'
p78
tp79
Rp80
ssS'paralog'
p81
(lp82
S'YGR043C'
p83
aS'YLR354C'
p84
asS'alignment_file'
p85
S'/Users/xji3/Genconv/PairsAlignemt/YGR043C_YLR354C/YGR043C_YLR354C_input.fasta'
p86
sS'x_clock'
p87
(lp88
F-0.7236522434271444
aF-0.5160869799776538
aF-0.8080644444781252
aF1.5021251967678448
aF-0.1601175695578638
aF-1.821726531542385
aF0.0
aF-0.31185650934811787
aF-0.8609413702108631
aF-0.13660352353731062
aF-0.23264897606990972
aF-0.45077564382142254
asS'x'
p89
(lp90
F-0.7236522434271444
aF-0.5160869799776538
aF-0.8080644444781252
aF1.5021251967678448
aF-0.1601175695578638
aF-2.683086982069363
aF-3.814552554530009
aF-5.052721309580546
aF-4.377497938611555
aF-3.1311279346386764
aF-2.994524411101366
aF-3.1388178981308026
aF-2.1335830408905028
aF-3.814552554530009
aF-1.821726531542385
aF-4.703422709790038
aF-3.3637769107085864
asS'Model'
p91
S'HKY'
p92
s.