(dp0
S'Force'
p1
NsS'ExpectedGeneconv'
p2
(dp3
(S'N0'
p4
S'N1'
p5
tp6
F120.34199440091358
s(S'N5'
p7
S'cerevisiae'
p8
tp9
F46.45838709644397
s(S'N2'
p10
S'N3'
p11
tp12
F24.036478205513458
s(S'N4'
p13
g7
tp14
F28.04577680452943
s(g5
S'castellii'
p15
tp16
F963.6994645081065
s(g10
S'bayanus'
p17
tp18
F118.23969161055216
s(g5
g10
tp19
F872.6662162109437
s(g11
S'kudriavzevii'
p20
tp21
F78.17328994526224
s(g7
S'paradoxus'
p22
tp23
F38.66832562689584
s(g13
S'mikatae'
p24
tp25
F64.46553583341709
s(g11
g13
tp26
F19.7252944565789
s(g4
S'kluyveri'
p27
tp28
F0.0
ssS'newicktree'
p29
S'../PairsAlignemt/YeastTree.newick'
p30
sS'll'
p31
cnumpy.core.multiarray
scalar
p32
(cnumpy
dtype
p33
(S'f8'
p34
I0
I1
tp35
Rp36
(I3
S'<'
p37
NNNI-1
I-1
I0
tp38
bS'-\xd68S\xdf\xa9\xd7\xc0'
p39
tp40
Rp41
sS'clock'
p42
I01
sS'edge_to_blen'
p43
(dp44
g19
g32
(g36
S'\xa1\x96\x06\xb1\x05\x8b\x04@'
p45
tp46
Rp47
sg9
g32
(g36
S'\xab>\xb1\xc3\x7f\xfb\xc3?'
p48
tp49
Rp50
sg12
g32
(g36
S'zH4 \x95I\xb5?'
p51
tp52
Rp53
sg14
g32
(g36
S'\xf1y\x1d\xe5\t\xc8\xbd?'
p54
tp55
Rp56
sg16
g32
(g36
S'\xb6\x9b\x8e\xab\xa8\xf0\x07@'
p57
tp58
Rp59
sg18
g32
(g36
S'\xad(@\xd4\x17-\xdb?'
p60
tp61
Rp62
sg6
g32
(g36
S'5\x1c\xddR\xe6\xd9\xdd?'
p63
tp64
Rp65
sg21
g32
(g36
S'\x8e\x163\x8c\xb2\xda\xd5?'
p66
tp67
Rp68
sg23
g32
(g36
S'\xab>\xb1\xc3\x7f\xfb\xc3?'
p69
tp70
Rp71
sg25
g32
(g36
S'\xd3\xfd\x1f[\xc2o\xd1?'
p72
tp73
Rp74
sg26
g32
(g36
S'\xf1bL\xc4\xc0\xab\xb1?'
p75
tp76
Rp77
sg28
g32
(g36
S'=?\xeau\xe5\xab\x0b@'
p78
tp79
Rp80
ssS'paralog'
p81
(lp82
S'YIR033W'
p83
aS'YKL020C'
p84
asS'alignment_file'
p85
S'../PairsAlignemt/YIR033W_YKL020C/YIR033W_YKL020C_input.fasta'
p86
sS'x_clock'
p87
(lp88
F-0.6563857574265437
aF-0.46415604508578473
aF-0.9292672177295642
aF0.9345637292071821
aF-2.3275510037073968
aF-2.1216251961292816
aF1.2409603783181362
aF0.0
aF-0.1448481412529873
aF-1.9526557593897187
aF-0.21794246098040784
aF-0.22582798391802994
aF-0.5568634957460646
asS'x'
p89
(lp90
F-0.6563857574265437
aF-0.46415604508578473
aF-0.9292672177295642
aF0.9345637292071821
aF-2.3275510037073968
aF-2.1216251961292816
aF0.9430814149259278
aF-1.8571774629690723
aF-2.4870606055849387
aF-2.1512933738229303
aF1.0961122370651488
aF-0.8565435223245699
aF-0.7626590245063349
aF-1.0744859833049778
aF-1.8571774629690723
aF-1.3003139672230075
aF-2.673257651959116
aF1.2409603783181362
asS'Model'
p91
S'MG94'
p92
s.