(dp0
S'Force'
p1
NsS'ExpectedGeneconv'
p2
(dp3
(S'N0'
p4
S'N1'
p5
tp6
F1.6492243682611483
s(S'N5'
p7
S'cerevisiae'
p8
tp9
F27.946569286374395
s(S'N2'
p10
S'N3'
p11
tp12
F10.685173721463613
s(S'N4'
p13
g7
tp14
F16.6697352228369
s(g5
S'castellii'
p15
tp16
F124.84815481152148
s(g10
S'bayanus'
p17
tp18
F58.118802690885644
s(g5
g10
tp19
F52.13447158841774
s(g11
S'kudriavzevii'
p20
tp21
F42.087032601975295
s(g7
S'paradoxus'
p22
tp23
F19.18242291022245
s(g13
S'mikatae'
p24
tp25
F39.37767643727858
s(g11
g13
tp26
F14.500769861761562
s(g4
S'kluyveri'
p27
tp28
F0.0
ssS'newicktree'
p29
S'../PairsAlignemt/YeastTree.newick'
p30
sS'll'
p31
cnumpy.core.multiarray
scalar
p32
(cnumpy
dtype
p33
(S'f8'
p34
I0
I1
tp35
Rp36
(I3
S'<'
p37
NNNI-1
I-1
I0
tp38
bS'\x04\xf5\xc8\xbfM\xca\xb6\xc0'
p39
tp40
Rp41
sS'clock'
p42
I01
sS'edge_to_blen'
p43
(dp44
g19
g32
(g36
S'\xf5t\x11\xae\xe2\xe8\xd3?'
p45
tp46
Rp47
sg9
g32
(g36
S'\xc9\xa7~\xd2,\x12\xb6?'
p48
tp49
Rp50
sg12
g32
(g36
S'ifX\xfa\xc2\x06\xa8?'
p51
tp52
Rp53
sg14
g32
(g36
S'_k\x9di\x0e6\xb2?'
p54
tp55
Rp56
sg16
g32
(g36
S'\xf7\xf9N\x9f\xccP\xe2?'
p57
tp58
Rp59
sg18
g32
(g36
S'\xf9~\x8c\x90\xb6\xb8\xd0?'
p60
tp61
Rp62
sg6
g32
(g36
S'\xfbh+\x89\x93R\xa9?'
p63
tp64
Rp65
sg21
g32
(g36
S'X\xe4\x82b\xbco\xcb?'
p66
tp67
Rp68
sg23
g32
(g36
S'\xc9\xa7~\xd2,\x12\xb6?'
p69
tp70
Rp71
sg25
g32
(g36
S'\x95\t\x0e\x9e\x1d$\xc4?'
p72
tp73
Rp74
sg26
g32
(g36
S'\x14k\xd3\x11{.\xad?'
p75
tp76
Rp77
sg28
g32
(g36
S'\x87\xb0\xe1\xd7\xf5\xe5\xe3?'
p78
tp79
Rp80
ssS'paralog'
p81
(lp82
S'YHR106W'
p83
aS'YDR353W'
p84
asS'alignment_file'
p85
S'../PairsAlignemt/YHR106W_YDR353W/YHR106W_YDR353W_input.fasta'
p86
sS'x_clock'
p87
(lp88
F-0.6913427091360113
aF-0.5551147393385484
aF-0.8655900510266431
aF1.3017888939757036
aF-2.837097950828009
aF-1.4736292299943112
aF-0.47510248027791374
aF0.0
aF-0.0828790498824139
aF-0.7842041007540717
aF-0.19797154564404218
aF-0.3091117295199461
aF-0.6016441703894292
asS'x'
p89
(lp90
F-0.6913427091360113
aF-0.5551147393385484
aF-0.8655900510266431
aF1.3017888939757036
aF-2.837097950828009
aF-1.4736292299943112
aF-1.1676755881126895
aF-2.450913076467817
aF-3.059170873708928
aF-2.643142993276798
aF-0.5579815301603277
aF-1.3421856309143994
aF-3.006628780206154
aF-1.5401571765584416
aF-2.450913076467817
aF-1.8492689060783876
aF-2.864787437271422
aF-0.4751024802779137
asS'Model'
p91
S'MG94'
p92
s.