(dp0
S'Force'
p1
NsS'ExpectedGeneconv'
p2
(dp3
(S'N0'
p4
S'N1'
p5
tp6
F0.7138989166693606
s(S'N5'
p7
S'cerevisiae'
p8
tp9
F3.9810241513683566
s(S'N2'
p10
S'N3'
p11
tp12
F0.9543940977388515
s(S'N4'
p13
g7
tp14
F1.3338260614713757
s(g5
S'castellii'
p15
tp16
F13.755229104247913
s(g10
S'bayanus'
p17
tp18
F6.596826101607632
s(g5
g10
tp19
F6.792853985360735
s(g11
S'kudriavzevii'
p20
tp21
F3.3386326365988652
s(g7
S'paradoxus'
p22
tp23
F4.520637534338385
s(g13
S'mikatae'
p24
tp25
F9.22774769804362
s(g11
g13
tp26
F0.8484489131343157
s(g4
S'kluyveri'
p27
tp28
F0.0
ssS'newicktree'
p29
S'../PairsAlignemt/YeastTree.newick'
p30
sS'll'
p31
cnumpy.core.multiarray
scalar
p32
(cnumpy
dtype
p33
(S'f8'
p34
I0
I1
tp35
Rp36
(I3
S'<'
p37
NNNI-1
I-1
I0
tp38
bS'\n\xcc\xca\xef\xde\xb4\x92\xc0'
p39
tp40
Rp41
sS'clock'
p42
I01
sS'edge_to_blen'
p43
(dp44
g19
g32
(g36
S'\x15c}\xaa-\xbe\xa3?'
p45
tp46
Rp47
sg9
g32
(g36
S'\xa8\x82y\xc2?p\x96?'
p48
tp49
Rp50
sg12
g32
(g36
S'\x06\xa6\x19\xdc\x94,\x84?'
p51
tp52
Rp53
sg14
g32
(g36
S'6\xc5M\xc2B\x8dw?'
p54
tp55
Rp56
sg16
g32
(g36
S'$\xf0\x97l\xf4\x18\xb5?'
p57
tp58
Rp59
sg18
g32
(g36
S'3}\xb2.\xbbs\xa6?'
p60
tp61
Rp62
sg6
g32
(g36
S'\xb3j\x88* \t\x96?'
p63
tp64
Rp65
sg21
g32
(g36
S'\xb4\x13\xac\xf7\x95h\xa1?'
p66
tp67
Rp68
sg23
g32
(g36
S'\xa8\x82y\xc2?p\x96?'
p69
tp70
Rp71
sg25
g32
(g36
S'\xf2\xf3\x0cs\x90S\x9c?'
p72
tp73
Rp74
sg26
g32
(g36
S'\xc6\xcd,\xf1m\xf6y?'
p75
tp76
Rp77
sg28
g32
(g36
S'u\xc5}\x9a\xbf\xb4\xc1?'
p78
tp79
Rp80
ssS'paralog'
p81
(lp82
S'YLR406C'
p83
aS'YDL075W'
p84
asS'alignment_file'
p85
S'../PairsAlignemt/YLR406C_YDL075W/YLR406C_YDL075W_input.fasta'
p86
sS'x_clock'
p87
(lp88
F-0.6443013602229178
aF-0.4863121623571488
aF-0.9385009949041944
aF1.7679214405731194
aF-2.450619695573291
aF1.2383648976751864
aF-2.110892080286669
aF-0.15313389968041552
aF-0.23199788058649504
aF-0.6309177302065698
aF-0.25442224025684634
aF-0.20631293510217363
aF-0.23301801393545254
asS'x'
p89
(lp90
F-0.6443013602229178
aF-0.4863121623571488
aF-0.9385009949041944
aF1.7679214405731194
aF-2.450619695573291
aF1.2383648976751864
aF-3.2555314868400593
aF-3.820694780054622
aF-4.620217081707605
aF-5.158563919815006
aF-2.4960238605535796
aF-3.1269415907601497
aF-3.838810342344913
aF-3.3813638310169956
aF-3.820694780054622
aF-3.5876767661191695
aF-5.061108544858323
aF-1.9781239518063924
asS'Model'
p91
S'MG94'
p92
s.