(dp0
S'Force'
p1
NsS'ExpectedGeneconv'
p2
(dp3
(S'N0'
p4
S'N1'
p5
tp6
F1.0020239721003557
s(S'N5'
p7
S'cerevisiae'
p8
tp9
F2.4621321955958915
s(S'N2'
p10
S'N3'
p11
tp12
F6.417090149620105
s(S'N4'
p13
g7
tp14
F3.403433670982966
s(g5
S'castellii'
p15
tp16
F13.88214734251073
s(g10
S'bayanus'
p17
tp18
F3.4631852099765923
s(g5
g10
tp19
F22.390202182600866
s(g11
S'kudriavzevii'
p20
tp21
F11.916977251851455
s(g7
S'paradoxus'
p22
tp23
F4.745666032826079
s(g13
S'mikatae'
p24
tp25
F13.764073801223526
s(g11
g13
tp26
F5.5573186989708345
s(g4
S'kluyveri'
p27
tp28
F0.0
ssS'newicktree'
p29
S'../PairsAlignemt/YeastTree.newick'
p30
sS'll'
p31
cnumpy.core.multiarray
scalar
p32
(cnumpy
dtype
p33
(S'f8'
p34
I0
I1
tp35
Rp36
(I3
S'<'
p37
NNNI-1
I-1
I0
tp38
bS's\x13\xd2\x16\x18\x1d\x97\xc0'
p39
tp40
Rp41
sS'clock'
p42
I00
sS'edge_to_blen'
p43
(dp44
g19
g32
(g36
S'l\x91\x01|>\x85\xaa?'
p45
tp46
Rp47
sg9
g32
(g36
S"\x05\xa7'~\t_y?"
p48
tp49
Rp50
sg12
g32
(g36
S'2\tuoP\x97\x84?'
p51
tp52
Rp53
sg14
g32
(g36
S'V\xe5\xde\x13\x0c\xffz?'
p54
tp55
Rp56
sg16
g32
(g36
S'\xde\x8cBd@\xf7\xa3?'
p57
tp58
Rp59
sg18
g32
(g36
S'g\x1a\xdcM\xab\xd0x?'
p60
tp61
Rp62
sg6
g32
(g36
S'{ts\xd4\x82F\x87?'
p63
tp64
Rp65
sg21
g32
(g36
S'\xdb\xc2\xfe\xc7\xd8\x9a\x9a?'
p66
tp67
Rp68
sg23
g32
(g36
S'k$\xef\xa6\x05\xee{?'
p69
tp70
Rp71
sg25
g32
(g36
S'\xf1\x04\xea\x1e1%\x94?'
p72
tp73
Rp74
sg26
g32
(g36
S'\x87\x13\xc0}7\xa4~?'
p75
tp76
Rp77
sg28
g32
(g36
S'\x1ba\xfb\xd5+@\xa6?'
p78
tp79
Rp80
ssS'paralog'
p81
(lp82
S'YBR191W'
p83
aS'YPL079W'
p84
asS'alignment_file'
p85
S'../PairsAlignemt/YBR191W_YPL079W/YBR191W_YPL079W_input.fasta'
p86
sS'x_clock'
p87
(lp88
F-0.6523251860396901
aF-0.5320754515980355
aF-0.8123526320525246
aF0.1823215567939546
aF-0.10536051565782628
aF0.3364722366212129
aF-0.10536051565782628
aF-0.10536051565782628
aF-0.10536051565782628
aF-0.10536051565782628
aF-0.10536051565782628
aF-0.10536051565782628
aF-0.10536051565782628
asS'x'
p89
(lp90
F-0.7117676759245177
aF-0.492058222198017
aF-0.8677821646528545
aF2.120186696062007
aF-2.397492746982972
aF2.3007173218369408
aF-2.960407183634597
aF-5.0841499729156014
aF-4.599761446244919
aF-5.022067160593029
aF-3.244302498530777
aF-5.106313267977231
aF-4.4772205249038235
aF-3.650377511869408
aF-4.988072887618701
aF-3.9285017494364785
aF-4.89541179007947
aF-3.135952554755617
asS'Model'
p91
S'MG94'
p92
s.