(dp0
S'Force'
p1
NsS'ExpectedGeneconv'
p2
(dp3
(S'N0'
p4
S'N1'
p5
tp6
F22.047588733415015
s(S'N5'
p7
S'cerevisiae'
p8
tp9
F37.77219705425121
s(S'N2'
p10
S'N3'
p11
tp12
F28.81375446512688
s(S'N4'
p13
g7
tp14
F13.660587138137238
s(g5
S'castellii'
p15
tp16
F559.1988340439684
s(g10
S'bayanus'
p17
tp18
F47.27509966749006
s(g5
g10
tp19
F445.505211128077
s(g11
S'kudriavzevii'
p20
tp21
F46.376764814183
s(g7
S'paradoxus'
p22
tp23
F42.317074391700785
s(g13
S'mikatae'
p24
tp25
F36.80667622579156
s(g11
g13
tp26
F14.149449858932696
s(g4
S'kluyveri'
p27
tp28
F0.0
ssS'newicktree'
p29
S'../PairsAlignemt/YeastTree.newick'
p30
sS'll'
p31
cnumpy.core.multiarray
scalar
p32
(cnumpy
dtype
p33
(S'f8'
p34
I0
I1
tp35
Rp36
(I3
S'<'
p37
NNNI-1
I-1
I0
tp38
bS'\xc8\xc2^\xf3A@\xd2\xc0'
p39
tp40
Rp41
sS'clock'
p42
I00
sS'edge_to_blen'
p43
(dp44
g19
g32
(g36
S'\x87\x9c\xc1\x8a\xb2\xd7\x00@'
p45
tp46
Rp47
sg9
g32
(g36
S'\xb0\x9db\xd3f|\xc8?'
p48
tp49
Rp50
sg12
g32
(g36
S'I\x81\x852\x0e\x7f\xc6?'
p51
tp52
Rp53
sg14
g32
(g36
S'\xf6`\xffp\xc8.\xbb?'
p54
tp55
Rp56
sg16
g32
(g36
S'\xe3\x16_?|@\x05@'
p57
tp58
Rp59
sg18
g32
(g36
S'+\xde\xea\xb6m%\xd4?'
p60
tp61
Rp62
sg6
g32
(g36
S'\x13\xf5g#\xab\t\xcc?'
p63
tp64
Rp65
sg21
g32
(g36
S'*\x1d\xd8\xc4\x9f\x0b\xd4?'
p66
tp67
Rp68
sg23
g32
(g36
S'Z\xd9(\xd7b\x8b\xd5?'
p69
tp70
Rp71
sg25
g32
(g36
S'\x90\x11\x93\xe5\xd3?\xd1?'
p72
tp73
Rp74
sg26
g32
(g36
S"\x1b8\x8c\x86'\xa6\xb9?"
p75
tp76
Rp77
sg28
g32
(g36
S'\x90\xf0\x7fe\x8ak\n@'
p78
tp79
Rp80
ssS'paralog'
p81
(lp82
S'YAL056W'
p83
aS'YOR371C'
p84
asS'alignment_file'
p85
S'../PairsAlignemt/YAL056W_YOR371C/YAL056W_YOR371C_input.fasta'
p86
sS'x_clock'
p87
(lp88
F-0.6458422188763059
aF-0.5008309563512824
aF-0.9500146403668493
aF0.1823215567939546
aF-0.10536051565782628
aF0.3364722366212129
aF-0.10536051565782628
aF-0.10536051565782628
aF-0.10536051565782628
aF-0.10536051565782628
aF-0.10536051565782628
aF-0.10536051565782628
aF-0.10536051565782628
asS'x'
p89
(lp90
F-0.6191186564059474
aF-0.4672129847415223
aF-1.017490841677267
aF0.8803467366968392
aF-2.0985940165852215
aF-2.678874132718989
aF0.744467954615185
aF-1.6539310254539918
aF-1.7386789510731036
aF-2.242595010948311
aF0.9770045669851348
aF-1.1558671322677085
aF-1.518477819284363
aF-1.1608830515997046
aF-1.0887635903383712
aF-1.3111099529216834
aF-2.300671276585953
aF1.1946828048263551
asS'Model'
p91
S'MG94'
p92
s.