(dp0
S'Force'
p1
NsS'ExpectedGeneconv'
p2
(dp3
(S'N0'
p4
S'N1'
p5
tp6
F1.9844488427121836
s(S'N5'
p7
S'cerevisiae'
p8
tp9
F4.038850097536429
s(S'N2'
p10
S'N3'
p11
tp12
F4.214301390870912
s(S'N4'
p13
g7
tp14
F3.76662664063896
s(g5
S'castellii'
p15
tp16
F31.981901434301328
s(g10
S'bayanus'
p17
tp18
F15.916273376926823
s(g5
g10
tp19
F16.435372253279883
s(g11
S'kudriavzevii'
p20
tp21
F9.070426486960189
s(g7
S'paradoxus'
p22
tp23
F3.327494599656606
s(g13
S'mikatae'
p24
tp25
F7.5252051377689
s(g11
g13
tp26
F1.778467338084686
s(g4
S'kluyveri'
p27
tp28
F0.0
ssS'newicktree'
p29
S'../PairsAlignemt/YeastTree.newick'
p30
sS'll'
p31
cnumpy.core.multiarray
scalar
p32
(cnumpy
dtype
p33
(S'f8'
p34
I0
I1
tp35
Rp36
(I3
S'<'
p37
NNNI-1
I-1
I0
tp38
bS'O\xfe\x07\x97X\x82\xa2\xc0'
p39
tp40
Rp41
sS'clock'
p42
I01
sS'edge_to_blen'
p43
(dp44
g19
g32
(g36
S'SJ%\xd6\xd7\x1b\xb1?'
p45
tp46
Rp47
sg9
g32
(g36
S'?\xaa\xb3I`\x84\x8a?'
p48
tp49
Rp50
sg12
g32
(g36
S'\xe6\xe0\xec5\xbc\xd2\x81?'
p51
tp52
Rp53
sg14
g32
(g36
S'\xb4\xd6c*\xdaX\x8b?'
p54
tp55
Rp56
sg16
g32
(g36
S'+M\xc3q\xda\x01\xbb?'
p57
tp58
Rp59
sg18
g32
(g36
S'\xb1\x05<7\x05\xcc\xa3?'
p60
tp61
Rp62
sg6
g32
(g36
S'\xc5r\x88\xa7t\xef\x9f?'
p63
tp64
Rp65
sg21
g32
(g36
S'\xef\x9a\x81S\xac\xae\x9e?'
p66
tp67
Rp68
sg23
g32
(g36
S'?\xaa\xb3I`\x84\x8a?'
p69
tp70
Rp71
sg25
g32
(g36
S'{\xc0\x0b:\x9d\xee\x9a?'
p72
tp73
Rp74
sg26
g32
(g36
S'\xa2\xd3\xae\xcbx\x00n?'
p75
tp76
Rp77
sg28
g32
(g36
S'\xef\xb4\xd2\xcd\xdb~\xc1?'
p78
tp79
Rp80
ssS'paralog'
p81
(lp82
S'YNL069C'
p83
aS'YIL133C'
p84
asS'alignment_file'
p85
S'../PairsAlignemt/YNL069C_YIL133C/YNL069C_YIL133C_input.fasta'
p86
sS'x_clock'
p87
(lp88
F-0.730939274781204
aF-0.5419705283194652
aF-0.9297057154511509
aF1.6575901053833741
aF-1.7431906288478602
aF1.0578824249661807
aF-1.990084190146972
aF0.0
aF-0.25898829660833056
aF-1.0037240211924996
aF-0.2549888028477101
aF-0.1303681090032321
aF-0.7086759757971955
asS'x'
p89
(lp90
F-0.730939274781204
aF-0.5419705283194652
aF-0.9297057154511509
aF1.6575901053833741
aF-1.7431906288478602
aF1.0578824249661807
aF-2.705586705555837
aF-4.34682939559594
aF-4.744118883866496
aF-4.316009265823163
aF-2.2490724867553027
aF-3.252796507947802
aF-3.4677575150290147
aF-3.507785310795512
aF-4.34682939559594
aF-3.638153419798744
aF-5.6096545276666365
aF-1.990084190146972
asS'Model'
p91
S'MG94'
p92
s.