(dp0
S'Force'
p1
NsS'ExpectedGeneconv'
p2
(dp3
(S'N0'
p4
S'N1'
p5
tp6
F0.6738108008453205
s(S'N5'
p7
S'cerevisiae'
p8
tp9
F7.975058614333686
s(S'N2'
p10
S'N3'
p11
tp12
F1.1531646218060487
s(S'N4'
p13
g7
tp14
F4.2721284195859
s(g5
S'castellii'
p15
tp16
F19.33911364837904
s(g10
S'bayanus'
p17
tp18
F8.471785244126592
s(g5
g10
tp19
F53.834679685847505
s(g11
S'kudriavzevii'
p20
tp21
F8.529922373507619
s(g7
S'paradoxus'
p22
tp23
F5.604943312163734
s(g13
S'mikatae'
p24
tp25
F12.776981981567372
s(g11
g13
tp26
F3.2215056000600697
s(g4
S'kluyveri'
p27
tp28
F0.0
ssS'newicktree'
p29
S'../PairsAlignemt/YeastTree.newick'
p30
sS'll'
p31
cnumpy.core.multiarray
scalar
p32
(cnumpy
dtype
p33
(S'f8'
p34
I0
I1
tp35
Rp36
(I3
S'<'
p37
NNNI-1
I-1
I0
tp38
bS'T/A\x1a\xe8\x00\xa7\xc0'
p39
tp40
Rp41
sS'clock'
p42
I00
sS'edge_to_blen'
p43
(dp44
g19
g32
(g36
S'J\x87\xce\x9d\xbf<\xed?'
p45
tp46
Rp47
sg9
g32
(g36
S']\t\xec\xd9\x87\x03\xbd?'
p48
tp49
Rp50
sg12
g32
(g36
S'\xb0k\xb8d\xc5\xa0\x8f?'
p51
tp52
Rp53
sg14
g32
(g36
S'\xb1bqV\xcdB\xb6?'
p54
tp55
Rp56
sg16
g32
(g36
S'\xd0\xc8\xb4\x96,\xb3\xd4?'
p57
tp58
Rp59
sg18
g32
(g36
S'A\xc8\xf3]N\xf8\xc8?'
p60
tp61
Rp62
sg6
g32
(g36
S'\x0f\xb1\xc3\xf1\xe1\xfa\xac?'
p63
tp64
Rp65
sg21
g32
(g36
S'\x9an\xe0\x8d//\xc4?'
p66
tp67
Rp68
sg23
g32
(g36
S'\x8do\xf13\xfbP\xb4?'
p69
tp70
Rp71
sg25
g32
(g36
S'D\xd5\xf0lY\x05\xc7?'
p72
tp73
Rp74
sg26
g32
(g36
S'\xa7Q\xf4\x9c~\x83\xa2?'
p75
tp76
Rp77
sg28
g32
(g36
S'\x16(\x1c\x8a\xbbi\xd9?'
p78
tp79
Rp80
ssS'paralog'
p81
(lp82
S'YPL037C'
p83
aS'YDR252W'
p84
asS'alignment_file'
p85
S'../PairsAlignemt/YPL037C_YDR252W/YPL037C_YDR252W_input.fasta'
p86
sS'x_clock'
p87
(lp88
F-0.5927478485034032
aF-0.45909994368366996
aF-0.7307333041599983
aF0.1823215567939546
aF-0.10536051565782628
aF0.3364722366212129
aF-0.10536051565782628
aF-0.10536051565782628
aF-0.10536051565782628
aF-0.10536051565782628
aF-0.10536051565782628
aF-0.10536051565782628
aF-0.10536051565782628
asS'x'
p89
(lp90
F-0.678633383229412
aF-0.43285366137282627
aF-0.7783513940977033
aF1.0401452181727382
aF-1.8700491646733515
aF-1.5680450420790135
aF-0.09029065129868867
aF-2.1774061525193282
aF-4.170575803019192
aF-2.442343615071131
aF-1.1287542565539619
aF-1.6343573308141603
aF-2.871718338325726
aF-1.847124229797029
aF-2.533752298088345
aF-1.7156279484550143
aF-3.3198162886936937
aF-0.923621525840539
asS'Model'
p91
S'MG94'
p92
s.