(dp0
S'Force'
p1
NsS'ExpectedGeneconv'
p2
(dp3
(S'N0'
p4
S'N1'
p5
tp6
F8.554015136752799
s(S'N5'
p7
S'cerevisiae'
p8
tp9
F21.10162159827851
s(S'N2'
p10
S'N3'
p11
tp12
F15.549942879291171
s(S'N4'
p13
g7
tp14
F11.096717925312042
s(g5
S'castellii'
p15
tp16
F223.5757562729241
s(g10
S'bayanus'
p17
tp18
F29.1200126490124
s(g5
g10
tp19
F190.4063996475668
s(g11
S'kudriavzevii'
p20
tp21
F29.782082638540572
s(g7
S'paradoxus'
p22
tp23
F8.129372957180475
s(g13
S'mikatae'
p24
tp25
F34.649021797093766
s(g11
g13
tp26
F17.99095279599797
s(g4
S'kluyveri'
p27
tp28
F0.0
ssS'newicktree'
p29
S'../PairsAlignemt/YeastTree.newick'
p30
sS'll'
p31
cnumpy.core.multiarray
scalar
p32
(cnumpy
dtype
p33
(S'f8'
p34
I0
I1
tp35
Rp36
(I3
S'<'
p37
NNNI-1
I-1
I0
tp38
bS'X\x87\xbe\x1eO\x1f\xbb\xc0'
p39
tp40
Rp41
sS'clock'
p42
I00
sS'edge_to_blen'
p43
(dp44
g19
g32
(g36
S'[:\xe8\x9dw\x1b\xfa?'
p45
tp46
Rp47
sg9
g32
(g36
S'_\xbf\xb8i\xe3\x16\xc5?'
p48
tp49
Rp50
sg12
g32
(g36
S'\x118y\xb4\x81\xac\xc2?'
p51
tp52
Rp53
sg14
g32
(g36
S"\xcd'\xf7\xd0d\xbd\xbd?"
p54
tp55
Rp56
sg16
g32
(g36
S'\xfc=\x9c\xf1\xa9K\xff?'
p57
tp58
Rp59
sg18
g32
(g36
S'\x0b\x00\x04\xd5tg\xd4?'
p60
tp61
Rp62
sg6
g32
(g36
S'\xb9\x8d\x12?\x08\xea\xc8?'
p63
tp64
Rp65
sg21
g32
(g36
S'\xf2Wb\x84li\xd2?'
p66
tp67
Rp68
sg23
g32
(g36
S'2\xf5H\xcb\xd6\x12\xb8?'
p69
tp70
Rp71
sg25
g32
(g36
S'\xcd\xb7b\xf8:"\xd3?'
p72
tp73
Rp74
sg26
g32
(g36
S'c</\x02\x90\x8a\xc1?'
p75
tp76
Rp77
sg28
g32
(g36
S'\xf4L\xc0\xed\x95s\xf5?'
p78
tp79
Rp80
ssS'paralog'
p81
(lp82
S'YBR024W'
p83
aS'YBR037C'
p84
asS'alignment_file'
p85
S'../PairsAlignemt/YBR024W_YBR037C/YBR024W_YBR037C_input.fasta'
p86
sS'x_clock'
p87
(lp88
F-0.6248383036277048
aF-0.587102670347408
aF-0.8498632293323529
aF0.1823215567939546
aF-0.10536051565782628
aF0.3364722366212129
aF-0.10536051565782628
aF-0.10536051565782628
aF-0.10536051565782628
aF-0.10536051565782628
aF-0.10536051565782628
aF-0.10536051565782628
aF-0.10536051565782628
asS'x'
p89
(lp90
F-0.658747124030258
aF-0.5771363334483378
aF-0.8749899242069262
aF0.8749117242811355
aF-2.32637655857323
aF-2.166390335012286
aF0.48962601503504677
aF-1.8032593614963537
aF-1.9249058927029628
aF-2.152690569901135
aF0.6708875724875712
aF-1.1431459252074399
aF-1.6365928102916654
aF-1.2458906633046143
aF-2.364062055588827
aF-1.207431261509813
aF-1.9874744496902128
aF0.29320615286596274
asS'Model'
p91
S'MG94'
p92
s.