(dp0
S'Force'
p1
NsS'ExpectedGeneconv'
p2
(dp3
(S'N0'
p4
S'N1'
p5
tp6
F0.06556142147499261
s(S'N5'
p7
S'cerevisiae'
p8
tp9
F11.303438911822312
s(S'N2'
p10
S'N3'
p11
tp12
F1.4435903981767968
s(S'N4'
p13
g7
tp14
F4.958110052373764
s(g5
S'castellii'
p15
tp16
F21.000539644274532
s(g10
S'bayanus'
p17
tp18
F9.065553378456697
s(g5
g10
tp19
F15.240013623830892
s(g11
S'kudriavzevii'
p20
tp21
F12.46336027038511
s(g7
S'paradoxus'
p22
tp23
F4.759289738196447
s(g13
S'mikatae'
p24
tp25
F8.460382068207881
s(g11
g13
tp26
F2.99216678260516
s(g4
S'kluyveri'
p27
tp28
F0.0
ssS'newicktree'
p29
S'../PairsAlignemt/YeastTree.newick'
p30
sS'll'
p31
cnumpy.core.multiarray
scalar
p32
(cnumpy
dtype
p33
(S'f8'
p34
I0
I1
tp35
Rp36
(I3
S'<'
p37
NNNI-1
I-1
I0
tp38
bS'k\xdd\x84\x00\x9d~\x9b\xc0'
p39
tp40
Rp41
sS'clock'
p42
I01
sS'edge_to_blen'
p43
(dp44
g19
g32
(g36
S'\xbc\xff)\xceD\x8f\xad?'
p45
tp46
Rp47
sg9
g32
(g36
S'\x87\xfa\xd0\xf2\xdcB\x8b?'
p48
tp49
Rp50
sg12
g32
(g36
S'\x17\x97;\\p\xb0e?'
p51
tp52
Rp53
sg14
g32
(g36
S'\x13\xcc\x92z\x87\xc6|?'
p54
tp55
Rp56
sg16
g32
(g36
S'\xf9?\x1e\xfb\xf4f\xb6?'
p57
tp58
Rp59
sg18
g32
(g36
S'l\x00%PJ}\x9e?'
p60
tp61
Rp62
sg6
g32
(g36
S'\xbe\x9a"\xa1\xd4\x11q?'
p63
tp64
Rp65
sg21
g32
(g36
S'\x8b\x8d\x9dD<\xc7\x9b?'
p66
tp67
Rp68
sg23
g32
(g36
S'\x87\xfa\xd0\xf2\xdcB\x8b?'
p69
tp70
Rp71
sg25
g32
(g36
S'I0\rX\x10\xd3\x94?'
p72
tp73
Rp74
sg26
g32
(g36
S'\x08uA\xb2\xaf\xd0{?'
p75
tp76
Rp77
sg28
g32
(g36
S'\xa6i0E\x12x\xb7?'
p78
tp79
Rp80
ssS'paralog'
p81
(lp82
S'YDR418W'
p83
aS'YEL054C'
p84
asS'alignment_file'
p85
S'../PairsAlignemt/YDR418W_YEL054C/YDR418W_YEL054C_input.fasta'
p86
sS'x_clock'
p87
(lp88
F-0.7232544074292263
aF-0.47959850442300167
aF-0.8985196100402423
aF2.1298957620934136
aF-2.588175869471141
aF1.273495073581327
aF-2.389495816717188
aF0.0
aF-0.046523548066859925
aF-1.078072860800202
aF-0.09312575842483269
aF-0.28812517341201
aF-0.4238119732378388
asS'x'
p89
(lp90
F-0.7232544074292263
aF-0.47959850442300167
aF-0.8985196100402423
aF2.1298957620934136
aF-2.588175869471141
aF1.273495073581327
aF-2.8519145846481533
aF-4.319155130658931
aF-5.934098238777419
aF-4.958241671258498
aF-2.436019364784048
aF-3.5140922255842497
aF-5.480464091886485
aF-3.607217984009082
aF-4.319155130658931
aF-3.895343157421092
aF-4.992184219062488
aF-2.389495816717188
asS'Model'
p91
S'MG94'
p92
s.