(dp0
S'Force'
p1
NsS'ExpectedGeneconv'
p2
(dp3
(S'N0'
p4
S'N1'
p5
tp6
F7.663772742170484
s(S'N5'
p7
S'cerevisiae'
p8
tp9
F5.569121130791522
s(S'N2'
p10
S'N3'
p11
tp12
F5.699526480436335
s(S'N4'
p13
g7
tp14
F3.6610830081219357
s(g5
S'castellii'
p15
tp16
F31.497510345883594
s(g10
S'bayanus'
p17
tp18
F15.80169409925563
s(g5
g10
tp19
F28.1174356832673
s(g11
S'kudriavzevii'
p20
tp21
F11.792930593231985
s(g7
S'paradoxus'
p22
tp23
F1.6504233209233328
s(g13
S'mikatae'
p24
tp25
F8.524634548918835
s(g11
g13
tp26
F1.5005696576400824
s(g4
S'kluyveri'
p27
tp28
F0.0
ssS'newicktree'
p29
S'../PairsAlignemt/YeastTree.newick'
p30
sS'll'
p31
cnumpy.core.multiarray
scalar
p32
(cnumpy
dtype
p33
(S'f8'
p34
I0
I1
tp35
Rp36
(I3
S'<'
p37
NNNI-1
I-1
I0
tp38
bS'P\x9a+\x1dKi\xa2\xc0'
p39
tp40
Rp41
sS'clock'
p42
I00
sS'edge_to_blen'
p43
(dp44
g19
g32
(g36
S'\xbb\xbb\x87b\xff\xf5\xb5?'
p45
tp46
Rp47
sg9
g32
(g36
S'\xa6\xda\x8b\xe2\xd4\x88\x92?'
p48
tp49
Rp50
sg12
g32
(g36
S'\xda\x1e\xdfAh\xcd\x87?'
p51
tp52
Rp53
sg14
g32
(g36
S'MJS\x0b\xb9\xe3\x83?'
p54
tp55
Rp56
sg16
g32
(g36
S'-F\xb8\xa7\xe9g\xb5?'
p57
tp58
Rp59
sg18
g32
(g36
S'4\xc5\xf7\x85\xc8\xb2\xa1?'
p60
tp61
Rp62
sg6
g32
(g36
S'M\x80\xa2\x19!H\xae?'
p63
tp64
Rp65
sg21
g32
(g36
S'hLK\x04\xd0f\xa3?'
p66
tp67
Rp68
sg23
g32
(g36
S'qS_\xda\xafIs?'
p69
tp70
Rp71
sg25
g32
(g36
S'\xc3\x18\x8f\x1awA\x9e?'
p72
tp73
Rp74
sg26
g32
(g36
S'\r\xe1\xb64-\x84d?'
p75
tp76
Rp77
sg28
g32
(g36
S'\xc7{{a)t\xaf?'
p78
tp79
Rp80
ssS'paralog'
p81
(lp82
S'YNL069C'
p83
aS'YIL133C'
p84
asS'alignment_file'
p85
S'../PairsAlignemt/YNL069C_YIL133C/YNL069C_YIL133C_input.fasta'
p86
sS'x_clock'
p87
(lp88
F-0.6820717292911986
aF-0.5960688182652529
aF-0.9197014658640619
aF0.1823215567939546
aF-0.10536051565782628
aF0.3364722366212129
aF-0.10536051565782628
aF-0.10536051565782628
aF-0.10536051565782628
aF-0.10536051565782628
aF-0.10536051565782628
aF-0.10536051565782628
aF-0.10536051565782628
asS'x'
p89
(lp90
F-0.7319666411459463
aF-0.5366104391228467
aF-0.9348112528598164
aF1.6547800744477508
aF-1.711559888815761
aF1.1704341653854082
aF-2.45591256488483
aF-4.011838033485291
aF-4.454833742788221
aF-4.6344249050705955
aF-2.481510436981255
aF-3.3648519533655477
aF-2.8277792368556827
aF-3.2729684910763672
aF-5.3582913443065685
aF-3.5217864281467883
aF-5.989692934356174
aF-2.7898062079841455
asS'Model'
p91
S'MG94'
p92
s.