(dp0
S'Force'
p1
NsS'ExpectedGeneconv'
p2
(dp3
(S'N0'
p4
S'N1'
p5
tp6
F1.3963997811358873e-08
s(S'N5'
p7
S'cerevisiae'
p8
tp9
F4.918314918803409
s(S'N2'
p10
S'N3'
p11
tp12
F3.896036339088409
s(S'N4'
p13
g7
tp14
F3.004192592663848
s(g5
S'castellii'
p15
tp16
F16.26308908936853
s(g10
S'bayanus'
p17
tp18
F6.080025454493488
s(g5
g10
tp19
F19.522782094453266
s(g11
S'kudriavzevii'
p20
tp21
F5.570088996324832
s(g7
S'paradoxus'
p22
tp23
F8.183983393788413
s(g13
S'mikatae'
p24
tp25
F9.122433126212439
s(g11
g13
tp26
F4.497134682198139
s(g4
S'kluyveri'
p27
tp28
F0.0
ssS'newicktree'
p29
S'../PairsAlignemt/YeastTree.newick'
p30
sS'll'
p31
cnumpy.core.multiarray
scalar
p32
(cnumpy
dtype
p33
(S'f8'
p34
I0
I1
tp35
Rp36
(I3
S'<'
p37
NNNI-1
I-1
I0
tp38
bS'T\x8f\xbf\tj\xcb\x9c\xc0'
p39
tp40
Rp41
sS'clock'
p42
I00
sS'edge_to_blen'
p43
(dp44
g19
g32
(g36
S'\x1b\xff\xe6\xf7\x81\x9c\xb4?'
p45
tp46
Rp47
sg9
g32
(g36
S'j%\xabtXO\x88?'
p48
tp49
Rp50
sg12
g32
(g36
S'\x06\xd1\xa4az-\x8c?'
p51
tp52
Rp53
sg14
g32
(g36
S'[\x9bu\x7f\xcbbp?'
p54
tp55
Rp56
sg16
g32
(g36
S"w~\xf2'\xa2\x94\xb4?"
p57
tp58
Rp59
sg18
g32
(g36
S'\x01\xeb\xb6h"\xcb\x88?'
p60
tp61
Rp62
sg6
g32
(g36
S'\xc8K\xda>\xb6|\xc0>'
p63
tp64
Rp65
sg21
g32
(g36
S'\xfc\xda\xaa\xf7\xc2\xf6\x98?'
p66
tp67
Rp68
sg23
g32
(g36
S'\xdc\x1avk\xb0j\x91?'
p69
tp70
Rp71
sg25
g32
(g36
S'F\x89\x07\x82\x98i\x93?'
p72
tp73
Rp74
sg26
g32
(g36
S'\xf7\x86E\xc6\x83\x1f\x82?'
p75
tp76
Rp77
sg28
g32
(g36
S'j,D\xee\x91\x90\xb9?'
p78
tp79
Rp80
ssS'paralog'
p81
(lp82
S'YJL177W'
p83
aS'YKL180W'
p84
asS'alignment_file'
p85
S'../PairsAlignemt/YJL177W_YKL180W/YJL177W_YKL180W_input.fasta'
p86
sS'x_clock'
p87
(lp88
F-0.647920186592178
aF-0.527569534667218
aF-0.7337013364148708
aF0.1823215567939546
aF-0.10536051565782628
aF0.3364722366212129
aF-0.10536051565782628
aF-0.10536051565782628
aF-0.10536051565782628
aF-0.10536051565782628
aF-0.10536051565782628
aF-0.10536051565782628
aF-0.10536051565782628
asS'x'
p89
(lp90
F-0.7196358095616212
aF-0.4568484091282292
aF-0.8152261727110504
aF1.8522838008486033
aF-2.350765821975358
aF1.377540427268081
aF-2.519335153644576
aF-4.433733522909168
aF-4.286089923827061
aF-5.521343881782033
aF-2.5208285937557107
aF-4.414037714572818
aF-13.139803508689354
aF-3.7140405248947332
aF-4.0740391631250805
aF-3.965555475525738
aF-4.727431371893156
aF-2.3039639053772176
asS'Model'
p91
S'MG94'
p92
s.