(dp0
S'Force'
p1
NsS'ExpectedGeneconv'
p2
(dp3
(S'N0'
p4
S'N1'
p5
tp6
F113.96872666594246
s(S'N5'
p7
S'cerevisiae'
p8
tp9
F11.926688054642014
s(S'N2'
p10
S'N3'
p11
tp12
F10.711610036677417
s(S'N4'
p13
g7
tp14
F9.352543006910727
s(g5
S'castellii'
p15
tp16
F205.04416576315148
s(g10
S'bayanus'
p17
tp18
F26.08778297666525
s(g5
g10
tp19
F218.3565447319046
s(g11
S'kudriavzevii'
p20
tp21
F17.3144852928823
s(g7
S'paradoxus'
p22
tp23
F10.139209132563545
s(g13
S'mikatae'
p24
tp25
F18.653495098116558
s(g11
g13
tp26
F8.660137968118521
s(g4
S'kluyveri'
p27
tp28
F0.0
ssS'newicktree'
p29
S'../PairsAlignemt/YeastTree.newick'
p30
sS'll'
p31
cnumpy.core.multiarray
scalar
p32
(cnumpy
dtype
p33
(S'f8'
p34
I0
I1
tp35
Rp36
(I3
S'<'
p37
NNNI-1
I-1
I0
tp38
bS'\xa2\xc3\xb8\x07\x06e\xc1\xc0'
p39
tp40
Rp41
sS'clock'
p42
I00
sS'edge_to_blen'
p43
(dp44
g19
g32
(g36
S"'t\xa3\x87@\x19\xfc?"
p45
tp46
Rp47
sg9
g32
(g36
S'\x0e\xcab\xdc\xd0\xfa\xc5?'
p48
tp49
Rp50
sg12
g32
(g36
S'\xcc\x1b\xc9\xe5\xbf\xdc\xbc?'
p51
tp52
Rp53
sg14
g32
(g36
S'\x075\x97\xcc\xbc\xc2\xba?'
p54
tp55
Rp56
sg16
g32
(g36
S';\xd3\x80\xb4Vb\xf8?'
p57
tp58
Rp59
sg18
g32
(g36
S'\xad}1\xeb\x95k\xd1?'
p60
tp61
Rp62
sg6
g32
(g36
S'\xd7\xc2\x10\xac\x13\xff\xeb?'
p63
tp64
Rp65
sg21
g32
(g36
S'\xcc[IoR)\xca?'
p66
tp67
Rp68
sg23
g32
(g36
S'J\xf5\x9f\xdc\x80\xe1\xbb?'
p69
tp70
Rp71
sg25
g32
(g36
S'k\xc2\xa2\x9d;\x15\xca?'
p72
tp73
Rp74
sg26
g32
(g36
S'J4(\xe1\x91,\xb9?'
p75
tp76
Rp77
sg28
g32
(g36
S'\xa9\x92\xea\xb2\x06\x1e\xec?'
p78
tp79
Rp80
ssS'paralog'
p81
(lp82
S'YDR438W'
p83
aS'YML018C'
p84
asS'alignment_file'
p85
S'../PairsAlignemt/YDR438W_YML018C/YDR438W_YML018C_input.fasta'
p86
sS'x_clock'
p87
(lp88
F-0.8084249956993916
aF-0.5979128243898835
aF-0.9994101068698901
aF0.1823215567939546
aF-0.10536051565782628
aF0.3364722366212129
aF-0.10536051565782628
aF-0.10536051565782628
aF-0.10536051565782628
aF-0.10536051565782628
aF-0.10536051565782628
aF-0.10536051565782628
aF-0.10536051565782628
asS'x'
p89
(lp90
F-0.7142833511671747
aF-0.5716931870357527
aF-0.9578761292702399
aF1.0365534922585051
aF-2.194897890797043
aF-2.653584572121302
aF0.5631324862819614
aF-1.7619087133645166
aF-2.1826410909569436
aF-2.258243299730938
aF0.42134401477402267
aF-1.3012493974520216
aF-0.1336601893865558
aF-1.5877446828321549
aF-2.217236563335728
aF-1.5907487680967676
aF-2.3193617187342848
aF-0.1293512232556892
asS'Model'
p91
S'MG94'
p92
s.