(dp0
S'Force'
p1
NsS'ExpectedGeneconv'
p2
(dp3
(S'N0'
p4
S'N1'
p5
tp6
F0.14534914519825623
s(S'N5'
p7
S'cerevisiae'
p8
tp9
F11.512283909977622
s(S'N2'
p10
S'N3'
p11
tp12
F6.579416315085448
s(S'N4'
p13
g7
tp14
F6.23350965115855
s(g5
S'castellii'
p15
tp16
F39.49301395367223
s(g10
S'bayanus'
p17
tp18
F9.02509820381152
s(g5
g10
tp19
F36.564693582195304
s(g11
S'kudriavzevii'
p20
tp21
F15.038352002327255
s(g7
S'paradoxus'
p22
tp23
F7.691774953902053
s(g13
S'mikatae'
p24
tp25
F15.637796187401348
s(g11
g13
tp26
F2.7275909174260833
s(g4
S'kluyveri'
p27
tp28
F0.0
ssS'newicktree'
p29
S'../PairsAlignemt/YeastTree.newick'
p30
sS'll'
p31
cnumpy.core.multiarray
scalar
p32
(cnumpy
dtype
p33
(S'f8'
p34
I0
I1
tp35
Rp36
(I3
S'<'
p37
NNNI-1
I-1
I0
tp38
bS'\x92L\x18)\x83\x1d\x9e\xc0'
p39
tp40
Rp41
sS'clock'
p42
I00
sS'edge_to_blen'
p43
(dp44
g19
g32
(g36
S'\xe6\x04\x01\xd6 8\xe4?'
p45
tp46
Rp47
sg9
g32
(g36
S'\xd6\x14|\xd9\xc7{\xc1?'
p48
tp49
Rp50
sg12
g32
(g36
S'Z\x8ee\x82#\t\xb9?'
p51
tp52
Rp53
sg14
g32
(g36
S'0\xf2\x0e\x1b\x7f\xe6\xb1?'
p54
tp55
Rp56
sg16
g32
(g36
S'4\xa4\xbb\x97\x88\n\xe4?'
p57
tp58
Rp59
sg18
g32
(g36
S'\x07y@\xa3\x94\x04\xbf?'
p60
tp61
Rp62
sg6
g32
(g36
S'@\xc2\x88\x1dt)\x9d?'
p63
tp64
Rp65
sg21
g32
(g36
S'\xf4\xec\x87u\x81T\xca?'
p66
tp67
Rp68
sg23
g32
(g36
S'a\xe1\x8d\xf5\x88\xd7\xb8?'
p69
tp70
Rp71
sg25
g32
(g36
S'\xd4]\x9e\xe1\xff\x15\xc5?'
p72
tp73
Rp74
sg26
g32
(g36
S'$\xcc\x0c\xd6wM\x9b?'
p75
tp76
Rp77
sg28
g32
(g36
S'\x88\xfcG\xbd\xdb\xe3\xe1?'
p78
tp79
Rp80
ssS'paralog'
p81
(lp82
S'YJR048W'
p83
aS'YEL039C'
p84
asS'alignment_file'
p85
S'../PairsAlignemt/YJR048W_YEL039C/YJR048W_YEL039C_input.fasta'
p86
sS'x_clock'
p87
(lp88
F-0.5409138533559995
aF-0.5223394658283297
aF-0.7764798286921125
aF0.1823215567939546
aF-0.10536051565782628
aF0.3364722366212129
aF-0.10536051565782628
aF-0.10536051565782628
aF-0.10536051565782628
aF-0.10536051565782628
aF-0.10536051565782628
aF-0.10536051565782628
aF-0.10536051565782628
asS'x'
p89
(lp90
F-0.639986367135926
aF-0.5490805761926737
aF-0.8586062504312263
aF1.0215060267752034
aF-2.6863840963715004
aF-0.8648603254692526
aF-0.4591007306015722
aF-1.9907716432281393
aF-2.324874714929575
aF-2.6603556715743806
aF-0.46794840570012197
aF-2.1106132119474617
aF-3.558607781649301
aF-1.5813174776886962
aF-2.332644348999144
aF-1.8034240007017597
aF-3.62448951075158
aF-0.5814899970790152
asS'Model'
p91
S'MG94'
p92
s.