(dp0
S'Force'
p1
NsS'ExpectedGeneconv'
p2
(dp3
(S'N0'
p4
S'N1'
p5
tp6
F193.98397798032846
s(S'N5'
p7
S'cerevisiae'
p8
tp9
F51.924667727619
s(S'N2'
p10
S'N3'
p11
tp12
F57.62122510270359
s(S'N4'
p13
g7
tp14
F27.948700587941325
s(g5
S'castellii'
p15
tp16
F956.9840671792343
s(g10
S'bayanus'
p17
tp18
F76.71162825304489
s(g5
g10
tp19
F924.9692976460443
s(g11
S'kudriavzevii'
p20
tp21
F63.25399573230977
s(g7
S'paradoxus'
p22
tp23
F35.133891122627695
s(g13
S'mikatae'
p24
tp25
F70.53604583064397
s(g11
g13
tp26
F31.080039491625286
s(g4
S'kluyveri'
p27
tp28
F0.0
ssS'newicktree'
p29
S'../PairsAlignemt/YeastTree.newick'
p30
sS'll'
p31
cnumpy.core.multiarray
scalar
p32
(cnumpy
dtype
p33
(S'f8'
p34
I0
I1
tp35
Rp36
(I3
S'<'
p37
NNNI-1
I-1
I0
tp38
bS'M\xaa\xd3\xf9/\xa0\xd7\xc0'
p39
tp40
Rp41
sS'clock'
p42
I00
sS'edge_to_blen'
p43
(dp44
g19
g32
(g36
S'H,\x99]\x8ey\x05@'
p45
tp46
Rp47
sg9
g32
(g36
S',\xeaM>\x07\xad\xc7?'
p48
tp49
Rp50
sg12
g32
(g36
S'\xbdh\xed\x1c\xc38\xc9?'
p51
tp52
Rp53
sg14
g32
(g36
S'\x14d\x19~@z\xbe?'
p54
tp55
Rp56
sg16
g32
(g36
S' \xb3\xe2\x9f&w\x07@'
p57
tp58
Rp59
sg18
g32
(g36
S'\xce\x06\xff\x82\xcaa\xd1?'
p60
tp61
Rp62
sg6
g32
(g36
S'}+WO\xaf_\xe4?'
p63
tp64
Rp65
sg21
g32
(g36
S',\x9d\xb9\xcb\x9a\x81\xd0?'
p66
tp67
Rp68
sg23
g32
(g36
S'\xea\x8b\x99\x12b\xe1\xc0?'
p69
tp70
Rp71
sg25
g32
(g36
S'\xd6pHR\xa5\xb2\xd3?'
p72
tp73
Rp74
sg26
g32
(g36
S'pK\x84\x03o\x05\xbd?'
p75
tp76
Rp77
sg28
g32
(g36
S'Y\x19$\xcd\xd2\xf6\x04@'
p78
tp79
Rp80
ssS'paralog'
p81
(lp82
S'YIR033W'
p83
aS'YKL020C'
p84
asS'alignment_file'
p85
S'../PairsAlignemt/YIR033W_YKL020C/YIR033W_YKL020C_input.fasta'
p86
sS'x_clock'
p87
(lp88
F-0.6478951576748382
aF-0.4520086202596996
aF-0.8761185334130079
aF0.1823215567939546
aF-0.10536051565782628
aF0.3364722366212129
aF-0.10536051565782628
aF-0.10536051565782628
aF-0.10536051565782628
aF-0.10536051565782628
aF-0.10536051565782628
aF-0.10536051565782628
aF-0.10536051565782628
asS'x'
p89
(lp90
F-0.6561231740796498
aF-0.46282975107929825
aF-0.9311843373461548
aF0.9369870253100657
aF-2.310988730681768
aF-1.9719302196111654
aF0.9874399437112287
aF-1.6875729581797938
aF-1.6243244508716244
aF-2.12818720972902
aF1.0760868652656033
aF-1.303448106288365
aF-0.4514876741048811
aF-1.3551428808687227
aF-2.025876917218741
aF-1.178374346819775
aF-2.177149979265422
aF0.9633724886444613
asS'Model'
p91
S'MG94'
p92
s.