(dp0
S'Force'
p1
NsS'ExpectedGeneconv'
p2
(dp3
(S'N0'
p4
S'N1'
p5
tp6
F0.0051990534598935195
s(S'N5'
p7
S'cerevisiae'
p8
tp9
F2.506453331871693
s(S'N2'
p10
S'N3'
p11
tp12
F1.3868110935222455
s(S'N4'
p13
g7
tp14
F3.451445533027142
s(g5
S'castellii'
p15
tp16
F18.492343098421234
s(g10
S'bayanus'
p17
tp18
F9.178600915730701
s(g5
g10
tp19
F14.737442613348755
s(g11
S'kudriavzevii'
p20
tp21
F10.285277460953674
s(g7
S'paradoxus'
p22
tp23
F4.38861834442342
s(g13
S'mikatae'
p24
tp25
F12.134152009925304
s(g11
g13
tp26
F5.735781507003199
s(g4
S'kluyveri'
p27
tp28
F0.0
ssS'newicktree'
p29
S'../PairsAlignemt/YeastTree.newick'
p30
sS'll'
p31
cnumpy.core.multiarray
scalar
p32
(cnumpy
dtype
p33
(S'f8'
p34
I0
I1
tp35
Rp36
(I3
S'<'
p37
NNNI-1
I-1
I0
tp38
bS'\xf5\xd8\x89)\xdd\\\x97\xc0'
p39
tp40
Rp41
sS'clock'
p42
I01
sS'edge_to_blen'
p43
(dp44
g19
g32
(g36
S'\xa2M\x10\x8b`3\xb0?'
p45
tp46
Rp47
sg9
g32
(g36
S'\xf2\xa8\xdae\xcc\x80\x87?'
p48
tp49
Rp50
sg12
g32
(g36
S's\xc3\x82\xcd7&l?'
p51
tp52
Rp53
sg14
g32
(g36
S'\x10K!\xf0X$\x85?'
p54
tp55
Rp56
sg16
g32
(g36
S'+\xf5\xf3gO\xb3\xb9?'
p57
tp58
Rp59
sg18
g32
(g36
S'\x12O\xc7\xb9\xdd\xff\xa2?'
p60
tp61
Rp62
sg6
g32
(g36
S'\xe6;>\xbe\x1d\xdeU?'
p63
tp64
Rp65
sg21
g32
(g36
S'\xda"\xef<z=\xa1?'
p66
tp67
Rp68
sg23
g32
(g36
S'\xf2\xa8\xdae\xcc\x80\x87?'
p69
tp70
Rp71
sg25
g32
(g36
S'\x02\xfa\xfd\xaa\x92R\x96?'
p72
tp73
Rp74
sg26
g32
(g36
S'f\x97\xc0\x9d\xc3P\x88?'
p75
tp76
Rp77
sg28
g32
(g36
S'\x19\xee\xec\xde\xc7\n\xba?'
p78
tp79
Rp80
ssS'paralog'
p81
(lp82
S'YBR191W'
p83
aS'YPL079W'
p84
asS'alignment_file'
p85
S'../PairsAlignemt/YBR191W_YPL079W/YBR191W_YPL079W_input.fasta'
p86
sS'x_clock'
p87
(lp88
F-0.7243445587575603
aF-0.5409036426800128
aF-0.8700705819328237
aF1.6280294362455845
aF-2.551751350155451
aF1.7024101041884385
aF-2.285462513439016
aF0.0
aF-0.0132071925708354
aF-0.9952434657342963
aF-0.09717069307138677
aF-0.4347905412001203
aF-0.6416114501849993
asS'x'
p89
(lp90
F-0.7243445587575603
aF-0.5409036426800128
aF-0.8700705819328237
aF1.6280294362455845
aF-2.551751350155451
aF1.7024101041884385
aF-2.7601234943512734
aF-4.467485856200654
aF-5.6733912511725695
aF-4.573358250117045
aF-2.2986697060098513
aF-3.2939131717441477
aF-6.619052547880465
aF-3.3910838648155344
aF-4.467485856200654
aF-3.8258744060156546
aF-4.433505601452188
aF-2.285462513439016
asS'Model'
p91
S'MG94'
p92
s.