(dp0
S'Force'
p1
NsS'ExpectedGeneconv'
p2
(dp3
(S'N0'
p4
S'N1'
p5
tp6
F0.13047627127210196
s(S'N5'
p7
S'cerevisiae'
p8
tp9
F8.742727037193857
s(S'N2'
p10
S'N3'
p11
tp12
F1.3874113933801064
s(S'N4'
p13
g7
tp14
F1.0750427567456673
s(g5
S'castellii'
p15
tp16
F13.08585242594
s(g10
S'bayanus'
p17
tp18
F7.055945736504841
s(g5
g10
tp19
F7.280549046544049
s(g11
S'kudriavzevii'
p20
tp21
F4.824226559078512
s(g7
S'paradoxus'
p22
tp23
F2.821934827960568
s(g13
S'mikatae'
p24
tp25
F8.306950169450408
s(g11
g13
tp26
F2.3122840887474285
s(g4
S'kluyveri'
p27
tp28
F0.0
ssS'newicktree'
p29
S'../PairsAlignemt/YeastTree.newick'
p30
sS'll'
p31
cnumpy.core.multiarray
scalar
p32
(cnumpy
dtype
p33
(S'f8'
p34
I0
I1
tp35
Rp36
(I3
S'<'
p37
NNNI-1
I-1
I0
tp38
bS'$M\xf6\x18\xe0\x18\x93\xc0'
p39
tp40
Rp41
sS'clock'
p42
I01
sS'edge_to_blen'
p43
(dp44
g19
g32
(g36
S'\xd8\\\xf3\x05\x9d\xec\xab?'
p45
tp46
Rp47
sg9
g32
(g36
S'\xc4=\x81\x86\xab\xd3\x93?'
p48
tp49
Rp50
sg12
g32
(g36
S'\xbbLr?J\xe5\x80?'
p51
tp52
Rp53
sg14
g32
(g36
S'\x040\xc2\x1d\xc1\xccq?'
p54
tp55
Rp56
sg16
g32
(g36
S'\xfbr\xdd\xb42Q\xb8?'
p57
tp58
Rp59
sg18
g32
(g36
S'\x1e\x89\xc7c\xc8\xb5\xa4?'
p60
tp61
Rp62
sg6
g32
(g36
S'\xe5\xa9\xe5oN\x82\x82?'
p63
tp64
Rp65
sg21
g32
(g36
S'\xf0\xf5\xea\xd3u|\xa0?'
p66
tp67
Rp68
sg23
g32
(g36
S'\xc4=\x81\x86\xab\xd3\x93?'
p69
tp70
Rp71
sg25
g32
(g36
S'\xc6\xc9\xf1\xcd\xdbF\x98?'
p72
tp73
Rp74
sg26
g32
(g36
S'6D\xc8\xb3\x1fd\x81?'
p75
tp76
Rp77
sg28
g32
(g36
S'9(\xda\x82|\xa1\xba?'
p78
tp79
Rp80
ssS'paralog'
p81
(lp82
S'YER131W'
p83
aS'YGL189C'
p84
asS'alignment_file'
p85
S'../PairsAlignemt/YER131W_YGL189C/YER131W_YGL189C_input.fasta'
p86
sS'x_clock'
p87
(lp88
F-0.6722609563216789
aF-0.44022953796188036
aF-0.7280344708869422
aF1.9160383043701963
aF-2.9516517102766597
aF0.9966181801438511
aF-2.263108773266571
aF0.0
aF-0.09088557602546372
aF-0.8537093050749247
aF-0.22809894656729116
aF-0.3061483950623571
aF-0.20248443501860386
asS'x'
p89
(lp90
F-0.6722609563216789
aF-0.44022953796188036
aF-0.7280344708869422
aF1.9160383043701963
aF-2.9516517102766597
aF0.9966181801438511
aF-2.908828386617735
aF-3.9444354310152114
aF-4.79756195441926
aF-5.438577725199744
aF-2.353994349292035
aF-3.2077036543669597
aF-4.706361380447852
aF-3.4358026009342506
aF-3.9444354310152114
aF-3.7419509959966075
aF-4.76865990259039
aF-2.263108773266571
asS'Model'
p91
S'MG94'
p92
s.