(dp0
S'Force'
p1
NsS'ExpectedGeneconv'
p2
(dp3
(S'N0'
p4
S'N1'
p5
tp6
F0.17709178913374224
s(S'N5'
p7
S'cerevisiae'
p8
tp9
F12.599692934090513
s(S'N2'
p10
S'N3'
p11
tp12
F6.625025794002709
s(S'N4'
p13
g7
tp14
F0.9408533755913364
s(g5
S'castellii'
p15
tp16
F18.71547728553105
s(g10
S'bayanus'
p17
tp18
F10.407771732957535
s(g5
g10
tp19
F18.86512429916609
s(g11
S'kudriavzevii'
p20
tp21
F8.041297348005015
s(g7
S'paradoxus'
p22
tp23
F3.8595789205382385
s(g13
S'mikatae'
p24
tp25
F7.41675291542193
s(g11
g13
tp26
F3.878019127365752
s(g4
S'kluyveri'
p27
tp28
F0.0
ssS'newicktree'
p29
S'../PairsAlignemt/YeastTree.newick'
p30
sS'll'
p31
cnumpy.core.multiarray
scalar
p32
(cnumpy
dtype
p33
(S'f8'
p34
I0
I1
tp35
Rp36
(I3
S'<'
p37
NNNI-1
I-1
I0
tp38
bS'\x84\xf5"K*\x9e\x95\xc0'
p39
tp40
Rp41
sS'clock'
p42
I00
sS'edge_to_blen'
p43
(dp44
g19
g32
(g36
S'\x16\x06\x8a\xc7( \xb2?'
p45
tp46
Rp47
sg9
g32
(g36
S'g\xf8\xee1\xe2\xf9\x95?'
p48
tp49
Rp50
sg12
g32
(g36
S'yn\x02GTH\x95?'
p51
tp52
Rp53
sg14
g32
(g36
S'\xcaK\xcf\xd9\x8b\xa6\\?'
p54
tp55
Rp56
sg16
g32
(g36
S'E\x9a\xfe[\xe7\x9d\xb1?'
p57
tp58
Rp59
sg18
g32
(g36
S'@\x1d\xc6r\x14\x12\x94?'
p60
tp61
Rp62
sg6
g32
(g36
S'#\xc47\xcc\xc3\xf3y?'
p63
tp64
Rp65
sg21
g32
(g36
S'\xe8B\x8d\xfa\xcd/\x96?'
p66
tp67
Rp68
sg23
g32
(g36
S'\xb2\xb0rx\xa3B\x85?'
p69
tp70
Rp71
sg25
g32
(g36
S'v7\xa4\x1e\x9dN\x99?'
p72
tp73
Rp74
sg26
g32
(g36
S'\xad\x1b\xdf\xbd\x9e\x10\x88?'
p75
tp76
Rp77
sg28
g32
(g36
S'\x9b\x9f\x8b\x00j\xa6\xb6?'
p78
tp79
Rp80
ssS'paralog'
p81
(lp82
S'YBL087C'
p83
aS'YER117W'
p84
asS'alignment_file'
p85
S'../PairsAlignemt/YBL087C_YER117W/YBL087C_YER117W_input.fasta'
p86
sS'x_clock'
p87
(lp88
F-0.6429587448535277
aF-0.704964686037494
aF-0.9002402796574029
aF0.1823215567939546
aF-0.10536051565782628
aF0.3364722366212129
aF-0.10536051565782628
aF-0.10536051565782628
aF-0.10536051565782628
aF-0.10536051565782628
aF-0.10536051565782628
aF-0.10536051565782628
aF-0.10536051565782628
asS'x'
p89
(lp90
F-0.7163135458427116
aF-0.6132550197830559
aF-0.9971421627508289
aF2.052584866546133
aF-2.9055596113820052
aF1.8624926319343555
aF-2.647850913568223
aF-3.841515955444478
aF-3.8735849766672983
aF-6.348887138833689
aF-2.6763237987133595
aF-3.932214526342701
aF-5.061509536205494
aF-3.8319771395951294
aF-4.56777717958316
aF-3.7003874112725312
aF-4.443863716075408
aF-2.425015165880208
asS'Model'
p91
S'MG94'
p92
s.