(dp0
S'Force'
p1
NsS'ExpectedGeneconv'
p2
(dp3
(S'N0'
p4
S'N1'
p5
tp6
F0.06372565445940642
s(S'N5'
p7
S'cerevisiae'
p8
tp9
F11.007727841610908
s(S'N2'
p10
S'N3'
p11
tp12
F2.7824152819263794
s(S'N4'
p13
g7
tp14
F1.7719918305161333
s(g5
S'castellii'
p15
tp16
F25.425043116789848
s(g10
S'bayanus'
p17
tp18
F17.254279975305202
s(g5
g10
tp19
F14.059206079074913
s(g11
S'kudriavzevii'
p20
tp21
F9.354284173806388
s(g7
S'paradoxus'
p22
tp23
F4.769690853631602
s(g13
S'mikatae'
p24
tp25
F6.116146394002092
s(g11
g13
tp26
F2.245305522107734
s(g4
S'kluyveri'
p27
tp28
F0.0
ssS'newicktree'
p29
S'../PairsAlignemt/YeastTree.newick'
p30
sS'll'
p31
cnumpy.core.multiarray
scalar
p32
(cnumpy
dtype
p33
(S'f8'
p34
I0
I1
tp35
Rp36
(I3
S'<'
p37
NNNI-1
I-1
I0
tp38
bS'`0\xd3vB\xb0\x95\xc0'
p39
tp40
Rp41
sS'clock'
p42
I01
sS'edge_to_blen'
p43
(dp44
g19
g32
(g36
S'\xd7Rtv\x11j\xad?'
p45
tp46
Rp47
sg9
g32
(g36
S'\xd7Y\x9a\x89s<\x90?'
p48
tp49
Rp50
sg12
g32
(g36
S'\x86\x9c\xa7\r\x9a_\x81?'
p51
tp52
Rp53
sg14
g32
(g36
S'W\x9d3M\x9f\xfej?'
p54
tp55
Rp56
sg16
g32
(g36
S'\xba6oT\xe3r\xb7?'
p57
tp58
Rp59
sg18
g32
(g36
S'\x9d\x1aj2\xb5{\xa1?'
p60
tp61
Rp62
sg6
g32
(g36
S'\xfeA\x81\xfc\xd2\xd9n?'
p63
tp64
Rp65
sg21
g32
(g36
S'\xf9f\x00^\x9dG\x9a?'
p66
tp67
Rp68
sg23
g32
(g36
S'\xd7Y\x9a\x89s<\x90?'
p69
tp70
Rp71
sg25
g32
(g36
S'\x82\xcd@sG\x9c\x93?'
p72
tp73
Rp74
sg26
g32
(g36
S'\xd5e\xfe\xaaW\xadz?'
p75
tp76
Rp77
sg28
g32
(g36
S'\xcb@S\xec\xb1i\xb8?'
p78
tp79
Rp80
ssS'paralog'
p81
(lp82
S'YBL087C'
p83
aS'YER117W'
p84
asS'alignment_file'
p85
S'../PairsAlignemt/YBL087C_YER117W/YBL087C_YER117W_input.fasta'
p86
sS'x_clock'
p87
(lp88
F-0.7174149675610169
aF-0.6124637538498116
aF-0.9964147554546179
aF2.0516646911109087
aF-2.9224020212213664
aF1.9058909771911035
aF-2.350066945453502
aF0.0
aF-0.04029197658020841
aF-0.9867233615710296
aF-0.2855910322757255
aF-0.2927351249759625
aF-0.18882386848071195
asS'x'
p89
(lp90
F-0.7174149675610169
aF-0.6124637538498116
aF-0.9964147554546179
aF2.0516646911109087
aF-2.9224020212213664
aF1.9058909771911035
aF-2.856842689839133
aF-4.1442323093371405
aF-4.769676128650337
aF-5.7152758252524265
aF-2.3903589220337107
aF-3.3770822836047403
aF-5.581748213338205
aF-3.6626733158804656
aF-4.1442323093371405
aF-3.9554084408564285
aF-5.033959936635057
aF-2.350066945453502
asS'Model'
p91
S'MG94'
p92
s.