(dp0
S'Force'
p1
NsS'ExpectedGeneconv'
p2
(dp3
(S'N0'
p4
S'N1'
p5
tp6
F3.5052929241145043
s(S'N5'
p7
S'cerevisiae'
p8
tp9
F4.5088047506446225
s(S'N2'
p10
S'N3'
p11
tp12
F7.3295759525004485
s(S'N4'
p13
g7
tp14
F14.382452687731398
s(g5
S'castellii'
p15
tp16
F44.573409722977
s(g10
S'bayanus'
p17
tp18
F23.359999209143982
s(g5
g10
tp19
F19.547851915759257
s(g11
S'kudriavzevii'
p20
tp21
F16.297679667046364
s(g7
S'paradoxus'
p22
tp23
F6.198519400976804
s(g13
S'mikatae'
p24
tp25
F7.275854000297366
s(g11
g13
tp26
F6.861574558996729
s(g4
S'kluyveri'
p27
tp28
F0.0
ssS'newicktree'
p29
S'../PairsAlignemt/YeastTree.newick'
p30
sS'll'
p31
cnumpy.core.multiarray
scalar
p32
(cnumpy
dtype
p33
(S'f8'
p34
I0
I1
tp35
Rp36
(I3
S'<'
p37
NNNI-1
I-1
I0
tp38
bS'a\xe4>I\x10\x1f\xa0\xc0'
p39
tp40
Rp41
sS'clock'
p42
I00
sS'edge_to_blen'
p43
(dp44
g19
g32
(g36
S'\x13\x0f\x82g\xc4\xf8\x9f?'
p45
tp46
Rp47
sg9
g32
(g36
S'\xeen\x1b\xa2\xadmn?'
p48
tp49
Rp50
sg12
g32
(g36
S')\xec\xb8\x92\xc1\x91\x82?'
p51
tp52
Rp53
sg14
g32
(g36
S'g> \xd0\xd8\xa4\x85?'
p54
tp55
Rp56
sg16
g32
(g36
S'\xc5\x9dVI\x80\xad\xb1?'
p57
tp58
Rp59
sg18
g32
(g36
S'\x98\x13v\x81EM\x99?'
p60
tp61
Rp62
sg6
g32
(g36
S'\xa5\xd2\xdaO3\x8d\x92?'
p63
tp64
Rp65
sg21
g32
(g36
S'y\xbeK\xef\xfb\xb1\x9d?'
p66
tp67
Rp68
sg23
g32
(g36
S'\x9b\xefX\xd0\xdb\x94\x83?'
p69
tp70
Rp71
sg25
g32
(g36
S'Y\xa6\x8c\x96\x0eJ\x85?'
p72
tp73
Rp74
sg26
g32
(g36
S'3\x89\xe9\x86\xd8\xbax?'
p75
tp76
Rp77
sg28
g32
(g36
S'm \xa0\x06\xee1\xb0?'
p78
tp79
Rp80
ssS'paralog'
p81
(lp82
S'YER102W'
p83
aS'YBL072C'
p84
asS'alignment_file'
p85
S'../PairsAlignemt/YER102W_YBL072C/YER102W_YBL072C_input.fasta'
p86
sS'x_clock'
p87
(lp88
F-0.6118861020835681
aF-0.5481000259870481
aF-0.7987579777858408
aF0.1823215567939546
aF-0.10536051565782628
aF0.3364722366212129
aF-0.10536051565782628
aF-0.10536051565782628
aF-0.10536051565782628
aF-0.10536051565782628
aF-0.10536051565782628
aF-0.10536051565782628
aF-0.10536051565782628
asS'x'
p89
(lp90
F-0.6940316260056035
aF-0.5227024142142346
aF-0.8540884230137865
aF1.9635237532256002
aF-1.6649428249650198
aF2.6418421014443894
aF-3.4666192024122324
aF-5.595535956082198
aF-4.703106078721977
aF-4.549893787897659
aF-2.672871294414428
aF-3.7005946131901744
aF-4.0109176962219415
aF-3.540484689440806
aF-4.650034810884689
aF-4.566415087127758
aF-5.109754485935167
aF-2.7604725308397833
asS'Model'
p91
S'MG94'
p92
s.