(dp0
S'Force'
p1
NsS'ExpectedGeneconv'
p2
(dp3
(S'N0'
p4
S'N1'
p5
tp6
F136.99098744794796
s(S'N5'
p7
S'cerevisiae'
p8
tp9
F56.715508483606904
s(S'N2'
p10
S'N3'
p11
tp12
F8.480089617981019
s(S'N4'
p13
g7
tp14
F33.84163711459232
s(g5
S'castellii'
p15
tp16
F647.5172440609914
s(g10
S'bayanus'
p17
tp18
F123.19358618893548
s(g5
g10
tp19
F594.792349248024
s(g11
S'kudriavzevii'
p20
tp21
F87.52014173830652
s(g7
S'paradoxus'
p22
tp23
F50.24370905852815
s(g13
S'mikatae'
p24
tp25
F82.46443276358258
s(g11
g13
tp26
F34.51624729668362
s(g4
S'kluyveri'
p27
tp28
F0.0
ssS'newicktree'
p29
S'../PairsAlignemt/YeastTree.newick'
p30
sS'll'
p31
cnumpy.core.multiarray
scalar
p32
(cnumpy
dtype
p33
(S'f8'
p34
I0
I1
tp35
Rp36
(I3
S'<'
p37
NNNI-1
I-1
I0
tp38
bS'\x97:O\xe8p\xf8\xd2\xc0'
p39
tp40
Rp41
sS'clock'
p42
I01
sS'edge_to_blen'
p43
(dp44
g19
g32
(g36
S"'\x9d\xd1\xed\x841\xe7?"
p45
tp46
Rp47
sg9
g32
(g36
S'q\x03E]m\x89\xa6?'
p48
tp49
Rp50
sg12
g32
(g36
S'\xcdhS\x82$\xa2\x85?'
p51
tp52
Rp53
sg14
g32
(g36
S'*\nJ\x9d\xc9\xef\xa2?'
p54
tp55
Rp56
sg16
g32
(g36
S'#=r\xac\x1aP\xeb?'
p57
tp58
Rp59
sg18
g32
(g36
S'\xf0\x7f\x82\xfaVz\xc0?'
p60
tp61
Rp62
sg6
g32
(g36
S'\xfd\x15\x03f\xd5\xca\xcf?'
p63
tp64
Rp65
sg21
g32
(g36
S'\xc6\x92\xbadi@\xbe?'
p66
tp67
Rp68
sg23
g32
(g36
S'q\x03E]m\x89\xa6?'
p69
tp70
Rp71
sg25
g32
(g36
S'\xce\x86G}\x9b\xbc\xb4?'
p72
tp73
Rp74
sg26
g32
(g36
S'\xf0\x17\xe6\xce\x9b\x07\xa3?'
p75
tp76
Rp77
sg28
g32
(g36
S'Q\x81\xf9\x02h\xa1\xf1?'
p78
tp79
Rp80
ssS'paralog'
p81
(lp82
S'YNL049C'
p83
aS'YIL109C'
p84
asS'alignment_file'
p85
S'../PairsAlignemt/YNL049C_YIL109C/YNL049C_YIL109C_input.fasta'
p86
sS'x_clock'
p87
(lp88
F-0.6674477743494617
aF-0.4070714462778884
aF-0.9699470619681496
aF1.521436528572361
aF-1.9907128354575698
aF-0.23909471288942963
aF0.09704125683941117
aF0.0
aF-0.255417785032106
aF-1.8916342723938064
aF-0.08561729796133768
aF-0.3776419741577297
aF-0.6099039135682129
asS'x'
p89
(lp90
F-0.6674477743494617
aF-0.4070714462778884
aF-0.9699470619681496
aF1.521436528572361
aF-1.9907128354575698
aF-0.23909471288942963
aF-0.32186665619184485
aF-3.123173986273782
aF-4.5503819754133055
aF-3.2972243636267433
aF-0.15837652819269488
aF-2.0500108005865014
aF-1.3928055535484694
aF-2.1356280985478393
aF-3.123173986273782
aF-2.513270072705569
aF-3.292322594683003
aF0.09704125683941114
asS'Model'
p91
S'MG94'
p92
s.