(dp0
S'Force'
p1
NsS'ExpectedGeneconv'
p2
(dp3
(S'N0'
p4
S'N1'
p5
tp6
F3.7467317852529116
s(S'N5'
p7
S'cerevisiae'
p8
tp9
F29.960753062562432
s(S'N2'
p10
S'N3'
p11
tp12
F25.233903406624787
s(S'N4'
p13
g7
tp14
F19.09952859160329
s(g5
S'castellii'
p15
tp16
F87.69293161254294
s(g10
S'bayanus'
p17
tp18
F43.02872382082127
s(g5
g10
tp19
F91.5162607216553
s(g11
S'kudriavzevii'
p20
tp21
F35.553789165250336
s(g7
S'paradoxus'
p22
tp23
F19.20680830231621
s(g13
S'mikatae'
p24
tp25
F42.35613293181326
s(g11
g13
tp26
F27.078092219488017
s(g4
S'kluyveri'
p27
tp28
F0.0
ssS'newicktree'
p29
S'../PairsAlignemt/YeastTree.newick'
p30
sS'll'
p31
cnumpy.core.multiarray
scalar
p32
(cnumpy
dtype
p33
(S'f8'
p34
I0
I1
tp35
Rp36
(I3
S'<'
p37
NNNI-1
I-1
I0
tp38
bS'\xbe\x9bVu\x04\xb3\xb6\xc0'
p39
tp40
Rp41
sS'clock'
p42
I00
sS'edge_to_blen'
p43
(dp44
g19
g32
(g36
S'\\E(\x8bO\x8e\xdc?'
p45
tp46
Rp47
sg9
g32
(g36
S'\xf8{\x01\xf6\xe0P\xb8?'
p48
tp49
Rp50
sg12
g32
(g36
S'\x1e"_t\x8a?\xb9?'
p51
tp52
Rp53
sg14
g32
(g36
S'>\xdf\xad!\x95\xce\xb4?'
p54
tp55
Rp56
sg16
g32
(g36
S'\xd3\xaac\xe5\x84X\xda?'
p57
tp58
Rp59
sg18
g32
(g36
S'"\xb7\xaeK\x87(\xc7?'
p60
tp61
Rp62
sg6
g32
(g36
S'\x8aW\xf6\x08r\x12\xb3?'
p63
tp64
Rp65
sg21
g32
(g36
S'\xadR\xee\x91<x\xc5?'
p66
tp67
Rp68
sg23
g32
(g36
S'\xea\x95\xe3\xc4\xd3\xe0\xb5?'
p69
tp70
Rp71
sg25
g32
(g36
S'\x8b\xb7$B\x1d\xbb\xc5?'
p72
tp73
Rp74
sg26
g32
(g36
S'B\xe0\xd7$c\xf7\xb9?'
p75
tp76
Rp77
sg28
g32
(g36
S'\xfc1\x83KW\x08\xda?'
p78
tp79
Rp80
ssS'paralog'
p81
(lp82
S'YHR106W'
p83
aS'YDR353W'
p84
asS'alignment_file'
p85
S'../PairsAlignemt/YHR106W_YDR353W/YHR106W_YDR353W_input.fasta'
p86
sS'x_clock'
p87
(lp88
F-0.6339278208999742
aF-0.6097534504822344
aF-0.8024913475704643
aF0.1823215567939546
aF-0.10536051565782628
aF0.3364722366212129
aF-0.10536051565782628
aF-0.10536051565782628
aF-0.10536051565782628
aF-0.10536051565782628
aF-0.10536051565782628
aF-0.10536051565782628
aF-0.10536051565782628
asS'x'
p89
(lp90
F-0.6855675715275339
aF-0.5535616153071402
aF-0.8707226676236195
aF1.3079419287390797
aF-2.7987793790035993
aF-1.4072456742853114
aF-0.807019470236509
aF-2.354045645125046
aF-2.316422324977073
aF-2.509889750956024
aF-0.8875750552595153
aF-1.7096763924664706
aF-2.5969533989786555
aF-1.785388825618376
aF-2.459685304745563
aF-1.7732943537715657
aF-2.2883757225959265
aF-0.8995341754368887
asS'Model'
p91
S'MG94'
p92
s.