(dp0
S'Force'
p1
NsS'ExpectedGeneconv'
p2
(dp3
(S'N0'
p4
S'N1'
p5
tp6
F1.707187153000847e-07
s(S'N5'
p7
S'cerevisiae'
p8
tp9
F6.437329805290594
s(S'N2'
p10
S'N3'
p11
tp12
F1.4929895495193812
s(S'N4'
p13
g7
tp14
F1.568528580761206
s(g5
S'castellii'
p15
tp16
F44.17737103654513
s(g10
S'bayanus'
p17
tp18
F6.834963141922446
s(g5
g10
tp19
F20.016114219857272
s(g11
S'kudriavzevii'
p20
tp21
F2.0412706753416416
s(g7
S'paradoxus'
p22
tp23
F2.4305519830380553
s(g13
S'mikatae'
p24
tp25
F5.053062320030693
s(g11
g13
tp26
F3.6500587715014072
s(g4
S'kluyveri'
p27
tp28
F0.0
ssS'newicktree'
p29
S'../PairsAlignemt/YeastTree.newick'
p30
sS'll'
p31
cnumpy.core.multiarray
scalar
p32
(cnumpy
dtype
p33
(S'f8'
p34
I0
I1
tp35
Rp36
(I3
S'<'
p37
NNNI-1
I-1
I0
tp38
bS'F\x89"UI\xe1\x93\xc0'
p39
tp40
Rp41
sS'clock'
p42
I00
sS'edge_to_blen'
p43
(dp44
g19
g32
(g36
S':\xf5Tm\x80\x00\xb9?'
p45
tp46
Rp47
sg9
g32
(g36
S'\xc5b\x8c`Z\xd1\x93?'
p48
tp49
Rp50
sg12
g32
(g36
S'K\xdd\xdf\x07!\xfe\x85?'
p51
tp52
Rp53
sg14
g32
(g36
S'\xf2\xa2Px\x065\x86?'
p54
tp55
Rp56
sg16
g32
(g36
S'\x0b\xa4\xe35\xcd/\xc9?'
p57
tp58
Rp59
sg18
g32
(g36
S'*g\x00\xcaL\xed\x96?'
p60
tp61
Rp62
sg6
g32
(g36
S'\x8ak+ 3O\xdf>'
p63
tp64
Rp65
sg21
g32
(g36
S'G\xf4\x8d\xcfI\xa0\x93?'
p66
tp67
Rp68
sg23
g32
(g36
S'\xb9\xedw6\xfa\x01\x8c?'
p69
tp70
Rp71
sg25
g32
(g36
S'\xde\x8f\xc0\x89Y\xf6\x96?'
p72
tp73
Rp74
sg26
g32
(g36
S'\xf1\x96\xa8\x82\xf0I\x8e?'
p75
tp76
Rp77
sg28
g32
(g36
S'\xa5+-y-\xa0\xc4?'
p78
tp79
Rp80
ssS'paralog'
p81
(lp82
S'YLR333C'
p83
aS'YGR027C'
p84
asS'alignment_file'
p85
S'../PairsAlignemt/YLR333C_YGR027C/YLR333C_YGR027C_input.fasta'
p86
sS'x_clock'
p87
(lp88
F-0.6234581285442587
aF-0.5225563990184349
aF-0.7403010179171368
aF0.1823215567939546
aF-0.10536051565782628
aF0.3364722366212129
aF-0.10536051565782628
aF-0.10536051565782628
aF-0.10536051565782628
aF-0.10536051565782628
aF-0.10536051565782628
aF-0.10536051565782628
aF-0.10536051565782628
asS'x'
p89
(lp90
F-0.7177732071880377
aF-0.51257328042984
aF-0.8479687703366373
aF1.6929155657694808
aF-1.8983987022866318
aF1.960822611697956
aF-2.326223237015874
aF-3.944892023821631
aF-4.5339087921115455
aF-4.524205578842219
aF-1.6257131933687317
aF-3.799158602068909
aF-11.805320435082061
aF-3.9546101543896865
aF-4.292138649961993
aF-3.7976179019473313
aF-4.2138401156766925
aF-1.8254926901708446
asS'Model'
p91
S'MG94'
p92
s.