(dp0
S'Force'
p1
NsS'ExpectedGeneconv'
p2
(dp3
(S'N0'
p4
S'N1'
p5
tp6
F163.34433941828917
s(S'N5'
p7
S'cerevisiae'
p8
tp9
F50.322466628834455
s(S'N2'
p10
S'N3'
p11
tp12
F30.035814281272838
s(S'N4'
p13
g7
tp14
F24.870141155158816
s(g5
S'castellii'
p15
tp16
F450.77621574979975
s(g10
S'bayanus'
p17
tp18
F71.61424062947754
s(g5
g10
tp19
F341.42244497881455
s(g11
S'kudriavzevii'
p20
tp21
F69.04410082607765
s(g7
S'paradoxus'
p22
tp23
F33.16573761738481
s(g13
S'mikatae'
p24
tp25
F76.81647619987235
s(g11
g13
tp26
F29.456845350671895
s(g4
S'kluyveri'
p27
tp28
F0.0
ssS'newicktree'
p29
S'../PairsAlignemt/YeastTree.newick'
p30
sS'll'
p31
cnumpy.core.multiarray
scalar
p32
(cnumpy
dtype
p33
(S'f8'
p34
I0
I1
tp35
Rp36
(I3
S'<'
p37
NNNI-1
I-1
I0
tp38
bS'\xecF\x0fp\x1dM\xdd\xc0'
p39
tp40
Rp41
sS'clock'
p42
I00
sS'edge_to_blen'
p43
(dp44
g19
g32
(g36
S'h\xb2\xd3O\x9e\xcf\xf1?'
p45
tp46
Rp47
sg9
g32
(g36
S'\xaa\\SXi\xe8\xce?'
p48
tp49
Rp50
sg12
g32
(g36
S'\xa8\xb26\x99;\xbc\xc1?'
p51
tp52
Rp53
sg14
g32
(g36
S'\xe9\x84hU\xed\x13\xbe?'
p54
tp55
Rp56
sg16
g32
(g36
S'\x92\x01+S\t\xca\xf6?'
p57
tp58
Rp59
sg18
g32
(g36
S'\x0e\xae\xe3\x08o\x8e\xd4?'
p60
tp61
Rp62
sg6
g32
(g36
S'\\\xfeSbod\xe2?'
p63
tp64
Rp65
sg21
g32
(g36
S'\xb4t\xc2Q\xa6z\xd5?'
p66
tp67
Rp68
sg23
g32
(g36
S'\x83\x08\xfd\xf8\x10\xbd\xc3?'
p69
tp70
Rp71
sg25
g32
(g36
S'n\x97*\xea\xbf>\xd5?'
p72
tp73
Rp74
sg26
g32
(g36
S'\xa8\x82\x95\xf7j\xd7\xc2?'
p75
tp76
Rp77
sg28
g32
(g36
S'6g\xa2\x1f\x89\x00\xf1?'
p78
tp79
Rp80
ssS'paralog'
p81
(lp82
S'YGL133W'
p83
aS'YPL216W'
p84
asS'alignment_file'
p85
S'../PairsAlignemt/YGL133W_YPL216W/YGL133W_YPL216W_input.fasta'
p86
sS'x_clock'
p87
(lp88
F-0.5867502110282133
aF-0.45573602852282474
aF-0.9702885393599554
aF0.1823215567939546
aF-0.10536051565782628
aF0.3364722366212129
aF-0.10536051565782628
aF-0.10536051565782628
aF-0.10536051565782628
aF-0.10536051565782628
aF-0.10536051565782628
aF-0.10536051565782628
aF-0.10536051565782628
asS'x'
p89
(lp90
F-0.6041876902885351
aF-0.43522023441832136
aF-1.0100828696666841
aF1.0048438044128
aF-1.6175552000916085
aF-2.958448086730637
aF0.10722804929678145
aF-1.4210198263388731
aF-1.9764741396906287
aF-2.141388750710641
aF0.3536982273111932
aF-1.135711642917706
aF-0.553802467256351
aF-1.0918026985702867
aF-1.8694571824212034
aF-1.1027560550600957
aF-1.9159696571393163
aF0.06074769304627129
asS'Model'
p91
S'MG94'
p92
s.