(dp0
S'Force'
p1
NsS'ExpectedGeneconv'
p2
(dp3
(S'N0'
p4
S'N1'
p5
tp6
F18.029027697856613
s(S'N5'
p7
S'cerevisiae'
p8
tp9
F51.160682169013256
s(S'N2'
p10
S'N3'
p11
tp12
F53.20091722185425
s(S'N4'
p13
g7
tp14
F27.15317620200518
s(g5
S'castellii'
p15
tp16
F603.5881079579289
s(g10
S'bayanus'
p17
tp18
F101.24812011752245
s(g5
g10
tp19
F439.06933656717104
s(g11
S'kudriavzevii'
p20
tp21
F84.7771614886973
s(g7
S'paradoxus'
p22
tp23
F39.18626133622899
s(g13
S'mikatae'
p24
tp25
F96.92820081660435
s(g11
g13
tp26
F31.01310095993252
s(g4
S'kluyveri'
p27
tp28
F0.0
ssS'newicktree'
p29
S'../PairsAlignemt/YeastTree.newick'
p30
sS'll'
p31
cnumpy.core.multiarray
scalar
p32
(cnumpy
dtype
p33
(S'f8'
p34
I0
I1
tp35
Rp36
(I3
S'<'
p37
NNNI-1
I-1
I0
tp38
bS'\x99\xed\xcf\x84\x91\xa5\xcb\xc0'
p39
tp40
Rp41
sS'clock'
p42
I00
sS'edge_to_blen'
p43
(dp44
g19
g32
(g36
S'\xa7\x82P\xc5=_\xf1?'
p45
tp46
Rp47
sg9
g32
(g36
S'W\xd4\xbd\xbd8E\xc2?'
p48
tp49
Rp50
sg12
g32
(g36
S'\xb3<\xe0\x9d\xa1\xf3\xc1?'
p51
tp52
Rp53
sg14
g32
(g36
S'\xe2sr\xaaiG\xb2?'
p54
tp55
Rp56
sg16
g32
(g36
S'\xec\xb0\x83\x02\xd8\xa5\xf7?'
p57
tp58
Rp59
sg18
g32
(g36
S'z\xae1sf\xab\xcf?'
p60
tp61
Rp62
sg6
g32
(g36
S'\xbaj2\x95\xd1\xb8\xc1?'
p63
tp64
Rp65
sg21
g32
(g36
S'B\x0c\xce\xfbIf\xcc?'
p66
tp67
Rp68
sg23
g32
(g36
S'\xe4\x98#T\n\xc8\xb7?'
p69
tp70
Rp71
sg25
g32
(g36
S'"\x8b\xf5\xd5\x88\xb6\xce?'
p72
tp73
Rp74
sg26
g32
(g36
S'\xc6\x9fd\x96O\xfb\xb5?'
p75
tp76
Rp77
sg28
g32
(g36
S'N88\xb9\x13-\xfd?'
p78
tp79
Rp80
ssS'paralog'
p81
(lp82
S'YPR159W'
p83
aS'YGR143W'
p84
asS'alignment_file'
p85
S'../PairsAlignemt/YPR159W_YGR143W/YPR159W_YGR143W_input.fasta'
p86
sS'x_clock'
p87
(lp88
F-0.6827832045874571
aF-0.5347227581797637
aF-0.9200660102601093
aF0.1823215567939546
aF-0.10536051565782628
aF0.3364722366212129
aF-0.10536051565782628
aF-0.10536051565782628
aF-0.10536051565782628
aF-0.10536051565782628
aF-0.10536051565782628
aF-0.10536051565782628
aF-0.10536051565782628
asS'x'
p89
(lp90
F-0.7028182771566046
aF-0.4508971784531774
aF-1.0528876594807166
aF1.118108491051315
aF-2.6428649259321526
aF-1.259318250736493
aF0.08227308182694536
aF-1.9467481613266866
aF-1.9643462912632195
aF-2.6394269871800042
aF0.39068251948464877
aF-1.3966751804726951
aF-1.977226393647831
aF-1.5056563864626111
aF-2.376273362245075
aF-1.427343417605829
aF-2.454967921617879
aF0.6007605488846874
asS'Model'
p91
S'MG94'
p92
s.