(dp0
S'Force'
p1
NsS'ExpectedGeneconv'
p2
(dp3
(S'N0'
p4
S'N1'
p5
tp6
F44.189670738085034
s(S'N5'
p7
S'cerevisiae'
p8
tp9
F154.88373041285723
s(S'N2'
p10
S'N3'
p11
tp12
F50.85600016386446
s(S'N4'
p13
g7
tp14
F85.77886961474302
s(g5
S'castellii'
p15
tp16
F666.2114483401949
s(g10
S'bayanus'
p17
tp18
F336.98025126113305
s(g5
g10
tp19
F390.21857820340347
s(g11
S'kudriavzevii'
p20
tp21
F257.98299724958
s(g7
S'paradoxus'
p22
tp23
F109.18722842001388
s(g13
S'mikatae'
p24
tp25
F210.46076277059785
s(g11
g13
tp26
F74.43896649442509
s(g4
S'kluyveri'
p27
tp28
F0.0
ssS'newicktree'
p29
S'../PairsAlignemt/YeastTree.newick'
p30
sS'll'
p31
cnumpy.core.multiarray
scalar
p32
(cnumpy
dtype
p33
(S'f8'
p34
I0
I1
tp35
Rp36
(I3
S'<'
p37
NNNI-1
I-1
I0
tp38
bS'\x17~\xd1a\xf8\x81\xd2\xc0'
p39
tp40
Rp41
sS'clock'
p42
I01
sS'edge_to_blen'
p43
(dp44
g19
g32
(g36
S'\xda\x8aO\x82I\xb8\xd4?'
p45
tp46
Rp47
sg9
g32
(g36
S'\x9br\xe9\x10i\xf1\xb6?'
p48
tp49
Rp50
sg12
g32
(g36
S'\x0c3H6\x0b\xe3\xa2?'
p51
tp52
Rp53
sg14
g32
(g36
S'!\xd9@t\x8d\xd7\xad?'
p54
tp55
Rp56
sg16
g32
(g36
S'\xf7*\xdd_\x85\xe1\xe1?'
p57
tp58
Rp59
sg18
g32
(g36
S"'\x96\xd5z\x82\x15\xce?"
p60
tp61
Rp62
sg6
g32
(g36
S'b\xf6\xdd<\x04\xa4\xba?'
p63
tp64
Rp65
sg21
g32
(g36
S'e\x89C\xad\xbf\\\xc9?'
p66
tp67
Rp68
sg23
g32
(g36
S'\x9br\xe9\x10i\xf1\xb6?'
p69
tp70
Rp71
sg25
g32
(g36
S'\x95\xef\x84\xe5\x97\xee\xc2?'
p72
tp73
Rp74
sg26
g32
(g36
S'>g\xfa\x1e\x9f\xb8\xa9?'
p75
tp76
Rp77
sg28
g32
(g36
S'\xc3\xe9x\xe7\x056\xe5?'
p78
tp79
Rp80
ssS'paralog'
p81
(lp82
S'YGL062W'
p83
aS'YBR218C'
p84
asS'alignment_file'
p85
S'../PairsAlignemt/YGL062W_YBR218C/YGL062W_YBR218C_input.fasta'
p86
sS'x_clock'
p87
(lp88
F-0.7376273326389872
aF-0.5300177146352453
aF-0.9241178260938505
aF1.235342931797187
aF-3.0580508004703137
aF0.3030935703981085
aF-0.411214686986984
aF0.0
aF-0.17078579740405478
aF-0.8660355721630764
aF-0.1707303975216577
aF-0.2924099200921043
aF-0.5009877801667932
asS'x'
p89
(lp90
F-0.7376273326389872
aF-0.5300177146352453
aF-0.9241178260938505
aF1.235342931797187
aF-3.0580508004703137
aF0.3030935703981085
aF-1.1277898600645377
aF-2.41216415433467
aF-3.299856603342189
aF-2.842407755155399
aF-0.5820004843910387
aF-1.448036056554115
aF-2.262737710887417
aF-1.6187664540757727
aF-2.41216415433467
aF-1.9111763741678771
aF-2.991009926022881
aF-0.411214686986984
asS'Model'
p91
S'MG94'
p92
s.