(dp0
S'Force'
p1
NsS'ExpectedGeneconv'
p2
(dp3
(S'N0'
p4
S'N1'
p5
tp6
F0.6063419407731376
s(S'N5'
p7
S'cerevisiae'
p8
tp9
F3.94885010189751
s(S'N2'
p10
S'N3'
p11
tp12
F1.5061140200553422
s(S'N4'
p13
g7
tp14
F0.5374042123877966
s(g5
S'castellii'
p15
tp16
F9.04770537895961
s(g10
S'bayanus'
p17
tp18
F5.503673897343346
s(g5
g10
tp19
F9.45120967986149
s(g11
S'kudriavzevii'
p20
tp21
F2.891163243292062
s(g7
S'paradoxus'
p22
tp23
F4.286748675280552
s(g13
S'mikatae'
p24
tp25
F10.8169689269911
s(g11
g13
tp26
F1.4685326719967116
s(g4
S'kluyveri'
p27
tp28
F0.0
ssS'newicktree'
p29
S'../PairsAlignemt/YeastTree.newick'
p30
sS'll'
p31
cnumpy.core.multiarray
scalar
p32
(cnumpy
dtype
p33
(S'f8'
p34
I0
I1
tp35
Rp36
(I3
S'<'
p37
NNNI-1
I-1
I0
tp38
bS'\x0f\x18\xc2?\x01\xa5\x92\xc0'
p39
tp40
Rp41
sS'clock'
p42
I00
sS'edge_to_blen'
p43
(dp44
g19
g32
(g36
S'u\xe9l\xb7\x13\x83\xab?'
p45
tp46
Rp47
sg9
g32
(g36
S'Q[\xb7\x04\x0fW\x95?'
p48
tp49
Rp50
sg12
g32
(g36
S'/\xd0P\x9f\xf2\xc5\x8b?'
p51
tp52
Rp53
sg14
g32
(g36
S'\xe2\x80\xb2s5C^?'
p54
tp55
Rp56
sg16
g32
(g36
S'G(t\xecH\x0f\xae?'
p57
tp58
Rp59
sg18
g32
(g36
S'\xb7\xe4\x93J\xbb\x11\xa3?'
p60
tp61
Rp62
sg6
g32
(g36
S'H\x1f!\xe6\xf3\x86\x94?'
p63
tp64
Rp65
sg21
g32
(g36
S'\xb5\x8c\xe5"\x12\xfa\x9e?'
p66
tp67
Rp68
sg23
g32
(g36
S'\xec\xc2RP\x18B\x93?'
p69
tp70
Rp71
sg25
g32
(g36
S't\xdb\xdc\xa1\x1c\xec\xa6?'
p72
tp73
Rp74
sg26
g32
(g36
S'\xf6\x84\x89\xae\xcd\xb6\x84?'
p75
tp76
Rp77
sg28
g32
(g36
S'\xc2\xd7\xaf\xfa\xc1\x04\xc1?'
p78
tp79
Rp80
ssS'paralog'
p81
(lp82
S'YLR406C'
p83
aS'YDL075W'
p84
asS'alignment_file'
p85
S'../PairsAlignemt/YLR406C_YDL075W/YLR406C_YDL075W_input.fasta'
p86
sS'x_clock'
p87
(lp88
F-0.5713131624743949
aF-0.5570077013933508
aF-0.8292141849539082
aF0.1823215567939546
aF-0.10536051565782628
aF0.3364722366212129
aF-0.10536051565782628
aF-0.10536051565782628
aF-0.10536051565782628
aF-0.10536051565782628
aF-0.10536051565782628
aF-0.10536051565782628
aF-0.10536051565782628
asS'x'
p89
(lp90
F-0.643533098358127
aF-0.48261504389478455
aF-0.93304981425212
aF1.7695527931617376
aF-2.440410730435238
aF1.1956351954470146
aF-2.9237016394933883
aF-3.870885143005086
aF-4.30054625759241
aF-6.294150070113809
aF-2.83513900534806
aF-3.290246796170088
aF-3.9097229620042877
aF-3.498232001696705
aF-3.9735357183929376
aF-3.106213870310172
aF-4.593805519156491
aF-2.0177242882738287
asS'Model'
p91
S'MG94'
p92
s.