(dp0
S'Force'
p1
NsS'ExpectedGeneconv'
p2
(dp3
(S'N0'
p4
S'N1'
p5
tp6
F8.476128139098661e-06
s(S'N5'
p7
S'cerevisiae'
p8
tp9
F6.861430310224232
s(S'N2'
p10
S'N3'
p11
tp12
F3.1474269590299273
s(S'N4'
p13
g7
tp14
F0.5547142484687104
s(g5
S'castellii'
p15
tp16
F12.455243212286588
s(g10
S'bayanus'
p17
tp18
F10.822111605315765
s(g5
g10
tp19
F22.156851874568353
s(g11
S'kudriavzevii'
p20
tp21
F11.745722014658883
s(g7
S'paradoxus'
p22
tp23
F8.4490752880957
s(g13
S'mikatae'
p24
tp25
F9.77811050979673
s(g11
g13
tp26
F1.7209952383166898
s(g4
S'kluyveri'
p27
tp28
F0.0
ssS'newicktree'
p29
S'../PairsAlignemt/YeastTree.newick'
p30
sS'll'
p31
cnumpy.core.multiarray
scalar
p32
(cnumpy
dtype
p33
(S'f8'
p34
I0
I1
tp35
Rp36
(I3
S'<'
p37
NNNI-1
I-1
I0
tp38
bS'\xefQ\x999\x00\xe7\x92\xc0'
p39
tp40
Rp41
sS'clock'
p42
I00
sS'edge_to_blen'
p43
(dp44
g19
g32
(g36
S'\x1aW\x06\r\xa2d\xac?'
p45
tp46
Rp47
sg9
g32
(g36
S'\x1b\xe3\x80\xf3\x12\xd3\x82?'
p48
tp49
Rp50
sg12
g32
(g36
S'\xb3:\x9ePM\x81\x82?'
p51
tp52
Rp53
sg14
g32
(g36
S'\x89Yw\xe2L|S?'
p54
tp55
Rp56
sg16
g32
(g36
S'\x0c\xb8\xe4\xb2u$\xa5?'
p57
tp58
Rp59
sg18
g32
(g36
S'S\xac\x14\x03\xe9\x0b\x90?'
p60
tp61
Rp62
sg6
g32
(g36
S'\x00\x8d\x01\xc8,.\xfd>'
p63
tp64
Rp65
sg21
g32
(g36
S'\xc7\xe2G\xdd\n\x82\x98?'
p66
tp67
Rp68
sg23
g32
(g36
S'qk\x90\xde\xf0x\x85?'
p69
tp70
Rp71
sg25
g32
(g36
S'\xf7\x12\x96]s\\\x91?'
p72
tp73
Rp74
sg26
g32
(g36
S'\x8c\xff\xdf\xa3q\x08f?'
p75
tp76
Rp77
sg28
g32
(g36
S'\xf5\xcc#\xdf\xd6\xb9\x96?'
p78
tp79
Rp80
ssS'paralog'
p81
(lp82
S'YMR143W'
p83
aS'YDL083C'
p84
asS'alignment_file'
p85
S'../PairsAlignemt/YMR143W_YDL083C/YMR143W_YDL083C_input.fasta'
p86
sS'x_clock'
p87
(lp88
F-0.6655930689973748
aF-0.5569202432443039
aF-0.8939053689133549
aF0.1823215567939546
aF-0.10536051565782628
aF0.3364722366212129
aF-0.10536051565782628
aF-0.10536051565782628
aF-0.10536051565782628
aF-0.10536051565782628
aF-0.10536051565782628
aF-0.10536051565782628
aF-0.10536051565782628
asS'x'
p89
(lp90
F-0.7174818368905553
aF-0.48640928384163573
aF-0.9538138156738952
aF2.4346091021703997
aF-3.7150009698893993
aF2.309268805903255
aF-2.8921785481376396
aF-4.689459352409207
aF-4.706573373913807
aF-6.73438745670593
aF-3.1870431317029975
aF-4.1559795382620335
aF-10.489447360576756
aF-3.732473097089696
aF-4.557849414871895
aF-4.077237698798574
aF-5.918372743487383
aF-3.8079650253027255
asS'Model'
p91
S'MG94'
p92
s.