(dp0
S'Force'
p1
NsS'ExpectedGeneconv'
p2
(dp3
(S'N0'
p4
S'N1'
p5
tp6
F35.064928484040955
s(S'N5'
p7
S'cerevisiae'
p8
tp9
F56.009525656562076
s(S'N2'
p10
S'N3'
p11
tp12
F23.9723632967764
s(S'N4'
p13
g7
tp14
F21.111595678446164
s(g5
S'castellii'
p15
tp16
F332.59281887264586
s(g10
S'bayanus'
p17
tp18
F107.48927377953821
s(g5
g10
tp19
F128.8520383689998
s(g11
S'kudriavzevii'
p20
tp21
F94.13756212506692
s(g7
S'paradoxus'
p22
tp23
F46.18283894432399
s(g13
S'mikatae'
p24
tp25
F86.68609710739976
s(g11
g13
tp26
F18.467127178633007
s(g4
S'kluyveri'
p27
tp28
F0.0
ssS'newicktree'
p29
S'../PairsAlignemt/YeastTree.newick'
p30
sS'll'
p31
cnumpy.core.multiarray
scalar
p32
(cnumpy
dtype
p33
(S'f8'
p34
I0
I1
tp35
Rp36
(I3
S'<'
p37
NNNI-1
I-1
I0
tp38
bS'\x93\xbb\x07\xb3J\x1d\xe1\xc0'
p39
tp40
Rp41
sS'clock'
p42
I01
sS'edge_to_blen'
p43
(dp44
g19
g32
(g36
S'V\xca\xb8\xea\x0f\x89\xb5?'
p45
tp46
Rp47
sg9
g32
(g36
S'\r\xda\xb7\x07\xb0D\xa8?'
p48
tp49
Rp50
sg12
g32
(g36
S'\xbf\xe6\xb7\n\xb2\x01\x96?'
p51
tp52
Rp53
sg14
g32
(g36
S'e\x14\x1e\x154\x8d\x8a?'
p54
tp55
Rp56
sg16
g32
(g36
S'\x98\xac\xd3\xdc\xe0\x03\xc7?'
p57
tp58
Rp59
sg18
g32
(g36
S'\xd9\x8e\xee\xce\xb1~\xb8?'
p60
tp61
Rp62
sg6
g32
(g36
S'\xf9\xe7\x93G\xcb\t\xa8?'
p63
tp64
Rp65
sg21
g32
(g36
S'*\x95@LE\xfe\xb2?'
p66
tp67
Rp68
sg23
g32
(g36
S'\r\xda\xb7\x07\xb0D\xa8?'
p69
tp70
Rp71
sg25
g32
(g36
S'%_\xff\x0c\xfd\xe7\xae?'
p72
tp73
Rp74
sg26
g32
(g36
S'\xac,\x07.6R\x8c?'
p75
tp76
Rp77
sg28
g32
(g36
S'0\x10\xc6\xe3\x93P\xd3?'
p78
tp79
Rp80
ssS'paralog'
p81
(lp82
S'YGL133W'
p83
aS'YPL216W'
p84
asS'alignment_file'
p85
S'../PairsAlignemt/YGL133W_YPL216W/YGL133W_YPL216W_input.fasta'
p86
sS'x_clock'
p87
(lp88
F-0.6442274287767253
aF-0.5510696416870388
aF-0.9384113727035333
aF2.177515375237182
aF-1.982242928195201
aF1.2411077227989769
aF-1.3307675991262728
aF-0.1531149772683889
aF-0.23199499795646525
aF-0.6308349113937669
aF-0.25438157428795094
aF-0.20627359225440295
aF-0.24178554723949894
asS'x'
p89
(lp90
F-0.6442274287767253
aF-0.5510696416870388
aF-0.9384113727035333
aF2.177515375237182
aF-1.982242928195201
aF1.2411077227989769
aF-2.475479392486183
aF-3.0491531995267467
aF-3.840128354212978
aF-4.3455298818250965
aF-1.715877574351127
aF-2.3467124857448938
aF-3.058677978457681
aF-2.6010940600328447
aF-3.0491531995267467
aF-2.807367652287248
aF-4.281010491515354
aF-1.1980136879751397
asS'Model'
p91
S'MG94'
p92
s.