(dp0
S'Force'
p1
NsS'ExpectedGeneconv'
p2
(dp3
(S'N0'
p4
S'N1'
p5
tp6
F38.98801370643648
s(S'N5'
p7
S'cerevisiae'
p8
tp9
F35.161109421925765
s(S'N2'
p10
S'N3'
p11
tp12
F20.43956389275961
s(S'N4'
p13
g7
tp14
F11.624171590986919
s(g5
S'castellii'
p15
tp16
F442.3817757799125
s(g10
S'bayanus'
p17
tp18
F40.09948510573295
s(g5
g10
tp19
F210.5789267749271
s(g11
S'kudriavzevii'
p20
tp21
F30.641705541689582
s(g7
S'paradoxus'
p22
tp23
F11.03412527400371
s(g13
S'mikatae'
p24
tp25
F35.280870985374754
s(g11
g13
tp26
F13.390001495339394
s(g4
S'kluyveri'
p27
tp28
F0.0
ssS'newicktree'
p29
S'../PairsAlignemt/YeastTree.newick'
p30
sS'll'
p31
cnumpy.core.multiarray
scalar
p32
(cnumpy
dtype
p33
(S'f8'
p34
I0
I1
tp35
Rp36
(I3
S'<'
p37
NNNI-1
I-1
I0
tp38
bS'g\xf0\xd7\x17\xfa\x18\xb6\xc0'
p39
tp40
Rp41
sS'clock'
p42
I00
sS'edge_to_blen'
p43
(dp44
g19
g32
(g36
S'\x08F2\x9e\xe6\xd2\xf0?'
p45
tp46
Rp47
sg9
g32
(g36
S'\xe4#-7\xa8\xca\xc5?'
p48
tp49
Rp50
sg12
g32
(g36
S'VEF+\xd3\xf0\xba?'
p51
tp52
Rp53
sg14
g32
(g36
S'\xc5\xf2H#\x92\xd9\xb2?'
p54
tp55
Rp56
sg16
g32
(g36
S'\xb3\x9f^\x01\xf6-\x02@'
p57
tp58
Rp59
sg18
g32
(g36
S" 9a\x94\xdf'\xcc?"
p60
tp61
Rp62
sg6
g32
(g36
S'\xa9f\xc7\xc1\x0eH\xd6?'
p63
tp64
Rp65
sg21
g32
(g36
S'?\xa9\xe2\xf4\xab\x8f\xc5?'
p66
tp67
Rp68
sg23
g32
(g36
S'y\xcapE\x18P\xae?'
p69
tp70
Rp71
sg25
g32
(g36
S'Qc\xba\x05\xf54\xcc?'
p72
tp73
Rp74
sg26
g32
(g36
S'I\x83\xe5H\x0b\xc9\xb2?'
p75
tp76
Rp77
sg28
g32
(g36
S'NC>y\xdd\xe9\xf9?'
p78
tp79
Rp80
ssS'paralog'
p81
(lp82
S'YPL232W'
p83
aS'YMR183C'
p84
asS'alignment_file'
p85
S'../PairsAlignemt/YPL232W_YMR183C/YPL232W_YMR183C_input.fasta'
p86
sS'x_clock'
p87
(lp88
F-0.5352633580593684
aF-0.511799258832272
aF-0.7455034961994331
aF0.1823215567939546
aF-0.10536051565782628
aF0.3364722366212129
aF-0.10536051565782628
aF-0.10536051565782628
aF-0.10536051565782628
aF-0.10536051565782628
aF-0.10536051565782628
aF-0.10536051565782628
aF-0.10536051565782628
asS'x'
p89
(lp90
F-0.6200077311333055
aF-0.515782786246564
aF-0.8160530696395994
aF1.1175707120486273
aF-3.0387213829075317
aF-1.2061896359128805
aF0.05020769772737766
aF-1.7705043465179338
aF-2.2515384667351523
aF-2.608670571115707
aF0.8208549688405806
aF-1.5142784789315955
aF-1.0551274598474443
aF-1.7811340445552561
aF-2.8267522386871495
aF-1.5124649203877973
aF-2.612101281355654
aF0.48217672265555883
asS'Model'
p91
S'MG94'
p92
s.