(dp0
S'Force'
p1
NsS'ExpectedGeneconv'
p2
(dp3
(S'N0'
p4
S'N1'
p5
tp6
F28.047802084655405
s(S'N5'
p7
S'cerevisiae'
p8
tp9
F14.700826726645957
s(S'N2'
p10
S'N3'
p11
tp12
F10.290290848578142
s(S'N4'
p13
g7
tp14
F5.837552079790666
s(g5
S'castellii'
p15
tp16
F314.9954058169526
s(g10
S'bayanus'
p17
tp18
F22.473388224327167
s(g5
g10
tp19
F204.38547189410673
s(g11
S'kudriavzevii'
p20
tp21
F20.662135172062616
s(g7
S'paradoxus'
p22
tp23
F9.67451488863244
s(g13
S'mikatae'
p24
tp25
F24.425795581186016
s(g11
g13
tp26
F8.618970269349647
s(g4
S'kluyveri'
p27
tp28
F0.0
ssS'newicktree'
p29
S'../PairsAlignemt/YeastTree.newick'
p30
sS'll'
p31
cnumpy.core.multiarray
scalar
p32
(cnumpy
dtype
p33
(S'f8'
p34
I0
I1
tp35
Rp36
(I3
S'<'
p37
NNNI-1
I-1
I0
tp38
bS'\xa3>\x8c8\xd7w\xaa\xc0'
p39
tp40
Rp41
sS'clock'
p42
I00
sS'edge_to_blen'
p43
(dp44
g19
g32
(g36
S'\xfb\x85M\x9c\xd1(\x04@'
p45
tp46
Rp47
sg9
g32
(g36
S'\xe9\xd4\x96\x17zd\xce?'
p48
tp49
Rp50
sg12
g32
(g36
S'FT0\xc0\xe9\x13\xc4?'
p51
tp52
Rp53
sg14
g32
(g36
S'\x8f\xde.\xc3gw\xbc?'
p54
tp55
Rp56
sg16
g32
(g36
S'\x90\x8d\x9f\xfaJ \x0f@'
p57
tp58
Rp59
sg18
g32
(g36
S'\x13\x81\xc2\xba\xd6/\xd6?'
p60
tp61
Rp62
sg6
g32
(g36
S'p,\x0ff2j\xe1?'
p63
tp64
Rp65
sg21
g32
(g36
S'\xcd\x10\xf1\x93\xa0\xab\xd2?'
p66
tp67
Rp68
sg23
g32
(g36
S'Y\xb5\xc4x\x02+\xba?'
p69
tp70
Rp71
sg25
g32
(g36
S'\xff\xa3\x1dl\xe8\x12\xd3?'
p72
tp73
Rp74
sg26
g32
(g36
S'\xa3\x9c\xc1\xac"\xab\xc3?'
p75
tp76
Rp77
sg28
g32
(g36
S'k\xda\xf5\xbe\xae$\x14@'
p78
tp79
Rp80
ssS'paralog'
p81
(lp82
S'YIL057C'
p83
aS'YER067W'
p84
asS'alignment_file'
p85
S'../PairsAlignemt/YIL057C_YER067W/YIL057C_YER067W_input.fasta'
p86
sS'x_clock'
p87
(lp88
F-0.573098399274636
aF-0.5013113527746849
aF-0.81186663355229
aF0.1823215567939546
aF-0.10536051565782628
aF0.3364722366212129
aF-0.10536051565782628
aF-0.10536051565782628
aF-0.10536051565782628
aF-0.10536051565782628
aF-0.10536051565782628
aF-0.10536051565782628
aF-0.10536051565782628
asS'x'
p89
(lp90
F-0.6602938794842412
aF-0.5955970932200774
aF-0.8092117144970538
aF0.7801674164551596
aF-3.2422170876272065
aF-1.319096149646002
aF0.9242315402010214
aF-1.4378347920204335
aF-1.8524162588831683
aF-2.196452050219077
aF1.358606570299382
aF-1.0593823990570896
aF-0.6084136732944341
aF-1.23194268501551
aF-2.2806399071502956
aF-1.2105643253693505
aF-1.87301200220778
aF1.6165769394028382
asS'Model'
p91
S'MG94'
p92
s.