(dp0
S'Force'
p1
NsS'ExpectedGeneconv'
p2
(dp3
(S'N0'
p4
S'N1'
p5
tp6
F12.824940429280538
s(S'N5'
p7
S'cerevisiae'
p8
tp9
F25.407685948598584
s(S'N2'
p10
S'N3'
p11
tp12
F4.820455122828181
s(S'N4'
p13
g7
tp14
F11.32388574784448
s(g5
S'castellii'
p15
tp16
F101.37092657304508
s(g10
S'bayanus'
p17
tp18
F35.61757297002299
s(g5
g10
tp19
F61.70620991664623
s(g11
S'kudriavzevii'
p20
tp21
F32.23397245228738
s(g7
S'paradoxus'
p22
tp23
F17.79797534715054
s(g13
S'mikatae'
p24
tp25
F33.224033332493065
s(g11
g13
tp26
F8.036787098519078
s(g4
S'kluyveri'
p27
tp28
F0.0
ssS'newicktree'
p29
S'../PairsAlignemt/YeastTree.newick'
p30
sS'll'
p31
cnumpy.core.multiarray
scalar
p32
(cnumpy
dtype
p33
(S'f8'
p34
I0
I1
tp35
Rp36
(I3
S'<'
p37
NNNI-1
I-1
I0
tp38
bS'\xca\xd8\xb9w:\xc1\xba\xc0'
p39
tp40
Rp41
sS'clock'
p42
I01
sS'edge_to_blen'
p43
(dp44
g19
g32
(g36
S'\x8d\xeb\xc2s\x0f\xca\xdc?'
p45
tp46
Rp47
sg9
g32
(g36
S'~\x0c\x83I\x1e)\xbb?'
p48
tp49
Rp50
sg12
g32
(g36
S'~\x97H\xb1\x12L\xa0?'
p51
tp52
Rp53
sg14
g32
(g36
S'9q\xce?L\xe7\xb0?'
p54
tp55
Rp56
sg16
g32
(g36
S"z\x83\x10'A$\xe6?"
p57
tp58
Rp59
sg18
g32
(g36
S'\xce6\xbc\xb4\xe5\xfc\xce?'
p60
tp61
Rp62
sg6
g32
(g36
S'vK\xcd\xac\x9a\x11\xc9?'
p63
tp64
Rp65
sg21
g32
(g36
S'\xee\x10j\x08\xe1\xe9\xca?'
p66
tp67
Rp68
sg23
g32
(g36
S'~\x0c\x83I\x1e)\xbb?'
p69
tp70
Rp71
sg25
g32
(g36
S'\xdb\xbe\xa8D5\x08\xc6?'
p72
tp73
Rp74
sg26
g32
(g36
S'OH\x05\x0f\xaf\x86\xa3?'
p75
tp76
Rp77
sg28
g32
(g36
S'X\xd6C\xd2\xa7h\xec?'
p78
tp79
Rp80
ssS'paralog'
p81
(lp82
S'YGR043C'
p83
aS'YLR354C'
p84
asS'alignment_file'
p85
S'../PairsAlignemt/YGR043C_YLR354C/YGR043C_YLR354C_input.fasta'
p86
sS'x_clock'
p87
(lp88
F-0.7388639789448528
aF-0.5312363151911601
aF-0.8330351491769256
aF1.0948804397710323
aF-2.255726432560452
aF-2.613194229399179
aF-0.11903656805113753
aF0.0
aF-0.2492402778153488
aF-1.0501572566168564
aF-0.14096479871793494
aF-0.20013256996335113
aF-0.4838779022782222
asS'x'
p89
(lp90
F-0.7388639789448528
aF-0.5312363151911601
aF-0.8330351491769256
aF1.0948804397710323
aF-2.255726432560452
aF-2.613194229399179
aF-0.7988793527126072
aF-2.243409373442851
aF-3.447333751722111
aF-2.7176563162041014
aF-0.3682768458664864
aF-1.418434102483343
aF-1.6304075590504838
aF-1.5593989012012779
aF-2.243409373442851
aF-1.7595314711646288
aF-3.266572148166016
aF-0.11903656805113759
asS'Model'
p91
S'MG94'
p92
s.