(dp0
S'Force'
p1
NsS'ExpectedGeneconv'
p2
(dp3
(S'N0'
p4
S'N1'
p5
tp6
F47.77069488159795
s(S'N5'
p7
S'cerevisiae'
p8
tp9
F174.89086635566335
s(S'N2'
p10
S'N3'
p11
tp12
F106.15481408507422
s(S'N4'
p13
g7
tp14
F85.96648213848293
s(g5
S'castellii'
p15
tp16
F672.5224322630381
s(g10
S'bayanus'
p17
tp18
F236.462256465099
s(g5
g10
tp19
F397.27319909607013
s(g11
S'kudriavzevii'
p20
tp21
F214.6855638143044
s(g7
S'paradoxus'
p22
tp23
F94.58783343005605
s(g13
S'mikatae'
p24
tp25
F221.89670161025882
s(g11
g13
tp26
F116.87745887051373
s(g4
S'kluyveri'
p27
tp28
F0.0
ssS'newicktree'
p29
S'../PairsAlignemt/YeastTree.newick'
p30
sS'll'
p31
cnumpy.core.multiarray
scalar
p32
(cnumpy
dtype
p33
(S'f8'
p34
I0
I1
tp35
Rp36
(I3
S'<'
p37
NNNI-1
I-1
I0
tp38
bS'\x8deK4\x92|\xd2\xc0'
p39
tp40
Rp41
sS'clock'
p42
I00
sS'edge_to_blen'
p43
(dp44
g19
g32
(g36
S'\xe6\xfe\x1aO\x14\x8c\xd4?'
p45
tp46
Rp47
sg9
g32
(g36
S'o\xaa\xc3\xb2\xd4\x96\xbb?'
p48
tp49
Rp50
sg12
g32
(g36
S'\xb0\r\xa9\x11\x91\xb3\xb3?'
p51
tp52
Rp53
sg14
g32
(g36
S'K\x18\x1a#\x8b\xb0\xae?'
p54
tp55
Rp56
sg16
g32
(g36
S'\xc5\n\xbe:\x04\xc8\xe1?'
p57
tp58
Rp59
sg18
g32
(g36
S'js\x0c\x89o\xa5\xc4?'
p60
tp61
Rp62
sg6
g32
(g36
S'\xef\x11\xb2\x9f\x99\xa2\xbb?'
p63
tp64
Rp65
sg21
g32
(g36
S'j\xbaod\x15\xa7\xc4?'
p66
tp67
Rp68
sg23
g32
(g36
S'\xe8\x9fe2\xc3\x1a\xb3?'
p69
tp70
Rp71
sg25
g32
(g36
S'#@\x82\x95\xecj\xc4?'
p72
tp73
Rp74
sg26
g32
(g36
S'\x0e\xf4\xd9\xfb\x06\xf8\xb4?'
p75
tp76
Rp77
sg28
g32
(g36
S'miko\xa1e\xe4?'
p78
tp79
Rp80
ssS'paralog'
p81
(lp82
S'YGL062W'
p83
aS'YBR218C'
p84
asS'alignment_file'
p85
S'../PairsAlignemt/YGL062W_YBR218C/YGL062W_YBR218C_input.fasta'
p86
sS'x_clock'
p87
(lp88
F-0.6581942422714446
aF-0.5986692573138761
aF-0.8419057479204775
aF0.1823215567939546
aF-0.10536051565782628
aF0.3364722366212129
aF-0.10536051565782628
aF-0.10536051565782628
aF-0.10536051565782628
aF-0.10536051565782628
aF-0.10536051565782628
aF-0.10536051565782628
aF-0.10536051565782628
asS'x'
p89
(lp90
F-0.7363448438388456
aF-0.5266888930242202
aF-0.929262446488143
aF1.244895667696256
aF-3.0489658282118834
aF0.3071045360244736
aF-1.1361591400817825
aF-2.2277536681978583
aF-2.564486104421594
aF-2.8144000385322308
aF-0.587587742011968
aF-1.8244973754706764
aF-2.226088692001231
aF-1.824185646767844
aF-2.5952513906811374
aF-1.8356294397737158
aF-2.5021391282700205
aF-0.45034833848131445
asS'Model'
p91
S'MG94'
p92
s.