(dp0
S'Force'
p1
NsS'ExpectedGeneconv'
p2
(dp3
(S'N0'
p4
S'N1'
p5
tp6
F23.36212552274155
s(S'N5'
p7
S'cerevisiae'
p8
tp9
F30.306328107539134
s(S'N2'
p10
S'N3'
p11
tp12
F25.011905777491577
s(S'N4'
p13
g7
tp14
F22.563175503909594
s(g5
S'castellii'
p15
tp16
F175.6578343174988
s(g10
S'bayanus'
p17
tp18
F32.406467656261384
s(g5
g10
tp19
F57.2392518585442
s(g11
S'kudriavzevii'
p20
tp21
F55.14343105866201
s(g7
S'paradoxus'
p22
tp23
F25.672632101917724
s(g4
S'kluyveri'
p24
tp25
F0.0
s(g11
g13
tp26
F27.09627485165439
s(g13
S'mikatae'
p27
tp28
F58.52037029337551
ssS'newicktree'
p29
S'../PairsAlignemt/YeastTree.newick'
p30
sS'll'
p31
cnumpy.core.multiarray
scalar
p32
(cnumpy
dtype
p33
(S'f8'
p34
I0
I1
tp35
Rp36
(I3
S'<'
p37
NNNI-1
I-1
I0
tp38
bS'bn\xb6\xa9\x8f\xb8\xb6\xc0'
p39
tp40
Rp41
sS'clock'
p42
I00
sS'edge_to_blen'
p43
(dp44
g19
g32
(g36
S'\xab\xbf\x02\xa4e>\xc5?'
p45
tp46
Rp47
sg9
g32
(g36
S'\x01\xf5\xddC\xa8;\xb1?'
p48
tp49
Rp50
sg12
g32
(g36
S'\x9f\xaf\x90\xea\x0b\x1a\xb0?'
p51
tp52
Rp53
sg14
g32
(g36
S'\x12F\xa2\xfa}\x1d\xab?'
p54
tp55
Rp56
sg16
g32
(g36
S'\r\x8c\x12\xb0^\x1d\xdc?'
p57
tp58
Rp59
sg18
g32
(g36
S'zr\x0e\x89\x8a\xa8\xb8?'
p60
tp61
Rp62
sg6
g32
(g36
S'\xc1\xd0\xefi8\x1b\xc3?'
p63
tp64
Rp65
sg21
g32
(g36
S'y\xc2\xba0\xed\x17\xc0?'
p66
tp67
Rp68
sg23
g32
(g36
S'\xb48\xa3\xaal\xd5\xb0?'
p69
tp70
Rp71
sg25
g32
(g36
S'\xb1\xc7u\xf8]B\xc8?'
p72
tp73
Rp74
sg26
g32
(g36
S'Ol|\x1a\x93\xae\xaf?'
p75
tp76
Rp77
sg28
g32
(g36
S'\xddwR\x9f\x0b\r\xc2?'
p78
tp79
Rp80
ssS'paralog'
p81
(lp82
S'YDR502C'
p83
aS'YLR180W'
p84
asS'alignment_file'
p85
S'../PairsAlignemt/YDR502C_YLR180W/YDR502C_YLR180W_input.fasta'
p86
sS'x_clock'
p87
(lp88
F-0.6697946532606092
aF-0.6092883084798876
aF-0.7799960768438013
aF0.1823215567939546
aF-0.10536051565782628
aF0.3364722366212129
aF-0.10536051565782628
aF-0.10536051565782628
aF-0.10536051565782628
aF-0.10536051565782628
aF-0.10536051565782628
aF-0.10536051565782628
aF-0.10536051565782628
asS'x'
p89
(lp90
F-0.7637417945170314
aF-0.5651251669644216
aF-0.8661595004630029
aF1.3328695690054368
aF-3.1267970844015203
aF-0.24348325242630225
aF-1.795968074865089
aF-2.6983491893977902
aF-2.7662498350128986
aF-2.938230038317851
aF-0.8225895848282685
aF-2.3400612959804885
aF-1.9020105933714246
aF-2.073617100000161
aF-2.7217952463962884
aF-1.6632324253232582
aF-2.7825780712951094
aF-1.9588314729043879
asS'Model'
p91
S'MG94'
p92
s.