(dp0
S'Force'
p1
NsS'ExpectedGeneconv'
p2
(dp3
(S'N0'
p4
S'N1'
p5
tp6
F2.4907102534879315
s(S'N5'
p7
S'cerevisiae'
p8
tp9
F24.307882910424055
s(S'N2'
p10
S'N3'
p11
tp12
F16.216488549889707
s(S'N4'
p13
g7
tp14
F10.221313965553342
s(g5
S'castellii'
p15
tp16
F79.36372648096936
s(g10
S'bayanus'
p17
tp18
F28.924402530564997
s(g5
g10
tp19
F60.20869871131458
s(g11
S'kudriavzevii'
p20
tp21
F25.44169545423534
s(g7
S'paradoxus'
p22
tp23
F15.883005358353902
s(g13
S'mikatae'
p24
tp25
F48.729696045824554
s(g11
g13
tp26
F16.460899415138208
s(g4
S'kluyveri'
p27
tp28
F0.0
ssS'newicktree'
p29
S'../PairsAlignemt/YeastTree.newick'
p30
sS'll'
p31
cnumpy.core.multiarray
scalar
p32
(cnumpy
dtype
p33
(S'f8'
p34
I0
I1
tp35
Rp36
(I3
S'<'
p37
NNNI-1
I-1
I0
tp38
bS'/[\xaf\x87\x19~\xad\xc0'
p39
tp40
Rp41
sS'clock'
p42
I00
sS'edge_to_blen'
p43
(dp44
g19
g32
(g36
S'\x9aG\x8c3\xf8\x84\xd1?'
p45
tp46
Rp47
sg9
g32
(g36
S'\xb2\x1aS\x94\xe1\xb2\xb3?'
p48
tp49
Rp50
sg12
g32
(g36
S'\xbemi\x03\xfcc\xa9?'
p51
tp52
Rp53
sg14
g32
(g36
S';\xf4b\xaeN\xe0\x9f?'
p54
tp55
Rp56
sg16
g32
(g36
S'a\x98\x04M\xf5\xfb\xd3?'
p57
tp58
Rp59
sg18
g32
(g36
S'\xf7\nS\x01\xae\x81\xba?'
p60
tp61
Rp62
sg6
g32
(g36
S'U\x1c4\xe2.\xda\xa8?'
p63
tp64
Rp65
sg21
g32
(g36
S'\x15ar\xca_t\xb1?'
p66
tp67
Rp68
sg23
g32
(g36
S'\xc0\xe4v^\x06c\xae?'
p69
tp70
Rp71
sg25
g32
(g36
S'v\xde\xf1T\xb9>\xbf?'
p72
tp73
Rp74
sg26
g32
(g36
S'\x02_d\xbd\x9c:\xa6?'
p75
tp76
Rp77
sg28
g32
(g36
S'\x9e\x15g\xd4O`\xd7?'
p78
tp79
Rp80
ssS'paralog'
p81
(lp82
S'YDR099W'
p83
aS'YER177W'
p84
asS'alignment_file'
p85
S'../PairsAlignemt/YDR099W_YER177W/YDR099W_YER177W_input.fasta'
p86
sS'x_clock'
p87
(lp88
F-0.6936500721973982
aF-0.5277350560841323
aF-0.7828849752822118
aF0.1823215567939546
aF-0.10536051565782628
aF0.3364722366212129
aF-0.10536051565782628
aF-0.10536051565782628
aF-0.10536051565782628
aF-0.10536051565782628
aF-0.10536051565782628
aF-0.10536051565782628
aF-0.10536051565782628
asS'x'
p89
(lp90
F-0.7580335404035736
aF-0.46359542530690956
aF-0.8683089322738687
aF1.5343133579633883
aF-3.2088087749207888
aF-0.47980798406414055
aF-1.2955735456638173
aF-2.564622030613486
aF-3.0039470094750724
aF-3.4696121375817226
aF-1.163940534358651
aF-2.2677851437108005
aF-3.0253752112218546
aF-2.6855749849975625
aF-2.8243157971026296
aF-2.1033175869689793
aF-3.136928944515547
aF-1.0071638981192796
asS'Model'
p91
S'MG94'
p92
s.