(dp0
S'Force'
p1
NsS'ExpectedGeneconv'
p2
(dp3
(S'N0'
p4
S'N1'
p5
tp6
F0.9725227953000275
s(S'N5'
p7
S'cerevisiae'
p8
tp9
F9.279558583429615
s(S'N2'
p10
S'N3'
p11
tp12
F0.056938071407060184
s(S'N4'
p13
g7
tp14
F1.6338393961767026
s(g5
S'castellii'
p15
tp16
F23.31910739244391
s(g10
S'bayanus'
p17
tp18
F12.66965644556395
s(g5
g10
tp19
F13.764233708798214
s(g11
S'kudriavzevii'
p20
tp21
F16.565185711252276
s(g7
S'paradoxus'
p22
tp23
F3.905686041381656
s(g13
S'mikatae'
p24
tp25
F15.260197633345449
s(g11
g13
tp26
F0.00018071755019779536
s(g4
S'kluyveri'
p27
tp28
F0.0
ssS'newicktree'
p29
S'../PairsAlignemt/YeastTree.newick'
p30
sS'll'
p31
cnumpy.core.multiarray
scalar
p32
(cnumpy
dtype
p33
(S'f8'
p34
I0
I1
tp35
Rp36
(I3
S'<'
p37
NNNI-1
I-1
I0
tp38
bS'X\x06 %\xc7\x98\x95\xc0'
p39
tp40
Rp41
sS'clock'
p42
I00
sS'edge_to_blen'
p43
(dp44
g19
g32
(g36
S'N\x94\xb5}\xcc\xc8\xae?'
p45
tp46
Rp47
sg9
g32
(g36
S'm\x06\x83_\xb7\x00\x94?'
p48
tp49
Rp50
sg12
g32
(g36
S'\x98\x1a\xec\x00\xd6\x9a(?'
p51
tp52
Rp53
sg14
g32
(g36
S'b\xe7r\xaa\x0f\x00q?'
p54
tp55
Rp56
sg16
g32
(g36
S'\x80)\x88Z\xd2\xb7\xb4?'
p57
tp58
Rp59
sg18
g32
(g36
S')u1\x1a\xf2v\x9e?'
p60
tp61
Rp62
sg6
g32
(g36
S'\x14\xda\xc0\xb6$\xa1\x91?'
p63
tp64
Rp65
sg21
g32
(g36
S'u\xfd\xc9\xf3Jd\xa5?'
p66
tp67
Rp68
sg23
g32
(g36
S'\xd6\xed\xbe\x87\xb5\x13\x85?'
p69
tp70
Rp71
sg25
g32
(g36
S'\x08\xaan\xb6\xe9\x13\xa4?'
p72
tp73
Rp74
sg26
g32
(g36
S'\xecA%G\x17~\xb5>'
p75
tp76
Rp77
sg28
g32
(g36
S'EAP8W\xdc\xbb?'
p78
tp79
Rp80
ssS'paralog'
p81
(lp82
S'YML026C'
p83
aS'YDR450W'
p84
asS'alignment_file'
p85
S'../PairsAlignemt/YML026C_YDR450W/YML026C_YDR450W_input.fasta'
p86
sS'x_clock'
p87
(lp88
F-0.6082900286551159
aF-0.5179788899895584
aF-0.8170342027473766
aF0.1823215567939546
aF-0.10536051565782628
aF0.3364722366212129
aF-0.10536051565782628
aF-0.10536051565782628
aF-0.10536051565782628
aF-0.10536051565782628
aF-0.10536051565782628
aF-0.10536051565782628
aF-0.10536051565782628
asS'x'
p89
(lp90
F-0.6861105936076992
aF-0.516964322443325
aF-0.8672369458600723
aF1.7093158273858868
aF-2.6066614512052833
aF1.9415150527510268
aF-2.8113175221128777
aF-3.935599639263596
aF-8.580559388282618
aF-5.4845387615044165
aF-2.514171974946036
aF-3.5149054116425456
aF-4.061900072872038
aF-3.1753184180635166
aF-4.576437124592748
aF-3.238710648967058
aF-13.56782630997183
aF-2.2179601400815137
asS'Model'
p91
S'MG94'
p92
s.