(dp0
S'Force'
p1
NsS'ExpectedGeneconv'
p2
(dp3
(S'N0'
p4
S'N1'
p5
tp6
F141.45689471538824
s(S'N5'
p7
S'cerevisiae'
p8
tp9
F68.29111899071943
s(S'N2'
p10
S'N3'
p11
tp12
F19.12176063493891
s(S'N4'
p13
g7
tp14
F37.63489199784487
s(g5
S'castellii'
p15
tp16
F1031.1932887470246
s(g10
S'bayanus'
p17
tp18
F112.14302909032388
s(g5
g10
tp19
F596.8213234220566
s(g11
S'kudriavzevii'
p20
tp21
F83.55002649502092
s(g7
S'paradoxus'
p22
tp23
F44.09323552493543
s(g13
S'mikatae'
p24
tp25
F90.84024400609141
s(g11
g13
tp26
F47.276689070505576
s(g4
S'kluyveri'
p27
tp28
F0.0
ssS'newicktree'
p29
S'../PairsAlignemt/YeastTree.newick'
p30
sS'll'
p31
cnumpy.core.multiarray
scalar
p32
(cnumpy
dtype
p33
(S'f8'
p34
I0
I1
tp35
Rp36
(I3
S'<'
p37
NNNI-1
I-1
I0
tp38
bS'LE\x82\x03\xaa\x94\xd2\xc0'
p39
tp40
Rp41
sS'clock'
p42
I00
sS'edge_to_blen'
p43
(dp44
g19
g32
(g36
S'@k\x1e\xe3\xd3t\xf4?'
p45
tp46
Rp47
sg9
g32
(g36
S'\xa5\xbe\xdc:^~\xc5?'
p48
tp49
Rp50
sg12
g32
(g36
S'f\xf1P\xa5\x11\xd4\xa7?'
p51
tp52
Rp53
sg14
g32
(g36
S'\xa9\xaf\x7f\xb929\xb9?'
p54
tp55
Rp56
sg16
g32
(g36
S'\x1c\xdd\xae\xf8\xfc]\x03@'
p57
tp58
Rp59
sg18
g32
(g36
S'\xab\xea\xb0Ue0\xcf?'
p60
tp61
Rp62
sg6
g32
(g36
S't/\xf5\x86\xab\xb7\xdc?'
p63
tp64
Rp65
sg21
g32
(g36
S'JA[\xc4\xc7\xc6\xcd?'
p66
tp67
Rp68
sg23
g32
(g36
S'\x8a\xf2\t\x1a\x8c\x05\xb9?'
p69
tp70
Rp71
sg25
g32
(g36
S'\x84\xd2\xba\xd0[A\xcc?'
p72
tp73
Rp74
sg26
g32
(g36
S'\xe3\xf0\x9a\xc0%\\\xbe?'
p75
tp76
Rp77
sg28
g32
(g36
S'\x15\\\xc0\xd7E\x0f\xf3?'
p78
tp79
Rp80
ssS'paralog'
p81
(lp82
S'YNL049C'
p83
aS'YIL109C'
p84
asS'alignment_file'
p85
S'../PairsAlignemt/YNL049C_YIL109C/YNL049C_YIL109C_input.fasta'
p86
sS'x_clock'
p87
(lp88
F-0.702905758209313
aF-0.4895840452616257
aF-0.8657106772184939
aF0.1823215567939546
aF-0.10536051565782628
aF0.3364722366212129
aF-0.10536051565782628
aF-0.10536051565782628
aF-0.10536051565782628
aF-0.10536051565782628
aF-0.10536051565782628
aF-0.10536051565782628
aF-0.10536051565782628
asS'x'
p89
(lp90
F-0.7071234489258836
aF-0.4540022757589731
aF-0.9921001687806426
aF1.0735093479077003
aF-2.6155800589463123
aF-1.619563387455535
aF0.24570502350692067
aF-1.7842738688130246
aF-3.067446719622367
aF-2.3174041102638077
aF0.884136340309933
aF-1.4119633126298483
aF-0.8013777467421213
aF-1.4583112522646355
aF-2.3254352337317967
aF-1.5107489570314638
aF-2.1320531040956556
aF0.17498530941697138
asS'Model'
p91
S'MG94'
p92
s.