(dp0
S'Force'
p1
NsS'ExpectedGeneconv'
p2
(dp3
(S'N0'
p4
S'N1'
p5
tp6
F25.191892843629056
s(S'N5'
p7
S'cerevisiae'
p8
tp9
F49.93117561976979
s(S'N2'
p10
S'N3'
p11
tp12
F17.195912702839124
s(S'N4'
p13
g7
tp14
F10.165411878876705
s(g5
S'castellii'
p15
tp16
F248.12301486088944
s(g10
S'bayanus'
p17
tp18
F76.94216202844912
s(g5
g10
tp19
F99.06059238155316
s(g11
S'kudriavzevii'
p20
tp21
F60.925000363412984
s(g7
S'paradoxus'
p22
tp23
F50.32857421576123
s(g13
S'mikatae'
p24
tp25
F51.3682088804394
s(g11
g13
tp26
F10.112615241178698
s(g4
S'kluyveri'
p27
tp28
F0.0
ssS'newicktree'
p29
S'../PairsAlignemt/YeastTree.newick'
p30
sS'll'
p31
cnumpy.core.multiarray
scalar
p32
(cnumpy
dtype
p33
(S'f8'
p34
I0
I1
tp35
Rp36
(I3
S'<'
p37
NNNI-1
I-1
I0
tp38
bS'J.\xdd\x92\xee\\\xd5\xc0'
p39
tp40
Rp41
sS'clock'
p42
I01
sS'edge_to_blen'
p43
(dp44
g19
g32
(g36
S'\xcbl\xe5\x07\xea\xea\xb5?'
p45
tp46
Rp47
sg9
g32
(g36
S'\xcdt\x8a\xb7\xef\xeb\xa8?'
p48
tp49
Rp50
sg12
g32
(g36
S'\xb8x9\xbd\xe8e\x96?'
p51
tp52
Rp53
sg14
g32
(g36
S':\xbcP\xce\xb2&\x8a?'
p54
tp55
Rp56
sg16
g32
(g36
S'\x86\x9d\xfcV\xcel\xc7?'
p57
tp58
Rp59
sg18
g32
(g36
S'@\xce\x13\xa6\xb2\xee\xb8?'
p60
tp61
Rp62
sg6
g32
(g36
S'>CH\xe3\xcfv\xa8?'
p63
tp64
Rp65
sg21
g32
(g36
S'\x12p\xc5v8U\xb3?'
p66
tp67
Rp68
sg23
g32
(g36
S'\xcdt\x8a\xb7\xef\xeb\xa8?'
p69
tp70
Rp71
sg25
g32
(g36
S'\xdc\xa3\x1ek\x9cu\xaf?'
p72
tp73
Rp74
sg26
g32
(g36
S'\x1d\xf1\xb0\tR\xd3\x8c?'
p75
tp76
Rp77
sg28
g32
(g36
S'_\xb4m\xd9m\xa8\xd3?'
p78
tp79
Rp80
ssS'paralog'
p81
(lp82
S'YAL056W'
p83
aS'YOR371C'
p84
asS'alignment_file'
p85
S'../PairsAlignemt/YAL056W_YOR371C/YAL056W_YOR371C_input.fasta'
p86
sS'x_clock'
p87
(lp88
F-0.6441788211008148
aF-0.5607377301075325
aF-0.9383387008442612
aF2.157836588399474
aF-1.9967116049676759
aF1.2418693527478275
aF-1.3131469594801988
aF-0.15310245249616922
aF-0.23197602081551308
aF-0.6307833092336491
aF-0.2543607659298681
aF-0.2062567191189069
aF-0.23296243569151354
asS'x'
p89
(lp90
F-0.6441788211008148
aF-0.5607377301075325
aF-0.9383387008442612
aF2.157836588399474
aF-1.9967116049676759
aF1.2418693527478275
aF-2.457885947749224
aF-3.022588662765819
aF-3.8224964500576086
aF-4.3607252130167575
aF-1.6982254327918813
aF-2.3290087420255303
aF-3.0411174951395212
aF-2.5833695079553984
aF-3.022588662765819
aF-2.7896262270743053
aF-4.2633595958238155
aF-1.1804024590591826
asS'Model'
p91
S'MG94'
p92
s.