(dp0
S'Force'
p1
NsS'ExpectedGeneconv'
p2
(dp3
(S'N0'
p4
S'N1'
p5
tp6
F8.252387991829387
s(S'N5'
p7
S'cerevisiae'
p8
tp9
F32.75646983877959
s(S'N2'
p10
S'N3'
p11
tp12
F23.494862256684648
s(S'N4'
p13
g7
tp14
F9.948251119853527
s(g5
S'castellii'
p15
tp16
F175.6129972375094
s(g10
S'bayanus'
p17
tp18
F38.67083849955338
s(g5
g10
tp19
F168.16015301354994
s(g11
S'kudriavzevii'
p20
tp21
F42.39768844399557
s(g7
S'paradoxus'
p22
tp23
F15.216880955161539
s(g13
S'mikatae'
p24
tp25
F48.40725606098828
s(g11
g13
tp26
F11.18763490809694
s(g4
S'kluyveri'
p27
tp28
F0.0
ssS'newicktree'
p29
S'../PairsAlignemt/YeastTree.newick'
p30
sS'll'
p31
cnumpy.core.multiarray
scalar
p32
(cnumpy
dtype
p33
(S'f8'
p34
I0
I1
tp35
Rp36
(I3
S'<'
p37
NNNI-1
I-1
I0
tp38
bS'\x0f\xc4\xc6D\x07O\xc1\xc0'
p39
tp40
Rp41
sS'clock'
p42
I00
sS'edge_to_blen'
p43
(dp44
g19
g32
(g36
S'\xadb\xb6\xe4cD\xf0?'
p45
tp46
Rp47
sg9
g32
(g36
S'\xe6~o\xd9\x92\x04\xc8?'
p48
tp49
Rp50
sg12
g32
(g36
S'\xe8l\x9c\x07\xb3\xe2\xc1?'
p51
tp52
Rp53
sg14
g32
(g36
S'\xca\xcc\xe7\xc0\xdfc\xb5?'
p54
tp55
Rp56
sg16
g32
(g36
S'\x9e\x99s\xc4wi\xf0?'
p57
tp58
Rp59
sg18
g32
(g36
S'\xd7\xc4\x99\xe5\x9a?\xcb?'
p60
tp61
Rp62
sg6
g32
(g36
S'\xa6\x00\xdb\xbaI\x19\xc3?'
p63
tp64
Rp65
sg21
g32
(g36
S'\xeb\xbe\xd7\xae\x1d\xdc\xd2?'
p66
tp67
Rp68
sg23
g32
(g36
S'\xcbd\x03J\x9a\x81\xba?'
p69
tp70
Rp71
sg25
g32
(g36
S'\xb4k\x1e\x97e?\xd2?'
p72
tp73
Rp74
sg26
g32
(g36
S'\xe4N\xe2kZB\xb3?'
p75
tp76
Rp77
sg28
g32
(g36
S']\x99\xa2t\xf6\x88\xf0?'
p78
tp79
Rp80
ssS'paralog'
p81
(lp82
S'YMR243C'
p83
aS'YOR316C'
p84
asS'alignment_file'
p85
S'../PairsAlignemt/YMR243C_YOR316C/YMR243C_YOR316C_input.fasta'
p86
sS'x_clock'
p87
(lp88
F-0.7556609556277195
aF-0.5645148233719282
aF-0.8915261742497587
aF0.1823215567939546
aF-0.10536051565782628
aF0.3364722366212129
aF-0.10536051565782628
aF-0.10536051565782628
aF-0.10536051565782628
aF-0.10536051565782628
aF-0.10536051565782628
aF-0.10536051565782628
aF-0.10536051565782628
asS'x'
p89
(lp90
F-0.7427737018159907
aF-0.5430628801798816
aF-0.9259033856910589
aF0.9847382953387966
aF-2.2593165117081884
aF-2.5119875420043467
aF0.016558968669414687
aF-1.6732323045305961
aF-1.9680374596395127
aF-2.4822477055082195
aF0.025423062534894788
aF-1.5470333576686837
aF-1.9024057382820778
aF-1.2218489299328201
aF-2.267796493538118
aF-1.254847113304982
aF-2.587188979726187
aF0.03289126611129033
asS'Model'
p91
S'MG94'
p92
s.