(dp0
S'Force'
p1
NsS'ExpectedGeneconv'
p2
(dp3
(S'N0'
p4
S'N1'
p5
tp6
F1.5192264932520698
s(S'N5'
p7
S'cerevisiae'
p8
tp9
F6.47647109958848
s(S'N2'
p10
S'N3'
p11
tp12
F0.20358433129757206
s(S'N4'
p13
g7
tp14
F9.867845200332924
s(g5
S'castellii'
p15
tp16
F36.404715616724644
s(g10
S'bayanus'
p17
tp18
F21.190689840428597
s(g5
g10
tp19
F15.807237536110936
s(g11
S'kudriavzevii'
p20
tp21
F26.45531984747791
s(g7
S'paradoxus'
p22
tp23
F7.027766529123616
s(g13
S'mikatae'
p24
tp25
F16.727873178959076
s(g11
g13
tp26
F5.086794335146947
s(g4
S'kluyveri'
p27
tp28
F0.0
ssS'newicktree'
p29
S'../PairsAlignemt/YeastTree.newick'
p30
sS'll'
p31
cnumpy.core.multiarray
scalar
p32
(cnumpy
dtype
p33
(S'f8'
p34
I0
I1
tp35
Rp36
(I3
S'<'
p37
NNNI-1
I-1
I0
tp38
bS"\xfe\x96'\x8b64\xa0\xc0"
p39
tp40
Rp41
sS'clock'
p42
I01
sS'edge_to_blen'
p43
(dp44
g19
g32
(g36
S'\xbb\xb9\xdd\x85\x8cN\xab?'
p45
tp46
Rp47
sg9
g32
(g36
S'&~\xd8\xe0\xd4{\x90?'
p48
tp49
Rp50
sg12
g32
(g36
S'yLo\x81\x91PA?'
p51
tp52
Rp53
sg14
g32
(g36
S'jk\xd73\x1a\xf2\x91?'
p54
tp55
Rp56
sg16
g32
(g36
S'q\x16\xa3\xfaZ\xd9\xb8?'
p57
tp58
Rp59
sg18
g32
(g36
S')sho)d\xa6?'
p60
tp61
Rp62
sg6
g32
(g36
S'\xfe\xd5h\xbb\x89^\x95?'
p63
tp64
Rp65
sg21
g32
(g36
S'\xf7\xb5b)\xe7\x1e\xa6?'
p66
tp67
Rp68
sg23
g32
(g36
S'&~\xd8\xe0\xd4{\x90?'
p69
tp70
Rp71
sg25
g32
(g36
S'\xc8\xf4W\x8a\xf76\xa1?'
p72
tp73
Rp74
sg26
g32
(g36
S'\xbb\x04+|\xbe\x9f\x83?'
p75
tp76
Rp77
sg28
g32
(g36
S'"\xb8\'\x05\x06\x11\xc3?'
p78
tp79
Rp80
ssS'paralog'
p81
(lp82
S'YMR142C'
p83
aS'YDL082W'
p84
asS'alignment_file'
p85
S'../PairsAlignemt/YMR142C_YDL082W/YMR142C_YDL082W_input.fasta'
p86
sS'x_clock'
p87
(lp88
F-0.6603763060900631
aF-0.49442438739709343
aF-0.7942390687489796
aF1.3502212965736824
aF-1.8254100978963552
aF2.162210654488439
aF-2.014058216630649
aF-0.12356321316771687
aF-0.19473671438091053
aF-0.7972958994908013
aF-0.012156092983855393
aF-0.25074996641625386
aF-0.7365386564453936
asS'x'
p89
(lp90
F-0.6603763060900631
aF-0.49442438739709343
aF-0.7942390687489796
aF1.3502212965736824
aF-1.8254100978963552
aF2.162210654488439
aF-2.93118770838521
aF-4.12909875951558
aF-7.54565068780342
aF-4.044120587248331
aF-2.3323581441792762
aF-3.1296540436700773
aF-3.869517001932636
aF-3.1418101366539326
aF-4.12909875951558
aF-3.3925601030701866
aF-4.647865662850079
aF-1.90409749462538
asS'Model'
p91
S'MG94'
p92
s.