(dp0
S'Force'
p1
NsS'ExpectedGeneconv'
p2
(dp3
(S'N0'
p4
S'N1'
p5
tp6
F27.35154355629939
s(S'N5'
p7
S'cerevisiae'
p8
tp9
F11.40006576395085
s(S'N2'
p10
S'N3'
p11
tp12
F5.866111431503921
s(S'N4'
p13
g7
tp14
F5.803280737835652
s(g5
S'castellii'
p15
tp16
F276.9575219187569
s(g10
S'bayanus'
p17
tp18
F30.219704253990162
s(g5
g10
tp19
F238.86326935106618
s(g11
S'kudriavzevii'
p20
tp21
F25.83212972659119
s(g7
S'paradoxus'
p22
tp23
F13.206097737060572
s(g13
S'mikatae'
p24
tp25
F24.14592563223497
s(g11
g13
tp26
F4.674469690227212
s(g4
S'kluyveri'
p27
tp28
F0.0
ssS'newicktree'
p29
S'../PairsAlignemt/YeastTree.newick'
p30
sS'll'
p31
cnumpy.core.multiarray
scalar
p32
(cnumpy
dtype
p33
(S'f8'
p34
I0
I1
tp35
Rp36
(I3
S'<'
p37
NNNI-1
I-1
I0
tp38
bS'\xc9\xf4\xff\x13\x85\x84\xaa\xc0'
p39
tp40
Rp41
sS'clock'
p42
I01
sS'edge_to_blen'
p43
(dp44
g19
g32
(g36
S'\x0f\xf8\xb66\xab`\x07@'
p45
tp46
Rp47
sg9
g32
(g36
S'\x8f\xfejW\xdfR\xc5?'
p48
tp49
Rp50
sg12
g32
(g36
S'\\,\x06\xfb;M\xb7?'
p51
tp52
Rp53
sg14
g32
(g36
S'\x7fx\x91\x86\xd9n\xbc?'
p54
tp55
Rp56
sg16
g32
(g36
S'\xfe\xbc%\xbe\xb5\x06\x0b@'
p57
tp58
Rp59
sg18
g32
(g36
S"q'v;T0\xdd?"
p60
tp61
Rp62
sg6
g32
(g36
S'D*9\x1a\xa3\xfe\xe0?'
p63
tp64
Rp65
sg21
g32
(g36
S'[\x9c\xb4<\x05]\xd7?'
p66
tp67
Rp68
sg23
g32
(g36
S'\x8f\xfejW\xdfR\xc5?'
p69
tp70
Rp71
sg25
g32
(g36
S'i\xddY\r&\xc5\xd1?'
p72
tp73
Rp74
sg26
g32
(g36
S'\xc7\xfbj\xbd|_\xb6?'
p75
tp76
Rp77
sg28
g32
(g36
S'\x95\xdfH\x12h\x08\x14@'
p78
tp79
Rp80
ssS'paralog'
p81
(lp82
S'YIL057C'
p83
aS'YER067W'
p84
asS'alignment_file'
p85
S'../PairsAlignemt/YIL057C_YER067W/YIL057C_YER067W_input.fasta'
p86
sS'x_clock'
p87
(lp88
F-0.661504724551759
aF-0.5955926552500862
aF-0.8083839087384183
aF0.7881092260097452
aF-3.2368539344905267
aF-1.3082441541075605
aF1.4948762477325013
aF-0.1315025784416121
aF-0.14600805013288487
aF-2.0024641326845494
aF-0.22261553685221586
aF-0.2736510948427215
aF-0.5108450308498036
asS'x'
p89
(lp90
F-0.661504724551759
aF-0.5955926552500862
aF-0.8083839087384183
aF0.7881092260097452
aF-3.2368539344905267
aF-1.3082441541075605
aF1.0723372925622061
aF-1.792210176071286
aF-2.396651276225496
aF-2.1976267671760903
aF1.2173656191580045
aF-0.785098513526545
aF-0.632835769809697
aF-1.0077140503787607
aF-1.792210176071286
aF-1.2813651452214823
aF-2.4373226980668843
aF1.611078466185254
asS'Model'
p91
S'MG94'
p92
s.