(dp0
S'Force'
p1
NsS'ExpectedGeneconv'
p2
(dp3
(S'N0'
p4
S'N1'
p5
tp6
F0.10458060890229215
s(S'N5'
p7
S'cerevisiae'
p8
tp9
F5.195878594584355
s(S'N2'
p10
S'N3'
p11
tp12
F1.8633140148445488
s(S'N4'
p13
g7
tp14
F2.9122014400986336
s(g5
S'castellii'
p15
tp16
F23.738763686749245
s(g10
S'bayanus'
p17
tp18
F12.585421149278556
s(g5
g10
tp19
F17.163171173498984
s(g11
S'kudriavzevii'
p20
tp21
F5.440043822553106
s(g7
S'paradoxus'
p22
tp23
F7.8571155985481065
s(g13
S'mikatae'
p24
tp25
F9.041213271120945
s(g11
g13
tp26
F4.012046901858277
s(g4
S'kluyveri'
p27
tp28
F0.0
ssS'newicktree'
p29
S'../PairsAlignemt/YeastTree.newick'
p30
sS'll'
p31
cnumpy.core.multiarray
scalar
p32
(cnumpy
dtype
p33
(S'f8'
p34
I0
I1
tp35
Rp36
(I3
S'<'
p37
NNNI-1
I-1
I0
tp38
bS'b/\xde\xd3V\xe0\x9c\xc0'
p39
tp40
Rp41
sS'clock'
p42
I01
sS'edge_to_blen'
p43
(dp44
g19
g32
(g36
S'\xe0\xce}\xa1\xb6\xe0\xb0?'
p45
tp46
Rp47
sg9
g32
(g36
S'\xeav\x98\x17\xec\xbd\x8a?'
p48
tp49
Rp50
sg12
g32
(g36
S'n\xc7\xc6m[\xf2r?'
p51
tp52
Rp53
sg14
g32
(g36
S'\xaa\xd3#\r\xcflk?'
p54
tp55
Rp56
sg16
g32
(g36
S'A\xaa\x81\x9cs\xd8\xb7?'
p57
tp58
Rp59
sg18
g32
(g36
S'\x84m\x0f\xec\xf3\xde\x9b?'
p60
tp61
Rp62
sg6
g32
(g36
S'?\x03S\xe1\x8cuu?'
p63
tp64
Rp65
sg21
g32
(g36
S'\xa7\xbb\x9d\x10]"\x97?'
p66
tp67
Rp68
sg23
g32
(g36
S'\xeav\x98\x17\xec\xbd\x8a?'
p69
tp70
Rp71
sg25
g32
(g36
S'\xec\xb5p\xed\x8f\xcc\x90?'
p72
tp73
Rp74
sg26
g32
(g36
S'\xf2\x16\xb4\x8c4Wy?'
p75
tp76
Rp77
sg28
g32
(g36
S't\xda\x96j\xcc/\xb9?'
p78
tp79
Rp80
ssS'paralog'
p81
(lp82
S'YJL177W'
p83
aS'YKL180W'
p84
asS'alignment_file'
p85
S'../PairsAlignemt/YJL177W_YKL180W/YJL177W_YKL180W_input.fasta'
p86
sS'x_clock'
p87
(lp88
F-0.7199279371351212
aF-0.45684174539665673
aF-0.8134494887191894
aF1.8651975442172042
aF-2.3482615533702553
aF1.490205279258047
aF-2.3188608550402257
aF0.0
aF-0.05472047829661146
aF-1.23030699922258
aF-0.18627002357698846
aF-0.3199898527144681
aF-0.22823976194451454
asS'x'
p89
(lp90
F-0.7199279371351212
aF-0.45684174539665673
aF-0.8134494887191894
aF1.8651975442172042
aF-2.3482615533702553
aF1.490205279258047
aF-2.719179082080933
aF-4.338387970795388
aF-5.376135992080337
aF-5.699457088519403
aF-2.373581333336837
aF-3.603888332559417
aF-5.251613598425936
aF-3.7901583561364056
aF-4.338387970795388
aF-4.110148208850873
aF-5.085356514897066
aF-2.3188608550402257
asS'Model'
p91
S'MG94'
p92
s.