(dp0
S'Force'
p1
NsS'ExpectedGeneconv'
p2
(dp3
(S'N0'
p4
S'N1'
p5
tp6
F1.5865136902266206
s(S'N5'
p7
S'cerevisiae'
p8
tp9
F33.71612331519781
s(S'N2'
p10
S'N3'
p11
tp12
F19.953380341942275
s(S'N4'
p13
g7
tp14
F17.588238750869337
s(g5
S'castellii'
p15
tp16
F433.80033386859634
s(g10
S'bayanus'
p17
tp18
F49.81777726422078
s(g5
g10
tp19
F257.6028575408452
s(g11
S'kudriavzevii'
p20
tp21
F47.08697280811615
s(g7
S'paradoxus'
p22
tp23
F20.573890108529415
s(g13
S'mikatae'
p24
tp25
F45.82008995135289
s(g11
g13
tp26
F19.35502382804174
s(g4
S'kluyveri'
p27
tp28
F0.0
ssS'newicktree'
p29
S'../PairsAlignemt/YeastTree.newick'
p30
sS'll'
p31
cnumpy.core.multiarray
scalar
p32
(cnumpy
dtype
p33
(S'f8'
p34
I0
I1
tp35
Rp36
(I3
S'<'
p37
NNNI-1
I-1
I0
tp38
bS'\x05\xf1\x02AIV\xc3\xc0'
p39
tp40
Rp41
sS'clock'
p42
I00
sS'edge_to_blen'
p43
(dp44
g19
g32
(g36
S'\x9fq\xde\xcd*O\xfa?'
p45
tp46
Rp47
sg9
g32
(g36
S'\xf4\xc1Q!/\xfe\xc8?'
p48
tp49
Rp50
sg12
g32
(g36
S'H\xaeD\xeaeT\xc2?'
p51
tp52
Rp53
sg14
g32
(g36
S'a\x1b\xcb\x9e\x89|\xbd?'
p54
tp55
Rp56
sg16
g32
(g36
S'<R\xb6HLL\x07@'
p57
tp58
Rp59
sg18
g32
(g36
S'\x15W\x9b\x9f\x1fn\xd4?'
p60
tp61
Rp62
sg6
g32
(g36
S'\xb9\xe5\xfe\x88\x88\x95\xb0?'
p63
tp64
Rp65
sg21
g32
(g36
S'\x86\xf9\x00\x81)\xaf\xd1?'
p66
tp67
Rp68
sg23
g32
(g36
S'\xf1QV\xb1\xed\xd4\xc3?'
p69
tp70
Rp71
sg25
g32
(g36
S'\xdb@\x05y\xd3\xe6\xd2?'
p72
tp73
Rp74
sg26
g32
(g36
S'\x1cug\xf6\xb0#\xba?'
p75
tp76
Rp77
sg28
g32
(g36
S'ra\xa4\xd9yq\x01@'
p78
tp79
Rp80
ssS'paralog'
p81
(lp82
S'YPR157W'
p83
aS'YGR141W'
p84
asS'alignment_file'
p85
S'../PairsAlignemt/YPR157W_YGR141W/YPR157W_YGR141W_input.fasta'
p86
sS'x_clock'
p87
(lp88
F-0.6417793871780968
aF-0.623666891511595
aF-0.9240544395328898
aF0.1823215567939546
aF-0.10536051565782628
aF0.3364722366212129
aF-0.10536051565782628
aF-0.10536051565782628
aF-0.10536051565782628
aF-0.10536051565782628
aF-0.10536051565782628
aF-0.10536051565782628
aF-0.10536051565782628
asS'x'
p89
(lp90
F-0.6546644562728882
aF-0.5377356331534546
aF-0.9665977148748326
aF0.9268345195666577
aF-2.5654229461937743
aF-2.6401131665887423
aF0.4973317479209585
aF-1.6334382133485381
aF-1.9435086544203395
aF-2.16124576359123
aF1.0689276523436115
aF-1.1418703517176194
aF-2.7367321584382167
aF-1.2862099682122259
aF-1.8647459791919694
aF-1.2196331060241048
aF-2.2817329636266988
aF0.7795121033072719
asS'Model'
p91
S'MG94'
p92
s.