(dp0
S'Force'
p1
NsS'ExpectedGeneconv'
p2
(dp3
(S'N0'
p4
S'N1'
p5
tp6
F0.4818006875899992
s(S'N5'
p7
S'cerevisiae'
p8
tp9
F6.772818103297873
s(S'N2'
p10
S'N3'
p11
tp12
F1.1833949235419878
s(S'N4'
p13
g7
tp14
F1.1053654972102211
s(g5
S'castellii'
p15
tp16
F15.509600667335032
s(g10
S'bayanus'
p17
tp18
F12.209496283887702
s(g5
g10
tp19
F9.912617768423821
s(g11
S'kudriavzevii'
p20
tp21
F8.46825750245666
s(g7
S'paradoxus'
p22
tp23
F7.814191238613642
s(g13
S'mikatae'
p24
tp25
F8.232727999342481
s(g11
g13
tp26
F2.266255340652585
s(g4
S'kluyveri'
p27
tp28
F0.0
ssS'newicktree'
p29
S'../PairsAlignemt/YeastTree.newick'
p30
sS'll'
p31
cnumpy.core.multiarray
scalar
p32
(cnumpy
dtype
p33
(S'f8'
p34
I0
I1
tp35
Rp36
(I3
S'<'
p37
NNNI-1
I-1
I0
tp38
bS'\xfd\x04p5\xb5[\x93\xc0'
p39
tp40
Rp41
sS'clock'
p42
I01
sS'edge_to_blen'
p43
(dp44
g19
g32
(g36
S'8\xf29\xaa5=\xa4?'
p45
tp46
Rp47
sg9
g32
(g36
S'o\xc3\x18"K\x01\x95?'
p48
tp49
Rp50
sg12
g32
(g36
S"\xd4\xb0'\x18S%\x83?"
p51
tp52
Rp53
sg14
g32
(g36
S':71\x12\x94\rv?'
p54
tp55
Rp56
sg16
g32
(g36
S'ad\xba\x1c\x17\xcb\xb4?'
p57
tp58
Rp59
sg18
g32
(g36
S'\x8b\xd6:\x8f\xf8X\xa5?'
p60
tp61
Rp62
sg6
g32
(g36
S']J\xe4[\x1c[\x91?'
p63
tp64
Rp65
sg21
g32
(g36
S'V\xea0\xc9\xa3\x8f\xa0?'
p66
tp67
Rp68
sg23
g32
(g36
S'o\xc3\x18"K\x01\x95?'
p69
tp70
Rp71
sg25
g32
(g36
S'<\x11\xa5&\xb0\x84\x9a?'
p72
tp73
Rp74
sg26
g32
(g36
S'\xbb\r\xf3\xae]jz?'
p75
tp76
Rp77
sg28
g32
(g36
S'\x1b[d\xado\xdf\xbe?'
p78
tp79
Rp80
ssS'paralog'
p81
(lp82
S'YMR143W'
p83
aS'YDL083C'
p84
asS'alignment_file'
p85
S'../PairsAlignemt/YMR143W_YDL083C/YMR143W_YDL083C_input.fasta'
p86
sS'x_clock'
p87
(lp88
F-0.7768212207903599
aF-0.49777930932056796
aF-0.9383409318700129
aF1.6945510679486369
aF-2.572023003862563
aF1.3077923982754656
aF-2.212881963561089
aF-0.10814173748706324
aF-0.18952189412572013
aF-0.6668423920444272
aF-0.25388049318317496
aF-0.22236777991744353
aF-0.23307253214039902
asS'x'
p89
(lp90
F-0.7768212207903599
aF-0.49777930932056796
aF-0.9383409318700129
aF1.6945510679486369
aF-2.572023003862563
aF1.3077923982754656
aF-3.2307082424732037
aF-3.886708792459317
aF-4.672535659126955
aF-5.22431567704892
aF-2.5105455951738724
aF-3.1773879872182995
aF-4.077539214490395
aF-3.4312684804014744
aF-3.886708792459317
aF-3.653636260318918
aF-5.043815510678134
aF-2.1153019780491533
asS'Model'
p91
S'MG94'
p92
s.