(dp0
S'Force'
p1
NsS'ExpectedGeneconv'
p2
(dp3
(S'N0'
p4
S'N1'
p5
tp6
F0.09643567032047315
s(S'N5'
p7
S'cerevisiae'
p8
tp9
F19.89535121194443
s(S'N2'
p10
S'N3'
p11
tp12
F3.128408213627288
s(S'N4'
p13
g7
tp14
F0.6503344903860045
s(g5
S'castellii'
p15
tp16
F40.343334335992736
s(g10
S'bayanus'
p17
tp18
F16.499663844901814
s(g5
g10
tp19
F6.393465709072438
s(g11
S'kudriavzevii'
p20
tp21
F18.42816512273883
s(g7
S'paradoxus'
p22
tp23
F8.793819910981792
s(g13
S'mikatae'
p24
tp25
F11.497511293153936
s(g11
g13
tp26
F2.1654883136781544
s(g4
S'kluyveri'
p27
tp28
F0.0
ssS'newicktree'
p29
S'../PairsAlignemt/YeastTree.newick'
p30
sS'll'
p31
cnumpy.core.multiarray
scalar
p32
(cnumpy
dtype
p33
(S'f8'
p34
I0
I1
tp35
Rp36
(I3
S'<'
p37
NNNI-1
I-1
I0
tp38
bS'L\x93P\x1c\xe7\xc2\xa0\xc0'
p39
tp40
Rp41
sS'clock'
p42
I00
sS'edge_to_blen'
p43
(dp44
g19
g32
(g36
S'\xdc\xb2\x88\xb6\xe4c\xa4?'
p45
tp46
Rp47
sg9
g32
(g36
S'\xe47\x86\x14\xac\x04\x9f?'
p48
tp49
Rp50
sg12
g32
(g36
S'\xf0Z\xf3u\xe4\xc9{?'
p51
tp52
Rp53
sg14
g32
(g36
S"'\xb4I1a\xf1a?"
p54
tp55
Rp56
sg16
g32
(g36
S'\xd9\xf4&\xa1\x9cE\xc0?'
p57
tp58
Rp59
sg18
g32
(g36
S'y2\xe8\x12aH\xa4?'
p60
tp61
Rp62
sg6
g32
(g36
S'\xb6Wn&\xf3\rt?'
p63
tp64
Rp65
sg21
g32
(g36
S'.\xb3\xf6!C\n\xaa?'
p66
tp67
Rp68
sg23
g32
(g36
S'3\xb7\xd7\x9fk\x8b\xa0?'
p69
tp70
Rp71
sg25
g32
(g36
S'\xfa\xb5\xcee}\xe9\xa2?'
p72
tp73
Rp74
sg26
g32
(g36
S'\xfb\xea\xc5\x1c\xc6\xea\x82?'
p75
tp76
Rp77
sg28
g32
(g36
S'\xe2\\\xec\xeb\x96\xa4\xb5?'
p78
tp79
Rp80
ssS'paralog'
p81
(lp82
S'YNL301C'
p83
aS'YOL120C'
p84
asS'alignment_file'
p85
S'../PairsAlignemt/YNL301C_YOL120C/YNL301C_YOL120C_input.fasta'
p86
sS'x_clock'
p87
(lp88
F-0.6581984795146941
aF-0.5924300164520414
aF-0.821708505512958
aF0.1823215567939546
aF-0.10536051565782628
aF0.3364722366212129
aF-0.10536051565782628
aF-0.10536051565782628
aF-0.10536051565782628
aF-0.10536051565782628
aF-0.10536051565782628
aF-0.10536051565782628
aF-0.10536051565782628
asS'x'
p89
(lp90
F-0.7211890183400846
aF-0.554986144411588
aF-0.8889121596688765
aF1.680224857141334
aF-2.060899905289839
aF1.64399744942161
aF-3.2232698083436855
aF-3.496896040960729
aF-4.993138780426511
aF-6.123719450643749
aF-2.0625892656703737
aF-3.2285547793744027
aF-5.319313026761288
aF-2.978687471942039
aF-3.432264197523921
aF-3.298524300085795
aF-4.68455348010775
aF-2.4704987001856193
asS'Model'
p91
S'MG94'
p92
s.