(dp0
S'Force'
p1
NsS'ExpectedGeneconv'
p2
(dp3
(S'N0'
p4
S'N1'
p5
tp6
F0.19400170166516065
s(S'N5'
p7
S'cerevisiae'
p8
tp9
F13.476186624258313
s(S'N2'
p10
S'N3'
p11
tp12
F4.7321922177162214
s(S'N4'
p13
g7
tp14
F5.882844181972506
s(g5
S'castellii'
p15
tp16
F14.28737921632149
s(g10
S'bayanus'
p17
tp18
F4.438607693232418
s(g5
g10
tp19
F21.96334407848391
s(g11
S'kudriavzevii'
p20
tp21
F13.839181369948523
s(g7
S'paradoxus'
p22
tp23
F3.5213827978140135
s(g13
S'mikatae'
p24
tp25
F8.833498557746907
s(g11
g13
tp26
F5.392211732068561
s(g4
S'kluyveri'
p27
tp28
F0.0
ssS'newicktree'
p29
S'../PairsAlignemt/YeastTree.newick'
p30
sS'll'
p31
cnumpy.core.multiarray
scalar
p32
(cnumpy
dtype
p33
(S'f8'
p34
I0
I1
tp35
Rp36
(I3
S'<'
p37
NNNI-1
I-1
I0
tp38
bS'\xdd7a\x15\x94M\x9b\xc0'
p39
tp40
Rp41
sS'clock'
p42
I00
sS'edge_to_blen'
p43
(dp44
g19
g32
(g36
S'\x87c%C,\x07\xb4?'
p45
tp46
Rp47
sg9
g32
(g36
S'\xca\xe3\x03\xf4@\xda\x95?'
p48
tp49
Rp50
sg12
g32
(g36
S'\xebt mi@\x83?'
p51
tp52
Rp53
sg14
g32
(g36
S'+\x9b\xad7R\xce\x82?'
p54
tp55
Rp56
sg16
g32
(g36
S"\xce\xfe\xccZ`'\xb0?"
p57
tp58
Rp59
sg18
g32
(g36
S'\x9fsS\x81\xc2\x1f\x84?'
p60
tp61
Rp62
sg6
g32
(g36
S'\x87Tp\xfe\r\x96|?'
p63
tp64
Rp65
sg21
g32
(g36
S'_B\xd62\xd8\n\xa0?'
p66
tp67
Rp68
sg23
g32
(g36
S'!X\x05N\xa6\x85\x80?'
p69
tp70
Rp71
sg25
g32
(g36
S'\xd8[\x8e\xa2\xdaK\x95?'
p72
tp73
Rp74
sg26
g32
(g36
S'\x9a\xf1#\x8cS%\x88?'
p75
tp76
Rp77
sg28
g32
(g36
S'K\xb4\x1e\x95\xd0<\xb4?'
p78
tp79
Rp80
ssS'paralog'
p81
(lp82
S'YDR418W'
p83
aS'YEL054C'
p84
asS'alignment_file'
p85
S'../PairsAlignemt/YDR418W_YEL054C/YDR418W_YEL054C_input.fasta'
p86
sS'x_clock'
p87
(lp88
F-0.6398702388921944
aF-0.5469480680886125
aF-0.8173184239451081
aF0.1823215567939546
aF-0.10536051565782628
aF0.3364722366212129
aF-0.10536051565782628
aF-0.10536051565782628
aF-0.10536051565782628
aF-0.10536051565782628
aF-0.10536051565782628
aF-0.10536051565782628
aF-0.10536051565782628
asS'x'
p89
(lp90
F-0.7207095661949443
aF-0.48274085725268556
aF-0.8951513159453264
aF2.130186267735772
aF-2.580613703232339
aF1.3083335659345725
aF-2.548045194403413
aF-3.8471540210038153
aF-4.667024361264472
aF-4.69044610033737
aF-2.763021261336735
aF-4.622702789357551
aF-4.964843795891186
aF-3.4630918122054593
aF-4.819921992288333
aF-3.8729382289142236
aF-4.440508282321323
aF-2.5376372735285
asS'Model'
p91
S'MG94'
p92
s.