(dp0
S'Force'
p1
NsS'ExpectedGeneconv'
p2
(dp3
(S'N0'
p4
S'N1'
p5
tp6
F1.7579784456427072
s(S'N5'
p7
S'cerevisiae'
p8
tp9
F6.173311936962933
s(S'N2'
p10
S'N3'
p11
tp12
F5.802576222942914
s(S'N4'
p13
g7
tp14
F12.198514756861593
s(g5
S'castellii'
p15
tp16
F40.02796614565529
s(g10
S'bayanus'
p17
tp18
F26.105660748621986
s(g5
g10
tp19
F19.95191992061368
s(g11
S'kudriavzevii'
p20
tp21
F13.331540170808815
s(g7
S'paradoxus'
p22
tp23
F5.916312435268824
s(g13
S'mikatae'
p24
tp25
F9.150931956862387
s(g11
g13
tp26
F8.661105538105312
s(g4
S'kluyveri'
p27
tp28
F0.0
ssS'newicktree'
p29
S'../PairsAlignemt/YeastTree.newick'
p30
sS'll'
p31
cnumpy.core.multiarray
scalar
p32
(cnumpy
dtype
p33
(S'f8'
p34
I0
I1
tp35
Rp36
(I3
S'<'
p37
NNNI-1
I-1
I0
tp38
bS"\xb1\x8f\x1e\xfe\x1f'\xa0\xc0"
p39
tp40
Rp41
sS'clock'
p42
I01
sS'edge_to_blen'
p43
(dp44
g19
g32
(g36
S'\xe6\xdc\x85\xb9U\x03\xa2?'
p45
tp46
Rp47
sg9
g32
(g36
S'\xfaWmNlNz?'
p48
tp49
Rp50
sg12
g32
(g36
S'\xc4^\xa8\xda\xfd\xb9|?'
p51
tp52
Rp53
sg14
g32
(g36
S'\x82\x9f\xac\xd5\x88\x11\x81?'
p54
tp55
Rp56
sg16
g32
(g36
S'\xe6\xdfm\xcd\xd9\x9a\xb0?'
p57
tp58
Rp59
sg18
g32
(g36
S'\xce\xc5\xab\xc2\xbbd\x9e?'
p60
tp61
Rp62
sg6
g32
(g36
S'e;\x88\xfd\xa1\xf0\x89?'
p63
tp64
Rp65
sg21
g32
(g36
S'\x1b\xae\x01L<6\x97?'
p66
tp67
Rp68
sg23
g32
(g36
S'\xfaWmNlNz?'
p69
tp70
Rp71
sg25
g32
(g36
S'\x7fK\xe3\xfc\xbe8\x8e?'
p72
tp73
Rp74
sg26
g32
(g36
S'\xb6\x10 \x9b\xb93\x80?'
p75
tp76
Rp77
sg28
g32
(g36
S'T\xe7\x1e\r\xee\xd8\xb3?'
p78
tp79
Rp80
ssS'paralog'
p81
(lp82
S'YER102W'
p83
aS'YBL072C'
p84
asS'alignment_file'
p85
S'../PairsAlignemt/YER102W_YBL072C/YER102W_YBL072C_input.fasta'
p86
sS'x_clock'
p87
(lp88
F-0.6944753959296927
aF-0.5224565766529524
aF-0.8520879136212922
aF1.959610772081474
aF-1.6787946088671795
aF2.6495134574069703
aF-2.5571053163769033
aF0.0
aF-0.17837514461577894
aF-0.7817629039673449
aF-0.2695651909106296
aF-0.4292514040401253
aF-0.8318962273298756
asS'x'
p89
(lp90
F-0.6944753959296927
aF-0.5224565766529524
aF-0.8520879136212922
aF1.959610772081474
aF-1.6787946088671795
aF2.6495134574069703
aF-3.347229417501876
aF-5.047956187240658
aF-4.959945089166777
aF-4.787384667579618
aF-2.7354804609926826
aF-3.517243364960027
aF-4.368833895292773
aF-3.7868085558706572
aF-5.047956187240658
aF-4.216059959910782
aF-4.839481154886736
aF-2.5571053163769033
asS'Model'
p91
S'MG94'
p92
s.