(dp0
S'Force'
p1
NsS'ExpectedGeneconv'
p2
(dp3
(S'N0'
p4
S'N1'
p5
tp6
F12.740694767213522
s(S'N5'
p7
S'cerevisiae'
p8
tp9
F26.53691592328823
s(S'N2'
p10
S'N3'
p11
tp12
F14.272541917300067
s(S'N4'
p13
g7
tp14
F14.122389321813703
s(g5
S'castellii'
p15
tp16
F418.62415927954004
s(g10
S'bayanus'
p17
tp18
F41.7264963850795
s(g5
g10
tp19
F431.1880915479037
s(g11
S'kudriavzevii'
p20
tp21
F31.82185465055593
s(g7
S'paradoxus'
p22
tp23
F21.672221582905358
s(g13
S'mikatae'
p24
tp25
F42.21815842896165
s(g11
g13
tp26
F19.298168196109025
s(g4
S'kluyveri'
p27
tp28
F0.0
ssS'newicktree'
p29
S'../PairsAlignemt/YeastTree.newick'
p30
sS'll'
p31
cnumpy.core.multiarray
scalar
p32
(cnumpy
dtype
p33
(S'f8'
p34
I0
I1
tp35
Rp36
(I3
S'<'
p37
NNNI-1
I-1
I0
tp38
bS'\xdeQ\xa5\xd1\r\xc3\xc8\xc0'
p39
tp40
Rp41
sS'clock'
p42
I00
sS'edge_to_blen'
p43
(dp44
g19
g32
(g36
S'*\x8a\xbd.\x08\x81\x00@'
p45
tp46
Rp47
sg9
g32
(g36
S'\x98\x90\xb6_\xab\x9b\xc1?'
p48
tp49
Rp50
sg12
g32
(g36
S'\xc9\xb3w\xd0\xb1N\xbd?'
p51
tp52
Rp53
sg14
g32
(g36
S'l\xb8\xe64\x1d!\xb6?'
p54
tp55
Rp56
sg16
g32
(g36
S'\x1f,\x9e$\xd8\xd6\xfd?'
p57
tp58
Rp59
sg18
g32
(g36
S'\xf9]&\x06\xb3V\xd0?'
p60
tp61
Rp62
sg6
g32
(g36
S'\xbf\xc6<\xdcB\n\xc4?'
p63
tp64
Rp65
sg21
g32
(g36
S'\x0f\xe8-\x97\xc7\xc2\xca?'
p66
tp67
Rp68
sg23
g32
(g36
S'Q\x0b.\x08\xa8g\xbd?'
p69
tp70
Rp71
sg25
g32
(g36
S'\xd5\xd4v:\x91\xce\xcb?'
p72
tp73
Rp74
sg26
g32
(g36
S'\xfa\xce\xb1\xfe\xb6\xf2\xbb?'
p75
tp76
Rp77
sg28
g32
(g36
S'5/I[\xf4\xb9\xf4?'
p78
tp79
Rp80
ssS'paralog'
p81
(lp82
S'YDR518W'
p83
aS'YCL043C'
p84
asS'alignment_file'
p85
S'../PairsAlignemt/YDR518W_YCL043C/YDR518W_YCL043C_input.fasta'
p86
sS'x_clock'
p87
(lp88
F-0.7004188146746013
aF-0.5340398610927587
aF-0.7724249528332213
aF0.1823215567939546
aF-0.10536051565782628
aF0.3364722366212129
aF-0.10536051565782628
aF-0.10536051565782628
aF-0.10536051565782628
aF-0.10536051565782628
aF-0.10536051565782628
aF-0.10536051565782628
aF-0.10536051565782628
asS'x'
p89
(lp90
F-0.7384396502499222
aF-0.5245314729981949
aF-0.7405437550496434
aF0.9111343013053949
aF-2.1206486175152466
aF-1.5784647369244207
aF0.7241631188581099
aF-1.983672165738241
aF-2.167337375664657
aF-2.448272576519043
aF0.6232354355100133
aF-1.3653484421771251
aF-1.8542958606031577
aF-1.5650899660191457
aF-2.1640158550143243
aF-1.5267459463839337
aF-2.2148280546698507
aF0.2588187961195025
asS'Model'
p91
S'MG94'
p92
s.