(dp0
S'Force'
p1
NsS'ExpectedGeneconv'
p2
(dp3
(S'N0'
p4
S'N1'
p5
tp6
F46.73711551313473
s(S'N5'
p7
S'cerevisiae'
p8
tp9
F30.977767357202275
s(S'N2'
p10
S'N3'
p11
tp12
F12.26239602020499
s(S'N4'
p13
g7
tp14
F13.590818826375637
s(g5
S'castellii'
p15
tp16
F372.5757025550366
s(g10
S'bayanus'
p17
tp18
F34.12656766283631
s(g5
g10
tp19
F291.3856309687209
s(g11
S'kudriavzevii'
p20
tp21
F29.469435579565854
s(g7
S'paradoxus'
p22
tp23
F7.381819832553785
s(g13
S'mikatae'
p24
tp25
F31.760862882149503
s(g11
g13
tp26
F9.062957757118323
s(g4
S'kluyveri'
p27
tp28
F0.0
ssS'newicktree'
p29
S'../PairsAlignemt/YeastTree.newick'
p30
sS'll'
p31
cnumpy.core.multiarray
scalar
p32
(cnumpy
dtype
p33
(S'f8'
p34
I0
I1
tp35
Rp36
(I3
S'<'
p37
NNNI-1
I-1
I0
tp38
bS'\x86\t\x9b2\xa3e\xbc\xc0'
p39
tp40
Rp41
sS'clock'
p42
I00
sS'edge_to_blen'
p43
(dp44
g19
g32
(g36
S'\xda\x9d\xd8?h1\x01@'
p45
tp46
Rp47
sg9
g32
(g36
S'\xb9\xa7\x850\xc8\xcb\xca?'
p48
tp49
Rp50
sg12
g32
(g36
S'\xa0\xf1\xe9\x18\xbfj\xc1?'
p51
tp52
Rp53
sg14
g32
(g36
S'.\x8a-be\xd6\xbe?'
p54
tp55
Rp56
sg16
g32
(g36
S'_\xe3\x80\x7f\xfea\x06@'
p57
tp58
Rp59
sg18
g32
(g36
S'yw\xb8=\xfa\x1a\xd0?'
p60
tp61
Rp62
sg6
g32
(g36
S'\xf4:=\xbbJ\xe4\xdd?'
p63
tp64
Rp65
sg21
g32
(g36
S'^\xdatC\xb9\x01\xd0?'
p66
tp67
Rp68
sg23
g32
(g36
S'\xec\x14\xa4L\xe2\x00\xb2?'
p69
tp70
Rp71
sg25
g32
(g36
S'\xe6\x86Ch\x9e.\xd1?'
p72
tp73
Rp74
sg26
g32
(g36
S'\xdf\x0e\xe2\x1e!Z\xb1?'
p75
tp76
Rp77
sg28
g32
(g36
S'F\x8f<\xd3\r\x9e\x02@'
p78
tp79
Rp80
ssS'paralog'
p81
(lp82
S'YPL087W'
p83
aS'YBR183W'
p84
asS'alignment_file'
p85
S'../PairsAlignemt/YPL087W_YBR183W/YPL087W_YBR183W_input.fasta'
p86
sS'x_clock'
p87
(lp88
F-0.7227293690266701
aF-0.6011585342201797
aF-1.0425906999607446
aF0.1823215567939546
aF-0.10536051565782628
aF0.3364722366212129
aF-0.10536051565782628
aF-0.10536051565782628
aF-0.10536051565782628
aF-0.10536051565782628
aF-0.10536051565782628
aF-0.10536051565782628
aF-0.10536051565782628
asS'x'
p89
(lp90
F-0.6954903767833811
aF-0.5411841720267639
aF-1.0752220388699663
aF1.0238921001515853
aF-2.650483262270343
aF-2.004232065386532
aF0.7650606062995038
aF-1.5637767680110102
aF-1.994584762552278
aF-2.116446465597751
aF1.0288507996480851
aF-1.3797296513002135
aF-0.7613000485630661
aF-1.3858736279720756
aF-2.654613868621396
aF-1.3150146712053328
aF-2.6914657589748785
aF0.844655002627733
asS'Model'
p91
S'MG94'
p92
s.