(dp0
S'Force'
p1
NsS'ExpectedGeneconv'
p2
(dp3
(S'N0'
p4
S'N1'
p5
tp6
F0.8754920364280557
s(S'N5'
p7
S'cerevisiae'
p8
tp9
F9.472593306313001
s(S'N2'
p10
S'N3'
p11
tp12
F3.196742836011398
s(S'N4'
p13
g7
tp14
F1.0861841477695269
s(g5
S'castellii'
p15
tp16
F13.945549919149549
s(g10
S'bayanus'
p17
tp18
F4.817031403771246
s(g5
g10
tp19
F10.476794140271153
s(g11
S'kudriavzevii'
p20
tp21
F3.8968760048136475
s(g7
S'paradoxus'
p22
tp23
F2.7192094301856633
s(g13
S'mikatae'
p24
tp25
F8.787133363280033
s(g11
g13
tp26
F3.2711000057958715
s(g4
S'kluyveri'
p27
tp28
F0.0
ssS'newicktree'
p29
S'../PairsAlignemt/YeastTree.newick'
p30
sS'll'
p31
cnumpy.core.multiarray
scalar
p32
(cnumpy
dtype
p33
(S'f8'
p34
I0
I1
tp35
Rp36
(I3
S'<'
p37
NNNI-1
I-1
I0
tp38
bS'-\xbbK\xd4H\x01\x93\xc0'
p39
tp40
Rp41
sS'clock'
p42
I00
sS'edge_to_blen'
p43
(dp44
g19
g32
(g36
S'P\x8b\x94_\xb3\n\xb0?'
p45
tp46
Rp47
sg9
g32
(g36
S'\x10\xf2]5|\x14\x99?'
p48
tp49
Rp50
sg12
g32
(g36
S'\xfe\x86\x18\xbe\x05\xe4\x90?'
p51
tp52
Rp53
sg14
g32
(g36
S'FQ\x8c\x18COt?'
p54
tp55
Rp56
sg16
g32
(g36
S'\xa4#\xa3[\xfaX\xb6?'
p57
tp58
Rp59
sg18
g32
(g36
S'S\x92_\xcb\xed\xd2\x9b?'
p60
tp61
Rp62
sg6
g32
(g36
S'\xd7\xf0\x91Z\xa1\xbf\x97?'
p63
tp64
Rp65
sg21
g32
(g36
S'pAmv\x03\xfa\x95?'
p66
tp67
Rp68
sg23
g32
(g36
S'B\x0e\x91\xfb=\x04\x93?'
p69
tp70
Rp71
sg25
g32
(g36
S'@\x86\x02C\x9f\x9c\x9e?'
p72
tp73
Rp74
sg26
g32
(g36
S')M\x1b\xe0\x8d\x86\x90?'
p75
tp76
Rp77
sg28
g32
(g36
S'\xce[;\x0cJ\xe1\xab?'
p78
tp79
Rp80
ssS'paralog'
p81
(lp82
S'YER131W'
p83
aS'YGL189C'
p84
asS'alignment_file'
p85
S'../PairsAlignemt/YER131W_YGL189C/YER131W_YGL189C_input.fasta'
p86
sS'x_clock'
p87
(lp88
F-0.587528133359831
aF-0.507857305138181
aF-0.6873444563473778
aF0.1823215567939546
aF-0.10536051565782628
aF0.3364722366212129
aF-0.10536051565782628
aF-0.10536051565782628
aF-0.10536051565782628
aF-0.10536051565782628
aF-0.10536051565782628
aF-0.10536051565782628
aF-0.10536051565782628
asS'x'
p89
(lp90
F-0.6686703068686648
aF-0.442586490637192
aF-0.7217001254788612
aF1.8892925204697382
aF-2.9102595969039475
aF1.028857756334092
aF-2.76997965879101
aF-3.709400281590908
aF-4.10470788357161
aF-5.306671621828775
aF-2.4384598470361287
aF-3.605574970078525
aF-3.7639500848229774
aF-3.841492856872976
aF-3.9861610601804953
aF-3.5100860820986712
aF-4.1265609698721635
aF-2.9104137432560995
asS'Model'
p91
S'MG94'
p92
s.