(dp0
S'Force'
p1
NsS'ExpectedGeneconv'
p2
(dp3
(S'N0'
p4
S'N1'
p5
tp6
F5.9006409203283985
s(S'N5'
p7
S'cerevisiae'
p8
tp9
F57.479999635338416
s(S'N2'
p10
S'N3'
p11
tp12
F36.629342571328515
s(S'N4'
p13
g7
tp14
F17.00714136942921
s(g5
S'castellii'
p15
tp16
F338.1450120126032
s(g10
S'bayanus'
p17
tp18
F62.450045709332834
s(g5
g10
tp19
F259.88300980829774
s(g11
S'kudriavzevii'
p20
tp21
F53.124708825199185
s(g7
S'paradoxus'
p22
tp23
F33.698863673482144
s(g13
S'mikatae'
p24
tp25
F73.14287709252477
s(g11
g13
tp26
F33.608577450860075
s(g4
S'kluyveri'
p27
tp28
F0.0
ssS'newicktree'
p29
S'../PairsAlignemt/YeastTree.newick'
p30
sS'll'
p31
cnumpy.core.multiarray
scalar
p32
(cnumpy
dtype
p33
(S'f8'
p34
I0
I1
tp35
Rp36
(I3
S'<'
p37
NNNI-1
I-1
I0
tp38
bS'\xea3\xf1\x05\xb84\xca\xc0'
p39
tp40
Rp41
sS'clock'
p42
I00
sS'edge_to_blen'
p43
(dp44
g19
g32
(g36
S'WE\x97\xb5\xf3^\xe9?'
p45
tp46
Rp47
sg9
g32
(g36
S'\x88n\x9bZ\xeb;\xbf?'
p48
tp49
Rp50
sg12
g32
(g36
S'&\xa7\xbc\x96\xcd \xb7?'
p51
tp52
Rp53
sg14
g32
(g36
S'\xe3\xfeK\xe5b\xed\xab?'
p54
tp55
Rp56
sg16
g32
(g36
S'\xa4W\xcd\xa1\x98_\xef?'
p57
tp58
Rp59
sg18
g32
(g36
S'\xb0l\x92`\x19E\xc3?'
p60
tp61
Rp62
sg6
g32
(g36
S'\x01;7\x1c@~\xb4?'
p63
tp64
Rp65
sg21
g32
(g36
S'\xe4}\xd4n\x94\n\xc4?'
p66
tp67
Rp68
sg23
g32
(g36
S'\x94\n\x91\xfa\xe1\xe0\xb7?'
p69
tp70
Rp71
sg25
g32
(g36
S'0\\nk`\x07\xc8?'
p72
tp73
Rp74
sg26
g32
(g36
S'$\xa7\xf2.\x03g\xb5?'
p75
tp76
Rp77
sg28
g32
(g36
S'\x9aH>\n\x0f\xbd\xde?'
p78
tp79
Rp80
ssS'paralog'
p81
(lp82
S'YBR117C'
p83
aS'YPR074C'
p84
asS'alignment_file'
p85
S'../PairsAlignemt/YBR117C_YPR074C/YBR117C_YPR074C_input.fasta'
p86
sS'x_clock'
p87
(lp88
F-0.6947321463621419
aF-0.5994107274100917
aF-0.790416963041395
aF0.1823215567939546
aF-0.10536051565782628
aF0.3364722366212129
aF-0.10536051565782628
aF-0.10536051565782628
aF-0.10536051565782628
aF-0.10536051565782628
aF-0.10536051565782628
aF-0.10536051565782628
aF-0.10536051565782628
asS'x'
p89
(lp90
F-0.7569797034849525
aF-0.5216100889477553
aF-0.8566521305207099
aF1.0409493235297214
aF-2.4817057015389
aF-1.6211861401020575
aF-0.23213281010225326
aF-2.1036682795195807
aF-2.4041275146542787
aF-2.9087202681031497
aF-0.01977477816218279
aF-1.8934850121268587
aF-2.5250859922454545
aF-1.8542337520339702
aF-2.372201142887942
aF-1.6727765288644174
aF-2.4816747378270927
aF-0.7333667933198859
asS'Model'
p91
S'MG94'
p92
s.