(dp0
S'Force'
p1
NsS'ExpectedGeneconv'
p2
(dp3
(S'N0'
p4
S'N1'
p5
tp6
F0.7388671112276356
s(S'N5'
p7
S'cerevisiae'
p8
tp9
F9.146051904416996
s(S'N2'
p10
S'N3'
p11
tp12
F0.49383472576701276
s(S'N4'
p13
g7
tp14
F2.654170948251798
s(g5
S'castellii'
p15
tp16
F22.913647182969168
s(g10
S'bayanus'
p17
tp18
F12.910222157965096
s(g5
g10
tp19
F9.811289898206825
s(g11
S'kudriavzevii'
p20
tp21
F15.17534916747276
s(g7
S'paradoxus'
p22
tp23
F5.467709631347164
s(g13
S'mikatae'
p24
tp25
F14.123458497655413
s(g11
g13
tp26
F0.031881207455259325
s(g4
S'kluyveri'
p27
tp28
F0.0
ssS'newicktree'
p29
S'../PairsAlignemt/YeastTree.newick'
p30
sS'll'
p31
cnumpy.core.multiarray
scalar
p32
(cnumpy
dtype
p33
(S'f8'
p34
I0
I1
tp35
Rp36
(I3
S'<'
p37
NNNI-1
I-1
I0
tp38
bS'\xa1)\x1f*\x97\xb5\x95\xc0'
p39
tp40
Rp41
sS'clock'
p42
I01
sS'edge_to_blen'
p43
(dp44
g19
g32
(g36
S'\xc7\xdd\x9f\xb1\xd1\xd9\xab?'
p45
tp46
Rp47
sg9
g32
(g36
S':\xa2B\xa2\xca~\x9d?'
p48
tp49
Rp50
sg12
g32
(g36
S'\xb2\xed/\xda\xf2\x18e?'
p51
tp52
Rp53
sg14
g32
(g36
S'\x0bvP\xe08\x1d\x89?'
p54
tp55
Rp56
sg16
g32
(g36
S'z.\xa2j\xc8,\xb9?'
p57
tp58
Rp59
sg18
g32
(g36
S'+\x7f\xa4#\xbf\x7f\xa6?'
p60
tp61
Rp62
sg6
g32
(g36
S'\x1f\x10U_G7\x93?'
p63
tp64
Rp65
sg21
g32
(g36
S'P\x80\x01\xf6/.\xa5?'
p66
tp67
Rp68
sg23
g32
(g36
S':\xa2B\xa2\xca~\x9d?'
p69
tp70
Rp71
sg25
g32
(g36
S'\xa1n5\x89\xb3\x06\xa5?'
p72
tp73
Rp74
sg26
g32
(g36
S'>\xd7\x08f6\xbe3?'
p75
tp76
Rp77
sg28
g32
(g36
S'\xc6\xca:\x9c\x12\x9f\xbf?'
p78
tp79
Rp80
ssS'paralog'
p81
(lp82
S'YML026C'
p83
aS'YDR450W'
p84
asS'alignment_file'
p85
S'../PairsAlignemt/YML026C_YDR450W/YML026C_YDR450W_input.fasta'
p86
sS'x_clock'
p87
(lp88
F-0.6949403685926449
aF-0.5215202312941972
aF-0.8543559669025
aF1.4688444570876453
aF-2.6007145229006485
aF1.6533510393460111
aF-2.1176579812086747
aF-0.027025118173261947
aF-0.17464556335191442
aF-0.8055246405883452
aF-0.060394183525770806
aF-0.007308952852124705
aF-0.35468513410854846
asS'x'
p89
(lp90
F-0.6949403685926449
aF-0.5215202312941972
aF-0.8543559669025
aF1.4688444570876453
aF-2.6007145229006485
aF1.6533510393460111
aF-2.9114609257755317
aF-3.5472415738086402
aF-5.9617609002330605
aF-4.4011875891904175
aF-2.319328662733851
aF-3.124853303322196
aF-3.9757320370274125
aF-3.1852474868479668
aF-3.5472415738086402
aF-3.1925564397000916
aF-8.107555001573568
aF-2.091344042483096
asS'Model'
p91
S'MG94'
p92
s.