(dp0
S'Force'
p1
NsS'ExpectedGeneconv'
p2
(dp3
(S'N0'
p4
S'N1'
p5
tp6
F54.65045815786287
s(S'N5'
p7
S'cerevisiae'
p8
tp9
F9.927167471471433
s(S'N2'
p10
S'N3'
p11
tp12
F5.8843695136533904
s(S'N4'
p13
g7
tp14
F7.639786667391458
s(g5
S'castellii'
p15
tp16
F230.68214474536967
s(g10
S'bayanus'
p17
tp18
F31.576954616799416
s(g5
g10
tp19
F172.96806066119487
s(g11
S'kudriavzevii'
p20
tp21
F21.80893751006566
s(g7
S'paradoxus'
p22
tp23
F11.335333519723756
s(g13
S'mikatae'
p24
tp25
F19.63887043475047
s(g11
g13
tp26
F5.793427990286826
s(g4
S'kluyveri'
p27
tp28
F0.0
ssS'newicktree'
p29
S'../PairsAlignemt/YeastTree.newick'
p30
sS'll'
p31
cnumpy.core.multiarray
scalar
p32
(cnumpy
dtype
p33
(S'f8'
p34
I0
I1
tp35
Rp36
(I3
S'<'
p37
NNNI-1
I-1
I0
tp38
bS'^\x84Q\x0c\xa7{\xc1\xc0'
p39
tp40
Rp41
sS'clock'
p42
I01
sS'edge_to_blen'
p43
(dp44
g19
g32
(g36
S'3K\xf9\xcc\xca\xcb\xf6?'
p45
tp46
Rp47
sg9
g32
(g36
S'\xa0\x93\xb7l\x8c\xdf\xc0?'
p48
tp49
Rp50
sg12
g32
(g36
S'\x02\xaae\x1dO\xd2\xb0?'
p51
tp52
Rp53
sg14
g32
(g36
S'\x02\xdaT{\xcb\xb9\xb4?'
p54
tp55
Rp56
sg16
g32
(g36
S'^\t\xf7m2=\xfc?'
p57
tp58
Rp59
sg18
g32
(g36
S'\xad\xf8\xf6\x83\x9e\xc5\xd5?'
p60
tp61
Rp62
sg6
g32
(g36
S'{\x88\xf3_\xa5\xce\xe0?'
p63
tp64
Rp65
sg21
g32
(g36
S',\x8e\x9d\xbc\n\x91\xd1?'
p66
tp67
Rp68
sg23
g32
(g36
S'\xa0\x93\xb7l\x8c\xdf\xc0?'
p69
tp70
Rp71
sg25
g32
(g36
S'\xa0\x00b*r<\xcb?'
p72
tp73
Rp74
sg26
g32
(g36
S'\xdend;\x8d\x96\xaf?'
p75
tp76
Rp77
sg28
g32
(g36
S'\xcef\xf8\x8eBR\x02@'
p78
tp79
Rp80
ssS'paralog'
p81
(lp82
S'YDR438W'
p83
aS'YML018C'
p84
asS'alignment_file'
p85
S'../PairsAlignemt/YDR438W_YML018C/YDR438W_YML018C_input.fasta'
p86
sS'x_clock'
p87
(lp88
F-0.712851377623349
aF-0.5732769750007555
aF-0.9580625820676437
aF1.0403430034059034
aF-2.235669941469694
aF-3.3558572651137015
aF0.8286243095768132
aF0.0
aF-0.2605072336418844
aF-1.646377715051627
aF-0.21462477565700963
aF-0.25460092471527723
aF-0.47881519917686993
asS'x'
p89
(lp90
F-0.712851377623349
aF-0.5732769750007555
aF-0.9580625820676437
aF1.0403430034059034
aF-2.235669941469694
aF-3.3558572651137015
aF0.3539991340220426
aF-2.026301538665855
aF-2.7225184434488767
aF-2.5138000186653997
aF0.5681170759349288
aF-1.0782606391166984
aF-0.6439278870904648
aF-1.292885414773708
aF-2.026301538665855
aF-1.5474863394889853
aF-2.7855443941531846
aF0.8286243095768132
asS'Model'
p91
S'MG94'
p92
s.