(dp0
S'Force'
p1
NsS'ExpectedGeneconv'
p2
(dp3
(S'N0'
p4
S'N1'
p5
tp6
F1.4985743642489561e-12
s(S'N5'
p7
S'cerevisiae'
p8
tp9
F10.900289473793338
s(S'N2'
p10
S'N3'
p11
tp12
F2.4093762268314837e-06
s(S'N4'
p13
g7
tp14
F2.211418506391434
s(g5
S'castellii'
p15
tp16
F29.2278737341109
s(g10
S'bayanus'
p17
tp18
F12.334454452321276
s(g5
g10
tp19
F11.53425850483333
s(g11
S'kudriavzevii'
p20
tp21
F12.241327708400279
s(g7
S'paradoxus'
p22
tp23
F3.6033299040616695
s(g13
S'mikatae'
p24
tp25
F14.849289310993182
s(g11
g13
tp26
F1.753092044147907e-06
s(g4
S'kluyveri'
p27
tp28
F0.0
ssS'newicktree'
p29
S'../PairsAlignemt/YeastTree.newick'
p30
sS'll'
p31
cnumpy.core.multiarray
scalar
p32
(cnumpy
dtype
p33
(S'f8'
p34
I0
I1
tp35
Rp36
(I3
S'<'
p37
NNNI-1
I-1
I0
tp38
bS'\x9f\xed\xe5u\xda\x8f\x93\xc0'
p39
tp40
Rp41
sS'clock'
p42
I00
sS'edge_to_blen'
p43
(dp44
g19
g32
(g36
S'j\xeaV\x7f\x97\xc0\x9e?'
p45
tp46
Rp47
sg9
g32
(g36
S'\xf4\x04\nz\xb0\x17\x91?'
p48
tp49
Rp50
sg12
g32
(g36
S'-}f\x0b\xaf\xeb7>'
p51
tp52
Rp53
sg14
g32
(g36
S'F\x1b\x12\x9a\xb0\xa6c?'
p54
tp55
Rp56
sg16
g32
(g36
S'\x9a4\x85\xa5)\xe0\xaf?'
p57
tp58
Rp59
sg18
g32
(g36
S')\x03\x89.M\x8c\x8e?'
p60
tp61
Rp62
sg6
g32
(g36
S'L\xcf:`\xf8SC>'
p63
tp64
Rp65
sg21
g32
(g36
S'&Z{\xeb\xaf\x9a\x97?'
p66
tp67
Rp68
sg23
g32
(g36
S'\x82H\xb2O\x1e\xb1n?'
p69
tp70
Rp71
sg25
g32
(g36
S"\xba\xe3T\xe6'\xd6\x92?"
p72
tp73
Rp74
sg26
g32
(g36
S'\xe1\x932F)U0>'
p75
tp76
Rp77
sg28
g32
(g36
S'\xaf~\x7f\xe3\x7f\xdf\xb0?'
p78
tp79
Rp80
ssS'paralog'
p81
(lp82
S'YER074W'
p83
aS'YIL069C'
p84
asS'alignment_file'
p85
S'../PairsAlignemt/YER074W_YIL069C/YER074W_YIL069C_input.fasta'
p86
sS'x_clock'
p87
(lp88
F-0.6051723195377897
aF-0.5829256176041383
aF-0.8039482773492105
aF0.1823215567939546
aF-0.10536051565782628
aF0.3364722366212129
aF-0.10536051565782628
aF-0.10536051565782628
aF-0.10536051565782628
aF-0.10536051565782628
aF-0.10536051565782628
aF-0.10536051565782628
aF-0.10536051565782628
asS'x'
p89
(lp90
F-0.6819813379451884
aF-0.505949390273691
aF-0.8452163986230564
aF2.205226095871798
aF-2.0039539104723176
aF3.178591533180235
aF-3.5055066380042215
aF-4.0928298952040345
aF-19.00596810514663
aF-6.032778390766165
aF-2.7764826852535367
aF-4.205318043965437
aF-18.526007327270626
aF-3.7700451595918243
aF-5.5869155888772015
aF-3.995672869518634
aF-19.387542929866562
aF-2.7194600558444364
asS'Model'
p91
S'MG94'
p92
s.