(dp0
S'Force'
p1
NsS'ExpectedGeneconv'
p2
(dp3
(S'N0'
p4
S'N1'
p5
tp6
F0.002363682903801596
s(S'N5'
p7
S'cerevisiae'
p8
tp9
F5.6502448552253135
s(S'N2'
p10
S'N3'
p11
tp12
F1.5527585124232022
s(S'N4'
p13
g7
tp14
F1.0070075480064091
s(g5
S'castellii'
p15
tp16
F31.036857395965857
s(g10
S'bayanus'
p17
tp18
F10.318919758172532
s(g5
g10
tp19
F18.377194097901857
s(g11
S'kudriavzevii'
p20
tp21
F4.4643302969571925
s(g7
S'paradoxus'
p22
tp23
F2.474028249872142
s(g13
S'mikatae'
p24
tp25
F5.215140903485454
s(g11
g13
tp26
F2.5099472043458695
s(g4
S'kluyveri'
p27
tp28
F0.0
ssS'newicktree'
p29
S'../PairsAlignemt/YeastTree.newick'
p30
sS'll'
p31
cnumpy.core.multiarray
scalar
p32
(cnumpy
dtype
p33
(S'f8'
p34
I0
I1
tp35
Rp36
(I3
S'<'
p37
NNNI-1
I-1
I0
tp38
bS'\xf04\xb3\xc5z\x0c\x94\xc0'
p39
tp40
Rp41
sS'clock'
p42
I01
sS'edge_to_blen'
p43
(dp44
g19
g32
(g36
S'\x07\x93\xd5\x07^\xc0\xba?'
p45
tp46
Rp47
sg9
g32
(g36
S'\x89\x90f\x8e\x00\xb5\x92?'
p48
tp49
Rp50
sg12
g32
(g36
S'\xc6\xa5\x9a[\xf2r\x8e?'
p51
tp52
Rp53
sg14
g32
(g36
S'N\xc3\xf6o.8\x82?'
p54
tp55
Rp56
sg16
g32
(g36
S'oh\xc3\xa4S7\xc4?'
p57
tp58
Rp59
sg18
g32
(g36
S'\xb1{b\x83\x92\\\xab?'
p60
tp61
Rp62
sg6
g32
(g36
S'\x94\x85g\xd6\x9d\xa4Q?'
p63
tp64
Rp65
sg21
g32
(g36
S'B\xd2{\xec\xd5\xbf\xa3?'
p66
tp67
Rp68
sg23
g32
(g36
S'\x89\x90f\x8e\x00\xb5\x92?'
p69
tp70
Rp71
sg25
g32
(g36
S'0\xf2a\xc6\x17\xd1\x9b?'
p72
tp73
Rp74
sg26
g32
(g36
S'\xa5d+%(]\x87?'
p75
tp76
Rp77
sg28
g32
(g36
S'5\\\xeb\x10_\xcf\xc8?'
p78
tp79
Rp80
ssS'paralog'
p81
(lp82
S'YLR333C'
p83
aS'YGR027C'
p84
asS'alignment_file'
p85
S'../PairsAlignemt/YLR333C_YGR027C/YLR333C_YGR027C_input.fasta'
p86
sS'x_clock'
p87
(lp88
F-0.6680056149061778
aF-0.49661981815227685
aF-0.7984819221224203
aF1.7043302265117855
aF-2.063277921714429
aF1.5243228975429235
aF-1.7348771220513766
aF-0.10387783862121636
aF-0.006794994805648394
aF-1.0836337110562975
aF-0.3260199756560629
aF-0.35062912216739345
aF-0.3967391316592883
asS'x'
p89
(lp90
F-0.6680056149061778
aF-0.49661981815227685
aF-0.7984819221224203
aF1.7043302265117855
aF-2.063277921714429
aF1.5243228975429235
aF-2.2585893354495723
aF-4.002571896017283
aF-4.2085654855697445
aF-4.722128810583247
aF-1.8455499554782413
aF-2.9291836665345388
aF-6.833719530061372
aF-3.2552036421906014
aF-4.002571896017283
aF-3.605832764357995
aF-4.473427154716983
aF-1.6407816788964924
asS'Model'
p91
S'MG94'
p92
s.