(dp0
S'Force'
p1
NsS'ExpectedGeneconv'
p2
(dp3
(S'N0'
p4
S'N1'
p5
tp6
F5.9902385931367075
s(S'N5'
p7
S'cerevisiae'
p8
tp9
F7.557171934580557
s(S'N2'
p10
S'N3'
p11
tp12
F0.603632381096092
s(S'N4'
p13
g7
tp14
F10.144175489492632
s(g5
S'castellii'
p15
tp16
F43.84858235546394
s(g10
S'bayanus'
p17
tp18
F17.96700406547306
s(g5
g10
tp19
F19.257114045166865
s(g11
S'kudriavzevii'
p20
tp21
F27.763391186800817
s(g7
S'paradoxus'
p22
tp23
F4.801688224800893
s(g13
S'mikatae'
p24
tp25
F16.87158024327932
s(g11
g13
tp26
F6.14304175016614
s(g4
S'kluyveri'
p27
tp28
F0.0
ssS'newicktree'
p29
S'../PairsAlignemt/YeastTree.newick'
p30
sS'll'
p31
cnumpy.core.multiarray
scalar
p32
(cnumpy
dtype
p33
(S'f8'
p34
I0
I1
tp35
Rp36
(I3
S'<'
p37
NNNI-1
I-1
I0
tp38
bS'\xac\xc3"\x8c\x96\x14\xa0\xc0'
p39
tp40
Rp41
sS'clock'
p42
I00
sS'edge_to_blen'
p43
(dp44
g19
g32
(g36
S'pM\xa6\x1a:S\x9d?'
p45
tp46
Rp47
sg9
g32
(g36
S'G$T\xcf\xbft\x87?'
p48
tp49
Rp50
sg12
g32
(g36
S'\xa5Q\xd7\xd07\xd4C?'
p51
tp52
Rp53
sg14
g32
(g36
S'\xda8\xdda\xfe\xbb\x81?'
p54
tp55
Rp56
sg16
g32
(g36
S'\xa25\xc2g\xd8\x7f\xad?'
p57
tp58
Rp59
sg18
g32
(g36
S'\xaa\xe3>Pe\x07\x8e?'
p60
tp61
Rp62
sg6
g32
(g36
S'+\xd8\x12\x02\x17\xb3\x96?'
p63
tp64
Rp65
sg21
g32
(g36
S"\x8c=\x1b'\xe9\x07\x9a?"
p66
tp67
Rp68
sg23
g32
(g36
S'\xc7\xaf\x035\xf3!s?'
p69
tp70
Rp71
sg25
g32
(g36
S'\x9d\xbe\xc7\x9c\x99t\x93?'
p72
tp73
Rp74
sg26
g32
(g36
S'\xf0\x1a\xb9\x95i|y?'
p75
tp76
Rp77
sg28
g32
(g36
S'_\xd4\xf5\n\x88h\xa8?'
p78
tp79
Rp80
ssS'paralog'
p81
(lp82
S'YMR142C'
p83
aS'YDL082W'
p84
asS'alignment_file'
p85
S'../PairsAlignemt/YMR142C_YDL082W/YMR142C_YDL082W_input.fasta'
p86
sS'x_clock'
p87
(lp88
F-0.5889528457923014
aF-0.5253214701507958
aF-0.7368586136503616
aF0.1823215567939546
aF-0.10536051565782628
aF0.3364722366212129
aF-0.10536051565782628
aF-0.10536051565782628
aF-0.10536051565782628
aF-0.10536051565782628
aF-0.10536051565782628
aF-0.10536051565782628
aF-0.10536051565782628
asS'x'
p89
(lp90
F-0.6695072578597357
aF-0.4691187270184845
aF-0.8077469630053512
aF1.9877978302636008
aF-1.4974209910050083
aF2.8615493278328406
aF-3.5530278186296504
aF-4.469490452644533
aF-7.410063371773046
aF-4.749115531501364
aF-2.8539548421429877
aF-4.222459078850064
aF-3.809125831699354
aF-3.6721874587340166
aF-5.366371576334683
aF-3.9633435956468075
aF-5.07963743044295
aF-3.0434003276406845
asS'Model'
p91
S'MG94'
p92
s.