(dp0
S'Force'
p1
NsS'ExpectedGeneconv'
p2
(dp3
(S'N0'
p4
S'N1'
p5
tp6
F4.311110762992825
s(S'N5'
p7
S'cerevisiae'
p8
tp9
F16.48231569224183
s(S'N2'
p10
S'N3'
p11
tp12
F15.557271733152641
s(S'N4'
p13
g7
tp14
F12.226192844215197
s(g5
S'castellii'
p15
tp16
F244.9528109966025
s(g10
S'bayanus'
p17
tp18
F17.107151512158183
s(g5
g10
tp19
F207.32955248268368
s(g11
S'kudriavzevii'
p20
tp21
F25.130154887632866
s(g7
S'paradoxus'
p22
tp23
F15.0776883124232
s(g13
S'mikatae'
p24
tp25
F27.38256904432018
s(g11
g13
tp26
F13.770314864936955
s(g4
S'kluyveri'
p27
tp28
F0.0
ssS'newicktree'
p29
S'../PairsAlignemt/YeastTree.newick'
p30
sS'll'
p31
cnumpy.core.multiarray
scalar
p32
(cnumpy
dtype
p33
(S'f8'
p34
I0
I1
tp35
Rp36
(I3
S'<'
p37
NNNI-1
I-1
I0
tp38
bS'C\xa1$e\xa0\xc0\xbc\xc0'
p39
tp40
Rp41
sS'clock'
p42
I00
sS'edge_to_blen'
p43
(dp44
g19
g32
(g36
S'\x80\xf7AS\x8f\xbc\x02@'
p45
tp46
Rp47
sg9
g32
(g36
S'E|\xe9\x81J\xa6\xd0?'
p48
tp49
Rp50
sg12
g32
(g36
S'\xcdy\x85\xa6^\x1f\xc9?'
p51
tp52
Rp53
sg14
g32
(g36
S'k\xb1\xa2\x02\xc8\x07\xc2?'
p54
tp55
Rp56
sg16
g32
(g36
S'\x0bu\xef\'"\x97\x07@'
p57
tp58
Rp59
sg18
g32
(g36
S'Y\xd8\rp\x04\xd0\xd0?'
p60
tp61
Rp62
sg6
g32
(g36
S'A[u\xa4r\xe6\xc2?'
p63
tp64
Rp65
sg21
g32
(g36
S'\xb797\xae\xe0\x89\xd4?'
p66
tp67
Rp68
sg23
g32
(g36
S'\xee4\xa4\xd7\xa9\x9d\xc5?'
p69
tp70
Rp71
sg25
g32
(g36
S'1\x93\xf3\xf6X\xe2\xd9?'
p72
tp73
Rp74
sg26
g32
(g36
S'\xf0\x08\xf0$\xcbR\xc7?'
p75
tp76
Rp77
sg28
g32
(g36
S'\xff\xdd^\xb5f\x01\x08@'
p78
tp79
Rp80
ssS'paralog'
p81
(lp82
S'YLR284C'
p83
aS'YOR180C'
p84
asS'alignment_file'
p85
S'../PairsAlignemt/YLR284C_YOR180C/YLR284C_YOR180C_input.fasta'
p86
sS'x_clock'
p87
(lp88
F-0.6316874575440513
aF-0.545729148546448
aF-0.9750788058832884
aF0.1823215567939546
aF-0.10536051565782628
aF0.3364722366212129
aF-0.10536051565782628
aF-0.10536051565782628
aF-0.10536051565782628
aF-0.10536051565782628
aF-0.10536051565782628
aF-0.10536051565782628
aF-0.10536051565782628
asS'x'
p89
(lp90
F-0.6210233048512869
aF-0.5952165050571084
aF-0.9426825981423407
aF0.8770622427999407
aF-2.3710122597580874
aF-3.4371094541634917
aF0.8510352588215991
aF-1.346498429196726
aF-1.628264892326977
aF-1.9599712821364277
aF1.0813968212751275
aF-1.336756398401262
aF-1.9128584580701113
aF-1.1365777905414842
aF-1.778602365464148
aF-0.9052514986969649
aF-1.7025725908500335
aF1.0988403233750972
asS'Model'
p91
S'MG94'
p92
s.