(dp0
S'Force'
p1
NsS'ExpectedGeneconv'
p2
(dp3
(S'N0'
p4
S'N1'
p5
tp6
F21.736929323398776
s(S'N5'
p7
S'cerevisiae'
p8
tp9
F27.592802669532595
s(S'N2'
p10
S'N3'
p11
tp12
F12.454586045532626
s(S'N4'
p13
g7
tp14
F11.728708706109115
s(g5
S'castellii'
p15
tp16
F117.79708090418285
s(g10
S'bayanus'
p17
tp18
F23.4781564397446
s(g5
g10
tp19
F63.111449942518085
s(g11
S'kudriavzevii'
p20
tp21
F29.369421286673152
s(g7
S'paradoxus'
p22
tp23
F16.715999201857162
s(g13
S'mikatae'
p24
tp25
F35.316405295194066
s(g11
g13
tp26
F12.636132802532849
s(g4
S'kluyveri'
p27
tp28
F0.0
ssS'newicktree'
p29
S'../PairsAlignemt/YeastTree.newick'
p30
sS'll'
p31
cnumpy.core.multiarray
scalar
p32
(cnumpy
dtype
p33
(S'f8'
p34
I0
I1
tp35
Rp36
(I3
S'<'
p37
NNNI-1
I-1
I0
tp38
bS'\xf6\xed\xb2\x93\x8a\xa1\xba\xc0'
p39
tp40
Rp41
sS'clock'
p42
I00
sS'edge_to_blen'
p43
(dp44
g19
g32
(g36
S'\xad<\xaf\x1b\x0c\xf4\xdb?'
p45
tp46
Rp47
sg9
g32
(g36
S'\x86>\xe8\x8e\x00\r\xc0?'
p48
tp49
Rp50
sg12
g32
(g36
S'V7G\xef\xfd\x13\xb3?'
p51
tp52
Rp53
sg14
g32
(g36
S'Df\x15M\x00\x08\xb2?'
p54
tp55
Rp56
sg16
g32
(g36
S'\xc0tL\xe8\xaf\x0e\xe8?'
p57
tp58
Rp59
sg18
g32
(g36
S"6A\t\x05'G\xc4?"
p60
tp61
Rp62
sg6
g32
(g36
S'\r\x8f0\xe6\x1c\x05\xd1?'
p63
tp64
Rp65
sg21
g32
(g36
S'\xfbZ\x88?B\xb5\xc6?'
p66
tp67
Rp68
sg23
g32
(g36
S'\x1f-UE\\\xfb\xb7?'
p69
tp70
Rp71
sg25
g32
(g36
S'<\x11\xaa;\x02\xb5\xc8?'
p72
tp73
Rp74
sg26
g32
(g36
S'\xecf\xa3\x9a\x8c\x06\xb0?'
p75
tp76
Rp77
sg28
g32
(g36
S'\xa0\xec\xb0}z\xce\xd7?'
p78
tp79
Rp80
ssS'paralog'
p81
(lp82
S'YGR043C'
p83
aS'YLR354C'
p84
asS'alignment_file'
p85
S'../PairsAlignemt/YGR043C_YLR354C/YGR043C_YLR354C_input.fasta'
p86
sS'x_clock'
p87
(lp88
F-0.625081522862186
aF-0.5445779105708821
aF-0.8273909761496979
aF0.1823215567939546
aF-0.10536051565782628
aF0.3364722366212129
aF-0.10536051565782628
aF-0.10536051565782628
aF-0.10536051565782628
aF-0.10536051565782628
aF-0.10536051565782628
aF-0.10536051565782628
aF-0.10536051565782628
asS'x'
p89
(lp90
F-0.7289735669188959
aF-0.5221167021000114
aF-0.8515361232153843
aF1.0834883894519907
aF-2.195810311173912
aF-2.364745100426786
aF-0.8283474737533942
aF-2.0762722088293977
aF-2.5966367055838253
aF-2.6530708259613722
aF-0.28529444035833795
aF-1.8424967105303611
aF-1.3244955926207103
aF-1.729311123895645
aF-2.367879037260755
aF-1.6449410156889381
aF-2.7709910649473217
aF-0.9889220547374935
asS'Model'
p91
S'MG94'
p92
s.