(dp0
S'Force'
p1
NsS'ExpectedGeneconv'
p2
(dp3
(S'N0'
p4
S'N1'
p5
tp6
F38.89725521826142
s(S'N5'
p7
S'cerevisiae'
p8
tp9
F27.94849358440842
s(S'N2'
p10
S'N3'
p11
tp12
F5.80207704777426
s(S'N4'
p13
g7
tp14
F11.865487112657537
s(g5
S'castellii'
p15
tp16
F232.4040785990188
s(g10
S'bayanus'
p17
tp18
F59.249719945295894
s(g5
g10
tp19
F165.33709037187234
s(g11
S'kudriavzevii'
p20
tp21
F40.84823582009074
s(g7
S'paradoxus'
p22
tp23
F18.633328455765984
s(g13
S'mikatae'
p24
tp25
F44.170332748633
s(g11
g13
tp26
F8.719518600973743
s(g4
S'kluyveri'
p27
tp28
F0.0
ssS'newicktree'
p29
S'../PairsAlignemt/YeastTree.newick'
p30
sS'll'
p31
cnumpy.core.multiarray
scalar
p32
(cnumpy
dtype
p33
(S'f8'
p34
I0
I1
tp35
Rp36
(I3
S'<'
p37
NNNI-1
I-1
I0
tp38
bS'S\xe9\xdb\x1cb\xac\xc1\xc0'
p39
tp40
Rp41
sS'clock'
p42
I01
sS'edge_to_blen'
p43
(dp44
g19
g32
(g36
S'\xd8\xd1\x1b\xf1vI\xde?'
p45
tp46
Rp47
sg9
g32
(g36
S'\\\x88\xea]\xb1$\xab?'
p48
tp49
Rp50
sg12
g32
(g36
S'M\x1al\x7fh\x10\x91?'
p51
tp52
Rp53
sg14
g32
(g36
S'\xe38\x1e\xa0O\x1d\xa6?'
p54
tp55
Rp56
sg16
g32
(g36
S'\x93\xf0^\x05\xa5\x83\xe3?'
p57
tp58
Rp59
sg18
g32
(g36
S'\x9d\x1eD3\xa6{\xc1?'
p60
tp61
Rp62
sg6
g32
(g36
S'\x93j\x9f\x80j\xbc\xc7?'
p63
tp64
Rp65
sg21
g32
(g36
S'\xa76\xadF2\xb3\xbe?'
p66
tp67
Rp68
sg23
g32
(g36
S'\\\x88\xea]\xb1$\xab?'
p69
tp70
Rp71
sg25
g32
(g36
S'\xa0`\x04\x7f\x00\xa1\xb8?'
p72
tp73
Rp74
sg26
g32
(g36
S'\x1aX\xa3\x1e\xc7H\x98?'
p75
tp76
Rp77
sg28
g32
(g36
S'8\xcb\x86\xa5\xbfr\xe9?'
p78
tp79
Rp80
ssS'paralog'
p81
(lp82
S'YMR243C'
p83
aS'YOR316C'
p84
asS'alignment_file'
p85
S'../PairsAlignemt/YMR243C_YOR316C/YMR243C_YOR316C_input.fasta'
p86
sS'x_clock'
p87
(lp88
F-0.6632537696577032
aF-0.49254104376685387
aF-0.8902340584493712
aF1.5315512178478659
aF-1.825735115254581
aF-0.40428775472838036
aF-0.22908944334817705
aF0.0
aF-0.26550216948266003
aF-1.4962093983410405
aF-0.13011423792937282
aF-0.22034108406363978
aF-0.595936896161476
asS'x'
p89
(lp90
F-0.6632537696577032
aF-0.49254104376685387
aF-0.8902340584493712
aF1.5315512178478659
aF-1.825735115254581
aF-0.40428775472838036
aF-0.7481654580939898
aF-2.9371932293263665
aF-4.094495285942341
aF-3.1420912931730713
aF-0.4945916128308372
aF-1.9908010111718777
aF-1.6850373767959366
aF-2.1209152491012504
aF-2.9371932293263665
aF-2.3412563331648903
aF-3.7416422353497687
aF-0.22908944334817705
asS'Model'
p91
S'MG94'
p92
s.