(dp0
S'Force'
p1
NsS'ExpectedGeneconv'
p2
(dp3
(S'N1'
p4
S'N2'
p5
tp6
(lp7
F27.037909472644255
aF20.42085169811209
as(S'N5'
p8
S'cerevisiae'
p9
tp10
(lp11
F1.413673885537711
aF2.152581259835183
as(g5
S'N3'
p12
tp13
(lp14
F2.43792898509488
aF1.2517700882226097
as(S'N4'
p15
g8
tp16
(lp17
F1.2946467353494369
aF0.8032217005067576
as(g4
S'castellii'
p18
tp19
(lp20
F30.578293104936396
aF22.86624079058867
as(g5
S'bayanus'
p21
tp22
(lp23
F4.075012652052149
aF2.6701683344796074
as(S'N0'
p24
g4
tp25
(lp26
F0.6664471118127818
aF0.4990005097469041
as(g12
S'kudriavzevii'
p27
tp28
(lp29
F3.9609468422363947
aF2.5825124262236523
as(g8
S'paradoxus'
p30
tp31
(lp32
F0.8984581955907176
aF0.5018524685301855
as(g24
S'kluyveri'
p33
tp34
(lp35
F0.0
aF0.0
as(g12
g15
tp36
(lp37
F2.189220837454064
aF1.6381338825562453
as(g15
S'mikatae'
p38
tp39
(lp40
F3.834635646538068
aF3.3151000186157753
assS'ExpectedDwellTime'
p41
(dp42
g6
F346.10454466366997
sg10
F421.03474731984943
sg13
F416.3051575924935
sg16
F416.18069490863985
sg19
F349.5069104796557
sg22
F420.1710812944555
sg25
F75.88191860843878
sg28
F425.2210195922646
sg31
F423.9329129104109
sg34
F0.0
sg36
F414.8354543003753
sg39
F411.04474886252154
ssS'newicktree'
p43
S'../PairsAlignemt/YeastTree.newick'
p44
sS'll'
p45
cnumpy.core.multiarray
scalar
p46
(cnumpy
dtype
p47
(S'f8'
p48
I0
I1
tp49
Rp50
(I3
S'<'
p51
NNNI-1
I-1
I0
tp52
bS'\x9c\xb6\xc5\x08\x14i\xba\xc0'
p53
tp54
Rp55
sS'edge_list'
p56
(lp57
g25
ag34
ag6
ag19
ag13
ag22
ag36
ag28
ag16
ag39
ag10
ag31
asS'edge_to_blen'
p58
(dp59
g6
g46
(g50
S'\x10-F\xdc\xec\xc4\xfe?'
p60
tp61
Rp62
sg10
g46
(g50
S'j"\x0bXI\xe8\xc4?'
p63
tp64
Rp65
sg13
g46
(g50
S'\x18\xc2\xea\x1e&\x8e\xc1?'
p66
tp67
Rp68
sg16
g46
(g50
S'\xf2w\x0c\xeb\x0f\xb5\xbf?'
p69
tp70
Rp71
sg28
g46
(g50
S'\xa3vL\xe2\xf1\xf9\xd2?'
p72
tp73
Rp74
sg22
g46
(g50
S"R3\xe0|\xb2'\xd5?"
p75
tp76
Rp77
sg25
g46
(g50
S'\xfb\x15\x87Y<a\xc5?'
p78
tp79
Rp80
sg19
g46
(g50
S'$\xc6\tg\xa9J\x02@'
p81
tp82
Rp83
sg31
g46
(g50
S'(S\x8a\xce\xbe^\xb9?'
p84
tp85
Rp86
sg39
g46
(g50
S'^e8\xf2\xc49\xd4?'
p87
tp88
Rp89
sg36
g46
(g50
S'l\x0e\xd3\xe3\xaa\x9b\xc2?'
p90
tp91
Rp92
sg34
g46
(g50
S'\x8b\x8d\x03\x0c\x1d\xd3\xf7?'
p93
tp94
Rp95
ssS'paralog'
p96
(lp97
S'YBR024W'
p98
aS'YBR037C'
p99
asS'alignment_file'
p100
S'../MafftAlignment/YBR024W_YBR037C/YBR024W_YBR037C_input.fasta'
p101
sS'x_clock'
p102
NsS'x'
p103
cnumpy.core.multiarray
_reconstruct
p104
(cnumpy
ndarray
p105
(I0
tp106
S'b'
p107
tp108
Rp109
(I1
(I19
tp110
g50
I00
S'\xde|\xf9\xa3"\x01\xe5\xbf\x84\xf5G\x97\x06q\xe2\xbf\x18\xc2\xab\x9fL\xa4\xec\xbf\x12\xef\xd1{\x1b\xd4\xeb?\xdf\xf7\xc8\xcfyO\x03\xc0u\x11C\xaay(\x00\xc0\xcd0\x0bR\x12y\x02\xc0\xd2\xd1\x983!\xa2\xfc\xbf+O\xd6\xe6\x00{\xd9?\x90E\x1a\xc6\xf7\xec\xe4?\xc45\x94\xf7\xcev\xea?uN|\xe6l\xc9\xff\xbf1b\x81mI\xb6\xf1\xbf\x91~94\xde\xda\xfe\xbfh\xc6s\x1dws\xf3\xbf\xdd\xa1\xa1V\x84\xb5\x00\xc0\xa9\xeeX\x1dOn\xf2\xbf\xfcJ\xb9\xd1\xa8\xfd\xfc\xbfX\x1d\x16`+~\x02\xc0'
p111
tp112
bsS'Model'
p113
S'MG94'
p114
sS'clock'
p115
I00
s.