(dp0
S'Force'
p1
NsS'ExpectedGeneconv'
p2
(dp3
(S'N1'
p4
S'N2'
p5
tp6
(lp7
F8.641338732596697
aF7.198898562216905
as(S'N5'
p8
S'cerevisiae'
p9
tp10
(lp11
F6.415884520794332
aF2.9589331365779343
as(g5
S'N3'
p12
tp13
(lp14
F0.8445391761502041
aF1.5323467979607273
as(S'N4'
p15
g8
tp16
(lp17
F2.1312221667770777
aF0.9933406164493741
as(g4
S'castellii'
p18
tp19
(lp20
F16.371540857075765
aF16.953061999185216
as(g5
S'bayanus'
p21
tp22
(lp23
F6.233476692382669
aF6.4446935759548705
as(S'N0'
p24
g4
tp25
(lp26
F19.604609094297288
aF19.395828185891187
as(g12
S'kudriavzevii'
p27
tp28
(lp29
F8.820207199696727
aF10.296189952866024
as(g8
S'paradoxus'
p30
tp31
(lp32
F0.8653744742779607
aF4.860421196335039
as(g24
S'kluyveri'
p33
tp34
(lp35
F0.0
aF0.0
as(g12
g15
tp36
(lp37
F7.728453964826825e-06
aF1.0768571083454649e-05
as(g15
S'mikatae'
p38
tp39
(lp40
F8.2914028096821
aF6.753739899154388
assS'ExpectedDwellTime'
p41
(dp42
g6
F56.627906421405434
sg10
F50.31616818254748
sg13
F58.74629507306537
sg16
F57.31253782800045
sg19
F47.478744804522115
sg22
F54.85084582322834
sg25
F34.846140298516325
sg28
F55.23480988284602
sg31
F53.733536067383426
sg34
F0.0
sg36
F58.473655359080254
sg39
F57.64918405922008
ssS'newicktree'
p43
S'../PairsAlignemt/YeastTree.newick'
p44
sS'll'
p45
cnumpy.core.multiarray
scalar
p46
(cnumpy
dtype
p47
(S'f8'
p48
I0
I1
tp49
Rp50
(I3
S'<'
p51
NNNI-1
I-1
I0
tp52
bS'V\xc9\x87\xff\xe5\xd5\x96\xc0'
p53
tp54
Rp55
sS'edge_list'
p56
(lp57
g25
ag34
ag6
ag19
ag13
ag22
ag36
ag28
ag16
ag39
ag10
ag31
asS'edge_to_blen'
p58
(dp59
g25
g46
(g50
S'\xf4t\x97\x8a\x1cX\xb4?'
p60
tp61
Rp62
sg10
g46
(g50
S'\xf0\xf6&\xcfi\xa7\x83?'
p63
tp64
Rp65
sg13
g46
(g50
S'-\xad\x0c\x1aY\xcae?'
p66
tp67
Rp68
sg16
g46
(g50
S'\xfd\x15\xa6\x8d\x02\xebi?'
p69
tp70
Rp71
sg19
g46
(g50
S'\xea!\xcf\x99\x17r\xa3?'
p72
tp73
Rp74
sg22
g46
(g50
S'\x9eE1\xc3\x11\xd8\x8b?'
p75
tp76
Rp77
sg6
g46
(g50
S'\x94{B\xc0\x1a\xd7\x94?'
p78
tp79
Rp80
sg28
g46
(g50
S'Vk\xe3\x925\xdb\x96?'
p81
tp82
Rp83
sg31
g46
(g50
S'\xa5\x8c\x1c\x11/\xbez?'
p84
tp85
Rp86
sg39
g46
(g50
S'M\x0b\xea\x1e\xd1D\x93?'
p87
tp88
Rp89
sg36
g46
(g50
S'\x18uCl\xa9\x94k>'
p90
tp91
Rp92
sg34
g46
(g50
S's\x9da\x1a\x0c&]>'
p93
tp94
Rp95
ssS'paralog'
p96
(lp97
S'YML026C'
p98
aS'YDR450W'
p99
asS'alignment_file'
p100
S'../MafftAlignment/YML026C_YDR450W/YML026C_YDR450W_input.fasta'
p101
sS'x_clock'
p102
NsS'x'
p103
cnumpy.core.multiarray
_reconstruct
p104
(cnumpy
ndarray
p105
(I0
tp106
S'b'
p107
tp108
Rp109
(I1
(I18
tp110
g50
I00
S'G\tx"\x9a_\xe7\xbf\xe0\xbcB\xc5\xcd\x99\xe0\xbf\xd8:j\xdd\xea\xc5\xe9\xbf\x97\xff@\x88\x88\xc1\x01@\xf7\x0buE\x81\x08\x06@Bs\x1d\xe1\x93\xf2\x05@\xe9\x95s\xa6QB\x04\xc0\xf7J\x8a\xb3\x08l1\xc0\xf5\x03Cq\x1c(\x0f\xc0S\x14\xfb\xcbd*\n\xc0\xbe\xe1U\xdc\xbf\xb7\x17\xc0\xb2\x1dJ\x1a\'1\x11\xc0\x8f\x97\x01)\xbe\xc80\xc0\xd1\xb7#\xc0\xffj\x0e\xc0k\xf0ef\x1e\x06\x17\xc0H\xba,\xb7\xab\xc8\x0f\xc0PJ\x8e6\xda\x95\x12\xc0\xce\x90\xa3\xbb@ \x14\xc0'
p111
tp112
bsS'Model'
p113
S'HKY'
p114
sS'clock'
p115
I00
s.