(dp0
S'Force'
p1
NsS'ExpectedGeneconv'
p2
(dp3
(S'N1'
p4
S'N2'
p5
tp6
(lp7
F3.271376188612902
aF79.57951792358223
as(S'N5'
p8
S'cerevisiae'
p9
tp10
(lp11
F0.9094877393100087
aF15.249513663259606
as(g5
S'N3'
p12
tp13
(lp14
F0.30186608997660913
aF12.185892889692385
as(S'N4'
p15
g8
tp16
(lp17
F0.15897964366629136
aF5.400976941122845
as(g4
S'castellii'
p18
tp19
(lp20
F4.397982198188396
aF108.2437792156454
as(g5
S'bayanus'
p21
tp22
(lp23
F0.48810386175513404
aF22.893701230164456
as(S'N0'
p24
g4
tp25
(lp26
F0.09034269960338465
aF2.2569712885837316
as(g12
S'kudriavzevii'
p27
tp28
(lp29
F0.7652071552518858
aF15.565746780775902
as(g8
S'paradoxus'
p30
tp31
(lp32
F0.33259710589602054
aF9.246773914605182
as(g24
S'kluyveri'
p33
tp34
(lp35
F0.0
aF0.0
as(g12
g15
tp36
(lp37
F0.30467865469928546
aF11.010504365660463
as(g15
S'mikatae'
p38
tp39
(lp40
F1.0436712681397557
aF19.82310974079216
assS'ExpectedDwellTime'
p41
(dp42
g6
F670.9851525603967
sg10
F898.6023811655381
sg13
F868.2755625360951
sg16
F895.0472649497885
sg19
F701.9847770002585
sg22
F867.2110611751391
sg25
F132.6476812400356
sg28
F900.3611026612847
sg31
F917.8115848567885
sg34
F0.0
sg36
F880.001578335704
sg39
F891.188982325748
ssS'newicktree'
p43
S'../PairsAlignemt/YeastTree.newick'
p44
sS'll'
p45
cnumpy.core.multiarray
scalar
p46
(cnumpy
dtype
p47
(S'f8'
p48
I0
I1
tp49
Rp50
(I3
S'<'
p51
NNNI-1
I-1
I0
tp52
bS'l\xde>\xe9\xc8&\xca\xc0'
p53
tp54
Rp55
sS'edge_list'
p56
(lp57
g25
ag34
ag6
ag19
ag13
ag22
ag36
ag28
ag16
ag39
ag10
ag31
asS'edge_to_blen'
p58
(dp59
g6
g46
(g50
S'\x0f03\xcb[\xb3\xee?'
p60
tp61
Rp62
sg10
g46
(g50
S'5\xac0\xb4H\x96\xc2?'
p63
tp64
Rp65
sg13
g46
(g50
S'\xd7[I_\x15?\xba?'
p66
tp67
Rp68
sg16
g46
(g50
S'\xb3\x950S\x12^\xb0?'
p69
tp70
Rp71
sg28
g46
(g50
S'\x86\xc2\xdb\xc9\x88\xaa\xc7?'
p72
tp73
Rp74
sg22
g46
(g50
S'h\x13\tV\xf0<\xc7?'
p75
tp76
Rp77
sg25
g46
(g50
S'\xe4\r_\xcd\xb9\xa2\xbc?'
p78
tp79
Rp80
sg19
g46
(g50
S'\xe19\xf2\x05\xed\n\xf3?'
p81
tp82
Rp83
sg31
g46
(g50
S'\xc2\xa0\xe4\x9b\xa8\xb6\xbb?'
p84
tp85
Rp86
sg34
g46
(g50
S'<\x15\xa4:v1\xe2?'
p87
tp88
Rp89
sg36
g46
(g50
S'\xd0\x02m8\xced\xb9?'
p90
tp91
Rp92
sg39
g46
(g50
S'#\xc2C\xd3\xd9\xa3\xcc?'
p93
tp94
Rp95
ssS'paralog'
p96
(lp97
S'YBR117C'
p98
aS'YPR074C'
p99
asS'alignment_file'
p100
S'../MafftAlignment/YBR117C_YPR074C/YBR117C_YPR074C_input.fasta'
p101
sS'x_clock'
p102
NsS'x'
p103
cnumpy.core.multiarray
_reconstruct
p104
(cnumpy
ndarray
p105
(I0
tp106
S'b'
p107
tp108
Rp109
(I1
(I19
tp110
g50
I00
S'\xe1+\xd3\x94\xfc>\xe8\xbf\xd3om\x86@\xc6\xe0\xbf\xa5x\x8e.cq\xeb\xbf\x9a5x9&\x9e\xf0?\x88\xe4w\x80\xf9\xfd\x03\xc0\x18\xe3\xc7\xdb\xa8\xb2\x10\xc0C]m\xa4\t\x9a\xee\xbf\x00%\xb7\x032\x86\x01\xc06,\xc3d\xeb\x11\xe2\xbf7\xdbSJV9\xa5\xbf\x84\xae\x83i\xb6H\xc6?\xd3p\xbao\x9f8\x02\xc0\xdb4\xc7\xde\xc1L\xfb\xbf\xf7\xee\xb0dB|\x02\xc0\x0bm\xe4\r\xfc\x01\xfb\xbf\x06;k\x06\xc2\xff\x05\xc0y"\xb9\x9c\xa1\xf4\xf7\xbf\xac\x99^\xe5\x7f\xdf\xfe\xbf\xcez\xfb.;\xc9\x01\xc0'
p111
tp112
bsS'Model'
p113
S'MG94'
p114
sS'clock'
p115
I00
s.