(dp0
S'Force'
p1
NsS'ExpectedGeneconv'
p2
(dp3
(S'N1'
p4
S'N2'
p5
tp6
(lp7
F9.382929558439425
aF6.781930254981237
as(S'N5'
p8
S'cerevisiae'
p9
tp10
(lp11
F4.442135296841669
aF4.302134088751984
as(g5
S'N3'
p12
tp13
(lp14
F1.7952535007692378
aF1.3632514165098502
as(S'N4'
p15
g8
tp16
(lp17
F2.1524046477276433
aF1.8869687470527232
as(g4
S'castellii'
p18
tp19
(lp20
F5.609387990612659
aF3.858005309570795
as(g5
S'bayanus'
p21
tp22
(lp23
F2.226425355974928
aF0.8791984744977092
as(S'N0'
p24
g4
tp25
(lp26
F0.0750763621157184
aF0.052331865972189605
as(g12
S'kudriavzevii'
p27
tp28
(lp29
F6.049778977941739
aF3.327658439197541
as(g8
S'paradoxus'
p30
tp31
(lp32
F1.3548341568454485
aF0.9806463908824612
as(g24
S'kluyveri'
p33
tp34
(lp35
F0.0
aF0.0
as(g12
g15
tp36
(lp37
F2.2759884894533533
aF1.3000542016956034
as(g15
S'mikatae'
p38
tp39
(lp40
F3.4150455863805464
aF2.2971339728111224
assS'ExpectedDwellTime'
p41
(dp42
g6
F53.3764713017458
sg10
F80.8664283393906
sg13
F81.17831468492457
sg16
F84.21323596189703
sg19
F51.17785772990461
sg22
F81.88955561006662
sg25
F6.058134341528709
sg28
F88.40280711849299
sg31
F84.28877533604954
sg34
F0.0
sg36
F83.17908826315498
sg39
F87.9599799977751
ssS'newicktree'
p43
S'../PairsAlignemt/YeastTree.newick'
p44
sS'll'
p45
cnumpy.core.multiarray
scalar
p46
(cnumpy
dtype
p47
(S'f8'
p48
I0
I1
tp49
Rp50
(I3
S'<'
p51
NNNI-1
I-1
I0
tp52
bS'\x08C\x11T\xd9+\x9b\xc0'
p53
tp54
Rp55
sS'edge_list'
p56
(lp57
g25
ag34
ag6
ag19
ag13
ag22
ag36
ag28
ag16
ag39
ag10
ag31
asS'edge_to_blen'
p58
(dp59
g6
g46
(g50
S'U\x8c\xd9\x12\xd4\xd7\xca?'
p60
tp61
Rp62
sg10
g46
(g50
S'UL\xee,h\xa1\xad?'
p63
tp64
Rp65
sg13
g46
(g50
S'\x81\x1c\xe2^\x01\xbe\x99?'
p66
tp67
Rp68
sg16
g46
(g50
S':\xb8/2\xb7\x03\x9a?'
p69
tp70
Rp71
sg28
g46
(g50
S'\x8da\xc7\x91\x8d\xf8\xb5?'
p72
tp73
Rp74
sg22
g46
(g50
S'\rk\x7f\xbery\x9b?'
p75
tp76
Rp77
sg25
g46
(g50
S'\x9e\xae)\xca_2\x93?'
p78
tp79
Rp80
sg19
g46
(g50
S';w/\x1cI\x1c\xc6?'
p81
tp82
Rp83
sg31
g46
(g50
S'r=\x98I\x0f\x92\x96?'
p84
tp85
Rp86
sg34
g46
(g50
S'b\xdd\xcdl[\x9f\xcb?'
p87
tp88
Rp89
sg36
g46
(g50
S'z\xfc\xc3\nM%\xa0?'
p90
tp91
Rp92
sg39
g46
(g50
S'\xa2c\xdc\x94\xf3\xee\xac?'
p93
tp94
Rp95
ssS'paralog'
p96
(lp97
S'YDR418W'
p98
aS'YEL054C'
p99
asS'alignment_file'
p100
S'../MafftAlignment/YDR418W_YEL054C/YDR418W_YEL054C_input.fasta'
p101
sS'x_clock'
p102
NsS'x'
p103
cnumpy.core.multiarray
_reconstruct
p104
(cnumpy
ndarray
p105
(I0
tp106
S'b'
p107
tp108
Rp109
(I1
(I19
tp110
g50
I00
S"*$\xc9\xcft$\xe7\xbfB\xech\xe3\xb9'\xdf\xbf\xaa\x17\xf0\x94\xf9\xbf\xec\xbfO\x10\x90v\xa2\x04\x01@\xb5\xb6\x9e\x04q\x99\x04\xc0\x87\x834hu]\xe0?\x11>\xe5\xa7\xdaC\xc3?1\xb4\xac\x95W\xd0\x0f\xc0PNns\xce\x88\xf8\xbf\xf4_S\x01\x0b\xfe\xf8\xbfyj\ny|\x18\xfc\xbf`\x8f\xc4\xdczw\r\xc0'\xa9\xb4\xb1\x1b\xf2\x0c\xc0e\xc98\xd5B\xa7\x0b\xc0F\x98\x80;\xc7\xa4\x03\xc0\xad+n\xfa\xeda\r\xc0s\\\x94N\x93\xfc\x06\xc0\xc1,Ok\xd1\xcb\x06\xc0\\\xde\xfc\x82\xc3\x84\x0e\xc0"
p111
tp112
bsS'Model'
p113
S'MG94'
p114
sS'clock'
p115
I00
s.