(dp0
S'Force'
p1
NsS'ExpectedGeneconv'
p2
(dp3
(S'N1'
p4
S'N2'
p5
tp6
(lp7
F6.623647331274638
aF5.530574250212389
as(S'N5'
p8
S'cerevisiae'
p9
tp10
(lp11
F5.224714097096589
aF2.5617115830874218
as(g5
S'N3'
p12
tp13
(lp14
F0.0006395221243180157
aF0.0010608522340419583
as(S'N4'
p15
g8
tp16
(lp17
F0.7132422936340471
aF0.6887640721430283
as(g4
S'castellii'
p18
tp19
(lp20
F10.39106756028991
aF9.46857131975133
as(g5
S'bayanus'
p21
tp22
(lp23
F5.505293928161142
aF5.399950623828926
as(S'N0'
p24
g4
tp25
(lp26
F0.4302195074080979
aF0.3874305331609885
as(g12
S'kudriavzevii'
p27
tp28
(lp29
F6.413620115327376
aF7.639730194386243
as(g8
S'paradoxus'
p30
tp31
(lp32
F0.4408701059327764
aF2.637973797743588
as(g24
S'kluyveri'
p33
tp34
(lp35
F0.0
aF0.0
as(g12
g15
tp36
(lp37
F4.251186075050873e-06
aF5.742454992305686e-06
as(g15
S'mikatae'
p38
tp39
(lp40
F7.7068235814250965
aF4.814446512334815
assS'ExpectedDwellTime'
p41
(dp42
g6
F34.99168982284844
sg10
F47.62648629956796
sg13
F50.167106162482526
sg16
F50.52866479512493
sg19
F32.351774271965205
sg22
F50.75448601314158
sg25
F8.520248858365699
sg28
F51.197524646198644
sg31
F51.213315763149716
sg34
F0.0
sg36
F50.16894417542807
sg39
F53.38271396393626
ssS'newicktree'
p43
S'../PairsAlignemt/YeastTree.newick'
p44
sS'll'
p45
cnumpy.core.multiarray
scalar
p46
(cnumpy
dtype
p47
(S'f8'
p48
I0
I1
tp49
Rp50
(I3
S'<'
p51
NNNI-1
I-1
I0
tp52
bS'Y\x86#\xe3\xe0\x84\x95\xc0'
p53
tp54
Rp55
sS'edge_list'
p56
(lp57
g25
ag34
ag6
ag19
ag13
ag22
ag36
ag28
ag16
ag39
ag10
ag31
asS'edge_to_blen'
p58
(dp59
g25
g46
(g50
S'h\x89\xee\xe6h\xae\xa0?'
p60
tp61
Rp62
sg10
g46
(g50
S'\x8bc\x820yK\xa3?'
p63
tp64
Rp65
sg13
g46
(g50
S'f\xd2\xba{\xbc\xb1\xea>'
p66
tp67
Rp68
sg16
g46
(g50
S'\xf9\xd6`\x03I\x99\x80?'
p69
tp70
Rp71
sg19
g46
(g50
S')\xc7\xa5\xa3\x8f\xc7\xc3?'
p72
tp73
Rp74
sg22
g46
(g50
S'D\xb3g,$O\xad?'
p75
tp76
Rp77
sg6
g46
(g50
S'\x04\xce\xe9\xd5^\x95\xbd?'
p78
tp79
Rp80
sg28
g46
(g50
S'M3\x93>\x0fj\xb4?'
p81
tp82
Rp83
sg31
g46
(g50
S'\xfe\x8c)h_\xd3\x93?'
p84
tp85
Rp86
sg39
g46
(g50
S'\x1c\x8e\xd6\x1b\xd9\x18\xb3?'
p87
tp88
Rp89
sg36
g46
(g50
S'\xbc\x03\xcc\xdb\x93\xf6\x85>'
p90
tp91
Rp92
sg34
g46
(g50
S'\xdaY\xf0M\x9b\xb6\xca?'
p93
tp94
Rp95
ssS'paralog'
p96
(lp97
S'YML026C'
p98
aS'YDR450W'
p99
asS'alignment_file'
p100
S'../MafftAlignment/YML026C_YDR450W/YML026C_YDR450W_input.fasta'
p101
sS'x_clock'
p102
NsS'x'
p103
cnumpy.core.multiarray
_reconstruct
p104
(cnumpy
ndarray
p105
(I0
tp106
S'b'
p107
tp108
Rp109
(I1
(I19
tp110
g50
I00
S'W\x94\x0c\x82_\x17\xe6\xbfqbt\xa9\xc5\xac\xe0\xbf\xad%\x8d\xd4\xb8\xb2\xeb\xbf\xcc\xea\xd6KsN\xfb?\x19C\t\x06\x88\xda\x04\xc0T[g\xf2\xb7}\xf5?\xec,0-\xa0\xd0\xf3?\xd4[\x04\x83md\x0b\xc0ST\xc1\x9f\xe4\x11\xf9\xbf:\xf9\xb4D\x81C\x01\xc0\xb0\xbd\xa4c\xcc\xe0\xfd\xbf"\xe4\xc1\x94\x14\x8b&\xc03"\xf1\x82&\xe2\x06\xc0z\xc7\x95hO@/\xc0\x8d[\xf6\xf7E;\x04\xc0\x0c\xf6\x82z\xdbB\x13\xc0}\xaf\xcdl\xe0\xc3\x04\xc0L\x96Y\xf3W:\n\xc0\x96\x0f\xa3\xe0R\x8e\x0f\xc0'
p111
tp112
bsS'Model'
p113
S'MG94'
p114
sS'clock'
p115
I00
s.