(dp0
S'Force'
p1
NsS'ExpectedGeneconv'
p2
(dp3
(S'N1'
p4
S'N2'
p5
tp6
(lp7
F2.295947597819875
aF13.141281036187804
as(S'N5'
p8
S'cerevisiae'
p9
tp10
(lp11
F0.7818907112840845
aF10.85568689381236
as(g5
S'N3'
p12
tp13
(lp14
F1.58447879055691
aF5.533839620068598
as(S'N4'
p15
g8
tp16
(lp17
F0.040728562662472614
aF1.3137951647699555
as(g4
S'castellii'
p18
tp19
(lp20
F3.9908018550829967
aF12.835298691097224
as(g5
S'bayanus'
p21
tp22
(lp23
F0.609322407154463
aF5.659911032796241
as(S'N0'
p24
g4
tp25
(lp26
F2.2782826739427753
aF10.011287376957814
as(g12
S'kudriavzevii'
p27
tp28
(lp29
F0.38367877566985453
aF6.287506766528948
as(g8
S'paradoxus'
p30
tp31
(lp32
F1.6269128774842352
aF1.1158493620597918
as(g24
S'kluyveri'
p33
tp34
(lp35
F0.0
aF0.0
as(g12
g15
tp36
(lp37
F0.7470258086494477
aF3.19977614008987
as(g15
S'mikatae'
p38
tp39
(lp40
F2.8214677408556463
aF5.46783272371204
assS'ExpectedDwellTime'
p41
(dp42
g6
F59.32342608290461
sg10
F60.00323128058855
sg13
F62.67772670125119
sg16
F66.64062256988144
sg19
F61.494453446373186
sg22
F62.027415274611755
sg25
F31.283458085230116
sg28
F63.14606092238804
sg31
F71.22867384098645
sg34
F0.0
sg36
F64.9875102978096
sg39
F66.31180154407095
ssS'newicktree'
p43
S'../PairsAlignemt/YeastTree.newick'
p44
sS'll'
p45
cnumpy.core.multiarray
scalar
p46
(cnumpy
dtype
p47
(S'f8'
p48
I0
I1
tp49
Rp50
(I3
S'<'
p51
NNNI-1
I-1
I0
tp52
bS'\x10\xe2\xc0[\x83h\x94\xc0'
p53
tp54
Rp55
sS'edge_list'
p56
(lp57
g25
ag34
ag6
ag19
ag13
ag22
ag36
ag28
ag16
ag39
ag10
ag31
asS'edge_to_blen'
p58
(dp59
g6
g46
(g50
S'8\xd8\xfa\x1a7\x1b\xa0?'
p60
tp61
Rp62
sg10
g46
(g50
S'\x11\x9e\xb48\x152\x90?'
p63
tp64
Rp65
sg13
g46
(g50
S'ovy\xde\xb5\x1a\x8c?'
p66
tp67
Rp68
sg16
g46
(g50
S'\xbd\xb5\x14\xa2+\xdei?'
p69
tp70
Rp71
sg28
g46
(g50
S'\x86U\x12\xca\x9dx\x89?'
p72
tp73
Rp74
sg22
g46
(g50
S'\xe7\xb9_v\xfd\xc3\x86?'
p75
tp76
Rp77
sg25
g46
(g50
S'\xd0\xd8\x1dS\x96r\xad?'
p78
tp79
Rp80
sg19
g46
(g50
S'\xe61q\xe3\xc8\x0b\xa3?'
p81
tp82
Rp83
sg31
g46
(g50
S'\xb0\x14\xd6}_&\x82?'
p84
tp85
Rp86
sg39
g46
(g50
S't\\\xbcS\xcb\xd1\x8e?'
p87
tp88
Rp89
sg36
g46
(g50
S'\xf0v\xe6\xe6\x81\xae\x81?'
p90
tp91
Rp92
sg34
g46
(g50
S'\xa9M\x99(\xbf\xb3t>'
p93
tp94
Rp95
ssS'paralog'
p96
(lp97
S'YER131W'
p98
aS'YGL189C'
p99
asS'alignment_file'
p100
S'../MafftAlignment/YER131W_YGL189C/YER131W_YGL189C_input.fasta'
p101
sS'x_clock'
p102
NsS'x'
p103
cnumpy.core.multiarray
_reconstruct
p104
(cnumpy
ndarray
p105
(I0
tp106
S'b'
p107
tp108
Rp109
(I1
(I18
tp110
g50
I00
S"\x07D\x1f\xa4#\x8b\xe6\xbf\x1d\x01\xeb\xea\x10\xa2\xdd\xbfX\xd7.\r\xb5\x00\xe5\xbf\xbc\xbe\xd8V\x99\xe0\x01@\xf4 \x8a!\xbeN\xf1?\xb4\x93\xe0\x00\x02\x7f\x04@!\xd4^\x88\x7f\xd8\x06\xc0\x04\x17\xb5\x04\xbd`0\xc0\x1f\xa3\xda\xb6C\xac\x0b\xc0zK+\xfc\xebT\n\xc0\xbaun\xad\x9f'\x11\xc0\xa8\xf1\xe6\x93Z\xff\x11\xc0z|\xd6\x02$\x02\x13\xc0,\x7f\xb2\xaa\\\x8c\x11\xc0T|\xd4+\x1a\x08\x17\xc0\x12\xd7\xfc\xb7/\xc9\x10\xc0\x08\xd8 a@\x96\x10\xc0\xae\xf3\xeb\x8b`\xe7\x12\xc0"
p111
tp112
bsS'Model'
p113
S'HKY'
p114
sS'clock'
p115
I00
s.