(dp0
S'Force'
p1
NsS'ExpectedGeneconv'
p2
(dp3
(S'N1'
p4
S'N2'
p5
tp6
(lp7
F16.748543091038094
aF19.240702681833476
as(S'N5'
p8
S'cerevisiae'
p9
tp10
(lp11
F20.008981324895664
aF10.091474077454233
as(g5
S'N3'
p12
tp13
(lp14
F13.56951560275103
aF11.342517316798654
as(S'N4'
p15
g8
tp16
(lp17
F12.055822527814803
aF10.307736739680722
as(g4
S'castellii'
p18
tp19
(lp20
F92.56977116693513
aF55.752834739053505
as(g5
S'bayanus'
p21
tp22
(lp23
F20.676233700266714
aF15.062749536223793
as(S'N0'
p24
g4
tp25
(lp26
F49.253508674120326
aF33.10065343945588
as(g12
S'kudriavzevii'
p27
tp28
(lp29
F31.545294834144734
aF25.967171494377368
as(g8
S'paradoxus'
p30
tp31
(lp32
F14.986038298511824
aF10.179667217997164
as(g24
S'kluyveri'
p33
tp34
(lp35
F0.0
aF0.0
as(g12
g15
tp36
(lp37
F16.097720688354343
aF7.480538715851726
as(g15
S'mikatae'
p38
tp39
(lp40
F34.53462633408149
aF17.914676999907154
assS'ExpectedDwellTime'
p41
(dp42
g6
F375.59388039646797
sg10
F390.2264405517527
sg13
F397.1552398592034
sg16
F400.29011286287493
sg19
F391.0042969674242
sg22
F395.4002726949577
sg25
F212.0900009648834
sg28
F392.3092053606165
sg31
F404.9373391858592
sg34
F0.0
sg36
F403.3846033363196
sg39
F403.63716994450084
ssS'newicktree'
p43
S'../PairsAlignemt/YeastTree.newick'
p44
sS'll'
p45
cnumpy.core.multiarray
scalar
p46
(cnumpy
dtype
p47
(S'f8'
p48
I0
I1
tp49
Rp50
(I3
S'<'
p51
NNNI-1
I-1
I0
tp52
bS'\xed\xd4\x88\xae\x03\xfc\xb9\xc0'
p53
tp54
Rp55
sS'edge_list'
p56
(lp57
g25
ag34
ag6
ag19
ag13
ag22
ag36
ag28
ag16
ag39
ag10
ag31
asS'edge_to_blen'
p58
(dp59
g25
g46
(g50
S'\xa8\x9d\xe3\xdaH\xcf\xc0?'
p60
tp61
Rp62
sg10
g46
(g50
S'?p\xa8u\xbd\x1e\x97?'
p63
tp64
Rp65
sg13
g46
(g50
S'$\xa9%\xd7\x86\xa1\x96?'
p66
tp67
Rp68
sg16
g46
(g50
S'\xe0\x04\xef\x97h\xcc\x91?'
p69
tp70
Rp71
sg19
g46
(g50
S'Y\xf7\xc4O#h\xbe?'
p72
tp73
Rp74
sg22
g46
(g50
S'3\xfb\xafM\xb2k\x9d?'
p75
tp76
Rp77
sg6
g46
(g50
S'\xc96G~\x91\x07\xa0?'
p78
tp79
Rp80
sg28
g46
(g50
S'O\xd2@&>E\xa5?'
p81
tp82
Rp83
sg31
g46
(g50
S'\xba\xc5jV\xe0\xc3\x95?'
p84
tp85
Rp86
sg39
g46
(g50
S'l\xa7k}n\xb8\xa5?'
p87
tp88
Rp89
sg36
g46
(g50
S'[\x87\xf7\xb9\xe3A\x92?'
p90
tp91
Rp92
sg34
g46
(g50
S'a\xe5\t\x82>1\xa4>'
p93
tp94
Rp95
ssS'paralog'
p96
(lp97
S'YDR502C'
p98
aS'YLR180W'
p99
asS'alignment_file'
p100
S'../MafftAlignment/YDR502C_YLR180W/YDR502C_YLR180W_input.fasta'
p101
sS'x_clock'
p102
NsS'x'
p103
cnumpy.core.multiarray
_reconstruct
p104
(cnumpy
ndarray
p105
(I0
tp106
S'b'
p107
tp108
Rp109
(I1
(I18
tp110
g50
I00
S')sH`yB\xe9\xbfv\x1aZ\xbbJ\xea\xe2\xbf\x88Z\xc5\xd9\tm\xea\xbfb\xde\xff\x08\xdaj\xfc?\x95l\x82\x9c\xd73\xf5??f\xbd+\xf5\xaf\xed?\x90\x11\x80Z\x97=\x00\xc055\x0co\x91\xa5,\xc0\xe0fk\xe4\x0b\xb6\x0b\xc0\x10\x8e\x05\xa3I\x0b\x01\xc0\x19\xfd+\xf2I\x7f\x0e\xc0\xd1X\n\xbb\xefe\x0c\xc0\xc7\xde K\x8c\x1b\x10\xc0[f\xe9u\xb2r\t\xc0\x87j\xf5\xa9\x9d5\x10\xc0\xb5\t\xe1U\xd3G\t\xc0\xb8\xf6ej\x7fS\x0e\xc0k\xd3\xe1\x14.\xcf\x0e\xc0'
p111
tp112
bsS'Model'
p113
S'HKY'
p114
sS'clock'
p115
I00
s.