(dp0
S'Force'
p1
NsS'ExpectedGeneconv'
p2
(dp3
(S'N1'
p4
S'N2'
p5
tp6
(lp7
F15.297927798638499
aF14.628450863116932
as(S'N5'
p8
S'cerevisiae'
p9
tp10
(lp11
F3.835531482252993
aF3.402665748120946
as(g5
S'N3'
p12
tp13
(lp14
F2.9512933871711815
aF3.452250737251528
as(S'N4'
p15
g8
tp16
(lp17
F3.915594771715818
aF0.7258443651514609
as(g4
S'castellii'
p18
tp19
(lp20
F22.554650960718334
aF22.108915137144173
as(g5
S'bayanus'
p21
tp22
(lp23
F7.533349016219451
aF10.822243388905548
as(S'N0'
p24
g4
tp25
(lp26
F17.344747093622694
aF16.189967511495333
as(g12
S'kudriavzevii'
p27
tp28
(lp29
F7.40136404103773
aF5.503872260476061
as(g8
S'paradoxus'
p30
tp31
(lp32
F0.5886818755883296
aF1.1418494278697233
as(g24
S'kluyveri'
p33
tp34
(lp35
F0.0
aF0.0
as(g12
g15
tp36
(lp37
F0.6549951877754125
aF1.3567478799412969
as(g15
S'mikatae'
p38
tp39
(lp40
F5.567370166214333
aF2.4714693797948413
assS'ExpectedDwellTime'
p41
(dp42
g6
F134.99799148573112
sg10
F150.3358187109274
sg13
F146.17977861117018
sg16
F144.66090258982763
sg19
F125.89943688864926
sg22
F147.06524375376222
sg25
F73.74650421017928
sg28
F155.25060972115116
sg31
F145.78185339934194
sg34
F0.0
sg36
F144.51377645861385
sg39
F155.41302401643873
ssS'newicktree'
p43
S'../PairsAlignemt/YeastTree.newick'
p44
sS'll'
p45
cnumpy.core.multiarray
scalar
p46
(cnumpy
dtype
p47
(S'f8'
p48
I0
I1
tp49
Rp50
(I3
S'<'
p51
NNNI-1
I-1
I0
tp52
bS'\x92\x9e\xac\xb7\xcc\x15\xa3\xc0'
p53
tp54
Rp55
sS'edge_list'
p56
(lp57
g25
ag34
ag6
ag19
ag13
ag22
ag36
ag28
ag16
ag39
ag10
ag31
asS'edge_to_blen'
p58
(dp59
g25
g46
(g50
S'\xf6`8\xf8\xfe\xd4\xb6?'
p60
tp61
Rp62
sg10
g46
(g50
S'\xf2\xbf\x074\xb8\x1c\x87?'
p63
tp64
Rp65
sg13
g46
(g50
S'\xa3n\x1f\x11\n\x1c}?'
p66
tp67
Rp68
sg16
g46
(g50
S'\x1f\xa0J\xf7\x86\x00{?'
p69
tp70
Rp71
sg28
g46
(g50
S'\xc2f\xe1\xfaUI\x96?'
p72
tp73
Rp74
sg22
g46
(g50
S'\x91L\x1d\xa7;\xb8\x95?'
p75
tp76
Rp77
sg6
g46
(g50
S'\xbb\xe6$@\xd6h\xa6?'
p78
tp79
Rp80
sg19
g46
(g50
S'\xb3\xac\xd2\x06m\xc5\xac?'
p81
tp82
Rp83
sg31
g46
(g50
S'\x8f\xfc+>1!f?'
p84
tp85
Rp86
sg39
g46
(g50
S'\xcf\xcc\x8d\xa5s[\x91?'
p87
tp88
Rp89
sg36
g46
(g50
S'rf\x9d\x0b\x9a\x9aa?'
p90
tp91
Rp92
sg34
g46
(g50
S'\xb5\x10ZQ\x15:\xc6>'
p93
tp94
Rp95
ssS'paralog'
p96
(lp97
S'YNL069C'
p98
aS'YIL133C'
p99
asS'alignment_file'
p100
S'../MafftAlignment/YNL069C_YIL133C/YNL069C_YIL133C_input.fasta'
p101
sS'x_clock'
p102
NsS'x'
p103
cnumpy.core.multiarray
_reconstruct
p104
(cnumpy
ndarray
p105
(I0
tp106
S'b'
p107
tp108
Rp109
(I1
(I18
tp110
g50
I00
S"\\\xb9-4\xc3\xe5\xe7\xbf\xfe\xed\x10{\xc5\xce\xe1\xbf\x0c\xc8\xab\x0e\xe7\xc1\xea\xbfRN.tW\xd9\xff?o\x013\x02\x1c\xad\xfa?N\x8f\xb0H\xe7\x92\xf9?\xbd\xf0\xd9G\x0bV\x03\xc05\xf4b[\xa2\xae)\xc0\xf9\x0f\xf0\xa1\xdc\x07\t\xc0\xc6\x0b\xd9\xe4\x16\x08\x07\xc0\x8e5\xfc\xe1k\xc9\x13\xc0\x15\x80\x18\xcfv\xd3\x0e\xc0\xf9\xe2'\x1a8\x92\x18\xc0H\xcf\x130\xb4\x9e\x0e\xc0\x9d\xd4\xf1\xa3`\x16\x14\xc0H\xc2\xcfRRO\x10\xc0\xb1r\x87\x96\xe1\xef\x11\xc0\x16\xb2\x987\xee\xa7\x17\xc0"
p111
tp112
bsS'Model'
p113
S'HKY'
p114
sS'clock'
p115
I00
s.