(dp0
S'Force'
p1
NsS'ExpectedGeneconv'
p2
(dp3
(S'N1'
p4
S'N2'
p5
tp6
(lp7
F9.264948859845736
aF1.953817227307467
as(S'N5'
p8
S'cerevisiae'
p9
tp10
(lp11
F8.503343508446498
aF2.1455313229566633
as(g5
S'N3'
p12
tp13
(lp14
F1.0166629159069377e-05
aF2.695014293127466e-06
as(S'N4'
p15
g8
tp16
(lp17
F1.719989989242239
aF0.29956225346656296
as(g4
S'castellii'
p18
tp19
(lp20
F22.39850074739442
aF4.723443485061894
as(g5
S'bayanus'
p21
tp22
(lp23
F10.162210614996853
aF1.8326345349546087
as(S'N0'
p24
g4
tp25
(lp26
F1.1830629970562562e-08
aF2.494878379009808e-09
as(g12
S'kudriavzevii'
p27
tp28
(lp29
F9.953994104065513
aF1.6280262746665193
as(g8
S'paradoxus'
p30
tp31
(lp32
F3.340019616520232
aF0.5214331518425699
as(g24
S'kluyveri'
p33
tp34
(lp35
F0.0
aF0.0
as(g12
g15
tp36
(lp37
F2.8548665825544852e-06
aF1.3489172588151846e-07
as(g15
S'mikatae'
p38
tp39
(lp40
F11.471343285321598
aF3.0941192226862535
assS'ExpectedDwellTime'
p41
(dp42
g6
F16.124163952492903
sg10
F23.643903966342737
sg13
F24.435950598417435
sg16
F23.598849083010187
sg19
F25.583467193075865
sg22
F21.925907920271108
sg25
F0.0007217987327217802
sg28
F37.36940377740878
sg31
F19.231300009691665
sg34
F0.0
sg36
F24.435951936339283
sg39
F24.515768403613592
ssS'newicktree'
p43
S'../PairsAlignemt/YeastTree.newick'
p44
sS'll'
p45
cnumpy.core.multiarray
scalar
p46
(cnumpy
dtype
p47
(S'f8'
p48
I0
I1
tp49
Rp50
(I3
S'<'
p51
NNNI-1
I-1
I0
tp52
bS'\x1cz\x06\xec|\x84\x93\xc0'
p53
tp54
Rp55
sS'edge_list'
p56
(lp57
g25
ag34
ag6
ag19
ag13
ag22
ag36
ag28
ag16
ag39
ag10
ag31
asS'edge_to_blen'
p58
(dp59
g25
g46
(g50
S'Vo\x96\xca\xd4}\xc8>'
p60
tp61
Rp62
sg10
g46
(g50
S'\x040\xc4\r}\xae\xab?'
p63
tp64
Rp65
sg13
g46
(g50
S'\xf3L\x85 \xb1\xbc}>'
p66
tp67
Rp68
sg16
g46
(g50
S'\x9e\xb2\x17\xc0\xf2U\x7f?'
p69
tp70
Rp71
sg19
g46
(g50
S'_\xf3Ka\x9dv\xc9?'
p72
tp73
Rp74
sg22
g46
(g50
S' \xf7\xeb\x0b,\xd7\xa8?'
p75
tp76
Rp77
sg6
g46
(g50
S"@'\xce}\x16\x7f\xb9?"
p78
tp79
Rp80
sg28
g46
(g50
S'\x9e\x96\x8f\xca\xd6y\xb2?'
p81
tp82
Rp83
sg31
g46
(g50
S'\xa3nI\r\r\x93\x89?'
p84
tp85
Rp86
sg39
g46
(g50
S'\xa5&\x1c\x8b\xa0\x18\xaf?'
p87
tp88
Rp89
sg36
g46
(g50
S'\x87\x92!\xf6i\nT>'
p90
tp91
Rp92
sg34
g46
(g50
S'\xba(\xc8_\x7f\x1d\xcb?'
p93
tp94
Rp95
ssS'paralog'
p96
(lp97
S'YER074W'
p98
aS'YIL069C'
p99
asS'alignment_file'
p100
S'../MafftAlignment/YER074W_YIL069C/YER074W_YIL069C_input.fasta'
p101
sS'x_clock'
p102
NsS'x'
p103
cnumpy.core.multiarray
_reconstruct
p104
(cnumpy
ndarray
p105
(I0
tp106
S'b'
p107
tp108
Rp109
(I1
(I19
tp110
g50
I00
S"(6\xf8K\x9a\xbf\xe5\xbf\xe7\x88\x88\xb0\x14@\xe0\xbfJ\xfe\xa3\r8\x10\xeb\xbfx_\x1b,\x99\xa8\x01@\xc4\xd6\x8d\x9b\xff\x12\x00\xc0\xe7\x94\x12j\xb2?\x04@\xfdEDXT0\xef?\xbd\xaa\xa6'\xf5|)\xc0\x8d\x84r\xae\xb9\xd4\xf8\xbfh\xf9\xa2\x01\xffs\x02\xc0I$\xae\x99.\xd6\xf9\xbf\x17\n\xde\xa4\x06\x040\xc0\xef\xef\x8c\x1c\xf04\x08\xc06\xc8\xf5U\xf1\xcb1\xc0\x11,hJ\x98\x07\x05\xc0\xa8\x92'\x8d\xf5}\x13\xc0\xd4\xbcq\xff\xefh\x06\xc0\xbfz\x93\x0b(W\x07\xc0\x16\xab\xec\x148\x88\x11\xc0"
p111
tp112
bsS'Model'
p113
S'MG94'
p114
sS'clock'
p115
I00
s.