(dp0
S'Force'
p1
NsS'ExpectedGeneconv'
p2
(dp3
(S'N1'
p4
S'N2'
p5
tp6
(lp7
F0.9121239527645635
aF11.812673162514939
as(S'N5'
p8
S'cerevisiae'
p9
tp10
(lp11
F1.2661124694759143
aF30.238919405045635
as(g5
S'N3'
p12
tp13
(lp14
F0.8249013630628991
aF6.733847259520177
as(S'N4'
p15
g8
tp16
(lp17
F0.04202392173296082
aF3.465417020570739
as(g4
S'castellii'
p18
tp19
(lp20
F5.0241725389820715
aF58.58391845887574
as(g5
S'bayanus'
p21
tp22
(lp23
F2.510404258452775
aF25.233535304306464
as(S'N0'
p24
g4
tp25
(lp26
F2.8662936561332018
aF36.13246870050694
as(g12
S'kudriavzevii'
p27
tp28
(lp29
F1.8148301309688222
aF24.667556713081105
as(g8
S'paradoxus'
p30
tp31
(lp32
F0.8119214510410135
aF12.458577474001256
as(g24
S'kluyveri'
p33
tp34
(lp35
F0.0
aF0.0
as(g12
g15
tp36
(lp37
F1.063151714070391
aF6.756350450116125
as(g15
S'mikatae'
p38
tp39
(lp40
F1.1884510643112467
aF14.89660016462297
assS'ExpectedDwellTime'
p41
(dp42
g6
F85.28562942639496
sg10
F73.65144805536883
sg13
F91.60405091431693
sg16
F96.02084040441632
sg19
F83.18390328287867
sg22
F77.79776299183
sg25
F48.99749327191447
sg28
F88.89802524752696
sg31
F99.92638438098237
sg34
F0.0
sg36
F93.43057762358468
sg39
F99.53541940328796
ssS'newicktree'
p43
S'../PairsAlignemt/YeastTree.newick'
p44
sS'll'
p45
cnumpy.core.multiarray
scalar
p46
(cnumpy
dtype
p47
(S'f8'
p48
I0
I1
tp49
Rp50
(I3
S'<'
p51
NNNI-1
I-1
I0
tp52
bS'\xd3\xbba*\xb5[\xa1\xc0'
p53
tp54
Rp55
sS'edge_list'
p56
(lp57
g25
ag34
ag6
ag19
ag13
ag22
ag36
ag28
ag16
ag39
ag10
ag31
asS'edge_to_blen'
p58
(dp59
g25
g46
(g50
S'\x9a\xe5\x877\x9f\xd1\xb2?'
p60
tp61
Rp62
sg10
g46
(g50
S'\x98g\xa1<Q{\x97?'
p63
tp64
Rp65
sg13
g46
(g50
S'EPA_\xd0\xb3\x80?'
p66
tp67
Rp68
sg16
g46
(g50
S';\x943\x01\x96\x12l?'
p69
tp70
Rp71
sg19
g46
(g50
S'\xb5]V\xbb\x8e\xe2\xb0?'
p72
tp73
Rp74
sg22
g46
(g50
S'\xbe\x81V\x97\xe5\xbf\x97?'
p75
tp76
Rp77
sg6
g46
(g50
S'\xa2Z\xefl\xbe"\x8f?'
p78
tp79
Rp80
sg28
g46
(g50
S'\xba\xe7\x1bza\xa6\x9a?'
p81
tp82
Rp83
sg31
g46
(g50
S'\xd4\x84\xda*\x91\xf9\x8e?'
p84
tp85
Rp86
sg39
g46
(g50
S'\xe1\x0b\xc1\xfc\xb0\xf8\x91?'
p87
tp88
Rp89
sg36
g46
(g50
S'\x15\xddw\xf8\x9cP\x81?'
p90
tp91
Rp92
sg34
g46
(g50
S'\xde\x96\x80\xe7\xe5\x8c\xdc>'
p93
tp94
Rp95
ssS'paralog'
p96
(lp97
S'YNL301C'
p98
aS'YOL120C'
p99
asS'alignment_file'
p100
S'../MafftAlignment/YNL301C_YOL120C/YNL301C_YOL120C_input.fasta'
p101
sS'x_clock'
p102
NsS'x'
p103
cnumpy.core.multiarray
_reconstruct
p104
(cnumpy
ndarray
p105
(I0
tp106
S'b'
p107
tp108
Rp109
(I1
(I18
tp110
g50
I00
S"\xe3\xac\x16\xf9\xb1\xb8\xe7\xbf\xee\xac~q\x00Y\xe2\xbf\x05y\r\xde|m\xe9\xbfS)\xd0\xc3\x0e\x8f\xff?Y\xc7h+\x84V\xe1?\xe9\xc5s\x0e\x9d\x9b\x08@\x03\xa6F\x05\xef\xe1\x04\xc0.\xf3\xa3\xfb\x8d\xcb'\xc0\xa5\x97\x9d\xd0\xbb\xbe\x10\xc0aY\x88<\x01\xc0\x05\xc0\xe4!\r\xf9{<\x13\xc0\x15\xb7>\xe0z\x1c\x0e\xc0\xd7>E\xe8\x9a\x17\x13\xc0\x12@x\x02\x820\r\xc0x\x058\x9dX\xb4\x16\xc0\xf1)\xd8=\xb6+\x10\xc0RV<M\xb63\x0e\xc0&@\xf8\x8e\t\xc4\x10\xc0"
p111
tp112
bsS'Model'
p113
S'HKY'
p114
sS'clock'
p115
I00
s.