(dp0
S'Force'
p1
NsS'ExpectedGeneconv'
p2
(dp3
(S'N1'
p4
S'N2'
p5
tp6
(lp7
F44.47390589629384
aF104.09307289307932
as(S'N5'
p8
S'cerevisiae'
p9
tp10
(lp11
F2.539633848824467
aF5.627852030451037
as(g5
S'N3'
p12
tp13
(lp14
F1.5918843137716525
aF3.183461313387739
as(S'N4'
p15
g8
tp16
(lp17
F1.012490901014282
aF3.8403526651817645
as(g4
S'castellii'
p18
tp19
(lp20
F41.28077889879562
aF96.58849312261323
as(g5
S'bayanus'
p21
tp22
(lp23
F3.9111378196186988
aF10.648244938365497
as(S'N0'
p24
g4
tp25
(lp26
F1.047075275113139
aF2.4586729227552646
as(g12
S'kudriavzevii'
p27
tp28
(lp29
F2.8886044781090745
aF7.602339229984448
as(g8
S'paradoxus'
p30
tp31
(lp32
F2.170904883194567
aF3.120368845495581
as(g24
S'kluyveri'
p33
tp34
(lp35
F0.0
aF0.0
as(g12
g15
tp36
(lp37
F1.8077882516333434
aF3.989856936667507
as(g15
S'mikatae'
p38
tp39
(lp40
F3.499781848021152
aF8.290294147444792
assS'ExpectedDwellTime'
p41
(dp42
g6
F676.3294971527581
sg10
F821.6196530249479
sg13
F818.5103260191963
sg16
F825.8053118431923
sg19
F647.1262235362132
sg22
F808.4132119829844
sg25
F145.65924776373458
sg28
F821.5314572522377
sg31
F828.0178690840564
sg34
F0.0
sg36
F823.7111858801811
sg39
F816.0171198597625
ssS'newicktree'
p43
S'../PairsAlignemt/YeastTree.newick'
p44
sS'll'
p45
cnumpy.core.multiarray
scalar
p46
(cnumpy
dtype
p47
(S'f8'
p48
I0
I1
tp49
Rp50
(I3
S'<'
p51
NNNI-1
I-1
I0
tp52
bS'\xbc\xcc_D\xaf\xb7\xc8\xc0'
p53
tp54
Rp55
sS'edge_list'
p56
(lp57
g25
ag34
ag6
ag19
ag13
ag22
ag36
ag28
ag16
ag39
ag10
ag31
asS'edge_to_blen'
p58
(dp59
g6
g46
(g50
S'\xbd`\xcc\x86x\xcb\x04@'
p60
tp61
Rp62
sg10
g46
(g50
S'\x97\xa0\x90\xcc|\x05\xc5?'
p63
tp64
Rp65
sg13
g46
(g50
S'\x1c\xaf\t\x0e\xf5^\xc0?'
p66
tp67
Rp68
sg16
g46
(g50
S'\x11\x02\x1e@pv\xba?'
p69
tp70
Rp71
sg28
g46
(g50
S'\xba\x16P\xac\xe1\x04\xd0?'
p72
tp73
Rp74
sg22
g46
(g50
S'\r5\x00v\x11\x97\xd3?'
p75
tp76
Rp77
sg25
g46
(g50
S'#\xe0\xe8\x07e6\xc7?'
p78
tp79
Rp80
sg19
g46
(g50
S'\xdaq\xbe\x8b\xe5S\x02@'
p81
tp82
Rp83
sg31
g46
(g50
S'\xec\xde\xdb\x189\x84\xc1?'
p84
tp85
Rp86
sg34
g46
(g50
S'\x86\xde\xf3\xc7 \x0c\xf9?'
p87
tp88
Rp89
sg36
g46
(g50
S'\xb1W\xf4\xdedk\xc0?'
p90
tp91
Rp92
sg39
g46
(g50
S'\x93\xf9y\x00Jh\xd0?'
p93
tp94
Rp95
ssS'paralog'
p96
(lp97
S'YDR518W'
p98
aS'YCL043C'
p99
asS'alignment_file'
p100
S'../MafftAlignment/YDR518W_YCL043C/YDR518W_YCL043C_input.fasta'
p101
sS'x_clock'
p102
NsS'x'
p103
cnumpy.core.multiarray
_reconstruct
p104
(cnumpy
ndarray
p105
(I0
tp106
S'b'
p107
tp108
Rp109
(I1
(I19
tp110
g50
I00
S"\xa8*\x91\xfb\x1a\x9f\xe7\xbfp\x03hMt\xcc\xe0\xbf\x8c!=\xc0\xe7\xb5\xe7\xbf\xcb\x83k\xf1\x1et\xed?M\xf0\xb7\x96\xf3/\x01\xc0M\xc0\xd4s\xed\x0b\x02\xc0\x1bO\x9d\x7flo\xf6\xbf\x94Z \xffCQ\xfb\xbf\xe7\xf3k\x7f\xfc\xae\xdc?\x08=\xcd,\x81\x91\xee?\xf4?\x97\xcd\xf2\x86\xea?Tq\xcfw\xc2s\x00\xc0\x13\x80\xffR\x15\xf1\xf2\xbfba\xcc\xee\xb0m\x00\xc0\x8d\xfc%\x11b)\xf6\xbf\xc6\x8cy\xcc\xd1'\x02\xc0\x06\x7f\xe86G\xc7\xf5\xbfQ|\x94\x8c_\xe7\xfc\xbf\xf8\x1ay^{\xd2\xff\xbf"
p111
tp112
bsS'Model'
p113
S'MG94'
p114
sS'clock'
p115
I00
s.