(dp0
S'Force'
p1
NsS'ExpectedGeneconv'
p2
(dp3
(S'N1'
p4
S'N2'
p5
tp6
(lp7
F14.993426570923008
aF3.968722230918304
as(S'N5'
p8
S'cerevisiae'
p9
tp10
(lp11
F9.296376878451515
aF3.0758626144142456
as(g5
S'N3'
p12
tp13
(lp14
F1.9516006057241806e-05
aF4.5542936720813716e-06
as(S'N4'
p15
g8
tp16
(lp17
F2.9655242274390328
aF0.414938291936009
as(g4
S'castellii'
p18
tp19
(lp20
F33.98912399104225
aF8.314698430644304
as(g5
S'bayanus'
p21
tp22
(lp23
F12.226732025324145
aF2.9006690049191115
as(S'N0'
p24
g4
tp25
(lp26
F32.60142277988334
aF8.277848692489737
as(g12
S'kudriavzevii'
p27
tp28
(lp29
F11.409235768542592
aF2.3919355915488003
as(g8
S'paradoxus'
p30
tp31
(lp32
F5.0685400343075475
aF0.540110162890013
as(g24
S'kluyveri'
p33
tp34
(lp35
F0.0
aF0.0
as(g12
g15
tp36
(lp37
F7.228202082663805e-05
aF7.547021600159021e-06
as(g15
S'mikatae'
p38
tp39
(lp40
F12.929797186726631
aF4.517227856208463
assS'ExpectedDwellTime'
p41
(dp42
g6
F32.46636746588034
sg10
F25.093862590789154
sg13
F30.124265572430765
sg16
F28.197060103432893
sg19
F37.261133984038544
sg22
F24.25041674248415
sg25
F23.902071883281756
sg28
F40.43668058285368
sg31
F20.829625233705315
sg34
F0.0
sg36
F30.124213637592234
sg39
F26.65868142151221
ssS'newicktree'
p43
S'../PairsAlignemt/YeastTree.newick'
p44
sS'll'
p45
cnumpy.core.multiarray
scalar
p46
(cnumpy
dtype
p47
(S'f8'
p48
I0
I1
tp49
Rp50
(I3
S'<'
p51
NNNI-1
I-1
I0
tp52
bS'\xee\xabq\xcb\xdfc\x94\xc0'
p53
tp54
Rp55
sS'edge_list'
p56
(lp57
g25
ag34
ag6
ag19
ag13
ag22
ag36
ag28
ag16
ag39
ag10
ag31
asS'edge_to_blen'
p58
(dp59
g25
g46
(g50
S'\xee+\x1c\x96{\xea\xb2?'
p60
tp61
Rp62
sg10
g46
(g50
S'\xe8\x9a%JK!\x92?'
p63
tp64
Rp65
sg13
g46
(g50
S'?\xcb!d\xb9Mc>'
p66
tp67
Rp68
sg16
g46
(g50
S'G\x83|w-\xc3j?'
p69
tp70
Rp71
sg19
g46
(g50
S'M\x89\x87\xbc\xc8\x83\xac?'
p72
tp73
Rp74
sg22
g46
(g50
S'\xae\xeb\x00\x0c\x16<\x91?'
p75
tp76
Rp77
sg6
g46
(g50
S'\x84\x7f\xf6\x14\xa0<\x98?'
p78
tp79
Rp80
sg28
g46
(g50
S'\x1a?\xb5\xbd\xd9K\x96?'
p81
tp82
Rp83
sg31
g46
(g50
S'\x94f\x9feP\xd7t?'
p84
tp85
Rp86
sg39
g46
(g50
S'~{\xf3\xd2-\xc5\x94?'
p87
tp88
Rp89
sg36
g46
(g50
S"out\xb3b'v>"
p90
tp91
Rp92
sg34
g46
(g50
S'\xa4\x00M\x86\xc2/\x1f>'
p93
tp94
Rp95
ssS'paralog'
p96
(lp97
S'YER074W'
p98
aS'YIL069C'
p99
asS'alignment_file'
p100
S'../MafftAlignment/YER074W_YIL069C/YER074W_YIL069C_input.fasta'
p101
sS'x_clock'
p102
NsS'x'
p103
cnumpy.core.multiarray
_reconstruct
p104
(cnumpy
ndarray
p105
(I0
tp106
S'b'
p107
tp108
Rp109
(I1
(I18
tp110
g50
I00
S'\x80n\x95RD\xfb\xe6\xbf\xc5^\\\xc4\x96f\xe0\xbf\xe5\x18]\x96\x12\xa9\xe9\xbf\x88\x9ff\x96^\xa8\x04@(<\x87\xa3\xeb\'\r@5\x9b\x8c\xe6\x930\x02@4\x86"rd\xd7\x04\xc0\xa4\x7f\x04-\x84 4\xc0\x95\x1f\xfb\xff\xe3\xf2\r\xc0\x8e\xa8\x12_l\x1a\x07\xc0p\x14\x96\x02\x17$1\xc0\xe8Y\x85Q\x93V\x10\xc0\xa0\x0c\x90ZcO0\xc0\x87l\x1f\'\xcd\x9d\x0e\xc0s:\xbf\xf6I\xe5\x16\xc0\xd5\xb1\xac\xf8\x00/\x0f\xc0\xc4nW\xe0\xb6"\x10\xc0\xee\'\x7f\xac\x94\x1f\x15\xc0'
p111
tp112
bsS'Model'
p113
S'HKY'
p114
sS'clock'
p115
I00
s.