(dp0
S'Force'
p1
NsS'ExpectedGeneconv'
p2
(dp3
(S'N1'
p4
S'N2'
p5
tp6
(lp7
F12.821683130641878
aF16.12326895772605
as(S'N5'
p8
S'cerevisiae'
p9
tp10
(lp11
F5.5797413618386855
aF6.2259179235090025
as(g5
S'N3'
p12
tp13
(lp14
F2.268250469110217
aF3.178723344354791
as(S'N4'
p15
g8
tp16
(lp17
F1.9529553492828253
aF2.3835069830733624
as(g4
S'castellii'
p18
tp19
(lp20
F33.4632742352543
aF34.4371416053074
as(g5
S'bayanus'
p21
tp22
(lp23
F7.18644070139764
aF7.375744070857134
as(S'N0'
p24
g4
tp25
(lp26
F4.95190258054777
aF5.822206712692482
as(g12
S'kudriavzevii'
p27
tp28
(lp29
F6.682759801892782
aF7.407987486919882
as(g8
S'paradoxus'
p30
tp31
(lp32
F2.9518749879123534
aF5.299010765217156
as(g24
S'kluyveri'
p33
tp34
(lp35
F0.0
aF0.0
as(g12
g15
tp36
(lp37
F1.7325296082434984
aF4.575561097435422
as(g15
S'mikatae'
p38
tp39
(lp40
F8.26103498793724
aF10.471425706792063
assS'ExpectedDwellTime'
p41
(dp42
g6
F224.38360583891807
sg10
F318.2003212600983
sg13
F278.2792967336915
sg16
F306.26937588889206
sg19
F231.54747267473604
sg22
F286.8805025637187
sg25
F91.55855412034568
sg28
F283.5559443905232
sg31
F311.8530218906016
sg34
F0.0
sg36
F288.21617995236204
sg39
F292.3744886873611
ssS'newicktree'
p43
S'../PairsAlignemt/YeastTree.newick'
p44
sS'll'
p45
cnumpy.core.multiarray
scalar
p46
(cnumpy
dtype
p47
(S'f8'
p48
I0
I1
tp49
Rp50
(I3
S'<'
p51
NNNI-1
I-1
I0
tp52
bS'\xbe\xfd\xee\xe0K\x0e\xad\xc0'
p53
tp54
Rp55
sS'edge_list'
p56
(lp57
g25
ag34
ag6
ag19
ag13
ag22
ag36
ag28
ag16
ag39
ag10
ag31
asS'edge_to_blen'
p58
(dp59
g6
g46
(g50
S'\x01`\x16\xfc\x82\xa8\xc1?'
p60
tp61
Rp62
sg10
g46
(g50
S'u\xd1\xaaaj\xb9\xa8?'
p63
tp64
Rp65
sg13
g46
(g50
S'\x8b\xf4\x03.S\xbd\x95?'
p66
tp67
Rp68
sg16
g46
(g50
S"'M{i\x11\xdd\x96?"
p69
tp70
Rp71
sg28
g46
(g50
S'V\xc2\xa8\xf3Q\xdb\xaa?'
p72
tp73
Rp74
sg22
g46
(g50
S'*]\xe2\xc9\xcb\x83\xb0?'
p75
tp76
Rp77
sg25
g46
(g50
S'o\x06,\xa5^\xaa\xbe?'
p78
tp79
Rp80
sg19
g46
(g50
S'\xff8\xae"I5\xd0?'
p81
tp82
Rp83
sg31
g46
(g50
S'\xfd\x01\x04(\xf90\x97?'
p84
tp85
Rp86
sg34
g46
(g50
S'\x07\xba\xab\xb6\x8a\xbe\xcc?'
p87
tp88
Rp89
sg36
g46
(g50
S'\x1ar\xea%\xfa5\x9f?'
p90
tp91
Rp92
sg39
g46
(g50
S'K\xccSKH\xaf\xad?'
p93
tp94
Rp95
ssS'paralog'
p96
(lp97
S'YIL057C'
p98
aS'YER067W'
p99
asS'alignment_file'
p100
S'../MafftAlignment/YIL057C_YER067W/YIL057C_YER067W_input.fasta'
p101
sS'x_clock'
p102
NsS'x'
p103
cnumpy.core.multiarray
_reconstruct
p104
(cnumpy
ndarray
p105
(I0
tp106
S'b'
p107
tp108
Rp109
(I1
(I18
tp110
g50
I00
S'\xbe\xfdT}\x93V\xe5\xbf1\xc5\xac\x96\xd0\xab\xdd\xbf\xc9\x0f\xcaku\xc5\xe7\xbf\xfcM\xbc\xaa\x96\xa9\xf6?$\xba(\\+y\xba\xbf`\xb9\xf3\x103\xf3\xad?\xdf\x1b\xfe\x92\xef\xf9\x00\xc0\xc3\xe8\x0eK\xbf\xe5\xf7\xbf\xed\x84@\xe8w\xb1\xff\xbf\x82\x8a\x1c\xd4Q\xf9\xf5\xbf\x0e\xea\x96\xe6\x96\xd1\x0e\xc0\xdb\x86s\xd3f\xed\x05\xc0\x01\xb6"N\xf7\xec\x0b\xc0}\r\xcc\xaa\x1c\x95\x07\xc0Ee4:Yj\x0e\xc0\x96\x84Q@\x13\xc8\x06\xc0\xe2\xb26,\x8b>\x08\xc0\xc1\xd8\xa5\xc82M\x0e\xc0'
p111
tp112
bsS'Model'
p113
S'HKY'
p114
sS'clock'
p115
I00
s.