(dp0
S'Force'
p1
NsS'ExpectedGeneconv'
p2
(dp3
(S'N1'
p4
S'N2'
p5
tp6
(lp7
F1.0123151986067083
aF8.882437659762475
as(S'N5'
p8
S'cerevisiae'
p9
tp10
(lp11
F0.2601366797099611
aF7.518105682344255
as(g5
S'N3'
p12
tp13
(lp14
F0.3248899038160962
aF1.4742319651489693
as(S'N4'
p15
g8
tp16
(lp17
F0.02394112572267323
aF0.7381449077846224
as(g4
S'castellii'
p18
tp19
(lp20
F1.4827039822095451
aF8.065407242812569
as(g5
S'bayanus'
p21
tp22
(lp23
F0.8323981952407669
aF4.893671875878028
as(S'N0'
p24
g4
tp25
(lp26
F0.14029315316085447
aF0.95169234035819
as(g12
S'kudriavzevii'
p27
tp28
(lp29
F0.2065166164783475
aF3.4246203281055676
as(g8
S'paradoxus'
p30
tp31
(lp32
F0.7444667833604697
aF0.9218265773495701
as(g24
S'kluyveri'
p33
tp34
(lp35
F0.0
aF0.0
as(g12
g15
tp36
(lp37
F0.3276445430455972
aF2.250557934029386
as(g15
S'mikatae'
p38
tp39
(lp40
F1.0913509206867678
aF4.604433251238854
assS'ExpectedDwellTime'
p41
(dp42
g6
F41.84862021377839
sg10
F57.754422506788515
sg13
F53.702782818260516
sg16
F61.342379252145
sg19
F49.21423057609798
sg22
F54.27768191015567
sg25
F13.838947071673598
sg28
F58.22797205257814
sg31
F66.82811269314456
sg34
F0.0
sg36
F58.174797854605245
sg39
F62.82201080656616
ssS'newicktree'
p43
S'../PairsAlignemt/YeastTree.newick'
p44
sS'll'
p45
cnumpy.core.multiarray
scalar
p46
(cnumpy
dtype
p47
(S'f8'
p48
I0
I1
tp49
Rp50
(I3
S'<'
p51
NNNI-1
I-1
I0
tp52
bS'\xf8\xb7|\x1c.\xc7\x92\xc0'
p53
tp54
Rp55
sS'edge_list'
p56
(lp57
g25
ag34
ag6
ag19
ag13
ag22
ag36
ag28
ag16
ag39
ag10
ag31
asS'edge_to_blen'
p58
(dp59
g25
g46
(g50
S'\xde+%\xc5\x92\x8e\xb0?'
p60
tp61
Rp62
sg10
g46
(g50
S'\xe7\r\x18e\x0cG\xaa?'
p63
tp64
Rp65
sg13
g46
(g50
S'\xa2xN\xe8\xf72\x9b?'
p66
tp67
Rp68
sg16
g46
(g50
S'B\r\xf7\xce\xb9\n\x84?'
p69
tp70
Rp71
sg19
g46
(g50
S't\x0fA\x81d8\xc5?'
p72
tp73
Rp74
sg22
g46
(g50
S')\xdbY\xa4\x83\xf6\xb0?'
p75
tp76
Rp77
sg6
g46
(g50
S'\x02m\x10\xe4\xcf$\xc2?'
p78
tp79
Rp80
sg28
g46
(g50
S'\x7f\x83f\x94\x92S\xa8?'
p81
tp82
Rp83
sg31
g46
(g50
S'\x80\xc5\xb1(\xa3\x8d\xa3?'
p84
tp85
Rp86
sg39
g46
(g50
S'\xca\x00\x15n6.\xaf?'
p87
tp88
Rp89
sg36
g46
(g50
S'\x1c9c\x0e-)\xa2?'
p90
tp91
Rp92
sg34
g46
(g50
S'B:\xeb\x0e\x8b\x1d\xb9?'
p93
tp94
Rp95
ssS'paralog'
p96
(lp97
S'YER131W'
p98
aS'YGL189C'
p99
asS'alignment_file'
p100
S'../MafftAlignment/YER131W_YGL189C/YER131W_YGL189C_input.fasta'
p101
sS'x_clock'
p102
NsS'x'
p103
cnumpy.core.multiarray
_reconstruct
p104
(cnumpy
ndarray
p105
(I0
tp106
S'b'
p107
tp108
Rp109
(I1
(I19
tp110
g50
I00
S"l\xca\x06\xb3\x05q\xe5\xbfI7\xe2'\x08U\xdc\xbfO~{k\xec\xd6\xe6\xbf\x98\xeab$\xdc\xd0\xfd?(\xd3\xd1\x9a\xe8B\x07\xc0\xa2<\xf8\xd0T\x1f\xed\xbf:Q)W(\x12\xf0?\x906%\n0\xe8\x05\xc0\xfbV\xe7i\xd5\x92\x02\xc0^\xdbB\x85\\B\xff\xbf\x03\xec\xa3_\xcf\xc0\xfc\xbf\x8f\x92\xa6\xe8\xbb\x06\r\xc0\x8d\xa6\xfa<\x92\xb6\x05\xc0y\xd1\x1ehc\xb6\n\xc0;\t\x89\xcb\xc3_\x08\xc0\xfaB\x86J\xd6\x81\x12\xc0>\xc8OLdc\x06\xc0\x1d\xadd\r\xc3\xc1\x07\xc0P\xa4\x9f\xc3\x17\x1f\n\xc0"
p111
tp112
bsS'Model'
p113
S'MG94'
p114
sS'clock'
p115
I00
s.