(dp0
S'Force'
p1
NsS'ExpectedGeneconv'
p2
(dp3
(S'N1'
p4
S'N2'
p5
tp6
(lp7
F29.860076786756963
aF61.595129252704005
as(S'N5'
p8
S'cerevisiae'
p9
tp10
(lp11
F6.014628304662601
aF13.669248714111342
as(g5
S'N3'
p12
tp13
(lp14
F3.087095805540986
aF5.2796742273980914
as(S'N4'
p15
g8
tp16
(lp17
F3.672868488366116
aF9.126776460355169
as(g4
S'castellii'
p18
tp19
(lp20
F33.3954816173638
aF67.62438714439594
as(g5
S'bayanus'
p21
tp22
(lp23
F9.096668058167738
aF22.058637285030823
as(S'N0'
p24
g4
tp25
(lp26
F0.8185890865577299
aF1.7315434098633313
as(g12
S'kudriavzevii'
p27
tp28
(lp29
F7.757567221611664
aF21.357810776926247
as(g8
S'paradoxus'
p30
tp31
(lp32
F4.9761570611123975
aF10.856423545448422
as(g24
S'kluyveri'
p33
tp34
(lp35
F0.0
aF0.0
as(g12
g15
tp36
(lp37
F5.73014980968767
aF9.865045736329195
as(g15
S'mikatae'
p38
tp39
(lp40
F9.148248488067008
aF17.050551854250934
assS'ExpectedDwellTime'
p41
(dp42
g6
F942.0583689987841
sg10
F1405.5774665116344
sg13
F1404.1394459551223
sg16
F1419.2180846699355
sg19
F890.1647147696111
sg22
F1406.5052093304357
sg25
F159.1590626037119
sg28
F1425.9185810645524
sg31
F1417.4527286242128
sg34
F0.0
sg36
F1423.2122033782105
sg39
F1417.771449656873
ssS'newicktree'
p43
S'../PairsAlignemt/YeastTree.newick'
p44
sS'll'
p45
cnumpy.core.multiarray
scalar
p46
(cnumpy
dtype
p47
(S'f8'
p48
I0
I1
tp49
Rp50
(I3
S'<'
p51
NNNI-1
I-1
I0
tp52
bS'%\xf3{P\xa3\x83\xca\xc0'
p53
tp54
Rp55
sS'edge_list'
p56
(lp57
g25
ag34
ag6
ag19
ag13
ag22
ag36
ag28
ag16
ag39
ag10
ag31
asS'edge_to_blen'
p58
(dp59
g25
g46
(g50
S'\xc6M\xc5\x9d(\x1e\xad?'
p60
tp61
Rp62
sg10
g46
(g50
S'\x8ek~\x81\xe6 \xa7?'
p63
tp64
Rp65
sg13
g46
(g50
S'\nX\xd4\x81\\\xd4\x9d?'
p66
tp67
Rp68
sg16
g46
(g50
S'BIZ\xd2O\xbd\x9e?'
p69
tp70
Rp71
sg19
g46
(g50
S'\xddW\x1a\xdbv\xf7\xd7?'
p72
tp73
Rp74
sg22
g46
(g50
S'\x80\x8c\xf6\xe3\x1d\x14\xb5?'
p75
tp76
Rp77
sg6
g46
(g50
S'>\x11\xa9~!\x1a\xd8?'
p78
tp79
Rp80
sg28
g46
(g50
S"'\xb5s\xb8\xdf\xb3\xb0?"
p81
tp82
Rp83
sg31
g46
(g50
S'\x12bm\x8b\xe7*\xa4?'
p84
tp85
Rp86
sg39
g46
(g50
S'\x9e\xb5{\x97g\x89\xb1?'
p87
tp88
Rp89
sg36
g46
(g50
S'\x82\xcb\xc7QC\x82\xa2?'
p90
tp91
Rp92
sg34
g46
(g50
S'tL\x88\xb7\x9c{\xce?'
p93
tp94
Rp95
ssS'paralog'
p96
(lp97
S'YDR518W'
p98
aS'YCL043C'
p99
asS'alignment_file'
p100
S'../MafftAlignment/YDR518W_YCL043C/YDR518W_YCL043C_input.fasta'
p101
sS'x_clock'
p102
NsS'x'
p103
cnumpy.core.multiarray
_reconstruct
p104
(cnumpy
ndarray
p105
(I0
tp106
S'b'
p107
tp108
Rp109
(I1
(I18
tp110
g50
I00
S'J\xe5\x7f\xaf\x92\xa3\xe7\xbfA\xf3\x11\xfetf\xe0\xbf\xea!G\xf8p\x8b\xe8\xbfI\xcc@&d\xa7\xf4?P\x85Q\xc8ka\xfb\xbfJ\x85\x139\x82\xc9\xee\xbf\x9c\xfe\x1do\x90\xef\x06\xc0\xae\xd2j\xbd5\xf5\xf6\xbf\xce\x84\xec\x9d/@\xef\xbf\x07\x07\xb2\x94Wn\xef\xbf\xc9\xbb\xec\x13\xacI\x0c\xc0\xe3\xcc\xea5\xb1\xf9\x03\xc0\xea8M\x1a\x84\x8f\n\xc0\x04*\xe7X>\xd6\x05\xc0[\xbf\xa8\x8b!\x0c\x0c\xc0\xafF\xf1\xf4pr\x05\xc0\x9a&2V/\xc7\x08\xc0\x9e\xb0\x8b%\xbd\xdf\t\xc0'
p111
tp112
bsS'Model'
p113
S'HKY'
p114
sS'clock'
p115
I00
s.