(dp0
S'Force'
p1
NsS'ExpectedGeneconv'
p2
(dp3
(S'N1'
p4
S'N2'
p5
tp6
(lp7
F32.015206281040946
aF1.9601952531203084
as(S'N5'
p8
S'cerevisiae'
p9
tp10
(lp11
F5.480156577709296
aF0.32080667208944896
as(g5
S'N3'
p12
tp13
(lp14
F4.31407461240656
aF0.25072534054414936
as(S'N4'
p15
g8
tp16
(lp17
F1.181605382850296
aF0.11869380928072462
as(g4
S'castellii'
p18
tp19
(lp20
F34.13451364944091
aF2.0233489911158578
as(g5
S'bayanus'
p21
tp22
(lp23
F7.652854978254005
aF0.3618749340559501
as(S'N0'
p24
g4
tp25
(lp26
F3.152110660949346
aF0.18609027176027007
as(g12
S'kudriavzevii'
p27
tp28
(lp29
F8.018050502263186
aF0.39402767282440787
as(g8
S'paradoxus'
p30
tp31
(lp32
F2.1192171494386094
aF0.18002340369836745
as(g24
S'kluyveri'
p33
tp34
(lp35
F0.0
aF0.0
as(g12
g15
tp36
(lp37
F1.7603735440533612
aF0.09572294115049397
as(g15
S'mikatae'
p38
tp39
(lp40
F8.72672369722393
aF0.5153830875206294
assS'ExpectedDwellTime'
p41
(dp42
g6
F450.29254623830826
sg10
F565.1013680169991
sg13
F530.2118432222403
sg16
F552.3762755759401
sg19
F441.4895711362217
sg22
F524.7583870821163
sg25
F162.23400488063686
sg28
F551.8927305025051
sg31
F559.4045814643665
sg34
F0.0
sg36
F541.0073389439735
sg39
F547.8602101395228
ssS'newicktree'
p43
S'../PairsAlignemt/YeastTree.newick'
p44
sS'll'
p45
cnumpy.core.multiarray
scalar
p46
(cnumpy
dtype
p47
(S'f8'
p48
I0
I1
tp49
Rp50
(I3
S'<'
p51
NNNI-1
I-1
I0
tp52
bS'\xda\x02\xa3W\xc1\x01\xc1\xc0'
p53
tp54
Rp55
sS'edge_list'
p56
(lp57
g25
ag34
ag6
ag19
ag13
ag22
ag36
ag28
ag16
ag39
ag10
ag31
asS'edge_to_blen'
p58
(dp59
g6
g46
(g50
S'\x91\xf8Bv\xea2\xf2?'
p60
tp61
Rp62
sg10
g46
(g50
S'\xbc\xd8e\x8bH\r\xcb?'
p63
tp64
Rp65
sg13
g46
(g50
S'\xdew@\xde,\x05\xc7?'
p66
tp67
Rp68
sg16
g46
(g50
S'O\xfa\x04\xe4rs\xb5?'
p69
tp70
Rp71
sg19
g46
(g50
S'H?4\x9bd\x01\xf3?'
p72
tp73
Rp74
sg22
g46
(g50
S'\xa0\x15\x86\x10Y/\xd0?'
p75
tp76
Rp77
sg25
g46
(g50
S'\xb9\xc8\xc4\xc3\x7fB\xd2?'
p78
tp79
Rp80
sg28
g46
(g50
S'n\x07\xe5\xee\x87*\xd5?'
p81
tp82
Rp83
sg31
g46
(g50
S'\xca\xcaD)"`\xbd?'
p84
tp85
Rp86
sg34
g46
(g50
S'\xefe\xcb\x93\x04\x16\xf2?'
p87
tp88
Rp89
sg36
g46
(g50
S'{1\xcc\xd0\x04\xde\xb4?'
p90
tp91
Rp92
sg39
g46
(g50
S']GS{y6\xd5?'
p93
tp94
Rp95
ssS'paralog'
p96
(lp97
S'YMR243C'
p98
aS'YOR316C'
p99
asS'alignment_file'
p100
S'../MafftAlignment/YMR243C_YOR316C/YMR243C_YOR316C_input.fasta'
p101
sS'x_clock'
p102
NsS'x'
p103
cnumpy.core.multiarray
_reconstruct
p104
(cnumpy
ndarray
p105
(I0
tp106
S'b'
p107
tp108
Rp109
(I1
(I19
tp110
g50
I00
S'O\xb2\xcc\xbe\x04\xaf\xe7\xbfB\x1aq\xad\x06k\xe1\xbfN\xe2\xfe\xa6\xa2\x07\xee\xbf\xfc\xa6\xd1\xa7\xbc\x8e\xee?\xa2NRJ\xb2C\x02\xc0\x17P6\xe6\x9a\x97\xfb\xbf$\x87\x94@h7\x12\xc0\xaa\xc1\x05r"\x11\xf4\xbf4V5,m_\xbf?5\x1f+\xe1\x98{\xc0?\xaaO\x08\x7f\x92\x08\xc6?W\x1c\xacBUs\xfb\xbfl\x9c\x06t/\xff\xf5\xbf\xa2\xbb\xba\xe7S\x0e\x04\xc0\xd0\x87\x04\xe7$\xb4\xf1\xbf\\$w\x98\xd3\xd5\x03\xc0\xba\x14\x96+ \xab\xf1\xbf@\xe2B\xd8M\xde\xf8\xbf\xa1\x1f\xfd\xc3\xf3Q\x01\xc0'
p111
tp112
bsS'Model'
p113
S'MG94'
p114
sS'clock'
p115
I00
s.