(dp0
S'Force'
p1
NsS'ExpectedGeneconv'
p2
(dp3
(S'N1'
p4
S'N2'
p5
tp6
(lp7
F93.13268443836803
aF47.81568772790427
as(S'N5'
p8
S'cerevisiae'
p9
tp10
(lp11
F12.912327280845115
aF3.6610717630532794
as(g5
S'N3'
p12
tp13
(lp14
F11.321856693781687
aF5.746192061427273
as(S'N4'
p15
g8
tp16
(lp17
F6.583171364673601
aF2.399856452704869
as(g4
S'castellii'
p18
tp19
(lp20
F134.71990217034286
aF69.30658683765684
as(g5
S'bayanus'
p21
tp22
(lp23
F20.69712197169089
aF13.556454943381736
as(S'N0'
p24
g4
tp25
(lp26
F1.44246951232103
aF0.7373561578230683
as(g12
S'kudriavzevii'
p27
tp28
(lp29
F20.05161382568312
aF8.458293645183277
as(g8
S'paradoxus'
p30
tp31
(lp32
F8.62119189385434
aF3.7423126359102796
as(g24
S'kluyveri'
p33
tp34
(lp35
F0.0
aF0.0
as(g12
g15
tp36
(lp37
F6.25690896905259
aF2.735860105513365
as(g15
S'mikatae'
p38
tp39
(lp40
F17.335198909272673
aF12.09446837892495
assS'ExpectedDwellTime'
p41
(dp42
g6
F643.4614366082868
sg10
F845.4066941499456
sg13
F798.3752236425372
sg16
F829.0933961050326
sg19
F685.4251102009281
sg22
F793.3453055080702
sg25
F112.15902976334431
sg28
F829.101697655735
sg31
F828.5812832389416
sg34
F0.0
sg36
F819.9546060998688
sg39
F833.9321208300045
ssS'newicktree'
p43
S'../PairsAlignemt/YeastTree.newick'
p44
sS'll'
p45
cnumpy.core.multiarray
scalar
p46
(cnumpy
dtype
p47
(S'f8'
p48
I0
I1
tp49
Rp50
(I3
S'<'
p51
NNNI-1
I-1
I0
tp52
bS'l\xdcr\x90X\xe1\xcb\xc0'
p53
tp54
Rp55
sS'edge_list'
p56
(lp57
g25
ag34
ag6
ag19
ag13
ag22
ag36
ag28
ag16
ag39
ag10
ag31
asS'edge_to_blen'
p58
(dp59
g25
g46
(g50
S'\x06\xd6\xd2\xe1\x1d\x86\xb8?'
p60
tp61
Rp62
sg10
g46
(g50
S'\x00\x90\xbf/pv\xc4?'
p63
tp64
Rp65
sg13
g46
(g50
S'W\xb5e\xc8\xe4\x86\xc4?'
p66
tp67
Rp68
sg16
g46
(g50
S'\x7fBY)/\xde\xb4?'
p69
tp70
Rp71
sg19
g46
(g50
S'\xaa\xb61&\xe2\x9d\xfc?'
p72
tp73
Rp74
sg22
g46
(g50
S'\x7f\x80\xc0G\xad\x8b\xd1?'
p75
tp76
Rp77
sg6
g46
(g50
S'\xe3u!\x1au\xfc\xf3?'
p78
tp79
Rp80
sg28
g46
(g50
S'U\x05\x16\xa66(\xd0?'
p81
tp82
Rp83
sg31
g46
(g50
S'@\xb6\x07u\xdf\xb4\xbd?'
p84
tp85
Rp86
sg39
g46
(g50
S'\xbci\x18\xda\xb5\xd9\xd1?'
p87
tp88
Rp89
sg36
g46
(g50
S">B\x8f'\r`\xb7?"
p90
tp91
Rp92
sg34
g46
(g50
S'%4\xee{\x8c\x11\x00@'
p93
tp94
Rp95
ssS'paralog'
p96
(lp97
S'YPR159W'
p98
aS'YGR143W'
p99
asS'alignment_file'
p100
S'../MafftAlignment/YPR159W_YGR143W/YPR159W_YGR143W_input.fasta'
p101
sS'x_clock'
p102
NsS'x'
p103
cnumpy.core.multiarray
_reconstruct
p104
(cnumpy
ndarray
p105
(I0
tp106
S'b'
p107
tp108
Rp109
(I1
(I19
tp110
g50
I00
S'5\xcb\x98\x01\xd1\x99\xe6\xbf\xd3@\x8d\x83z\xf7\xdc\xbf\xd8R\x82\xc48\xc8\xf0\xbf,+\xca\x89\x98\xc2\xf1?\x81.\xa6\xa1}\x15\x05\xc0!\xa1\x9d\x0fN\x1d\xf2\xbfM\xd6\xdb_\xe3\xd9\xfc\xbf\x86US\x00\xa5\xc3\x02\xc0l \x85\xc5HQ\xe6?\xabf\xc3\x9fIy\xcc?:\x14\xa7+\xda\x9a\xe2?\x80\x02\xf9\xf3\xe0H\xfd\xbf\xc1\x1a!V\x8c\xb4\xf4\xbf\xcd\x07/C\xe4%\x03\xc0%g\xd2\x8d>\x06\xf6\xbfFS\xca\xabC\x0e\x04\xc0\x14n-\xf4\xffm\xf4\xbf\xb5\xd2\xf6\xab\xb9U\xfd\xbf/\x1eg\xf2\x00;\x01\xc0'
p111
tp112
bsS'Model'
p113
S'MG94'
p114
sS'clock'
p115
I00
s.