(dp0
S'Force'
p1
NsS'ExpectedGeneconv'
p2
(dp3
(S'N1'
p4
S'N2'
p5
tp6
(lp7
F124.14368978025696
aF84.16165055380249
as(S'N5'
p8
S'cerevisiae'
p9
tp10
(lp11
F21.84079753608932
aF16.072132803855943
as(g5
S'N3'
p12
tp13
(lp14
F17.418794541132772
aF12.33869282900351
as(S'N4'
p15
g8
tp16
(lp17
F13.811603367122082
aF9.714598110191918
as(g4
S'castellii'
p18
tp19
(lp20
F176.9020567596686
aF121.0360710084062
as(g5
S'bayanus'
p21
tp22
(lp23
F34.633704027447536
aF26.16647726256253
as(S'N0'
p24
g4
tp25
(lp26
F21.45169537635944
aF14.885770449580368
as(g12
S'kudriavzevii'
p27
tp28
(lp29
F29.33682884320806
aF19.279812501796528
as(g8
S'paradoxus'
p30
tp31
(lp32
F17.49776631944964
aF12.812927409259903
as(g24
S'kluyveri'
p33
tp34
(lp35
F0.0
aF0.0
as(g12
g15
tp36
(lp37
F10.41151986090212
aF9.050419081208675
as(g15
S'mikatae'
p38
tp39
(lp40
F32.793840437303
aF21.56548714000297
assS'ExpectedDwellTime'
p41
(dp42
g6
F1804.5498457351182
sg10
F2281.638273072689
sg13
F2229.620883321589
sg16
F2281.2096609923137
sg19
F1914.820844324305
sg22
F2242.3865565622896
sg25
F661.2819620564622
sg28
F2247.9892321388993
sg31
F2275.72499137012
sg34
F0.0
sg36
F2261.8697442453818
sg39
F2302.4099619075596
ssS'newicktree'
p43
S'../PairsAlignemt/YeastTree.newick'
p44
sS'll'
p45
cnumpy.core.multiarray
scalar
p46
(cnumpy
dtype
p47
(S'f8'
p48
I0
I1
tp49
Rp50
(I3
S'<'
p51
NNNI-1
I-1
I0
tp52
bS'\xc85D\xb6\xbc&\xd7\xc0'
p53
tp54
Rp55
sS'edge_list'
p56
(lp57
g25
ag34
ag6
ag19
ag13
ag22
ag36
ag28
ag16
ag39
ag10
ag31
asS'edge_to_blen'
p58
(dp59
g25
g46
(g50
S'\x0bGO)\x9d\x81\xc4?'
p60
tp61
Rp62
sg10
g46
(g50
S'\x9d\x86\x19\n\xbe\x7f\xaa?'
p63
tp64
Rp65
sg13
g46
(g50
S'\x1a\xd1$r\x04$\xa4?'
p66
tp67
Rp68
sg16
g46
(g50
S'\xb7\x9a\xce7\x849\xa1?'
p69
tp70
Rp71
sg19
g46
(g50
S'\xf3\x99\xa8~]\xf6\xdb?'
p72
tp73
Rp74
sg22
g46
(g50
S'\x04\xe0d\x82]\xbf\xb3?'
p75
tp76
Rp77
sg6
g46
(g50
S'\x7f\x01\xd4\x0f\xf2\xf3\xd4?'
p78
tp79
Rp80
sg28
g46
(g50
S'\x18\x9b\xec\x98\xc4\x98\xb0?'
p81
tp82
Rp83
sg31
g46
(g50
S'*\x93\xeeI/\xe7\xa3?'
p84
tp85
Rp86
sg39
g46
(g50
S'\xbdz\xf0\xf2!\xa7\xb4?'
p87
tp88
Rp89
sg36
g46
(g50
S'\x11W\xcb\xb9%\r\x9f?'
p90
tp91
Rp92
sg34
g46
(g50
S'\xefv5&\x9f\x9a\xd3?'
p93
tp94
Rp95
ssS'paralog'
p96
(lp97
S'YIR033W'
p98
aS'YKL020C'
p99
asS'alignment_file'
p100
S'../MafftAlignment/YIR033W_YKL020C/YIR033W_YKL020C_input.fasta'
p101
sS'x_clock'
p102
NsS'x'
p103
cnumpy.core.multiarray
_reconstruct
p104
(cnumpy
ndarray
p105
(I0
tp106
S'b'
p107
tp108
Rp109
(I1
(I18
tp110
g50
I00
S'\xe2\xf6\x8aw\xef9\xe6\xbf@\x17\xaa\xed\x92\x80\xdd\xbf1\x11\xfa\x82\x90V\xeb\xbf\xd9^\x18\xe47\x91\xf4?\xe1g\xe0\x11\xe2\x03\xed\xbfXg;\x88\x9cZ\xf4\xbf\xf4h\xd4\x05\xffL\xfd\xbf\x0e\x01\x16\x9c.\xee\xf2\xbf\xb9\xa6\xc7\xa8\x9d\xdd\xf1\xbf\x0f\xd2\xe5a+\x7f\xea\xbf-\xdb\x0e\xfex\xe2\t\xc0\xa6\xbb\xca<H\x7f\x04\xc0\xc7\x8a\xd0Yu\xf7\x0b\xc0\t^\x99\x88D\xe3\x05\xc0\xbb!\xd9S\xc7"\x0b\xc0\xbd\xe2\x8a\x87z#\x04\xc0Nv\t\xff\x92\xb0\x07\xc0C\xd7m\x85\xc7\xfa\t\xc0'
p111
tp112
bsS'Model'
p113
S'HKY'
p114
sS'clock'
p115
I00
s.