(dp0
S'Force'
p1
NsS'ExpectedGeneconv'
p2
(dp3
(S'N1'
p4
S'N2'
p5
tp6
(lp7
F11.809507692058249
aF13.486288574145886
as(S'N5'
p8
S'cerevisiae'
p9
tp10
(lp11
F6.365431336313255
aF7.564013749883924
as(g5
S'N3'
p12
tp13
(lp14
F1.7629037345069503
aF1.9253678290597933
as(S'N4'
p15
g8
tp16
(lp17
F3.055781887649211
aF2.8403006422364134
as(g4
S'castellii'
p18
tp19
(lp20
F13.753258832824242
aF12.730097919245157
as(g5
S'bayanus'
p21
tp22
(lp23
F4.237215790954331
aF3.384512104275565
as(S'N0'
p24
g4
tp25
(lp26
F7.519395167043823
aF7.26858134003772
as(g12
S'kudriavzevii'
p27
tp28
(lp29
F8.933784392669603
aF6.113401436475035
as(g8
S'paradoxus'
p30
tp31
(lp32
F2.3404215443357983
aF1.996169788462125
as(g24
S'kluyveri'
p33
tp34
(lp35
F0.0
aF0.0
as(g12
g15
tp36
(lp37
F2.8840975395406776
aF2.4529434672256514
as(g15
S'mikatae'
p38
tp39
(lp40
F5.110769089255067
aF5.749725932406249
assS'ExpectedDwellTime'
p41
(dp42
g6
F78.69954598620103
sg10
F85.59524804961723
sg13
F92.23158924698949
sg16
F93.01184886766698
sg19
F74.02494804462452
sg22
F88.6312850907735
sg25
F36.58897580588643
sg28
F95.84494759072821
sg31
F90.2941431414062
sg34
F0.0
sg36
F93.27834117268672
sg39
F93.43014658515568
ssS'newicktree'
p43
S'../PairsAlignemt/YeastTree.newick'
p44
sS'll'
p45
cnumpy.core.multiarray
scalar
p46
(cnumpy
dtype
p47
(S'f8'
p48
I0
I1
tp49
Rp50
(I3
S'<'
p51
NNNI-1
I-1
I0
tp52
bS'cpU\xed\x1d/\x9d\xc0'
p53
tp54
Rp55
sS'edge_list'
p56
(lp57
g25
ag34
ag6
ag19
ag13
ag22
ag36
ag28
ag16
ag39
ag10
ag31
asS'edge_to_blen'
p58
(dp59
g25
g46
(g50
S'1\xfd\xae*\xdc\xde\xa9?'
p60
tp61
Rp62
sg10
g46
(g50
S'\xec\xab\xab\x8c\x1cN\x8f?'
p63
tp64
Rp65
sg13
g46
(g50
S'\xfb\xcb#$\xb9Gu?'
p66
tp67
Rp68
sg16
g46
(g50
S'K\xbb\x0f\xbf\x11\xabz?'
p69
tp70
Rp71
sg19
g46
(g50
S'\xa6_\xe6!\xd4!\xa7?'
p72
tp73
Rp74
sg22
g46
(g50
S'3\x8b\xc7\xb5Q\xbd\x80?'
p75
tp76
Rp77
sg6
g46
(g50
S'\xe8\xfa\xb8\xc2q)\xa6?'
p78
tp79
Rp80
sg28
g46
(g50
S'\xb5\t\x1a\xbb\xaa\xa4\x96?'
p81
tp82
Rp83
sg31
g46
(g50
S'\xaeD\xed\x1fv;x?'
p84
tp85
Rp86
sg39
g46
(g50
S'\x05m\xd1\xc1\x08|\x8d?'
p87
tp88
Rp89
sg36
g46
(g50
S'\x15\xcb,\xb94\x06\x81?'
p90
tp91
Rp92
sg34
g46
(g50
S'c\xbf\xa2\xa7\xd9\xe1\x9e?'
p93
tp94
Rp95
ssS'paralog'
p96
(lp97
S'YDR418W'
p98
aS'YEL054C'
p99
asS'alignment_file'
p100
S'../MafftAlignment/YDR418W_YEL054C/YDR418W_YEL054C_input.fasta'
p101
sS'x_clock'
p102
NsS'x'
p103
cnumpy.core.multiarray
_reconstruct
p104
(cnumpy
ndarray
p105
(I0
tp106
S'b'
p107
tp108
Rp109
(I1
(I18
tp110
g50
I00
S'\x0c\x9f\xcb\x83\xd1`\xe8\xbf7\xaa\xc4\xdb\x90\x0b\xe0\xbfk\xc7\x1c\x8d\xd9v\xe9\xbf\xdeH\xf8\x9f3\xad\x03@\x14\xbe6\xdc\xfe\xd9\x00@g\xfdV\x9d\x84\x94\x00@\x033\xf5\xc0\xba\xe1\x07\xc0\xa0]\xad\xd4\xa4\x02\x0c\xc0\xd3\ryN\x9e\x1e\t\xc0r8R&\xdd\xc6\x08\xc0\x91\xd6\xdc\xf7:\n\x15\xc04\x14-\xde5:\x13\xc0\x03\xed\x8d\xb0\xf0(\x13\xc0\xd9\xfal\xd9-~\x0e\xc0M\x9d\x85\xa9\x1d#\x14\xc0q\x17\xeb6\x88\xf6\x10\xc0v\xed\xa6d-\xb9\x10\xc0J\xbd\x89\xed3\x85\x14\xc0'
p111
tp112
bsS'Model'
p113
S'HKY'
p114
sS'clock'
p115
I00
s.