(dp0
S'Force'
p1
NsS'ExpectedGeneconv'
p2
(dp3
(S'N1'
p4
S'N2'
p5
tp6
(lp7
F3.0765731869385076
aF12.723831468172165
as(S'N5'
p8
S'cerevisiae'
p9
tp10
(lp11
F0.790090086186279
aF11.063450417060784
as(g5
S'N3'
p12
tp13
(lp14
F1.3505416382347801
aF2.879730389077232
as(S'N4'
p15
g8
tp16
(lp17
F0.16518640278187552
aF1.4341445285104237
as(g4
S'castellii'
p18
tp19
(lp20
F3.0488363002395595
aF12.809049933382838
as(g5
S'bayanus'
p21
tp22
(lp23
F1.7877943055422787
aF8.999258824522474
as(S'N0'
p24
g4
tp25
(lp26
F0.07376401758256483
aF0.30040970844581044
as(g12
S'kudriavzevii'
p27
tp28
(lp29
F1.1964240246840887
aF6.841262525925659
as(g8
S'paradoxus'
p30
tp31
(lp32
F1.5197199862220045
aF1.1269557497086058
as(g24
S'kluyveri'
p33
tp34
(lp35
F0.0
aF0.0
as(g12
g15
tp36
(lp37
F0.7261876379993689
aF2.0903491583895564
as(g15
S'mikatae'
p38
tp39
(lp40
F1.9468067164182956
aF3.5991852371638036
assS'ExpectedDwellTime'
p41
(dp42
g6
F32.10889334191017
sg10
F54.23838168542865
sg13
F48.19190586977987
sg16
F59.6761679865099
sg19
F32.09746340251369
sg22
F36.93460770423578
sg25
F6.2093609648996555
sg28
F56.42420818056853
sg31
F60.639594597769864
sg34
F0.0
sg36
F57.21864748000491
sg39
F69.07066483889437
ssS'newicktree'
p43
S'../PairsAlignemt/YeastTree.newick'
p44
sS'll'
p45
cnumpy.core.multiarray
scalar
p46
(cnumpy
dtype
p47
(S'f8'
p48
I0
I1
tp49
Rp50
(I3
S'<'
p51
NNNI-1
I-1
I0
tp52
bS'\xb3\x90,\x03\xbbU\x95\xc0'
p53
tp54
Rp55
sS'edge_list'
p56
(lp57
g25
ag34
ag6
ag19
ag13
ag22
ag36
ag28
ag16
ag39
ag10
ag31
asS'edge_to_blen'
p58
(dp59
g25
g46
(g50
S'c\xa9\xf7\x1cT,\x99?'
p60
tp61
Rp62
sg10
g46
(g50
S'\x93\xfe\xd0s+\x83\xac?'
p63
tp64
Rp65
sg13
g46
(g50
S'\xf2\x9c\x01\xf2\xef\xbf\xa6?'
p66
tp67
Rp68
sg16
g46
(g50
S'\xc5i\x081V\xe7\x80?'
p69
tp70
Rp71
sg19
g46
(g50
S'\x1b\xf0\x95,"|\xc4?'
p72
tp73
Rp74
sg22
g46
(g50
S'|\x10\xd9\xf8\x07R\xae?'
p75
tp76
Rp77
sg6
g46
(g50
S'M\xc3\x01\xd8\xdc\xad\xc4?'
p78
tp79
Rp80
sg28
g46
(g50
S'\xbb\xa3\x95)\x8fi\xac?'
p81
tp82
Rp83
sg31
g46
(g50
S'\xdd\xa1\xae\xcd\x87Z\x96?'
p84
tp85
Rp86
sg39
g46
(g50
S'\xaf\xde\x05h\x17\xee\xab?'
p87
tp88
Rp89
sg36
g46
(g50
S'\xf1\xb9G\xa2Av\x99?'
p90
tp91
Rp92
sg34
g46
(g50
S'\xa9\xca\xdb\x86\xca\x8b\xca?'
p93
tp94
Rp95
ssS'paralog'
p96
(lp97
S'YBL087C'
p98
aS'YER117W'
p99
asS'alignment_file'
p100
S'../MafftAlignment/YBL087C_YER117W/YBL087C_YER117W_input.fasta'
p101
sS'x_clock'
p102
NsS'x'
p103
cnumpy.core.multiarray
_reconstruct
p104
(cnumpy
ndarray
p105
(I0
tp106
S'b'
p107
tp108
Rp109
(I1
(I19
tp110
g50
I00
S'\xb4\x0e\x9a\x04v\xf5\xe6\xbf|\xde\xfd0\xd2A\xe3\xbf1\x02d\x05\x86\x93\xef\xbf\xc9\xbd\xf1\xaa"\x01\x01@\xea\x03\xec\xc2|\x00\x07\xc0\x86\x02O\x99"U\xc3?\x83t\x07\xa3\x8e\xe2\xf8?\x16\xdc\xc9\xa4B\xa5\r\xc00Q\xe8>\x9e+\xf9\xbfe\x08\x02\xaa\x9d*\xfd\xbf\xecz\xb7EFQ\xfd\xbf\xfc&-`\x00\xe9\x08\xc0\xbdi\xb4x\xad\x9c\x06\xc0\xb9S\\_\xe6\x8d\r\xc0\x1efFL\xcb!\x07\xc0@Xr\x1180\x13\xc0\x19`\xfcl\xdbD\x07\xc0?\x9b\x10\x80\x98\x1a\x07\xc0\xc7\xe6\xcay\x8a\x98\x0e\xc0'
p111
tp112
bsS'Model'
p113
S'MG94'
p114
sS'clock'
p115
I00
s.