(dp0
S'Force'
p1
NsS'ExpectedGeneconv'
p2
(dp3
(S'N1'
p4
S'N2'
p5
tp6
(lp7
F17.662956857477667
aF7.670086841460713
as(S'N5'
p8
S'cerevisiae'
p9
tp10
(lp11
F6.482217041796871
aF1.7826826131143483
as(g5
S'N3'
p12
tp13
(lp14
F4.989190211580534e-06
aF4.710326711582961e-06
as(S'N4'
p15
g8
tp16
(lp17
F5.357036520169601
aF5.409002991137349
as(g4
S'castellii'
p18
tp19
(lp20
F36.68675918331291
aF16.526071646432275
as(g5
S'bayanus'
p21
tp22
(lp23
F15.845475477644365
aF6.978075502124118
as(S'N0'
p24
g4
tp25
(lp26
F32.16131191907085
aF14.99338822611026
as(g12
S'kudriavzevii'
p27
tp28
(lp29
F23.830531772230586
aF8.360493893570737
as(g8
S'paradoxus'
p30
tp31
(lp32
F5.182189345085748
aF0.980796436395222
as(g24
S'kluyveri'
p33
tp34
(lp35
F0.0
aF0.0
as(g12
g15
tp36
(lp37
F4.0504584804746475
aF4.620643496624079
as(g15
S'mikatae'
p38
tp39
(lp40
F13.06609493129612
aF7.418170093186452
assS'ExpectedDwellTime'
p41
(dp42
g6
F75.89466767233321
sg10
F75.70969066053938
sg13
F79.23722464741572
sg16
F70.76098367643489
sg19
F66.37546102810788
sg22
F63.641072372444775
sg25
F45.41787746006541
sg28
F67.43689797807241
sg31
F64.57739099264234
sg34
F0.0
sg36
F76.72350281225202
sg39
F79.98235615714405
ssS'newicktree'
p43
S'../PairsAlignemt/YeastTree.newick'
p44
sS'll'
p45
cnumpy.core.multiarray
scalar
p46
(cnumpy
dtype
p47
(S'f8'
p48
I0
I1
tp49
Rp50
(I3
S'<'
p51
NNNI-1
I-1
I0
tp52
bS'\x8e8\x85d\xce\x94\xa0\xc0'
p53
tp54
Rp55
sS'edge_list'
p56
(lp57
g25
ag34
ag6
ag19
ag13
ag22
ag36
ag28
ag16
ag39
ag10
ag31
asS'edge_to_blen'
p58
(dp59
g25
g46
(g50
S'\xbax\xadq\x95\x1b\xb2?'
p60
tp61
Rp62
sg10
g46
(g50
S'\xc5d3\xea\xe8\x9e\x86?'
p63
tp64
Rp65
sg13
g46
(g50
S'\x08\x12\xd1\x9c\r\xcbE>'
p66
tp67
Rp68
sg16
g46
(g50
S'u6)\xb8,\xc3\x80?'
p69
tp70
Rp71
sg19
g46
(g50
S'\x88\xfd]\x94\x89\xc9\xa7?'
p72
tp73
Rp74
sg22
g46
(g50
S"'\x0c\xb2K\x02\x1b\x8f?"
p75
tp76
Rp77
sg6
g46
(g50
S'\x0e\xa7\xf6\xa7\x9f\xfa\x97?'
p78
tp79
Rp80
sg28
g46
(g50
S'\xd7\xb0\xee\x89\x80t\x99?'
p81
tp82
Rp83
sg31
g46
(g50
S'\x17\xcc\xfb\x19UTt?'
p84
tp85
Rp86
sg39
g46
(g50
S'\xaa\xfc\xfb-\xbbs\x94?'
p87
tp88
Rp89
sg36
g46
(g50
S'\xb8\xb9\x84\xd9Jq{?'
p90
tp91
Rp92
sg34
g46
(g50
S'j\xd5qI\xb90\x93='
p93
tp94
Rp95
ssS'paralog'
p96
(lp97
S'YMR142C'
p98
aS'YDL082W'
p99
asS'alignment_file'
p100
S'../MafftAlignment/YMR142C_YDL082W/YMR142C_YDL082W_input.fasta'
p101
sS'x_clock'
p102
NsS'x'
p103
cnumpy.core.multiarray
_reconstruct
p104
(cnumpy
ndarray
p105
(I0
tp106
S'b'
p107
tp108
Rp109
(I1
(I18
tp110
g50
I00
S'\x03\x91\xff\rk$\xe6\xbfL\xd8gt8\n\xe0\xbf\x96u5]\x07o\xe7\xbf#\x90%\x85<\xc6\x01@\xfc\xca\xda-\xe7\xbb\x08@\xbc\xbd\xa66\xf6\xa0\x02@\xebuF\xb3\xd10\x05\xc00Q\xf3\xf4c(:\xc0\xe03M\xfc\xca\x08\x0e\xc0\xc1\xe9\xe7r\xab\x8d\x08\xc0)u\xf3]\xedg2\xc0\xe3\xf0HS\xba\xbf\x10\xc0\x89\xc0\xc4\xbf\xce\x05\x14\xc0|\xba\xa3~s\x8e\r\xc0\xff\r\x83\xea\xcf8\x13\xc0\xe6\xd7\x97\x16\x9eN\x0f\xc0\xd2\xe1l\xc8\xe3\x05\x12\xc0\x03\xa3N\x9b\x089\x15\xc0'
p111
tp112
bsS'Model'
p113
S'HKY'
p114
sS'clock'
p115
I00
s.