(dp0
S'Force'
p1
NsS'ExpectedGeneconv'
p2
(dp3
(S'N1'
p4
S'N2'
p5
tp6
(lp7
F51.479290367438
aF0.032694282691355124
as(S'N5'
p8
S'cerevisiae'
p9
tp10
(lp11
F8.251249583785361
aF0.006134059071382814
as(g5
S'N3'
p12
tp13
(lp14
F6.455963237422776
aF0.002393088012945376
as(S'N4'
p15
g8
tp16
(lp17
F4.502608168393303
aF0.0014901834223628359
as(g4
S'castellii'
p18
tp19
(lp20
F67.04105454058109
aF0.0365078623886893
as(g5
S'bayanus'
p21
tp22
(lp23
F10.325982972485862
aF0.00415445861792048
as(S'N0'
p24
g4
tp25
(lp26
F18.639436604081567
aF0.01097180150874808
as(g12
S'kudriavzevii'
p27
tp28
(lp29
F11.35407596711121
aF0.0038330790447233007
as(g8
S'paradoxus'
p30
tp31
(lp32
F4.629603025137264
aF0.001708662436545263
as(g24
S'kluyveri'
p33
tp34
(lp35
F0.0
aF0.0
as(g12
g15
tp36
(lp37
F6.070944773883619
aF0.0019403065682658937
as(g15
S'mikatae'
p38
tp39
(lp40
F11.726196503241352
aF0.00563855707935824
assS'ExpectedDwellTime'
p41
(dp42
g6
F1470.902113946828
sg10
F1663.6621081181506
sg13
F1618.6017008989606
sg16
F1647.3615933557182
sg19
F1460.921188800334
sg22
F1623.038754195612
sg25
F795.216631121913
sg28
F1644.4479514453021
sg31
F1665.5853965609126
sg34
F0.0
sg36
F1635.289892662583
sg39
F1640.8116229565128
ssS'newicktree'
p43
S'../PairsAlignemt/YeastTree.newick'
p44
sS'll'
p45
cnumpy.core.multiarray
scalar
p46
(cnumpy
dtype
p47
(S'f8'
p48
I0
I1
tp49
Rp50
(I3
S'<'
p51
NNNI-1
I-1
I0
tp52
bS'\xc3T\xb3\x9d\xe6\x96\xdb\xc0'
p53
tp54
Rp55
sS'edge_list'
p56
(lp57
g25
ag34
ag6
ag19
ag13
ag22
ag36
ag28
ag16
ag39
ag10
ag31
asS'edge_to_blen'
p58
(dp59
g6
g46
(g50
S'\x11h"\x9b\x04\x96\xf8?'
p60
tp61
Rp62
sg10
g46
(g50
S'9\tx\\\xcb\x90\xd4?'
p63
tp64
Rp65
sg13
g46
(g50
S'I\x18\x05dt\xea\xc8?'
p66
tp67
Rp68
sg16
g46
(g50
S'k\xda\xe55n\xeb\xc1?'
p69
tp70
Rp71
sg28
g46
(g50
S'(\x13\xd7\x0e\xf9\xdb\xda?'
p72
tp73
Rp74
sg22
g46
(g50
S'\xb70\xe7\x00z]\xd9?'
p75
tp76
Rp77
sg25
g46
(g50
S'<\x898\x1fK \xe8?'
p78
tp79
Rp80
sg19
g46
(g50
S'z\xa1P\xc4\xf0e\xfd?'
p81
tp82
Rp83
sg31
g46
(g50
S'\x19f\xcd\x89p,\xc8?'
p84
tp85
Rp86
sg39
g46
(g50
S'/\x9d\xe0;P\x80\xdb?'
p87
tp88
Rp89
sg36
g46
(g50
S'\xfcShx+\xd5\xc7?'
p90
tp91
Rp92
sg34
g46
(g50
S'\xca.\xd0\x87\xada\xf5?'
p93
tp94
Rp95
ssS'paralog'
p96
(lp97
S'YGL133W'
p98
aS'YPL216W'
p99
asS'alignment_file'
p100
S'../MafftAlignment/YGL133W_YPL216W/YGL133W_YPL216W_input.fasta'
p101
sS'x_clock'
p102
NsS'x'
p103
cnumpy.core.multiarray
_reconstruct
p104
(cnumpy
ndarray
p105
(I0
tp106
S'b'
p107
tp108
Rp109
(I1
(I19
tp110
g50
I00
S'\x0c\x1f\xe7\x9e\xf7a\xe3\xbf\xff\x8b\xc3\x9eP\x8b\xdb\xbf\xf5Rc\x8a]D\xf0\xbf$\x01\xa7\xac\xd7\x13\xf0?4\xc9\x86\xd1\x18\xa6\xfa\xbf\xdbI\x97\xd3\xe0C\x02\xc0i\x9e\xe0A\x13q#\xc0\xe8\xf1\xba$~\x13\xd2\xbf\xf8\xa1\xcd\xf5_\x8e\xd2?\xca\xf1\xf4\xe4a~\xdb?\xa4\x01#\xb8\x8fw\xe3?\xaf\x1f\x83~6/\xfa\xbf\xd9u\x8c;\xc1\x9d\xed\xbfDp\xe1\xcbB\xe5\xfa\xbff\xbc\xee\x94\xe2\xc8\xeb\xbfj\xb6\xa55Gu\xff\xbf^\x0f\x95\xced\x07\xeb\xbf:}\x8e\xb3\t*\xf2\xbf\x1d\x19\x86s\x16\xab\xfa\xbf'
p111
tp112
bsS'Model'
p113
S'MG94'
p114
sS'clock'
p115
I00
s.