(dp0
S'Force'
p1
NsS'ExpectedGeneconv'
p2
(dp3
(S'N1'
p4
S'N2'
p5
tp6
(lp7
F26.074533356693408
aF32.8917701232112
as(S'N5'
p8
S'cerevisiae'
p9
tp10
(lp11
F11.651040971914199
aF20.33802197525435
as(g5
S'N3'
p12
tp13
(lp14
F7.680547501255419
aF12.892171287013921
as(S'N4'
p15
g8
tp16
(lp17
F6.3144339038312705
aF13.315740283516146
as(g4
S'castellii'
p18
tp19
(lp20
F32.24975586244999
aF60.913553150041395
as(g5
S'bayanus'
p21
tp22
(lp23
F20.31119807123432
aF27.770920161900115
as(S'N0'
p24
g4
tp25
(lp26
F14.42555944101003
aF22.417943546809838
as(g12
S'kudriavzevii'
p27
tp28
(lp29
F19.940251826391012
aF21.189496328942763
as(g8
S'paradoxus'
p30
tp31
(lp32
F9.339370618872787
aF11.60414717264722
as(g24
S'kluyveri'
p33
tp34
(lp35
F0.0
aF0.0
as(g12
g15
tp36
(lp37
F10.6630124396894
aF15.025101940655347
as(g15
S'mikatae'
p38
tp39
(lp40
F13.158944586188513
aF28.660521374784473
assS'ExpectedDwellTime'
p41
(dp42
g6
F383.8696121526226
sg10
F467.81971948722827
sg13
F466.8153411350252
sg16
F477.4881196183148
sg19
F346.35274125506515
sg22
F462.01224536864817
sg25
F172.30456512544762
sg28
F481.8673033001231
sg31
F479.34998956799154
sg34
F0.0
sg36
F472.83434936995
sg39
F477.77869373203373
ssS'newicktree'
p43
S'../PairsAlignemt/YeastTree.newick'
p44
sS'll'
p45
cnumpy.core.multiarray
scalar
p46
(cnumpy
dtype
p47
(S'f8'
p48
I0
I1
tp49
Rp50
(I3
S'<'
p51
NNNI-1
I-1
I0
tp52
bS'\xcaD\x89\xea\xfa\xd1\xb9\xc0'
p53
tp54
Rp55
sS'edge_list'
p56
(lp57
g25
ag34
ag6
ag19
ag13
ag22
ag36
ag28
ag16
ag39
ag10
ag31
asS'edge_to_blen'
p58
(dp59
g25
g46
(g50
S'\xd6\xb5+\x1d\xd2\xd9\xbd?'
p60
tp61
Rp62
sg10
g46
(g50
S'X\xf7\xaa\xd9\xf4/\xa0?'
p63
tp64
Rp65
sg13
g46
(g50
S'Vd\xf0\x1a\xd5\x8f\x9a?'
p66
tp67
Rp68
sg16
g46
(g50
S'B\xc6\xc8\xa6L0\x98?'
p69
tp70
Rp71
sg19
g46
(g50
S'\xf7I\x12c\xca\x0b\xbe?'
p72
tp73
Rp74
sg22
g46
(g50
S'p}\xb1R%\xaa\xac?'
p75
tp76
Rp77
sg6
g46
(g50
S'\xe1bj\xf1\x00\x0e\xb9?'
p78
tp79
Rp80
sg28
g46
(g50
S'\x97\xa8[K\x7f\xd8\xa9?'
p81
tp82
Rp83
sg31
g46
(g50
S'\xcc\x1f\r\x81\xdd\xfd\x99?'
p84
tp85
Rp86
sg39
g46
(g50
S'\xac\x135B\xc4`\xa8?'
p87
tp88
Rp89
sg36
g46
(g50
S'\xea\xa8o\xb7\r\xcb\x9f?'
p90
tp91
Rp92
sg34
g46
(g50
S'C\xdcN1>\x9a\xa7?'
p93
tp94
Rp95
ssS'paralog'
p96
(lp97
S'YHR106W'
p98
aS'YDR353W'
p99
asS'alignment_file'
p100
S'../MafftAlignment/YHR106W_YDR353W/YHR106W_YDR353W_input.fasta'
p101
sS'x_clock'
p102
NsS'x'
p103
cnumpy.core.multiarray
_reconstruct
p104
(cnumpy
ndarray
p105
(I0
tp106
S'b'
p107
tp108
Rp109
(I1
(I18
tp110
g50
I00
S'\x7f\xd5\xae\x12\x02\r\xe7\xbf\xd5\x1cf\xec\x93\x14\xe3\xbf\xddZC\xc9E\xc6\xe8\xbf\xde5\xfa|\x82\xff\xf9?W\xcf\x14\x9d\xb4\xf8\xd7?\xd2\xa8\xcf\xef\xe0\x17\xea?\x95\xa8\x88\xe3\x131\x01\xc0\xa7\xfd\xd4;\xa3\x9d\x08\xc0DLR\x18\xca\x97\x02\xc0\xef\xf6\xb2\xbb\xba#\x01\xc0\xb9\xe4\xca\xadI7\r\xc0%\x08\xde[\xb0\x0f\x07\xc0A\xecRP\x1b\xc7\x0b\xc0\xde"\xfc\xb1\xb2\xe3\x07\xc0#\xe2\x98\x91\xf6\xf6\r\xc04\x1e\xb3/n[\x08\xc0\xb0\xc9\xfd\xf9\xfc\xa1\x0b\xc0\xe5\xb2x\xc0\xbac\r\xc0'
p111
tp112
bsS'Model'
p113
S'HKY'
p114
sS'clock'
p115
I00
s.