(dp0
S'Force'
p1
NsS'ExpectedGeneconv'
p2
(dp3
(S'N1'
p4
S'N2'
p5
tp6
(lp7
F47.45833092831558
aF37.315024500595364
as(S'N5'
p8
S'cerevisiae'
p9
tp10
(lp11
F18.231458353105296
aF10.999040847795095
as(g5
S'N3'
p12
tp13
(lp14
F6.273212225601144
aF3.658134486402174
as(S'N4'
p15
g8
tp16
(lp17
F5.821571904078995
aF6.488546169384725
as(g4
S'castellii'
p18
tp19
(lp20
F66.20099840667595
aF56.3645940785684
as(g5
S'bayanus'
p21
tp22
(lp23
F23.319700219375438
aF18.15280702940463
as(S'N0'
p24
g4
tp25
(lp26
F23.659732608364184
aF19.264548883693465
as(g12
S'kudriavzevii'
p27
tp28
(lp29
F15.467644098542154
aF11.357681790603174
as(g8
S'paradoxus'
p30
tp31
(lp32
F6.690228016124797
aF6.124714469086099
as(g24
S'kluyveri'
p33
tp34
(lp35
F0.0
aF0.0
as(g12
g15
tp36
(lp37
F8.210989135905129
aF5.356380207341944
as(g15
S'mikatae'
p38
tp39
(lp40
F13.075844385696
aF15.787006872476313
assS'ExpectedDwellTime'
p41
(dp42
g6
F447.25252886117573
sg10
F515.758213298035
sg13
F512.2678508571305
sg16
F518.362869623506
sg19
F465.0015592170091
sg22
F508.6862077987464
sg25
F216.53552015283802
sg28
F522.1838161228573
sg31
F512.0845376046908
sg34
F0.0
sg36
F517.5915942999079
sg39
F534.3009967684471
ssS'newicktree'
p43
S'../PairsAlignemt/YeastTree.newick'
p44
sS'll'
p45
cnumpy.core.multiarray
scalar
p46
(cnumpy
dtype
p47
(S'f8'
p48
I0
I1
tp49
Rp50
(I3
S'<'
p51
NNNI-1
I-1
I0
tp52
bS'\x90u\xb7\xf7\x7f\xc1\xb9\xc0'
p53
tp54
Rp55
sS'edge_list'
p56
(lp57
g25
ag34
ag6
ag19
ag13
ag22
ag36
ag28
ag16
ag39
ag10
ag31
asS'edge_to_blen'
p58
(dp59
g6
g46
(g50
S'\x9d5\n\x15\x8c\xbe\xc3?'
p60
tp61
Rp62
sg10
g46
(g50
S'A\x96\xdb\xca~y\xa7?'
p63
tp64
Rp65
sg13
g46
(g50
S'?)Y\tS\xeb\x92?'
p66
tp67
Rp68
sg16
g46
(g50
S'\xc7\xbd\x11c\x8bN\x93?'
p69
tp70
Rp71
sg28
g46
(g50
S'.\x99\xf9OX\xbe\xa7?'
p72
tp73
Rp74
sg22
g46
(g50
S'\x9cV\x91w!\x9a\xb0?'
p75
tp76
Rp77
sg25
g46
(g50
S'Sd=\xf8\xdf^\xc5?'
p78
tp79
Rp80
sg19
g46
(g50
S'r\xec\xed\xac\x14\x12\xcc?'
p81
tp82
Rp83
sg31
g46
(g50
S'\xb6\x14\xa4\x85e\x08\x93?'
p84
tp85
Rp86
sg39
g46
(g50
S' \xfbaa)e\xab?'
p87
tp88
Rp89
sg36
g46
(g50
S'\xa4o\x9c\xe5p\xbe\x95?'
p90
tp91
Rp92
sg34
g46
(g50
S'I\x02\x91b@\xd1\xba?'
p93
tp94
Rp95
ssS'paralog'
p96
(lp97
S'YPL232W'
p98
aS'YMR183C'
p99
asS'alignment_file'
p100
S'../MafftAlignment/YPL232W_YMR183C/YPL232W_YMR183C_input.fasta'
p101
sS'x_clock'
p102
NsS'x'
p103
cnumpy.core.multiarray
_reconstruct
p104
(cnumpy
ndarray
p105
(I0
tp106
S'b'
p107
tp108
Rp109
(I1
(I18
tp110
g50
I00
S'?\x0eP\xb44@\xe4\xbf\x170\xe8:E?\xdf\xbf\x85\x19Y\xd0\xbc\xa2\xe8\xbf+Q\xf4\x83\x18z\xf8?*Z\xbe\xee#\x8f\xd1?\xc5\xee\xaf\xb2c\xa0\xb1?\n{1\x99\xe5\xa3\xfc\xbf\x01\xffdG\x8c\x0c\x02\xc0\xf5\xbb\xaa\xac\x18\xe8\xfd\xbf\x99\xc6\xb0.\xe3F\xf8\xbf\xe3\x813\xd5*\xee\x0f\xc0\x0e\x7f\xcce\x9c\xe2\x05\xc0b\x07\xf7\xc4-\xd1\x0e\xc0:\x00n\xf7o\x91\x08\xc0\x93\xeb\x10\xd4\xa2\xc4\x0f\xc0\xed\x0e\x91Uul\x07\xc0#uu}\xc4\xa8\x08\xc0\xd4\xcaT/\xe9\xe1\x0f\xc0'
p111
tp112
bsS'Model'
p113
S'HKY'
p114
sS'clock'
p115
I00
s.