(dp0
S'Force'
p1
NsS'ExpectedGeneconv'
p2
(dp3
(S'N1'
p4
S'N2'
p5
tp6
(lp7
F9.973412445658465
aF36.459934090937956
as(S'N5'
p8
S'cerevisiae'
p9
tp10
(lp11
F6.892142965984404
aF16.521773656040995
as(g5
S'N3'
p12
tp13
(lp14
F2.4227235837009022
aF10.6430854415032
as(S'N4'
p15
g8
tp16
(lp17
F3.811843470291498
aF4.845434187225777
as(g4
S'castellii'
p18
tp19
(lp20
F19.913350719281375
aF66.12701009241908
as(g5
S'bayanus'
p21
tp22
(lp23
F4.60530247388775
aF18.583116339865523
as(S'N0'
p24
g4
tp25
(lp26
F8.39510870641374
aF25.711219947181796
as(g12
S'kudriavzevii'
p27
tp28
(lp29
F5.8782127857953235
aF21.29624411700007
as(g8
S'paradoxus'
p30
tp31
(lp32
F3.381536691783812
aF12.931371868832487
as(g24
S'kluyveri'
p33
tp34
(lp35
F0.0
aF0.0
as(g12
g15
tp36
(lp37
F2.663277239828433
aF8.045037032339534
as(g15
S'mikatae'
p38
tp39
(lp40
F12.203865570133926
aF24.259405545844523
assS'ExpectedDwellTime'
p41
(dp42
g6
F547.9053733107818
sg10
F650.1164862557812
sg13
F641.6015452487649
sg16
F655.2870991642907
sg19
F582.8514925341357
sg22
F638.4654124633877
sg25
F260.8468933166842
sg28
F660.6718206610607
sg31
F657.8909078891459
sg34
F0.0
sg36
F653.5010919065471
sg39
F641.9380140230406
ssS'newicktree'
p43
S'../PairsAlignemt/YeastTree.newick'
p44
sS'll'
p45
cnumpy.core.multiarray
scalar
p46
(cnumpy
dtype
p47
(S'f8'
p48
I0
I1
tp49
Rp50
(I3
S'<'
p51
NNNI-1
I-1
I0
tp52
bS'\x83\xa8\x8d8\x10\x08\xbd\xc0'
p53
tp54
Rp55
sS'edge_list'
p56
(lp57
g25
ag34
ag6
ag19
ag13
ag22
ag36
ag28
ag16
ag39
ag10
ag31
asS'edge_to_blen'
p58
(dp59
g25
g46
(g50
S'\xb9@@O\x82`\xc5?'
p60
tp61
Rp62
sg10
g46
(g50
S'\xacH\xd1$\x9dC\xa4?'
p63
tp64
Rp65
sg13
g46
(g50
S'\xc9\xc2\x0b\xd8\xa0)\x9c?'
p66
tp67
Rp68
sg16
g46
(g50
S'\xe7\xe3~\x1a\x1e\xd0\x94?'
p69
tp70
Rp71
sg19
g46
(g50
S'\x12\x107\xca\xe7\xea\xc7?'
p72
tp73
Rp74
sg22
g46
(g50
S'\x0ewK\xb8\x02\x9c\xa6?'
p75
tp76
Rp77
sg6
g46
(g50
S'\xb3\xd7\xb0\xb2\xb2#\xbd?'
p78
tp79
Rp80
sg28
g46
(g50
S'\x00\xca\x81\xdd(\xe1\xac?'
p81
tp82
Rp83
sg31
g46
(g50
S'\xef\x92Y\xd6%\x87\x9f?'
p84
tp85
Rp86
sg39
g46
(g50
S'\x7fY1 L\x0e\xb0?'
p87
tp88
Rp89
sg36
g46
(g50
S"\xab\xe8';*w\x95?"
p90
tp91
Rp92
sg34
g46
(g50
S'(g)\xc4+\x15\xad?'
p93
tp94
Rp95
ssS'paralog'
p96
(lp97
S'YGR043C'
p98
aS'YLR354C'
p99
asS'alignment_file'
p100
S'../MafftAlignment/YGR043C_YLR354C/YGR043C_YLR354C_input.fasta'
p101
sS'x_clock'
p102
NsS'x'
p103
cnumpy.core.multiarray
_reconstruct
p104
(cnumpy
ndarray
p105
(I0
tp106
S'b'
p107
tp108
Rp109
(I1
(I18
tp110
g50
I00
S"\xcf\xaf\x19\xb4\x94\x1d\xe7\xbff\xfd\xc8S\xd0>\xe0\xbf&\x84t\xa2Gl\xea\xbf\xfc\x02\xfa\x80o\xd7\xf7?\xeb\xf0\xc6\xcai'\xee\xbf\xfc\x82\xa6'\xdb\xa6\xc6?m(\xfeo\xac\xa2\xfc\xbf\x8c\xb8\xf7\xf6\x08\xf2\x06\xc0,#\xaf7zb\x01\xc0\x8c\xb8\xeb\xd8\xb1\xd6\xfa\xbf\xb5}\x84\xa5p\xbf\x0c\xc0\x9c\x86\xd4\x9d\xac\xf5\x08\xc0\xc7S\xd9j\x92\xeb\x0e\xc0\x18n\x10sd\x00\x07\xc0F\xaeJ\x81\xcb*\x0f\xc0\x99[\xa4\x1e '\x06\xc0\xd9\x82E\xeb\xf5\xd5\t\xc0L\x84\xa3\xe7C\xd8\x0b\xc0"
p111
tp112
bsS'Model'
p113
S'HKY'
p114
sS'clock'
p115
I00
s.