(dp0
S'Force'
p1
NsS'ExpectedGeneconv'
p2
(dp3
(S'N1'
p4
S'N2'
p5
tp6
(lp7
F102.36142600426386
aF162.3215901381494
as(S'N5'
p8
S'cerevisiae'
p9
tp10
(lp11
F41.93674898769057
aF75.40850432258199
as(g5
S'N3'
p12
tp13
(lp14
F27.172469426666215
aF39.67574973394652
as(S'N4'
p15
g8
tp16
(lp17
F23.863742608927705
aF33.57676726870077
as(g4
S'castellii'
p18
tp19
(lp20
F169.37386859154924
aF270.8732268329652
as(g5
S'bayanus'
p21
tp22
(lp23
F62.54319563057761
aF100.49415906904109
as(S'N0'
p24
g4
tp25
(lp26
F11.592382296383741
aF18.474190382142954
as(g12
S'kudriavzevii'
p27
tp28
(lp29
F57.39240758060427
aF84.16870256083597
as(g8
S'paradoxus'
p30
tp31
(lp32
F22.71118394213556
aF38.03341378066964
as(g24
S'kluyveri'
p33
tp34
(lp35
F0.0
aF0.0
as(g12
g15
tp36
(lp37
F29.615646366477243
aF47.33264052533298
as(g15
S'mikatae'
p38
tp39
(lp40
F53.95889732208383
aF89.91815716617567
assS'ExpectedDwellTime'
p41
(dp42
g6
F664.3302255797531
sg10
F847.4450249814432
sg13
F794.3901958545414
sg16
F862.6798605830006
sg19
F787.3622707740859
sg22
F791.4585611364187
sg25
F240.4708544468397
sg28
F876.3785859229669
sg31
F900.6966353683586
sg34
F0.0
sg36
F835.4236847109381
sg39
F893.8062233376985
ssS'newicktree'
p43
S'../PairsAlignemt/YeastTree.newick'
p44
sS'll'
p45
cnumpy.core.multiarray
scalar
p46
(cnumpy
dtype
p47
(S'f8'
p48
I0
I1
tp49
Rp50
(I3
S'<'
p51
NNNI-1
I-1
I0
tp52
bS'\x00\x81\xc9J\xa5k\xd2\xc0'
p53
tp54
Rp55
sS'edge_list'
p56
(lp57
g25
ag34
ag6
ag19
ag13
ag22
ag36
ag28
ag16
ag39
ag10
ag31
asS'edge_to_blen'
p58
(dp59
g25
g46
(g50
S'\xfe.\xcb\xce\x84\x08\xc1?'
p60
tp61
Rp62
sg10
g46
(g50
S'9\xda\x8b\x98<y\xc1?'
p63
tp64
Rp65
sg13
g46
(g50
S'\xc9J\xbd\x89\x14\x82\xb7?'
p66
tp67
Rp68
sg16
g46
(g50
S'\x81(\xaa2\xe9n\xb3?'
p69
tp70
Rp71
sg19
g46
(g50
S'x\x98\x16rt\x1f\xe6?'
p72
tp73
Rp74
sg22
g46
(g50
S'\x91\x9d3\x08@t\xca?'
p75
tp76
Rp77
sg6
g46
(g50
S'D\xf5\xfa\xb4\xf5D\xd9?'
p78
tp79
Rp80
sg28
g46
(g50
S'\xc8\xe2\xd8\x13\xb2\xc1\xc9?'
p81
tp82
Rp83
sg31
g46
(g50
S'%\xf0a\xe8\xab\xce\xb7?'
p84
tp85
Rp86
sg39
g46
(g50
S'\xdb\xcc\x04[\xaf\xb1\xc9?'
p87
tp88
Rp89
sg36
g46
(g50
S'\xe0;@\x94\xfaj\xba?'
p90
tp91
Rp92
sg34
g46
(g50
S'Q\xb2(\xb7\xda5\xe9?'
p93
tp94
Rp95
ssS'paralog'
p96
(lp97
S'YGL062W'
p98
aS'YBR218C'
p99
asS'alignment_file'
p100
S'../MafftAlignment/YGL062W_YBR218C/YGL062W_YBR218C_input.fasta'
p101
sS'x_clock'
p102
NsS'x'
p103
cnumpy.core.multiarray
_reconstruct
p104
(cnumpy
ndarray
p105
(I0
tp106
S'b'
p107
tp108
Rp109
(I1
(I19
tp110
g50
I00
S'G\xcc\xe22r\x87\xe7\xbf\xcb\x02t\xb8D\xe5\xe0\xbf\xf3A\xc2\x8b\x11\xc7\xed\xbfX\x07\xa3\xa8\xce"\xf4?5\xa6\xdd\xef;h\x08\xc0\x9d\x08\xcari\x9f\xc6\xbf\xcaL\x80\xeb\xab\x83\xd2?X\x1a\xd59\x88"\x00\xc01A\x94\xc6\x87\x86\xce\xbf\xe8\xea\xb7:\xbe\xbc\xed\xbfAE6\x1c\xba\x9f\xd7\xbf\x8a\xf4\x07LG\x1a\x03\xc0o\x12m\xe0\xd49\xf9\xbf\x04\xea\xb3oI+\x02\xc0\xf1\xdf\x0e7F\xa7\xf9\xbf\x07\r\xce3#\xa0\x04\xc0\xc3\xcaao;\xb1\xf9\xbfk\xe0|\x87\x87\xdc\xff\xbf\xe0\xf7\xbf\xdb`\x00\x03\xc0'
p111
tp112
bsS'Model'
p113
S'MG94'
p114
sS'clock'
p115
I00
s.