(dp0
S'Force'
p1
NsS'ExpectedGeneconv'
p2
(dp3
(S'N1'
p4
S'N2'
p5
tp6
(lp7
F61.174079210364575
aF10.843138192930478
as(S'N5'
p8
S'cerevisiae'
p9
tp10
(lp11
F5.98514826513275
aF1.2402685839437806
as(g5
S'N3'
p12
tp13
(lp14
F1.40713665794937
aF0.3370754551792229
as(S'N4'
p15
g8
tp16
(lp17
F2.3379349818164767
aF0.3876986108845313
as(g4
S'castellii'
p18
tp19
(lp20
F75.11963995176235
aF13.324866082205618
as(g5
S'bayanus'
p21
tp22
(lp23
F8.741755641826726
aF0.9654259712817529
as(S'N0'
p24
g4
tp25
(lp26
F6.659532073757063
aF1.185453626223243
as(g12
S'kudriavzevii'
p27
tp28
(lp29
F4.077705230161343
aF1.0744242272064173
as(g8
S'paradoxus'
p30
tp31
(lp32
F1.0534773630834022
aF0.18764873467688248
as(g24
S'kluyveri'
p33
tp34
(lp35
F0.0
aF0.0
as(g12
g15
tp36
(lp37
F1.403131944206771
aF0.36778301363152344
as(g15
S'mikatae'
p38
tp39
(lp40
F5.942419194619494
aF1.0427094351069925
assS'ExpectedDwellTime'
p41
(dp42
g6
F407.63713738427504
sg10
F470.9218584493851
sg13
F473.3884179616122
sg16
F477.2583968755617
sg19
F411.8582540972849
sg22
F459.7784174664536
sg25
F173.8289157368842
sg28
F477.2756445504193
sg31
F479.07791799085066
sg34
F0.0
sg36
F477.9963221003961
sg39
F476.4174891752466
ssS'newicktree'
p43
S'../PairsAlignemt/YeastTree.newick'
p44
sS'll'
p45
cnumpy.core.multiarray
scalar
p46
(cnumpy
dtype
p47
(S'f8'
p48
I0
I1
tp49
Rp50
(I3
S'<'
p51
NNNI-1
I-1
I0
tp52
bS'\x01\x88\x9f\x18\xa8!\xbc\xc0'
p53
tp54
Rp55
sS'edge_list'
p56
(lp57
g25
ag34
ag6
ag19
ag13
ag22
ag36
ag28
ag16
ag39
ag10
ag31
asS'edge_to_blen'
p58
(dp59
g25
g46
(g50
S'\xfa\x9a\xeb\xb0)\xa8\xdc?'
p60
tp61
Rp62
sg10
g46
(g50
S'\xf3R\xb8\xcd1I\xcd?'
p63
tp64
Rp65
sg13
g46
(g50
S'E\xe0\xf4\x0e8\xcd\xbc?'
p66
tp67
Rp68
sg16
g46
(g50
S'\xa2\xc6\xb5\x0c\x07`\xc0?'
p69
tp70
Rp71
sg19
g46
(g50
S'\xf6S\x04\x19\xf0/\t@'
p72
tp73
Rp74
sg22
g46
(g50
S'\xb5U\x1c\xb4\xa7\xb0\xd2?'
p75
tp76
Rp77
sg6
g46
(g50
S'to\x1e\xe4\xe2Z\x04@'
p78
tp79
Rp80
sg28
g46
(g50
S'/\xde\xdc\x897\x86\xd0?'
p81
tp82
Rp83
sg31
g46
(g50
S'&\xf1*\xcdd3\xb2?'
p84
tp85
Rp86
sg39
g46
(g50
S'\xa0\xf8\xe3c{\r\xd2?'
p87
tp88
Rp89
sg36
g46
(g50
S'\xbc\xda<\xca\x8f\x02\xb6?'
p90
tp91
Rp92
sg34
g46
(g50
S'\x91\x9a\xcaD\xef\xc0\x03@'
p93
tp94
Rp95
ssS'paralog'
p96
(lp97
S'YPL087W'
p98
aS'YBR183W'
p99
asS'alignment_file'
p100
S'../MafftAlignment/YPL087W_YBR183W/YPL087W_YBR183W_input.fasta'
p101
sS'x_clock'
p102
NsS'x'
p103
cnumpy.core.multiarray
_reconstruct
p104
(cnumpy
ndarray
p105
(I0
tp106
S'b'
p107
tp108
Rp109
(I1
(I19
tp110
g50
I00
S'\xdb2C\xab\x08g\xe6\xbf?/\xbcrJq\xe1\xbf\xc912\xd0\x992\xf1\xbf\xba\xddP\xb2I4\xf0?_:\x99S\xbd\xb3\x05\xc0T\xeeW\xf4v\xb0\xf8\xbf18\xd9\x91\xec&\n\xc0\x89\x91\x1d9/\xb6\xe9\xbf-\xd7u\xf6\xb8\xec\xec?\xfa"\xabie\xe2\xed?\xdb\xc4\rQ\xb0Y\xf2?yr7\xb5[z\x01\xc0\x7fes\x15\xbb\xb1\xf3\xbfa\xb1\x81\x1c#\xa1\x03\xc0\xd2\x05\xd5e2\xaa\xf5\xbf\x03\xff{\x97<s\x00\xc0\xd9Z\xc5\x1b\xdb?\xf4\xbf\x92\xc0\xe2lI\x99\xf7\xbf9\xff7\xaaS&\x05\xc0'
p111
tp112
bsS'Model'
p113
S'MG94'
p114
sS'clock'
p115
I00
s.