(dp0
S'Force'
p1
NsS'ExpectedGeneconv'
p2
(dp3
(S'N1'
p4
S'N2'
p5
tp6
(lp7
F7.834274588366903
aF28.48496558686579
as(S'N5'
p8
S'cerevisiae'
p9
tp10
(lp11
F2.608058510809321
aF3.7960985882062253
as(g5
S'N3'
p12
tp13
(lp14
F0.13952226258416697
aF2.3999471846343465
as(S'N4'
p15
g8
tp16
(lp17
F0.3898952193949131
aF0.9775858547774041
as(g4
S'castellii'
p18
tp19
(lp20
F12.376926638225038
aF46.70750879313745
as(g5
S'bayanus'
p21
tp22
(lp23
F1.9987949091293642
aF10.055547704988172
as(S'N0'
p24
g4
tp25
(lp26
F8.611777419869883
aF32.8654378997832
as(g12
S'kudriavzevii'
p27
tp28
(lp29
F0.3545116179883266
aF4.63303427028406
as(g8
S'paradoxus'
p30
tp31
(lp32
F1.4762477425948184
aF0.8479961561609121
as(g24
S'kluyveri'
p33
tp34
(lp35
F0.0
aF0.0
as(g12
g15
tp36
(lp37
F0.34988292801065957
aF4.7076644650169035
as(g15
S'mikatae'
p38
tp39
(lp40
F1.1300102249302604
aF6.765737217401584
assS'ExpectedDwellTime'
p41
(dp42
g6
F43.78494140220886
sg10
F47.885805381486435
sg13
F36.68740656356509
sg16
F43.914813760968734
sg19
F51.623693029004706
sg22
F27.52986429745128
sg25
F33.75030124105079
sg28
F43.81839001182289
sg31
F52.131212333997254
sg34
F0.0
sg36
F39.90597548546452
sg39
F43.94316506528157
ssS'newicktree'
p43
S'../PairsAlignemt/YeastTree.newick'
p44
sS'll'
p45
cnumpy.core.multiarray
scalar
p46
(cnumpy
dtype
p47
(S'f8'
p48
I0
I1
tp49
Rp50
(I3
S'<'
p51
NNNI-1
I-1
I0
tp52
bS'z\x90w\xe5s\xc7\x94\xc0'
p53
tp54
Rp55
sS'edge_list'
p56
(lp57
g25
ag34
ag6
ag19
ag13
ag22
ag36
ag28
ag16
ag39
ag10
ag31
asS'edge_to_blen'
p58
(dp59
g25
g46
(g50
S'\xf9)\xec\x8cJE\xbc?'
p60
tp61
Rp62
sg10
g46
(g50
S'\x8d\x9b\xd6\xea\x82p\x8b?'
p63
tp64
Rp65
sg13
g46
(g50
S'\xff\xb9\x95b]t}?'
p66
tp67
Rp68
sg16
g46
(g50
S'O91R\xbe;t?'
p69
tp70
Rp71
sg28
g46
(g50
S'\x98n\x0b\x8a\xdd\xcd\x8c?'
p72
tp73
Rp74
sg22
g46
(g50
S'\xd3\t\xfd\\\x07\xdf\x94?'
p75
tp76
Rp77
sg6
g46
(g50
S'\x94D4\xf4\xd3\xb3\xaf?'
p78
tp79
Rp80
sg19
g46
(g50
S'7\xf0X\x9ceL\xbb?'
p81
tp82
Rp83
sg31
g46
(g50
S'?o8\x84\xe3\x17\x82?'
p84
tp85
Rp86
sg39
g46
(g50
S"'`\x064\xc30\x92?"
p87
tp88
Rp89
sg36
g46
(g50
S'\x92\xe6w\xba\xe8"\x86?'
p90
tp91
Rp92
sg34
g46
(g50
S'\x85\xe8\x18\x02\x12\xf9\xf6>'
p93
tp94
Rp95
ssS'paralog'
p96
(lp97
S'YLR333C'
p98
aS'YGR027C'
p99
asS'alignment_file'
p100
S'../MafftAlignment/YLR333C_YGR027C/YLR333C_YGR027C_input.fasta'
p101
sS'x_clock'
p102
NsS'x'
p103
cnumpy.core.multiarray
_reconstruct
p104
(cnumpy
ndarray
p105
(I0
tp106
S'b'
p107
tp108
Rp109
(I1
(I18
tp110
g50
I00
S'\x81\xf4\xfc$\x9f\x9d\xe7\xbf\x1f\xedW\x80\xf7Q\xe0\xbfi\x14e\xf5-J\xe9\xbf\xefr\xf2hOd\x00@\x12rM`\xca\xb4\xf8?l?pOC\x11\x07@\xe3\xd6\x07Vw\xa0\x01\xc0\xf6\xbc\x1f\x99\x0eu%\xc0.\x05T\xd0dA\x06\xc0ywW7#\xe8\x01\xc0\xbb\x1e\x91\x15[\xbd\x13\xc0\x85\xce\xacJ\x12%\x0f\xc0\xcb\x17\xbb\n\x0e\x1c\x12\xc0\x11\t\x0e\xffo\x0e\x11\xc0#=\xf2\x18\xe2=\x15\xc0\x97\x7f"\xa9N\x1f\x10\xc0C|\xa6\x84#@\x11\xc0\xf9\xc0$\x03\x93\xea\x12\xc0'
p111
tp112
bsS'Model'
p113
S'HKY'
p114
sS'clock'
p115
I00
s.