(dp0
S'Force'
p1
NsS'ExpectedGeneconv'
p2
(dp3
(S'N1'
p4
S'N2'
p5
tp6
(lp7
F23.190378430504886
aF36.43793195893018
as(S'N5'
p8
S'cerevisiae'
p9
tp10
(lp11
F11.197253635820898
aF16.25483920181907
as(g5
S'N3'
p12
tp13
(lp14
F4.037277915515168
aF5.623853128886575
as(S'N4'
p15
g8
tp16
(lp17
F4.973619015075759
aF9.886711264242106
as(g4
S'castellii'
p18
tp19
(lp20
F51.12302232024507
aF91.42434242481698
as(g5
S'bayanus'
p21
tp22
(lp23
F12.524029362145022
aF22.332427086483847
as(S'N0'
p24
g4
tp25
(lp26
F3.756232375824015
aF6.444371584463774
as(g12
S'kudriavzevii'
p27
tp28
(lp29
F11.85882061837745
aF23.46667399348336
as(g8
S'paradoxus'
p30
tp31
(lp32
F6.5915920371084775
aF11.974496102334435
as(g24
S'kluyveri'
p33
tp34
(lp35
F0.0
aF0.0
as(g12
g15
tp36
(lp37
F5.389265863298935
aF13.519460897738515
as(g15
S'mikatae'
p38
tp39
(lp40
F14.41103262057772
aF18.387313945714265
assS'ExpectedDwellTime'
p41
(dp42
g6
F616.788905555971
sg10
F850.1181478746691
sg13
F842.9199156964386
sg16
F857.1382850486289
sg19
F740.0806167434903
sg22
F840.8514379184309
sg25
F196.20174309186518
sg28
F872.218250044792
sg31
F867.5594626717779
sg34
F0.0
sg36
F860.0881293590054
sg39
F861.2104969579892
ssS'newicktree'
p43
S'../PairsAlignemt/YeastTree.newick'
p44
sS'll'
p45
cnumpy.core.multiarray
scalar
p46
(cnumpy
dtype
p47
(S'f8'
p48
I0
I1
tp49
Rp50
(I3
S'<'
p51
NNNI-1
I-1
I0
tp52
bS'\x8c\x9d\xc0\x0cb\x9e\xc4\xc0'
p53
tp54
Rp55
sS'edge_list'
p56
(lp57
g25
ag34
ag6
ag19
ag13
ag22
ag36
ag28
ag16
ag39
ag10
ag31
asS'edge_to_blen'
p58
(dp59
g6
g46
(g50
S'\xaclX\xc63\x17\xc8?'
p60
tp61
Rp62
sg10
g46
(g50
S'\x07\x7fK]\xf6\x92\xa9?'
p63
tp64
Rp65
sg13
g46
(g50
S'\xaf#p\x9c&/\x9d?'
p66
tp67
Rp68
sg16
g46
(g50
S'}x\x04\xb1Q\xf5\x9a?'
p69
tp70
Rp71
sg28
g46
(g50
S'\xad\xb6S\x85\xef\xaf\xb0?'
p72
tp73
Rp74
sg22
g46
(g50
S'~\x867:\xe2)\xb2?'
p75
tp76
Rp77
sg25
g46
(g50
S'I\xbe\x04\x91\xaa\xad\xb7?'
p78
tp79
Rp80
sg19
g46
(g50
S'\x00C\x1et\xc1r\xd6?'
p81
tp82
Rp83
sg31
g46
(g50
S'\xfap\x1f[\xb1$\xa3?'
p84
tp85
Rp86
sg34
g46
(g50
S"b\xf89N^'\xcc?"
p87
tp88
Rp89
sg36
g46
(g50
S'\xb6\x06\x01"4\xb9\x9f?'
p90
tp91
Rp92
sg39
g46
(g50
S'x\xf30\x8c\xc0\xe7\xb1?'
p93
tp94
Rp95
ssS'paralog'
p96
(lp97
S'YPR157W'
p98
aS'YGR141W'
p99
asS'alignment_file'
p100
S'../MafftAlignment/YPR157W_YGR141W/YPR157W_YGR141W_input.fasta'
p101
sS'x_clock'
p102
NsS'x'
p103
cnumpy.core.multiarray
_reconstruct
p104
(cnumpy
ndarray
p105
(I0
tp106
S'b'
p107
tp108
Rp109
(I1
(I18
tp110
g50
I00
S'l\xd2\xd4bd\xce\xe6\xbf\x8d\t\x03\x01\xc63\xe3\xbfIe\xb4\xf9\xe6\xda\xea\xbf\xea\x8e\xf5\xc9\xe9;\xf3?\xb6\xe6\xb5\x14i(\xec\xbf\x1f\xbc\xab\xde\xe3\xc4\xd5\xbf\x9c\xa2\x13\xd1\x7f\x0b\x03\xc0\xc6&\xfe\x88\xc5:\xf8\xbf\xbc\xd2\x05\x1f+\xb9\xfa\xbfU\xa4\xfccA\xc3\xf0\xbfy\x12Qfwv\x0c\xc0\xa7\xbb<\xdb\x82*\x05\xc0\\\x08ig\x9a\xcb\x0b\xc0\xafX\xaev!\xd8\x05\xc0\r\xdb4\x90\xf2\x18\r\xc0G\xe7t\xea\xd8G\x05\xc0T\x81/\xc3U\xf9\x07\xc0z\xe4\xbav|J\n\xc0'
p111
tp112
bsS'Model'
p113
S'HKY'
p114
sS'clock'
p115
I00
s.