(dp0
S'Force'
p1
NsS'ExpectedGeneconv'
p2
(dp3
(S'N1'
p4
S'N2'
p5
tp6
(lp7
F77.45741407312288
aF74.1376424213717
as(S'N5'
p8
S'cerevisiae'
p9
tp10
(lp11
F27.025484651598035
aF16.713257919443578
as(g5
S'N3'
p12
tp13
(lp14
F16.55018480137449
aF16.430020035631447
as(S'N4'
p15
g8
tp16
(lp17
F17.136333563878434
aF11.362693404462306
as(g4
S'castellii'
p18
tp19
(lp20
F127.69505264802243
aF109.22145754938592
as(g5
S'bayanus'
p21
tp22
(lp23
F38.57906471479783
aF42.6564745840124
as(S'N0'
p24
g4
tp25
(lp26
F23.787542434892572
aF21.088295070682108
as(g12
S'kudriavzevii'
p27
tp28
(lp29
F40.78049171998172
aF32.88750135697074
as(g8
S'paradoxus'
p30
tp31
(lp32
F26.579909837209254
aF17.968200390632425
as(g24
S'kluyveri'
p33
tp34
(lp35
F0.0
aF0.0
as(g12
g15
tp36
(lp37
F13.475904115093487
aF11.370080406809048
as(g15
S'mikatae'
p38
tp39
(lp40
F40.68602055379776
aF44.834100070870896
assS'ExpectedDwellTime'
p41
(dp42
g6
F901.2338333386011
sg10
F1219.2643266068417
sg13
F1140.8071617843032
sg16
F1199.0519863832749
sg19
F944.9190837961094
sg22
F1132.8693533579212
sg25
F361.05031457068384
sg28
F1186.347697953059
sg31
F1181.488794973986
sg34
F0.0
sg36
F1188.8083229311471
sg39
F1202.2369521237201
ssS'newicktree'
p43
S'../PairsAlignemt/YeastTree.newick'
p44
sS'll'
p45
cnumpy.core.multiarray
scalar
p46
(cnumpy
dtype
p47
(S'f8'
p48
I0
I1
tp49
Rp50
(I3
S'<'
p51
NNNI-1
I-1
I0
tp52
bS'\x8f1!\x0eo\r\xcf\xc0'
p53
tp54
Rp55
sS'edge_list'
p56
(lp57
g25
ag34
ag6
ag19
ag13
ag22
ag36
ag28
ag16
ag39
ag10
ag31
asS'edge_to_blen'
p58
(dp59
g25
g46
(g50
S'\xcf\xf6\xb8X\xf1\x1a\xbc?'
p60
tp61
Rp62
sg10
g46
(g50
S'\xdd\x9a\xcc!\xa5G\xa3?'
p63
tp64
Rp65
sg13
g46
(g50
S't\xa4\x99S&\xb9\x9f?'
p66
tp67
Rp68
sg16
g46
(g50
S'\xf3\xf4\x81\x85\x0f\xd8\x95?'
p69
tp70
Rp71
sg19
g46
(g50
S'\xeaK\xa5\xe0\xeb\xde\xca?'
p72
tp73
Rp74
sg22
g46
(g50
S'6\x12\x89\xc9\xf0\x0e\xaf?'
p75
tp76
Rp77
sg6
g46
(g50
S'\x85j\xa6\r9\xd3\xc2?'
p78
tp79
Rp80
sg28
g46
(g50
S'0\xe8\xf1#dy\xad?'
p81
tp82
Rp83
sg31
g46
(g50
S'?\x84_s\xc3\x97\x9e?'
p84
tp85
Rp86
sg39
g46
(g50
S"\x8b\xb4\xceZ'\xe5\xae?"
p87
tp88
Rp89
sg36
g46
(g50
S'<\xee\xbe\x1d\x11\xb1\x96?'
p90
tp91
Rp92
sg34
g46
(g50
S'D\xb57\xd5\x97\x95\xc9?'
p93
tp94
Rp95
ssS'paralog'
p96
(lp97
S'YPR159W'
p98
aS'YGR143W'
p99
asS'alignment_file'
p100
S'../MafftAlignment/YPR159W_YGR143W/YPR159W_YGR143W_input.fasta'
p101
sS'x_clock'
p102
NsS'x'
p103
cnumpy.core.multiarray
_reconstruct
p104
(cnumpy
ndarray
p105
(I0
tp106
S'b'
p107
tp108
Rp109
(I1
(I18
tp110
g50
I00
S'3\xd2\x91N\x82\xb4\xe7\xbf=\xfb\xb4\x98e\x92\xe0\xbf[\xf9\x95\xae\xb7\xed\xe9\xbf}\x8e\xbe\x1f\x9bt\xf4?=eP\xdb#\x83\xc7?3CO\xf5\xde0\xb0?\xa2w~-|\xac\x01\xc0\x170\xdcD\xc3\xc2\xf9\xbf7\xa7<\'`\xab\xfe\xbf\xf1\xab\xba=\xd1\xf9\xf8\xbfS\x8b\xb7\xe2\x9d\xcb\x0b\xc0\xfe;\xf8Wnk\x06\xc0\x04w)\x84\xcdy\x0e\xc0\xe1\x19\x83\x8c\xa6\xd6\x06\xc0"\x18\x1cC\xc6\xc7\x0e\xc0Y\xfb\xd2\x0c9v\x06\xc0\x89\xf1ku\xee;\n\xc0\x96:\xa5*\xed\x15\x0c\xc0'
p111
tp112
bsS'Model'
p113
S'HKY'
p114
sS'clock'
p115
I00
s.