(dp0
S'Force'
p1
NsS'ExpectedGeneconv'
p2
(dp3
(S'N1'
p4
S'N2'
p5
tp6
(lp7
F9.060484142714518
aF10.668176207565853
as(S'N5'
p8
S'cerevisiae'
p9
tp10
(lp11
F1.8592303458006734
aF2.1664573376433607
as(g5
S'N3'
p12
tp13
(lp14
F1.8748843311561425
aF2.4609966959292953
as(S'N4'
p15
g8
tp16
(lp17
F2.001267504943799
aF0.607776051797645
as(g4
S'castellii'
p18
tp19
(lp20
F12.310312957009742
aF13.408351714006926
as(g5
S'bayanus'
p21
tp22
(lp23
F5.04502244687809
aF7.190298410758577
as(S'N0'
p24
g4
tp25
(lp26
F2.1556792330506314
aF2.3220247672211
as(g12
S'kudriavzevii'
p27
tp28
(lp29
F4.2520409814060915
aF4.096213787220026
as(g8
S'paradoxus'
p30
tp31
(lp32
F0.3870732344866768
aF0.7577172905462984
as(g24
S'kluyveri'
p33
tp34
(lp35
F0.0
aF0.0
as(g12
g15
tp36
(lp37
F0.35569488844740066
aF0.690362940446916
as(g15
S'mikatae'
p38
tp39
(lp40
F3.8352342916329945
aF2.0951103662357413
assS'ExpectedDwellTime'
p41
(dp42
g6
F97.91684998327887
sg10
F133.25754902872475
sg13
F119.29072860584314
sg16
F122.40988933304818
sg19
F94.85431248537617
sg22
F123.8705594067283
sg25
F39.29149629808706
sg28
F129.87666214084854
sg31
F125.57172693266146
sg34
F0.0
sg36
F119.87306481851661
sg39
F130.18780248119566
ssS'newicktree'
p43
S'../PairsAlignemt/YeastTree.newick'
p44
sS'll'
p45
cnumpy.core.multiarray
scalar
p46
(cnumpy
dtype
p47
(S'f8'
p48
I0
I1
tp49
Rp50
(I3
S'<'
p51
NNNI-1
I-1
I0
tp52
bS'\xa7\x85\xfd\x0c\xa2%\xa2\xc0'
p53
tp54
Rp55
sS'edge_list'
p56
(lp57
g25
ag34
ag6
ag19
ag13
ag22
ag36
ag28
ag16
ag39
ag10
ag31
asS'edge_to_blen'
p58
(dp59
g6
g46
(g50
S'M\xfb\xca\xc1o\xeb\xc6?'
p60
tp61
Rp62
sg10
g46
(g50
S'[_,\x8bh\x9a\xa4?'
p63
tp64
Rp65
sg13
g46
(g50
S'/,m\xa8"\x8e\x99?'
p66
tp67
Rp68
sg16
g46
(g50
S'\x8fJ\xb2\xe5\x10\xe4\x95?'
p69
tp70
Rp71
sg19
g46
(g50
S'\xca4jM\x82>\xc9?'
p72
tp73
Rp74
sg22
g46
(g50
S'\x9b\t\xea0\x16\xfc\xb3?'
p75
tp76
Rp77
sg25
g46
(g50
S'\x1c\x16\xad\xadz\xac\xbd?'
p78
tp79
Rp80
sg28
g46
(g50
S'6\xed\x85\xf0\x8a\xdd\xb4?'
p81
tp82
Rp83
sg31
g46
(g50
S'\xfd\xfa\xf0{\xc2\x06\x85?'
p84
tp85
Rp86
sg34
g46
(g50
S'\x15\x1f\x8b\x8cP\xc4\xc0?'
p87
tp88
Rp89
sg36
g46
(g50
S'\x89u\xa8H+iw?'
p90
tp91
Rp92
sg39
g46
(g50
S'I\xccL}\x13\xd8\xb0?'
p93
tp94
Rp95
ssS'paralog'
p96
(lp97
S'YNL069C'
p98
aS'YIL133C'
p99
asS'alignment_file'
p100
S'../MafftAlignment/YNL069C_YIL133C/YNL069C_YIL133C_input.fasta'
p101
sS'x_clock'
p102
NsS'x'
p103
cnumpy.core.multiarray
_reconstruct
p104
(cnumpy
ndarray
p105
(I0
tp106
S'b'
p107
tp108
Rp109
(I1
(I19
tp110
g50
I00
S"r\xb7\xc3\xfb\xff6\xe7\xbf\x8a\xde\xf4m69\xe1\xbf_\xa3\xcd\x0f\x89\xef\xed\xbfv)\x93\x93\xf9\x14\xfb?'\xb2\x08\x14\xa8\x1c\xfc\xbf\xdc&\xae\xd7\xd7\xf6\xd5?j7\x99\xeb\xb9\xb8\xda?\x83\x8dL\xefC=\x01\xc0`[\x90\x93\xd1B\x00\xc0\xdf\x1c\xaf\xfeB\x85\xfb\xbf.\xacB\xc4\x96\xf9\xf9\xbf\xe8\xb4,4i\x86\r\xc0w\xe0\xf5b\xd4f\x04\xc0]\xbdp\x83\x84\xa8\x14\xc0\xb57\xb0\xa1\x82\x0e\x04\xc0\xe0\xb3<\xe5a\xc3\x0e\xc0\x8abQ\x15\xfa\xc4\x05\xc0\x84\xa6\xba\x92\xfa\xb3\t\xc0\xe0\xb0\xadk\xbbP\x12\xc0"
p111
tp112
bsS'Model'
p113
S'MG94'
p114
sS'clock'
p115
I00
s.