(dp0
S'Force'
p1
NsS'ExpectedGeneconv'
p2
(dp3
(S'N1'
p4
S'N2'
p5
tp6
(lp7
F0.002190009695145403
aF15.185269514142737
as(S'N5'
p8
S'cerevisiae'
p9
tp10
(lp11
F0.0007318377382329055
aF6.182316477219357
as(g5
S'N3'
p12
tp13
(lp14
F0.0003492163801955071
aF2.868161747571091
as(S'N4'
p15
g8
tp16
(lp17
F0.0014319679820029658
aF1.7770760629956146
as(g4
S'castellii'
p18
tp19
(lp20
F0.003984719827236101
aF26.507157207353373
as(g5
S'bayanus'
p21
tp22
(lp23
F0.0007386675366221664
aF5.033389120787161
as(S'N0'
p24
g4
tp25
(lp26
F0.0008177965986596144
aF4.9163787491559265
as(g12
S'kudriavzevii'
p27
tp28
(lp29
F0.0009119095747539625
aF5.857410479647421
as(g8
S'paradoxus'
p30
tp31
(lp32
F0.0004356640789466246
aF3.081130645252909
as(g24
S'kluyveri'
p33
tp34
(lp35
F0.0
aF0.0
as(g12
g15
tp36
(lp37
F0.00027580314400199536
aF2.2780273594377682
as(g15
S'mikatae'
p38
tp39
(lp40
F0.0011477447693277424
aF6.863922139144178
assS'ExpectedDwellTime'
p41
(dp42
g6
F378.4894239129052
sg10
F448.96670040146284
sg13
F440.8559671332009
sg16
F445.71143633444
sg19
F407.52247399314757
sg22
F448.9275059008554
sg25
F173.8290350840797
sg28
F451.69523235319207
sg31
F453.431082413134
sg34
F0.0
sg36
F443.5937309401771
sg39
F451.59072919919635
ssS'newicktree'
p43
S'../PairsAlignemt/YeastTree.newick'
p44
sS'll'
p45
cnumpy.core.multiarray
scalar
p46
(cnumpy
dtype
p47
(S'f8'
p48
I0
I1
tp49
Rp50
(I3
S'<'
p51
NNNI-1
I-1
I0
tp52
bS'\xbf\xb1\x1b:\x82w\xba\xc0'
p53
tp54
Rp55
sS'edge_list'
p56
(lp57
g25
ag34
ag6
ag19
ag13
ag22
ag36
ag28
ag16
ag39
ag10
ag31
asS'edge_to_blen'
p58
(dp59
g25
g46
(g50
S'k\x1dQ\xb3\x17\xd1\xd7?'
p60
tp61
Rp62
sg10
g46
(g50
S'`\x96\x84\xa9\xbei\xc4?'
p63
tp64
Rp65
sg13
g46
(g50
S'\xe5\xa7\xee\xb4V\x10\xba?'
p66
tp67
Rp68
sg16
g46
(g50
S'\xa6\xd0\xb2\xdd\xed\x1f\xb7?'
p69
tp70
Rp71
sg28
g46
(g50
S"j'\n\xe3\xceC\xcd?"
p72
tp73
Rp74
sg22
g46
(g50
S'y\xc4\xa5\xd8\xbf\x10\xc8?'
p75
tp76
Rp77
sg6
g46
(g50
S'\x157n\x0ee8\xe2?'
p78
tp79
Rp80
sg19
g46
(g50
S'\xad}7\xdb_A\xee?'
p81
tp82
Rp83
sg31
g46
(g50
S':\xe7\xb16\xb2\xb7\xbd?'
p84
tp85
Rp86
sg39
g46
(g50
S'6+\xae\x1aQv\xcf?'
p87
tp88
Rp89
sg36
g46
(g50
S'\x18\xa0\xec\xeb(D\xb3?'
p90
tp91
Rp92
sg34
g46
(g50
S':\x16\xfc\x81+\x89\xde?'
p93
tp94
Rp95
ssS'paralog'
p96
(lp97
S'YGR043C'
p98
aS'YLR354C'
p99
asS'alignment_file'
p100
S'../MafftAlignment/YGR043C_YLR354C/YGR043C_YLR354C_input.fasta'
p101
sS'x_clock'
p102
NsS'x'
p103
cnumpy.core.multiarray
_reconstruct
p104
(cnumpy
ndarray
p105
(I0
tp106
S'b'
p107
tp108
Rp109
(I1
(I19
tp110
g50
I00
S"\xf1 _#\rQ\xe7\xbf\xb1\xf1\x1e\xe4\xc8\x96\xe0\xbf\x00\xa6r$\xa6\x16\xeb\xbf\x9e\xed\xaa\x88\xf72\xf1?*%\x08\x85L\xa2\x01\xc0\x8a\x93\xe6\xc7\xeav$\xc0t\xa5-\x8a\x1e~\xf8\xbf'\x875\x87\xbc\xa1\xef\xbf\xd7\xec\xbb\x1c\xf0\xad\xe7\xbf\x12%\x84\xf9\xbb\x05\xe2\xbf\xb7\xddD\xf20\xb4\xac\xbf\x17\xf8#\xaa\xebF\x02\xc0\xb7\xb2\x85\xd6t\xbd\xfa\xbfc;\x0c\x0e\xd0\xb1\x04\xc0\x0f\xd1\xde\x0c;\x9c\xf7\xbf\xdeH\xfd\x98\xf4;\x03\xc0\x00\x1519\xb0s\xf6\xbf\x17\xe6>\x99\xa9_\xfd\xbf\xc4\xc8\x0cX>:\x01\xc0"
p111
tp112
bsS'Model'
p113
S'MG94'
p114
sS'clock'
p115
I00
s.