(dp0
S'Force'
p1
NsS'ExpectedGeneconv'
p2
(dp3
(S'N1'
p4
S'N2'
p5
tp6
(lp7
F12.028885741966866
aF12.54866346305383
as(S'N5'
p8
S'cerevisiae'
p9
tp10
(lp11
F2.1535505295754986
aF4.112683252595836
as(g5
S'N3'
p12
tp13
(lp14
F3.1243549706394194
aF4.430642022996553
as(S'N4'
p15
g8
tp16
(lp17
F4.634702815316851
aF12.975711299894991
as(g4
S'castellii'
p18
tp19
(lp20
F23.251001714702465
aF29.04131988833708
as(g5
S'bayanus'
p21
tp22
(lp23
F15.880998474533273
aF15.319594268597562
as(S'N0'
p24
g4
tp25
(lp26
F21.627841950472376
aF30.54682657121025
as(g12
S'kudriavzevii'
p27
tp28
(lp29
F6.533490083929598
aF12.791801948931298
as(g8
S'paradoxus'
p30
tp31
(lp32
F4.287053311216625
aF2.001941560466567
as(g24
S'kluyveri'
p33
tp34
(lp35
F0.0
aF0.0
as(g12
g15
tp36
(lp37
F2.240858941769957
aF6.814774821731082
as(g15
S'mikatae'
p38
tp39
(lp40
F1.9890828762053991
aF7.476785488397828
assS'ExpectedDwellTime'
p41
(dp42
g6
F78.80177414383277
sg10
F28.104239608360906
sg13
F76.28781418615384
sg16
F47.79763031395942
sg19
F78.76576514094445
sg22
F66.23952632447042
sg25
F48.88624807407864
sg28
F86.60379303127942
sg31
F34.41509076020178
sg34
F0.0
sg36
F69.17677365817268
sg39
F63.469921497135
ssS'newicktree'
p43
S'../PairsAlignemt/YeastTree.newick'
p44
sS'll'
p45
cnumpy.core.multiarray
scalar
p46
(cnumpy
dtype
p47
(S'f8'
p48
I0
I1
tp49
Rp50
(I3
S'<'
p51
NNNI-1
I-1
I0
tp52
bS'\xa4\x16\xfa\xbbR\x88\xa0\xc0'
p53
tp54
Rp55
sS'edge_list'
p56
(lp57
g25
ag34
ag6
ag19
ag13
ag22
ag36
ag28
ag16
ag39
ag10
ag31
asS'edge_to_blen'
p58
(dp59
g6
g46
(g50
S'\xb0\xb8\xd4\x84\x05\x8d\x94?'
p60
tp61
Rp62
sg10
g46
(g50
S'\xe6-e\xc6\x95\xaar?'
p63
tp64
Rp65
sg13
g46
(g50
S'9v\xac`\xd5\x81y?'
p66
tp67
Rp68
sg16
g46
(g50
S'\x8e\x94\xcb\xe4k \x87?'
p69
tp70
Rp71
sg28
g46
(g50
S'&\xcb#\xf8@\x02\x97?'
p72
tp73
Rp74
sg22
g46
(g50
S'\xf2\xbe!\x17`\xad\x98?'
p75
tp76
Rp77
sg25
g46
(g50
S'\xb7|m\xcdb\x90\xb3?'
p78
tp79
Rp80
sg19
g46
(g50
S'\xb0\x831~;\x1b\xa6?'
p81
tp82
Rp83
sg31
g46
(g50
S'g\x86\xbb\xf7\x18\x0b\x80?'
p84
tp85
Rp86
sg34
g46
(g50
S'Z\xef\xe7\x8f\x9c\x8a\x9d>'
p87
tp88
Rp89
sg36
g46
(g50
S'c\xc9\x9e?\x82\x0ew?'
p90
tp91
Rp92
sg39
g46
(g50
S'K\x83\xf7\xc6\xa1\xd2\x82?'
p93
tp94
Rp95
ssS'paralog'
p96
(lp97
S'YER102W'
p98
aS'YBL072C'
p99
asS'alignment_file'
p100
S'../MafftAlignment/YER102W_YBL072C/YER102W_YBL072C_input.fasta'
p101
sS'x_clock'
p102
NsS'x'
p103
cnumpy.core.multiarray
_reconstruct
p104
(cnumpy
ndarray
p105
(I0
tp106
S'b'
p107
tp108
Rp109
(I1
(I18
tp110
g50
I00
S'\x7fg\x12\x9a\t\x06\xe7\xbf\xb4\xe9\x14\xeb_\n\xe2\xbf\xa4:}\xbd\xf7\xa6\xe8\xbf\xa9s\x9e"\tR\x01@O\xaf8\xb8:\xbb\x04@\x1c[\xbc\x88\\~\x07@V\x03\xd54g\x92\x04\xc0o\xde\x02\x06\xa6E-\xc0\xebPq\xb1\xbfD\x0f\xc0\xec\x8a\xd0K\xc1#\t\xc0\x03\xf1\x97\xc0\xb2P\x14\xc0e\x91>4\x02\xce\r\xc0\xfb\xb2(V \xb8\x14\xc0\xeb\x02\x1a\xda`]\x0e\xc0\xcb\xfa\xa1\x9f=\xef\x11\xc0?o\x8a\xae\x19\xc2\x12\xc0\x92\x90\t\xccm\x90\x15\xc0\x8f\xda\tW\xb5e\x13\xc0'
p111
tp112
bsS'Model'
p113
S'HKY'
p114
sS'clock'
p115
I00
s.