(dp0
S'Force'
p1
NsS'ExpectedGeneconv'
p2
(dp3
(S'N1'
p4
S'N2'
p5
tp6
(lp7
F8.573022900191734
aF10.781192495687982
as(S'N5'
p8
S'cerevisiae'
p9
tp10
(lp11
F0.412390704738718
aF1.6743950747773102
as(g5
S'N3'
p12
tp13
(lp14
F2.7961227829268003
aF2.618853133822367
as(S'N4'
p15
g8
tp16
(lp17
F1.4976778747818575
aF1.361273997426427
as(g4
S'castellii'
p18
tp19
(lp20
F5.116988099172297
aF6.732814156030773
as(g5
S'bayanus'
p21
tp22
(lp23
F0.8872065829923778
aF2.1495109513470023
as(S'N0'
p24
g4
tp25
(lp26
F0.5959956470654693
aF0.6780104456830688
as(g12
S'kudriavzevii'
p27
tp28
(lp29
F5.544433734852854
aF4.628238110518912
as(g8
S'paradoxus'
p30
tp31
(lp32
F1.7696911543088916
aF2.3322626506540245
as(g24
S'kluyveri'
p33
tp34
(lp35
F0.0
aF0.0
as(g12
g15
tp36
(lp37
F2.1103977608259217
aF2.651999822025111
as(g15
S'mikatae'
p38
tp39
(lp40
F6.595611938063643
aF5.231654565120906
assS'ExpectedDwellTime'
p41
(dp42
g6
F39.21865610305085
sg10
F48.67384192210315
sg13
F45.85316733603948
sg16
F44.54591983791153
sg19
F38.920736205387854
sg22
F47.10881513773075
sg25
F11.04444985270777
sg28
F53.4752650963784
sg31
F44.643854524936216
sg34
F0.0
sg36
F44.98253829877093
sg39
F41.997952148899685
ssS'newicktree'
p43
S'../PairsAlignemt/YeastTree.newick'
p44
sS'll'
p45
cnumpy.core.multiarray
scalar
p46
(cnumpy
dtype
p47
(S'f8'
p48
I0
I1
tp49
Rp50
(I3
S'<'
p51
NNNI-1
I-1
I0
tp52
bS'A\x1e\xa0\xa7\x0e\xed\x96\xc0'
p53
tp54
Rp55
sS'edge_list'
p56
(lp57
g25
ag34
ag6
ag19
ag13
ag22
ag36
ag28
ag16
ag39
ag10
ag31
asS'edge_to_blen'
p58
(dp59
g25
g46
(g50
S'\x84Fr\xdd\x92\x8f\xa3?'
p60
tp61
Rp62
sg10
g46
(g50
S'[\xbb\x00Ya^\x91?'
p63
tp64
Rp65
sg13
g46
(g50
S'\xfd3\x17\xf5\x0c\xa0\x9c?'
p66
tp67
Rp68
sg16
g46
(g50
S'\xbe\xb1\xcb\xe6\x8a\x9d\x92?'
p69
tp70
Rp71
sg19
g46
(g50
S'\xe4\xacN+#\xb1\xb9?'
p72
tp73
Rp74
sg22
g46
(g50
S'.\xd6\xd1\xab\xf9A\x91?'
p75
tp76
Rp77
sg6
g46
(g50
S'\xb1\x813\x08\x07m\xc1?'
p78
tp79
Rp80
sg28
g46
(g50
S'p\xa0?\xecif\xb2?'
p81
tp82
Rp83
sg31
g46
(g50
S'\xc7~/9\xdf\x9d\x93?'
p84
tp85
Rp86
sg39
g46
(g50
S'<\x9f\xa8Y\xe69\xac?'
p87
tp88
Rp89
sg36
g46
(g50
S'\xef\xa5\xd2\x88Oy\x95?'
p90
tp91
Rp92
sg34
g46
(g50
S'\xb7\xf6\x18\xec\xc22\xbe?'
p93
tp94
Rp95
ssS'paralog'
p96
(lp97
S'YBR191W'
p98
aS'YPL079W'
p99
asS'alignment_file'
p100
S'../MafftAlignment/YBR191W_YPL079W/YBR191W_YPL079W_input.fasta'
p101
sS'x_clock'
p102
NsS'x'
p103
cnumpy.core.multiarray
_reconstruct
p104
(cnumpy
ndarray
p105
(I0
tp106
S'b'
p107
tp108
Rp109
(I1
(I19
tp110
g50
I00
S'/J\xe5@\xe1\xa6\xe6\xbf\xcb`\xa9\x8f\x03\xa6\xdf\xbfg\x9c@\x1a\xb0\xa4\xeb\xbf\xe1\xeeV\x9dB\xc9\x00@\x9e\x81qr\xba\xfb\x02\xc0EF,\x87\xaaq\xf4?\xc3\xe9\xec\xba\xc2\x81\xf6?GC\xa7\xfdL\x1e\n\xc0s\xa3\xc3\x1ba\x19\x01\xc0\x85\xf1\xcdk\xb9\xe7\xff\xbf\t\xdf\xbe\x1dZd\x02\xc0\x95i\xbb\xdf\x12\x9e\x0c\xc0\x81.\xc9\xa55U\x10\xc02f\x9c\xbc\xc5\xea\x0e\xc0,\xe5\x80\xf4\x05\x10\x05\xc0~\xeb\xe4\x82\xa9\x07\x10\xc0\xf5\x1fB\xf5A/\x07\xc0Y\xa9V\x9c\xa5N\x10\xc0W\xc3\x99\xdb\x06\xa4\x0f\xc0'
p111
tp112
bsS'Model'
p113
S'MG94'
p114
sS'clock'
p115
I00
s.