(dp0
S'Force'
p1
NsS'ExpectedGeneconv'
p2
(dp3
(S'N1'
p4
S'N2'
p5
tp6
(lp7
F0.1350485897427429
aF7.36520437899239
as(S'N5'
p8
S'cerevisiae'
p9
tp10
(lp11
F0.19864417582514904
aF23.489640900063204
as(g5
S'N3'
p12
tp13
(lp14
F0.216243252666703
aF4.931639056351734
as(S'N4'
p15
g8
tp16
(lp17
F0.005299600652173864
aF1.9535270824763697
as(g4
S'castellii'
p18
tp19
(lp20
F0.7512229539851223
aF38.79664805942382
as(g5
S'bayanus'
p21
tp22
(lp23
F0.6471437605653128
aF15.73586940457494
as(S'N0'
p24
g4
tp25
(lp26
F0.028643350019441197
aF1.4599461827903857
as(g12
S'kudriavzevii'
p27
tp28
(lp29
F0.30914299246825383
aF19.858189698156774
as(g8
S'paradoxus'
p30
tp31
(lp32
F0.12754399233441702
aF10.112041061129213
as(g24
S'kluyveri'
p33
tp34
(lp35
F0.0
aF0.0
as(g12
g15
tp36
(lp37
F0.06695885097426985
aF2.5399236031386545
as(g15
S'mikatae'
p38
tp39
(lp40
F0.19962164741048452
aF10.734383270452426
assS'ExpectedDwellTime'
p41
(dp42
g6
F48.63763784123144
sg10
F68.0126760283346
sg13
F69.98722211684374
sg16
F81.86639105388565
sg19
F60.70609962502776
sg22
F65.90272877123698
sg25
F15.03785654275598
sg28
F76.586090629154
sg31
F90.83356710935865
sg34
F0.0
sg36
F76.59223721905461
sg39
F91.59425367130933
ssS'newicktree'
p43
S'../PairsAlignemt/YeastTree.newick'
p44
sS'll'
p45
cnumpy.core.multiarray
scalar
p46
(cnumpy
dtype
p47
(S'f8'
p48
I0
I1
tp49
Rp50
(I3
S'<'
p51
NNNI-1
I-1
I0
tp52
bS'\xf6\xa2y\xa3\xba\x93\xa0\xc0'
p53
tp54
Rp55
sS'edge_list'
p56
(lp57
g25
ag34
ag6
ag19
ag13
ag22
ag36
ag28
ag16
ag39
ag10
ag31
asS'edge_to_blen'
p58
(dp59
g25
g46
(g50
S'\x8c\x19\xac}\xd6,\xa6?'
p60
tp61
Rp62
sg10
g46
(g50
S'\xa5)\xc3\xb4Yw\xb1?'
p63
tp64
Rp65
sg13
g46
(g50
S'p0\x98N[\xd0\x9e?'
p66
tp67
Rp68
sg16
g46
(g50
S'N\xa13@\x86P\x83?'
p69
tp70
Rp71
sg19
g46
(g50
S'?K\xb7\xfb\xe1$\xcf?'
p72
tp73
Rp74
sg22
g46
(g50
S'"\xb5*\xa4\xf0\x8f\xb2?'
p75
tp76
Rp77
sg6
g46
(g50
S'\x0c`\x89\x1cn\xf7\xb2?'
p78
tp79
Rp80
sg28
g46
(g50
S'6\x84dm\x01.\xb9?'
p81
tp82
Rp83
sg31
g46
(g50
S's\xff\x1fgO\xaf\xad?'
p84
tp85
Rp86
sg39
g46
(g50
S'\xaa\xfa\x10\x15\x7f\x0f\xb0?'
p87
tp88
Rp89
sg36
g46
(g50
S'\xd0\xf5\xd8\x00\xdcD\x92?'
p90
tp91
Rp92
sg34
g46
(g50
S'\xcf\x8f\x87QP\r\xc4?'
p93
tp94
Rp95
ssS'paralog'
p96
(lp97
S'YNL301C'
p98
aS'YOL120C'
p99
asS'alignment_file'
p100
S'../MafftAlignment/YNL301C_YOL120C/YNL301C_YOL120C_input.fasta'
p101
sS'x_clock'
p102
NsS'x'
p103
cnumpy.core.multiarray
_reconstruct
p104
(cnumpy
ndarray
p105
(I0
tp106
S'b'
p107
tp108
Rp109
(I1
(I19
tp110
g50
I00
S';\xfc_k\xb8\xfb\xe6\xbf^~&*9\xa7\xe1\xbfG\xf7\x11\xbe\xbe\xfd\xeb\xbfpT\xa8\rZ\x16\xfa?7\xed-\xb9H1\x00\xc0W\n\xd0\xb8:L\x01\xc0\xc6\xfae\xb4\xdfM\xfc?}qW\xced\x1d\t\xc0\x18\x15\xdfg\xc2\xa8\xfd\xbf\xe9\xbe\x98\x86\xec\xd1\x04\xc0\x0e\xc7A\xedO\x9d\xf6\xbf\xab4\xea9.\x07\x0c\xc0\x87\xb4\xf5+\x0c\xfe\x04\xc0\xed\xcf\x17\xc7\xe5\x1a\x10\xc0\xb9\xe1X\xba\x98\x8d\x02\xc0\x03:\x1c\xcc\xb0\xa7\x12\xc0=~\x952\x87&\x06\xc0S\xd8\xc4\xa4\xb1z\x05\xc0&\xac\xe2U\x11\xc8\x06\xc0'
p111
tp112
bsS'Model'
p113
S'MG94'
p114
sS'clock'
p115
I00
s.