(dp0
S'Force'
p1
NsS'ExpectedGeneconv'
p2
(dp3
(S'N1'
p4
S'N2'
p5
tp6
(lp7
F31.70625063613869
aF32.650592309597485
as(S'N5'
p8
S'cerevisiae'
p9
tp10
(lp11
F5.002951807598582
aF8.5854100275443
as(g5
S'N3'
p12
tp13
(lp14
F6.538107681312199
aF6.054343910805279
as(S'N4'
p15
g8
tp16
(lp17
F4.460548887602186
aF3.868174054634247
as(g4
S'castellii'
p18
tp19
(lp20
F39.69010350131839
aF39.83169352935931
as(g5
S'bayanus'
p21
tp22
(lp23
F9.503877130083627
aF9.246621560892937
as(S'N0'
p24
g4
tp25
(lp26
F5.700663565422735
aF5.483030146230224
as(g12
S'kudriavzevii'
p27
tp28
(lp29
F13.684970189369484
aF10.577360030945435
as(g8
S'paradoxus'
p30
tp31
(lp32
F4.605852754238269
aF3.637390744963663
as(g24
S'kluyveri'
p33
tp34
(lp35
F0.0
aF0.0
as(g12
g15
tp36
(lp37
F10.237829365962062
aF7.0146119506516245
as(g15
S'mikatae'
p38
tp39
(lp40
F13.369673819676272
aF12.01259482246973
assS'ExpectedDwellTime'
p41
(dp42
g6
F530.1979628640621
sg10
F675.8620876542997
sg13
F682.9156330871712
sg16
F671.3561890563703
sg19
F525.1605355684669
sg22
F696.4311800958307
sg25
F182.0761189568819
sg28
F693.8085462017818
sg31
F678.203374474038
sg34
F0.0
sg36
F676.0204247913981
sg39
F666.9722071757078
ssS'newicktree'
p43
S'../PairsAlignemt/YeastTree.newick'
p44
sS'll'
p45
cnumpy.core.multiarray
scalar
p46
(cnumpy
dtype
p47
(S'f8'
p48
I0
I1
tp49
Rp50
(I3
S'<'
p51
NNNI-1
I-1
I0
tp52
bS'\xa4k=\xcb<%\xbd\xc0'
p53
tp54
Rp55
sS'edge_list'
p56
(lp57
g25
ag34
ag6
ag19
ag13
ag22
ag36
ag28
ag16
ag39
ag10
ag31
asS'edge_to_blen'
p58
(dp59
g25
g46
(g50
S'2\xe8j\xf4\xf0\x9d\xc0?'
p60
tp61
Rp62
sg10
g46
(g50
S'\x0c\xa8\x9f\x13\xfc\xbd\xa5?'
p63
tp64
Rp65
sg13
g46
(g50
S'vB\xbcE\xffv\xa5?'
p66
tp67
Rp68
sg16
g46
(g50
S'\xbbW\x80m\xac\x9f\xa0?'
p69
tp70
Rp71
sg19
g46
(g50
S'\x01\x04@\xdd\xbcx\xd3?'
p72
tp73
Rp74
sg22
g46
(g50
S'\xe95F\xe4l\x94\xb1?'
p75
tp76
Rp77
sg6
g46
(g50
S'\xc1\xf2N-\x1f\xbb\xd0?'
p78
tp79
Rp80
sg28
g46
(g50
S'z`\x905\xc1h\xb2?'
p81
tp82
Rp83
sg31
g46
(g50
S'\xb1\xcd\x90x~\x10\x9d?'
p84
tp85
Rp86
sg39
g46
(g50
S'\xf2\x16\x13\xcd\xe4\xae\xb3?'
p87
tp88
Rp89
sg36
g46
(g50
S'"\xb9\xe6\n<|\xa4?'
p90
tp91
Rp92
sg34
g46
(g50
S'[\x8a\x1b\x92\x7fI\xc6?'
p93
tp94
Rp95
ssS'paralog'
p96
(lp97
S'YBR024W'
p98
aS'YBR037C'
p99
asS'alignment_file'
p100
S'../MafftAlignment/YBR024W_YBR037C/YBR024W_YBR037C_input.fasta'
p101
sS'x_clock'
p102
NsS'x'
p103
cnumpy.core.multiarray
_reconstruct
p104
(cnumpy
ndarray
p105
(I0
tp106
S'b'
p107
tp108
Rp109
(I1
(I18
tp110
g50
I00
S'\xae`\xa0\x19\xba\x05\xe6\xbf\x0f\xbdr\x86?\x8b\xe1\xbfD`(\x1b\x9fP\xeb\xbf\x99\xf5:\xf1\xae\x1d\xf4?q\\\xd0<\x880\xe7\xbfKm\xd69go\xe8\xbf\x87A\xab\xcd5U\x00\xc0F\x99\xe4\x05\xe6\xf7\xfb\xbfi\t\xf3\xccIw\xf5\xbf:\x10\x899\xee\t\xf3\xbf\xc9K\xcf\xad\x11`\t\xc0@\x97\xa6\x7fkm\x05\xc0}\xf7%\x88\xba\xbf\t\xc0\x18O\x16v\x01\x0f\x05\xc0\x91\xbeN\xd7\x81k\x0b\xc0\xa8\x00OF\xf7\x85\x04\xc0\x07\xe2\xa7\x00\xc8E\t\xc0\xfe\xcc\x96*\xe3~\x0c\xc0'
p111
tp112
bsS'Model'
p113
S'HKY'
p114
sS'clock'
p115
I00
s.