(dp0
S'Force'
p1
NsS'ExpectedGeneconv'
p2
(dp3
(S'N1'
p4
S'N2'
p5
tp6
(lp7
F5.108425861004449
aF20.98595464925315
as(S'N5'
p8
S'cerevisiae'
p9
tp10
(lp11
F1.3197411480753969
aF7.634640051083365
as(g5
S'N3'
p12
tp13
(lp14
F1.5101201698945952
aF5.20845658293184
as(S'N4'
p15
g8
tp16
(lp17
F0.7418033138067139
aF4.235054601127347
as(g4
S'castellii'
p18
tp19
(lp20
F4.671044676033975
aF21.185376344133587
as(g5
S'bayanus'
p21
tp22
(lp23
F2.2943196999223776
aF9.881634725016545
as(S'N0'
p24
g4
tp25
(lp26
F0.19122946743248942
aF0.8081262688574387
as(g12
S'kudriavzevii'
p27
tp28
(lp29
F2.2227628960543337
aF6.173160564911363
as(g8
S'paradoxus'
p30
tp31
(lp32
F1.3843370504506167
aF3.499472819156831
as(g24
S'kluyveri'
p33
tp34
(lp35
F0.0
aF0.0
as(g12
g15
tp36
(lp37
F1.4352470528347525
aF5.532571976600389
as(g15
S'mikatae'
p38
tp39
(lp40
F1.7584424448282694
aF10.527720701899604
assS'ExpectedDwellTime'
p41
(dp42
g6
F263.6850131090864
sg10
F378.0203947296561
sg13
F352.8132828988064
sg16
F376.6021939354112
sg19
F253.04693005191677
sg22
F364.5065726784697
sg25
F60.06459576402955
sg28
F379.75582777798843
sg31
F390.4902888220192
sg34
F0.0
sg36
F363.6311002127395
sg39
F383.91650775547254
ssS'newicktree'
p43
S'../PairsAlignemt/YeastTree.newick'
p44
sS'll'
p45
cnumpy.core.multiarray
scalar
p46
(cnumpy
dtype
p47
(S'f8'
p48
I0
I1
tp49
Rp50
(I3
S'<'
p51
NNNI-1
I-1
I0
tp52
bS'(\x845\x99\xfb\xa0\xb6\xc0'
p53
tp54
Rp55
sS'edge_list'
p56
(lp57
g25
ag34
ag6
ag19
ag13
ag22
ag36
ag28
ag16
ag39
ag10
ag31
asS'edge_to_blen'
p58
(dp59
g25
g46
(g50
S'\xe8+\x85\xd7\xf9\xfe\xba?'
p60
tp61
Rp62
sg10
g46
(g50
S'\x14H\x1a\x1b\xe2\xb9\xc0?'
p63
tp64
Rp65
sg13
g46
(g50
S'\x05\xef\x9e\x1d]\xb3\xc0?'
p66
tp67
Rp68
sg16
g46
(g50
S'\xb7|\xa3\xa5;L\xbb?'
p69
tp70
Rp71
sg19
g46
(g50
S'+J\x04\xf2\x03\xe8\xe1?'
p72
tp73
Rp74
sg22
g46
(g50
S'<\x15\xaaS\xa2\r\xd0?'
p75
tp76
Rp77
sg6
g46
(g50
S'\xe36\xb7\x9a.m\xe3?'
p78
tp79
Rp80
sg28
g46
(g50
S'\x9a\xe0\x12dn\xca\xcc?'
p81
tp82
Rp83
sg31
g46
(g50
S'p\xda\xda\xae\x0b\xc3\xbc?'
p84
tp85
Rp86
sg39
g46
(g50
S'\xc6\x15y\x92\x04\xab\xcd?'
p87
tp88
Rp89
sg36
g46
(g50
S'\x02\x17:\xe4Y\x10\xc2?'
p90
tp91
Rp92
sg34
g46
(g50
S'\x1c\xcbk\xdeT\x95\xe1?'
p93
tp94
Rp95
ssS'paralog'
p96
(lp97
S'YHR106W'
p98
aS'YDR353W'
p99
asS'alignment_file'
p100
S'../MafftAlignment/YHR106W_YDR353W/YHR106W_YDR353W_input.fasta'
p101
sS'x_clock'
p102
NsS'x'
p103
cnumpy.core.multiarray
_reconstruct
p104
(cnumpy
ndarray
p105
(I0
tp106
S'b'
p107
tp108
Rp109
(I1
(I19
tp110
g50
I00
S'ReA,`\xfd\xe5\xbf\xb9\xd8\x1fOV\xbb\xe1\xbf\xbe\xe4\xb1\x04\xe8\xdf\xeb\xbf#\xc6\x02\x1b\xf9\xe2\xf4?l\xffU\x96\x80n\x06\xc0>u\x9c\x94\xf9#\x05\xc0\xbf\x94\xd2\x11\x9d8\xf3\xbf\x0b\xf3\x97\xf4\xf3\xfe\x01\xc0A\xc6\x96\xc9>)\xe3\xbf\x8aG0\x809\xf1\xdf\xbf\x1d\xff\x0c:"\x94\xe2\xbf\xf5yF(\xecJ\x00\xc0\xec\xda w\xa6 \xf6\xbfE\xe3\xb3\xd2qT\xff\xbf1~\xbfs"\xdf\xf7\xbf\x9cP\x9b\x83/\xe8\x01\xc0\x004\xa3\x1b0d\xf7\xbf\x99q\xd8G\xcdG\x00\xc0~\x16\x99\x9a/}\x01\xc0'
p111
tp112
bsS'Model'
p113
S'MG94'
p114
sS'clock'
p115
I00
s.