(dp0
S'Force'
p1
NsS'ExpectedGeneconv'
p2
(dp3
(S'N1'
p4
S'N2'
p5
tp6
(lp7
F5.905352638765674
aF8.71452098196869
as(S'N5'
p8
S'cerevisiae'
p9
tp10
(lp11
F2.046073115815491
aF1.4666840848959402
as(g5
S'N3'
p12
tp13
(lp14
F1.3381060334796175
aF1.726116958491477
as(S'N4'
p15
g8
tp16
(lp17
F0.29611877242573537
aF1.9788772872869107
as(g4
S'castellii'
p18
tp19
(lp20
F4.870978061238572
aF7.1880685033698315
as(g5
S'bayanus'
p21
tp22
(lp23
F1.0972854311307227
aF3.902381704151732
as(S'N0'
p24
g4
tp25
(lp26
F1.1282592344393932e-09
aF1.6649690938511316e-09
as(g12
S'kudriavzevii'
p27
tp28
(lp29
F1.750559869713301
aF2.4688024334959704
as(g8
S'paradoxus'
p30
tp31
(lp32
F2.196692637712388
aF3.7825400198223202
as(g24
S'kluyveri'
p33
tp34
(lp35
F0.0
aF0.0
as(g12
g15
tp36
(lp37
F1.873805609060426
aF1.2282488424873872
as(g15
S'mikatae'
p38
tp39
(lp40
F3.1111417955766267
aF3.6699596435447455
assS'ExpectedDwellTime'
p41
(dp42
g6
F43.405174514341624
sg10
F80.32374506012246
sg13
F75.39707102287117
sg16
F78.88833730199794
sg19
F46.884621107053135
sg22
F67.32887132313088
sg25
F0.0008150124020663525
sg28
F93.71131358532105
sg31
F76.80953306620562
sg34
F0.0
sg36
F80.57655042309999
sg39
F82.83063763802494
ssS'newicktree'
p43
S'../PairsAlignemt/YeastTree.newick'
p44
sS'll'
p45
cnumpy.core.multiarray
scalar
p46
(cnumpy
dtype
p47
(S'f8'
p48
I0
I1
tp49
Rp50
(I3
S'<'
p51
NNNI-1
I-1
I0
tp52
bS'K$\x15\xb4L\xb3\x9c\xc0'
p53
tp54
Rp55
sS'edge_list'
p56
(lp57
g25
ag34
ag6
ag19
ag13
ag22
ag36
ag28
ag16
ag39
ag10
ag31
asS'edge_to_blen'
p58
(dp59
g25
g46
(g50
S'j\xaa\xbc\r\x8dO\xc3>'
p60
tp61
Rp62
sg10
g46
(g50
S'\t\xac\xac3\xdeH\x9b?'
p63
tp64
Rp65
sg13
g46
(g50
S'\xac\x86\x8f\xdb\xca\xa7\x9e?'
p66
tp67
Rp68
sg16
g46
(g50
S'\xf4\xd8\x13\xd2u\x9f\x81?'
p69
tp70
Rp71
sg19
g46
(g50
S'\x1b\xa14\xd2\xb3\x1f\xc7?'
p72
tp73
Rp74
sg22
g46
(g50
S'\xec-^\xa2\x9c>\x9d?'
p75
tp76
Rp77
sg6
g46
(g50
S'(\x0cT\xc2\xfe)\xc7?'
p78
tp79
Rp80
sg28
g46
(g50
S'n\xcb\x9a\x1a/\xdd\xab?'
p81
tp82
Rp83
sg31
g46
(g50
S'q\xc8\x0b\x9c[\x95\xa3?'
p84
tp85
Rp86
sg39
g46
(g50
S'\xbc\xb1L\xcbg\xea\xa5?'
p87
tp88
Rp89
sg36
g46
(g50
S'\xe0\x02\x080\xe49\x94?'
p90
tp91
Rp92
sg34
g46
(g50
S'\xb7\x7f\xcdk\xf7\x91\xcc?'
p93
tp94
Rp95
ssS'paralog'
p96
(lp97
S'YJL177W'
p98
aS'YKL180W'
p99
asS'alignment_file'
p100
S'../MafftAlignment/YJL177W_YKL180W/YJL177W_YKL180W_input.fasta'
p101
sS'x_clock'
p102
NsS'x'
p103
cnumpy.core.multiarray
_reconstruct
p104
(cnumpy
ndarray
p105
(I0
tp106
S'b'
p107
tp108
Rp109
(I1
(I19
tp110
g50
I00
S'\x0f5\xb8\t\x89\x06\xe7\xbf\xef\xd7]\xa3B\t\xdd\xbf\x97\x82\xf1AR\x16\xea\xbf\nZ\xf0~\x89\x99\xfd?B\x8a\x90ND\xd3\x02\xc0\x05\xa8s<]1\xd7?\x0e\xe6\x83\xedt\x0c\xe8?\xd8\xcb\xc8s\xa4\xf6)\xc0\xbd\x8d.\x80\xa2\xfe\xf7\xbf\x8e\xca1B\xd2Y\xfb\xbf-\xff\xf8\xdb\xef`\xfb\xbf\xc7Z\xb79\xbd\x11\x0c\xc0X\xf6\x0b\x8b;r\x0c\xc0|\xdaA2^e\x0f\xc0\xc8\xcf)\xa6\xb4I\x07\xc0\xa6\xeb\\\xe4\x8c\x05\x13\xc0\x00\x06Me\x805\t\xc0{\xcc\x11\x88M\x00\r\xc0T\\\xa3\xbe\xef\x1b\n\xc0'
p111
tp112
bsS'Model'
p113
S'MG94'
p114
sS'clock'
p115
I00
s.