(dp0
S'Force'
p1
NsS'ExpectedGeneconv'
p2
(dp3
(S'N1'
p4
S'N2'
p5
tp6
(lp7
F9.170291261680102
aF9.734029321821504
as(S'N5'
p8
S'cerevisiae'
p9
tp10
(lp11
F3.5951215788775066
aF3.054320551267846
as(g5
S'N3'
p12
tp13
(lp14
F0.4654431232709924
aF0.6307771617129091
as(S'N4'
p15
g8
tp16
(lp17
F0.21403092640485563
aF1.0281310774633994
as(g4
S'castellii'
p18
tp19
(lp20
F9.215056998511924
aF7.328793745561989
as(g5
S'bayanus'
p21
tp22
(lp23
F8.790056360647451
aF7.959857272901941
as(S'N0'
p24
g4
tp25
(lp26
F5.328976516927445
aF5.544225267479462
as(g12
S'kudriavzevii'
p27
tp28
(lp29
F3.89626827353026
aF4.25393737455394
as(g8
S'paradoxus'
p30
tp31
(lp32
F3.162888715401431
aF6.362212270574509
as(g24
S'kluyveri'
p33
tp34
(lp35
F0.0
aF0.0
as(g12
g15
tp36
(lp37
F3.4764336763039982
aF3.273565616120225
as(g15
S'mikatae'
p38
tp39
(lp40
F4.780124806380024
aF5.026181701218103
assS'ExpectedDwellTime'
p41
(dp42
g6
F47.463602594577885
sg10
F53.00535167547739
sg13
F56.08248360321888
sg16
F55.20729826750286
sg19
F41.394899467371374
sg22
F42.64129900458431
sg25
F22.873006654696955
sg28
F64.31628350678379
sg31
F49.69716237778273
sg34
F0.0
sg36
F56.801344669768014
sg39
F56.77270515336326
ssS'newicktree'
p43
S'../PairsAlignemt/YeastTree.newick'
p44
sS'll'
p45
cnumpy.core.multiarray
scalar
p46
(cnumpy
dtype
p47
(S'f8'
p48
I0
I1
tp49
Rp50
(I3
S'<'
p51
NNNI-1
I-1
I0
tp52
bS'\x97\xc6\x87\x89P\xaf\x94\xc0'
p53
tp54
Rp55
sS'edge_list'
p56
(lp57
g25
ag34
ag6
ag19
ag13
ag22
ag36
ag28
ag16
ag39
ag10
ag31
asS'edge_to_blen'
p58
(dp59
g25
g46
(g50
S'$\xea\xa7\xf5\xf9\xba\xa3?'
p60
tp61
Rp62
sg10
g46
(g50
S'A\x82AU\x16\x13\x7f?'
p63
tp64
Rp65
sg13
g46
(g50
S'\x14\xb0\xbb-m\x95o?'
p66
tp67
Rp68
sg16
g46
(g50
S'5g(d\xe1\xde[?'
p69
tp70
Rp71
sg19
g46
(g50
S'\xdc\xc4\xe3\x94\xdd\xf7\x9b?'
p72
tp73
Rp74
sg22
g46
(g50
S'\xa6?\xf3\x11t\x91\x93?'
p75
tp76
Rp77
sg6
g46
(g50
S'\x1d\xa3<\x82nb\xa0?'
p78
tp79
Rp80
sg28
g46
(g50
S'\xe5\xef\xc9\x96\xfe\xc2\x8c?'
p81
tp82
Rp83
sg31
g46
(g50
S'\xc1C\xa7z\xea\xcf\x85?'
p84
tp85
Rp86
sg39
g46
(g50
S'\xaf\x93\x98-z3\x8e?'
p87
tp88
Rp89
sg36
g46
(g50
S'\xba\xfc8y\xe9\t\x7f?'
p90
tp91
Rp92
sg34
g46
(g50
S'\xdf@\x9b,\xf2v\xb1>'
p93
tp94
Rp95
ssS'paralog'
p96
(lp97
S'YMR143W'
p98
aS'YDL083C'
p99
asS'alignment_file'
p100
S'../MafftAlignment/YMR143W_YDL083C/YMR143W_YDL083C_input.fasta'
p101
sS'x_clock'
p102
NsS'x'
p103
cnumpy.core.multiarray
_reconstruct
p104
(cnumpy
ndarray
p105
(I0
tp106
S'b'
p107
tp108
Rp109
(I1
(I18
tp110
g50
I00
S"\xb6\t\x83:\xeb`\xe8\xbf\xbbb\x11\xed\xfa\x1d\xe0\xbfI\xff\xc4]fo\xeb\xbf\xd1\x19\x87\x91\x9b8\x08@\xc7\x00\xf2\xd5\x94\xc7\x04@\x04\x82\xe1n\xad\x18\x05@\xea\xfd\x9dY\xa0\x0c\n\xc0Y}6C\xfb\x8c+\xc0Q\x86\xdf~1\x89\x0b\xc0m\xec`\xf7\x9f\xcd\x0c\xc0G#\xf5\xb9\xab;\x16\xc0\xcf\xbe'\xf9\x18\xa9\x0f\xc0}\xca\x00$\xb6\x87\x13\xc0\xebA\x19\xbf\xf2\x0f\x11\xc0S\xf7O\xdc\x85\x81\x19\xc0\x13\xb4\xb9g\xf1\xdd\x10\xc0\x86\x8d\\\x9d\x87\x86\x13\xc0\xa9 \x10\x97)+\x12\xc0"
p111
tp112
bsS'Model'
p113
S'HKY'
p114
sS'clock'
p115
I00
s.