(dp0
S'Force'
p1
NsS'ExpectedGeneconv'
p2
(dp3
(S'N1'
p4
S'N2'
p5
tp6
(lp7
F24.81721794225123
aF20.230540399160752
as(S'N5'
p8
S'cerevisiae'
p9
tp10
(lp11
F15.760054099136159
aF10.936979560625357
as(g5
S'N3'
p12
tp13
(lp14
F8.196501673753415
aF5.535120039215686
as(S'N4'
p15
g8
tp16
(lp17
F4.659587356025231
aF5.346198960603413
as(g4
S'castellii'
p18
tp19
(lp20
F54.302836200566695
aF33.07705481751099
as(g5
S'bayanus'
p21
tp22
(lp23
F17.314711745602892
aF14.476224101684336
as(S'N0'
p24
g4
tp25
(lp26
F46.53963851536906
aF35.21287922874377
as(g12
S'kudriavzevii'
p27
tp28
(lp29
F14.71368694092437
aF11.727128858057013
as(g8
S'paradoxus'
p30
tp31
(lp32
F8.733627519800875
aF6.312031159186903
as(g24
S'kluyveri'
p33
tp34
(lp35
F0.0
aF0.0
as(g12
g15
tp36
(lp37
F5.993481928556768
aF6.773798617769722
as(g15
S'mikatae'
p38
tp39
(lp40
F24.827770245203638
aF21.250278441921747
assS'ExpectedDwellTime'
p41
(dp42
g6
F243.46777800197245
sg10
F271.53610200138394
sg13
F271.53137742477446
sg16
F274.20049689581316
sg19
F203.87304086391237
sg22
F272.40536180648405
sg25
F137.81889996021727
sg28
F260.2492627071259
sg31
F275.4400395942492
sg34
F0.0
sg36
F271.55605002643085
sg39
F246.9954438381128
ssS'newicktree'
p43
S'../PairsAlignemt/YeastTree.newick'
p44
sS'll'
p45
cnumpy.core.multiarray
scalar
p46
(cnumpy
dtype
p47
(S'f8'
p48
I0
I1
tp49
Rp50
(I3
S'<'
p51
NNNI-1
I-1
I0
tp52
bS'#R\xd2\xe2\x07\xef\xaf\xc0'
p53
tp54
Rp55
sS'edge_list'
p56
(lp57
g25
ag34
ag6
ag19
ag13
ag22
ag36
ag28
ag16
ag39
ag10
ag31
asS'edge_to_blen'
p58
(dp59
g25
g46
(g50
S'\x1e\xe4\xb6\xa6b\x89\xc3?'
p60
tp61
Rp62
sg10
g46
(g50
S'a\x85\x8a\x04<\x8b\x9c?'
p63
tp64
Rp65
sg13
g46
(g50
S'\xe3a\xd6\xb3*\x16\x8d?'
p66
tp67
Rp68
sg16
g46
(g50
S'\x82\x0b\xe6N\xc0\\\x87?'
p69
tp70
Rp71
sg19
g46
(g50
S')#\xc4\x83\x99}\xb6?'
p72
tp73
Rp74
sg22
g46
(g50
S'\x95\x81\xd7m\xf7\xd1\xa1?'
p75
tp76
Rp77
sg6
g46
(g50
S']\xf2\xb6\x1f\xc1\xbb\xac?'
p78
tp79
Rp80
sg28
g46
(g50
S"'#$.\xce\xae\x97?"
p81
tp82
Rp83
sg31
g46
(g50
S'\x17\xc5\x0b\x18\xc66\x8e?'
p84
tp85
Rp86
sg34
g46
(g50
S'`\xac\\\xdf\xed\xc6Z?'
p87
tp88
Rp89
sg36
g46
(g50
S'\xe8\xe3j\xc9\xc6^\x8b?'
p90
tp91
Rp92
sg39
g46
(g50
S'<v\xca\xc0N \xa4?'
p93
tp94
Rp95
ssS'paralog'
p96
(lp97
S'YDR099W'
p98
aS'YER177W'
p99
asS'alignment_file'
p100
S'../MafftAlignment/YDR099W_YER177W/YDR099W_YER177W_input.fasta'
p101
sS'x_clock'
p102
NsS'x'
p103
cnumpy.core.multiarray
_reconstruct
p104
(cnumpy
ndarray
p105
(I0
tp106
S'b'
p107
tp108
Rp109
(I1
(I18
tp110
g50
I00
S'\x9d\xc2\x1c\xe6\xdb;\xe9\xbfO\xfcvF\xceR\xe0\xbf\xd1\x1a\x03\xb2P\xfa\xe8\xbf\x7ftw\xbc\t\xec\x00@z\xde7\x1dx\x1d\xf8?\xcf\xc0\x14% \xa7\xf3?\xca\x93\xb3\x9cg\x13\xfe\xbfS_\t\xd5\x82\xaa\x19\xc0D\xc5 \xc9\xc7\n\x07\xc0E\x83\x88\xce\xe5t\x03\xc0+.\x8a+r\x04\x11\xc0o\x10\xdbo+\xdd\n\xc0\xfcx\x9b1\xbaB\x11\xc0\\j\x90\xcc>"\x0e\xc0U\xba\xb1\xdd\xdb\xe4\x11\xc0(\xd4\x06Z\xf2\xe3\t\xc0\xec\xa8(K\xe6\xa3\x0c\xc0%\xbb\xf4\xa7\x81\xdd\x10\xc0'
p111
tp112
bsS'Model'
p113
S'HKY'
p114
sS'clock'
p115
I00
s.