(dp0
S'Force'
p1
NsS'ExpectedGeneconv'
p2
(dp3
(S'N1'
p4
S'N2'
p5
tp6
(lp7
F9.132658337405227
aF7.544658164725049
as(S'N5'
p8
S'cerevisiae'
p9
tp10
(lp11
F2.3432683052669647
aF2.797815679586952
as(g5
S'N3'
p12
tp13
(lp14
F1.584080404988048
aF1.3138924212906897
as(S'N4'
p15
g8
tp16
(lp17
F0.5046295662198327
aF1.9401764355274664
as(g4
S'castellii'
p18
tp19
(lp20
F9.24385179984528
aF7.699354603159378
as(g5
S'bayanus'
p21
tp22
(lp23
F2.68582752182182
aF1.5646238300073088
as(S'N0'
p24
g4
tp25
(lp26
F0.053294837305275275
aF0.044061812129626676
as(g12
S'kudriavzevii'
p27
tp28
(lp29
F5.009062961727896
aF1.7360587178261466
as(g8
S'paradoxus'
p30
tp31
(lp32
F2.071567686782756
aF1.257234902145349
as(g24
S'kluyveri'
p33
tp34
(lp35
F0.0
aF0.0
as(g12
g15
tp36
(lp37
F0.30791159372143767
aF0.8143348780753831
as(g15
S'mikatae'
p38
tp39
(lp40
F3.391364182879945
aF3.323967320181516
assS'ExpectedDwellTime'
p41
(dp42
g6
F79.0979883996884
sg10
F120.26020454324157
sg13
F115.79880529386043
sg16
F121.04242901326863
sg19
F73.6501038442767
sg22
F115.15301483925008
sg25
F7.975501506731545
sg28
F126.94004471085864
sg31
F123.38193036367444
sg34
F0.0
sg36
F121.02887217751305
sg39
F128.07124001829544
ssS'newicktree'
p43
S'../PairsAlignemt/YeastTree.newick'
p44
sS'll'
p45
cnumpy.core.multiarray
scalar
p46
(cnumpy
dtype
p47
(S'f8'
p48
I0
I1
tp49
Rp50
(I3
S'<'
p51
NNNI-1
I-1
I0
tp52
bS'~\xf0\x95\xadjL\x9d\xc0'
p53
tp54
Rp55
sS'edge_list'
p56
(lp57
g25
ag34
ag6
ag19
ag13
ag22
ag36
ag28
ag16
ag39
ag10
ag31
asS'edge_to_blen'
p58
(dp59
g25
g46
(g50
S'\xcd]\x1dB\xb2\xb3\xa4?'
p60
tp61
Rp62
sg10
g46
(g50
S'z\x05Y\xfe\xe2\x8c\xc3?'
p63
tp64
Rp65
sg13
g46
(g50
S'\xef6\xf0!\x17\x13\xbc?'
p66
tp67
Rp68
sg16
g46
(g50
S'\xf6\xe6a\xa8\x1a;\xb2?'
p69
tp70
Rp71
sg19
g46
(g50
S'\xc44\x8d\xe2\xe0\xd0\xe4?'
p72
tp73
Rp74
sg22
g46
(g50
S'\xf0\x1a\xefko\x8e\xc1?'
p75
tp76
Rp77
sg6
g46
(g50
S'\x0b\xd56l\xe8+\xe5?'
p78
tp79
Rp80
sg28
g46
(g50
S'\xa6K\xf6\x11\x7f\xac\xcc?'
p81
tp82
Rp83
sg31
g46
(g50
S'\xc6Z\x1b\x8a\xde\xd7\xbb?'
p84
tp85
Rp86
sg39
g46
(g50
S'C\xa1\xdem\xc0\xb5\xc7?'
p87
tp88
Rp89
sg36
g46
(g50
S'8\xa7\x07\xae?\x03\x9e?'
p90
tp91
Rp92
sg34
g46
(g50
S'\xa5\xe1~9\x93\x10\xe1?'
p93
tp94
Rp95
ssS'paralog'
p96
(lp97
S'YJR048W'
p98
aS'YEL039C'
p99
asS'alignment_file'
p100
S'../MafftAlignment/YJR048W_YEL039C/YJR048W_YEL039C_input.fasta'
p101
sS'x_clock'
p102
NsS'x'
p103
cnumpy.core.multiarray
_reconstruct
p104
(cnumpy
ndarray
p105
(I0
tp106
S'b'
p107
tp108
Rp109
(I1
(I19
tp110
g50
I00
S'w\x00[\x98\xe5o\xe4\xbfd;\xe89f\xa1\xe1\xbf\x14\xbd3\xb1\\\xa3\xeb\xbf\xaaC\x9aq\xae\xac\xf0?\xe9\xfa\x99K\xed\xfa\x05\xc0\xeb\xdc\xb3h\xde\xc1\xeb\xbf\xd6w\x18\x97.\xec\xf0\xbf\x9f\x84\xb6\xe6.\xaa\t\xc0A\x85\xde\xdf{\x1e\xe4\xbf\x8b\x82e\xee\xe3o\xda\xbf\x06\xca,+g\x85\xdb\xbf\x02\xca\xb0\xaf\xb8\xae\x01\xc0\xa5\x19u\x18*\xc9\xff\xbf\xe4\x00e\xc8"=\x0c\xc0vK\x8d\xe4\xcd\xef\xf7\xbfp\xcc\xf5\xc9\xf0"\x05\xc0\xe1\x1e\x82jh\xfa\xfa\xbf\x97N\xe9\xc9\x89\x10\xfe\xbf\xf0\x92\xfb\xac\xaa\xbf\x01\xc0'
p111
tp112
bsS'Model'
p113
S'MG94'
p114
sS'clock'
p115
I00
s.