(dp0
S'Force'
p1
NsS'ExpectedGeneconv'
p2
(dp3
(S'N1'
p4
S'N2'
p5
tp6
(lp7
F11.349141931305086
aF5.502685672547817
as(S'N5'
p8
S'cerevisiae'
p9
tp10
(lp11
F0.703692049822688
aF0.4156765946819857
as(g5
S'N3'
p12
tp13
(lp14
F0.9347759675876284
aF0.3927513086977902
as(S'N4'
p15
g8
tp16
(lp17
F0.6884061492546568
aF0.24528967923284864
as(g4
S'castellii'
p18
tp19
(lp20
F13.637508243089544
aF6.621205595776216
as(g5
S'bayanus'
p21
tp22
(lp23
F0.7008082098923364
aF0.4700256745271123
as(S'N0'
p24
g4
tp25
(lp26
F0.1519519848521911
aF0.07374466904340894
as(g12
S'kudriavzevii'
p27
tp28
(lp29
F1.841302532653351
aF0.632003318871167
as(g8
S'paradoxus'
p30
tp31
(lp32
F0.47593242944773395
aF0.4138557438143942
as(g24
S'kluyveri'
p33
tp34
(lp35
F0.0
aF0.0
as(g12
g15
tp36
(lp37
F0.928524044947389
aF0.2550727681281955
as(g15
S'mikatae'
p38
tp39
(lp40
F1.416938331270773
aF0.9096246438555439
assS'ExpectedDwellTime'
p41
(dp42
g6
F364.35015788980763
sg10
F441.8610278464852
sg13
F435.39518613304875
sg16
F435.7762781788526
sg19
F378.20989344666555
sg22
F440.46331977856045
sg25
F61.7466973008755
sg28
F434.99300933121015
sg31
F433.49392783704747
sg34
F0.0
sg36
F435.39754311594214
sg39
F438.5878164499655
ssS'newicktree'
p43
S'../PairsAlignemt/YeastTree.newick'
p44
sS'll'
p45
cnumpy.core.multiarray
scalar
p46
(cnumpy
dtype
p47
(S'f8'
p48
I0
I1
tp49
Rp50
(I3
S'<'
p51
NNNI-1
I-1
I0
tp52
bS'\xf9\x03}\xbf]\xa4\xbc\xc0'
p53
tp54
Rp55
sS'edge_list'
p56
(lp57
g25
ag34
ag6
ag19
ag13
ag22
ag36
ag28
ag16
ag39
ag10
ag31
asS'edge_to_blen'
p58
(dp59
g6
g46
(g50
S'\xa4s\x9ai\x85\x02\x04@'
p60
tp61
Rp62
sg10
g46
(g50
S'3\xec\x9d\x99\x85\x7f\xd1?'
p63
tp64
Rp65
sg13
g46
(g50
S'\x98\n\xf1\xcb\xc1\x12\xcb?'
p66
tp67
Rp68
sg16
g46
(g50
S'E\xb2\xc0\xceE\xd3\xc2?'
p69
tp70
Rp71
sg28
g46
(g50
S'\xa1W\xf2\xcd\x80\x18\xd5?'
p72
tp73
Rp74
sg22
g46
(g50
S'\xd1*\xa9\x86\xa5y\xd1?'
p75
tp76
Rp77
sg25
g46
(g50
S' \xd3\xa7\x0cdG\xc1?'
p78
tp79
Rp80
sg19
g46
(g50
S'\x92\xb4n\x0bH\xd3\x08@'
p81
tp82
Rp83
sg31
g46
(g50
S'\x86\x10UO\xfb\xb0\xc6?'
p84
tp85
Rp86
sg39
g46
(g50
S'\xa1\xae\xe2L\x94\xe1\xda?'
p87
tp88
Rp89
sg36
g46
(g50
S'|\xee%\xa1`~\xc8?'
p90
tp91
Rp92
sg34
g46
(g50
S'\xa7\xa7\xff\xa9\xfc\xae\t@'
p93
tp94
Rp95
ssS'paralog'
p96
(lp97
S'YLR284C'
p98
aS'YOR180C'
p99
asS'alignment_file'
p100
S'../MafftAlignment/YLR284C_YOR180C/YLR284C_YOR180C_input.fasta'
p101
sS'x_clock'
p102
NsS'x'
p103
cnumpy.core.multiarray
_reconstruct
p104
(cnumpy
ndarray
p105
(I0
tp106
S'b'
p107
tp108
Rp109
(I1
(I19
tp110
g50
I00
S'\xe5\xf2w\xbb\x11\xf9\xe3\xbf\xf5)Q\xb3T\xfb\xe2\xbf\xaax\x10\xc8\x942\xee\xbfm\x9a\xa5q\xdf_\xec?\x94V\xa5Z\x9b\xfe\x02\xc0\xf7\xed_\xca\xa5\xa0\x08\xc0\x89D$\xe1Bi\x0e\xc0PGm\xc56\x05\x00\xc0\xec\xe2\xfe]\x9c\xa9\xf2?\xc4,\xc7XIV\xed?\xfe\xdd\xea\x08g\x1e\xf2?\xe7\xca\xaad\x11\xdb\xf8\xbf\xaepX\xf4\x05\xc5\xf4\xbfa8\xab\xeb5u\xfa\xbf\xe5\xfeNh\xcb\xc1\xf1\xbf4\xdc$PU\xab\xfe\xbf\xec8~V5\xc2\xeb\xbf\xd6ug\xc0\xa5\xbf\xf4\xbf\xf1\x83\x12\xeaE\xae\xfb\xbf'
p111
tp112
bsS'Model'
p113
S'MG94'
p114
sS'clock'
p115
I00
s.