(dp0
S'Force'
p1
NsS'ExpectedGeneconv'
p2
(dp3
(S'N1'
p4
S'N2'
p5
tp6
(lp7
F53.97002767048715
aF25.595813995319283
as(S'N5'
p8
S'cerevisiae'
p9
tp10
(lp11
F8.875394600324626
aF3.420714405842906
as(g5
S'N3'
p12
tp13
(lp14
F5.5512259590394315
aF2.240393940946922
as(S'N4'
p15
g8
tp16
(lp17
F2.195963560046141
aF1.3614292410995759
as(g4
S'castellii'
p18
tp19
(lp20
F109.04633678489981
aF52.85749412233157
as(g5
S'bayanus'
p21
tp22
(lp23
F9.938040270747099
aF4.0283303867700475
as(S'N0'
p24
g4
tp25
(lp26
F15.250566199440891
aF7.321896600836081
as(g12
S'kudriavzevii'
p27
tp28
(lp29
F7.294553846602241
aF3.7642876359154602
as(g8
S'paradoxus'
p30
tp31
(lp32
F1.9126667340416539
aF1.1644175938753796
as(g24
S'kluyveri'
p33
tp34
(lp35
F0.0
aF0.0
as(g12
g15
tp36
(lp37
F3.242830964388025
aF1.4943368449581578
as(g15
S'mikatae'
p38
tp39
(lp40
F6.494686592732317
aF4.182497709733222
assS'ExpectedDwellTime'
p41
(dp42
g6
F330.4820845403825
sg10
F374.48732141171104
sg13
F358.8283096469169
sg16
F367.70776411213296
sg19
F343.5703204838317
sg22
F370.3854398939739
sg25
F177.00059902139276
sg28
F368.3212662674911
sg31
F374.6532440487922
sg34
F0.0
sg36
F361.70813434633425
sg39
F378.49776589098
ssS'newicktree'
p43
S'../PairsAlignemt/YeastTree.newick'
p44
sS'll'
p45
cnumpy.core.multiarray
scalar
p46
(cnumpy
dtype
p47
(S'f8'
p48
I0
I1
tp49
Rp50
(I3
S'<'
p51
NNNI-1
I-1
I0
tp52
bS'\xb36\xa5\xdaX\x8f\xb6\xc0'
p53
tp54
Rp55
sS'edge_list'
p56
(lp57
g25
ag34
ag6
ag19
ag13
ag22
ag36
ag28
ag16
ag39
ag10
ag31
asS'edge_to_blen'
p58
(dp59
g25
g46
(g50
S'zs(\x9b]\xdd\xe1?'
p60
tp61
Rp62
sg10
g46
(g50
S'\xcc\x90\x95\xd0\x89w\xc9?'
p63
tp64
Rp65
sg13
g46
(g50
S'\x1cS\x81\xca\x85\xc8\xbf?'
p66
tp67
Rp68
sg16
g46
(g50
S'ky\xbc$\xb6\xb8\xb4?'
p69
tp70
Rp71
sg19
g46
(g50
S'\x8f\x10\xe8\xabD\x06\x05@'
p72
tp73
Rp74
sg22
g46
(g50
S'\xa2Ut\xe2\xf0\x90\xce?'
p75
tp76
Rp77
sg6
g46
(g50
S'@\xf5\x91\xc6\x9c\xb6\xf3?'
p78
tp79
Rp80
sg28
g46
(g50
S'\xef=\x9e\x17b\xac\xc8?'
p81
tp82
Rp83
sg31
g46
(g50
S'\xd7\x8d56Tm\xb0?'
p84
tp85
Rp86
sg39
g46
(g50
S'\xdf\x7f\x89\xb4]\x17\xcf?'
p87
tp88
Rp89
sg36
g46
(g50
S'\xd3\xac\xb6\xe3\x8c$\xb8?'
p90
tp91
Rp92
sg34
g46
(g50
S'j\x8b\r\xc2\xceU\x00@'
p93
tp94
Rp95
ssS'paralog'
p96
(lp97
S'YPL232W'
p98
aS'YMR183C'
p99
asS'alignment_file'
p100
S'../MafftAlignment/YPL232W_YMR183C/YPL232W_YMR183C_input.fasta'
p101
sS'x_clock'
p102
NsS'x'
p103
cnumpy.core.multiarray
_reconstruct
p104
(cnumpy
ndarray
p105
(I0
tp106
S'b'
p107
tp108
Rp109
(I1
(I19
tp110
g50
I00
S'\xc7\xed\xad=\xa1\xdf\xe3\xbf\x9a\x11"\xef\xd5\xac\xe0\xbf\x9b3\xcdl\\\xbd\xe9\xbfH\xc9\xd3\x06\xe1\t\xf2?\xf0\xd31\x05\x99w\x08\xc0^jt\xff\xef\xaa\xef\xbf\x1b\x89\xf6\xbd\xe5\x92\xfb\xbfB\xd6\x8a\x140\xa7\xe2\xbf9T\xb9\xa7\x1a\xd8\xe6?,Py\x80\xe3\xb6\xca?\x15\x97\xe0\x1e}\xeb\xee?)\x04P\xe0\x9c\xb0\x00\xc0d\xdcF\xb0\x07\xea\xf6\xbf\xf4+k\xc8\xb8\xe3\x02\xc0\x8b\xe4\xa9\x9cDW\xfa\xbf\x16<\xea>\xae\x1c\x04\xc0\xa1\xfb\x9c\x1fC\xa4\xf6\xbfK\x10\xca\x0b\x9a\xd5\xf9\xbf\x7f\xa9\reP\xf8\x05\xc0'
p111
tp112
bsS'Model'
p113
S'MG94'
p114
sS'clock'
p115
I00
s.