(dp0
S'Force'
p1
NsS'ExpectedGeneconv'
p2
(dp3
(S'N1'
p4
S'N2'
p5
tp6
(lp7
F14.644435024442274
aF13.553932603698014
as(S'N5'
p8
S'cerevisiae'
p9
tp10
(lp11
F6.740765487663993
aF5.897627928923869
as(g5
S'N3'
p12
tp13
(lp14
F3.4430356033525173
aF2.7452960087396896
as(S'N4'
p15
g8
tp16
(lp17
F0.800189497065269
aF3.987874178141893
as(g4
S'castellii'
p18
tp19
(lp20
F20.805008175804097
aF20.07457404275147
as(g5
S'bayanus'
p21
tp22
(lp23
F6.475903719085715
aF4.241432855846648
as(S'N0'
p24
g4
tp25
(lp26
F3.824495754728375
aF3.3539433067179862
as(g12
S'kudriavzevii'
p27
tp28
(lp29
F11.60971846409768
aF3.8807530895955096
as(g8
S'paradoxus'
p30
tp31
(lp32
F5.122202463365439
aF4.056057876769443
as(g24
S'kluyveri'
p33
tp34
(lp35
F0.0
aF0.0
as(g12
g15
tp36
(lp37
F0.8233653772485328
aF2.6508971515967112
as(g15
S'mikatae'
p38
tp39
(lp40
F6.750502606531587
aF6.627262089086895
assS'ExpectedDwellTime'
p41
(dp42
g6
F111.39721501847562
sg10
F148.1435253379593
sg13
F146.17988844025558
sg16
F151.79483856862805
sg19
F99.85467013640931
sg22
F143.2195256000248
sg25
F40.96060496848317
sg28
F154.66356897592783
sg31
F150.81482371250718
sg34
F0.0
sg36
F151.8712012902658
sg39
F155.27401955116443
ssS'newicktree'
p43
S'../PairsAlignemt/YeastTree.newick'
p44
sS'll'
p45
cnumpy.core.multiarray
scalar
p46
(cnumpy
dtype
p47
(S'f8'
p48
I0
I1
tp49
Rp50
(I3
S'<'
p51
NNNI-1
I-1
I0
tp52
bS'|;\xb7\xfbo\xa3\xa0\xc0'
p53
tp54
Rp55
sS'edge_list'
p56
(lp57
g25
ag34
ag6
ag19
ag13
ag22
ag36
ag28
ag16
ag39
ag10
ag31
asS'edge_to_blen'
p58
(dp59
g25
g46
(g50
S'\xca\x13\xb2tO\x83\xb3?'
p60
tp61
Rp62
sg10
g46
(g50
S'\x88\xbc2\x15\x8e\x15\xa2?'
p63
tp64
Rp65
sg13
g46
(g50
S'[\x854_\x98\x85\x97?'
p66
tp67
Rp68
sg16
g46
(g50
S'\xbc\xc8\x9fM6J\x8f?'
p69
tp70
Rp71
sg19
g46
(g50
S'-\x07\xe5I5\xc4\xc2?'
p72
tp73
Rp74
sg22
g46
(g50
S'\x84\x8a\xc8\xac\xfe\xe3\xa0?'
p75
tp76
Rp77
sg6
g46
(g50
S'[\xda.\x9f:N\xbf?'
p78
tp79
Rp80
sg28
g46
(g50
S'\xfdAu\x99x\xc9\xa8?'
p81
tp82
Rp83
sg31
g46
(g50
S'i\xb0\x02\xb7a\xba\x99?'
p84
tp85
Rp86
sg34
g46
(g50
S'U\xf8x\x95\xd0v\xb0?'
p87
tp88
Rp89
sg36
g46
(g50
S'(\xc2P*R\xb5\x83?'
p90
tp91
Rp92
sg39
g46
(g50
S'\xaa\x85\x1e\x15\xed\x80\xa5?'
p93
tp94
Rp95
ssS'paralog'
p96
(lp97
S'YJR048W'
p98
aS'YEL039C'
p99
asS'alignment_file'
p100
S'../MafftAlignment/YJR048W_YEL039C/YJR048W_YEL039C_input.fasta'
p101
sS'x_clock'
p102
NsS'x'
p103
cnumpy.core.multiarray
_reconstruct
p104
(cnumpy
ndarray
p105
(I0
tp106
S'b'
p107
tp108
Rp109
(I1
(I18
tp110
g50
I00
S'\xd9|\xaa+\xb9\x1d\xe5\xbfQ\xc2{\r?H\xe0\xbf\xc3\xcc\xbf\xa0\x10G\xe9\xbf\xbc\x00\xef_=\xcf\xf8?(f\x10\xbe\xbe\x9d\xec?\xd8M\xfd\xed7j\xe8?\xd0\x9f\x12\xc6\xc1\x97\x04\xc0\xfdHF\x1b\xb3\xf3\x05\xc0-\x8f\xbc\xda\xa0\xcf\x00\xc0\xa0|\xab.(\xb8\xfe\xbft\xb8\xf2\xa960\x0e\xc0\x8d\xfbq\xaf\xe3J\x0b\xc0\xb5\xc4\xb1\x9a\x06\x93\x12\xc02\xedU\xebZ9\x08\xc09\xe0\x88\xf9\xac\xb9\x10\xc0\xba\x80\xc61_\\\t\xc0\xbb\xc4\xf0\xbf\x0c\xbf\n\xc0Gk\x8d;\x9bx\r\xc0'
p111
tp112
bsS'Model'
p113
S'HKY'
p114
sS'clock'
p115
I00
s.