(dp0
S'Force'
p1
NsS'ExpectedGeneconv'
p2
(dp3
(S'N1'
p4
S'N2'
p5
tp6
(lp7
F152.06548992730754
aF174.7282904160246
as(S'N5'
p8
S'cerevisiae'
p9
tp10
(lp11
F74.50030114920085
aF103.90505967762152
as(g5
S'N3'
p12
tp13
(lp14
F34.581171821682325
aF37.38313090946946
as(S'N4'
p15
g8
tp16
(lp17
F45.27779047274112
aF45.09687507364511
as(g4
S'castellii'
p18
tp19
(lp20
F186.0220807306838
aF220.82668510771563
as(g5
S'bayanus'
p21
tp22
(lp23
F135.35974188539322
aF154.85113957129082
as(S'N0'
p24
g4
tp25
(lp26
F253.4211656611141
aF295.9397094579899
as(g12
S'kudriavzevii'
p27
tp28
(lp29
F117.71426582115267
aF116.02476246798325
as(g8
S'paradoxus'
p30
tp31
(lp32
F45.545592423101866
aF54.48445061918469
as(g24
S'kluyveri'
p33
tp34
(lp35
F0.0
aF0.0
as(g12
g15
tp36
(lp37
F43.30266646526377
aF54.0795700051199
as(g15
S'mikatae'
p38
tp39
(lp40
F93.62546213055151
aF122.35240297325915
assS'ExpectedDwellTime'
p41
(dp42
g6
F1111.330945984396
sg10
F1010.2880336323755
sg13
F1108.3316577701034
sg16
F1084.7576616629976
sg19
F1144.4848951946806
sg22
F1005.5323300330637
sg25
F714.9760567072411
sg28
F1078.8072134036604
sg31
F1066.1551859261695
sg34
F0.0
sg36
F1105.8445164689017
sg39
F1080.651997940074
ssS'newicktree'
p43
S'../PairsAlignemt/YeastTree.newick'
p44
sS'll'
p45
cnumpy.core.multiarray
scalar
p46
(cnumpy
dtype
p47
(S'f8'
p48
I0
I1
tp49
Rp50
(I3
S'<'
p51
NNNI-1
I-1
I0
tp52
bS'{\xfa\x80\xeb\xff\x19\xd5\xc0'
p53
tp54
Rp55
sS'edge_list'
p56
(lp57
g25
ag34
ag6
ag19
ag13
ag22
ag36
ag28
ag16
ag39
ag10
ag31
asS'edge_to_blen'
p58
(dp59
g25
g46
(g50
S'\x9epT\xf5\xafY\xc8?'
p60
tp61
Rp62
sg10
g46
(g50
S'k\x97\x93\xa1\xdb\xa4\xa1?'
p63
tp64
Rp65
sg13
g46
(g50
S'\xdfN\x87qD\x82\x8f?'
p66
tp67
Rp68
sg16
g46
(g50
S'\xba"\x1f\x04j\xe3\x92?'
p69
tp70
Rp71
sg19
g46
(g50
S'7\x14\x0c _\x86\xb6?'
p72
tp73
Rp74
sg22
g46
(g50
S'%n3\xc1\xc4\x0b\xac?'
p75
tp76
Rp77
sg6
g46
(g50
S"\xe0J\x85\xf1\xe8'\xb1?"
p78
tp79
Rp80
sg28
g46
(g50
S'g^ \xca\x83h\xa9?'
p81
tp82
Rp83
sg31
g46
(g50
S'M\x1f1H\xd6\x11\x98?'
p84
tp85
Rp86
sg39
g46
(g50
S'\xa6-\xb4\x87\x1e\xee\xa7?'
p87
tp88
Rp89
sg36
g46
(g50
S'V\xaa\xd0J\x1b\xda\x95?'
p90
tp91
Rp92
sg34
g46
(g50
S')\x81\x98$\xad\x86\xa4>'
p93
tp94
Rp95
ssS'paralog'
p96
(lp97
S'YGL062W'
p98
aS'YBR218C'
p99
asS'alignment_file'
p100
S'../MafftAlignment/YGL062W_YBR218C/YGL062W_YBR218C_input.fasta'
p101
sS'x_clock'
p102
NsS'x'
p103
cnumpy.core.multiarray
_reconstruct
p104
(cnumpy
ndarray
p105
(I0
tp106
S'b'
p107
tp108
Rp109
(I1
(I18
tp110
g50
I00
S'\xa7\x96\xc7\xd6\x0e+\xe8\xbf\x8cth\xa0=@\xe3\xbfS\xe4J\xca\x08X\xe9\xbf\xba\xc4\xbf\xc8\xe7\r\xfa?\xb9\xd1(\xa2j-\xf6?_\xd6z\xdf\xb7\xa8\xf8?\xce\xfc\xa6\x84?\x8d\xfa\xbf\xbd\xea0\xe9,\x9d,\xc0\x8a\xaa9,h\x9f\x05\xc0L\xeey\xa4\xc7q\x03\xc0\xff76\xe3\x88\xb2\x10\xc0\x0fUS\xd2_<\x07\xc0\x03\xd6\x8ey\x06\xc7\x0e\xc0\x88\xc2\xcf\x13\xa8\x06\x08\xc0{\xe7\x15\xd0\x83\xf1\x0f\xc0\x86@dMg\x81\x08\xc0\xe5\xf4\x96a\x85\xf1\n\xc0\xa6\x82U\x1d\x10\x01\x0e\xc0'
p111
tp112
bsS'Model'
p113
S'HKY'
p114
sS'clock'
p115
I00
s.