(dp0
S'Force'
p1
NsS'ExpectedGeneconv'
p2
(dp3
(S'N1'
p4
S'N2'
p5
tp6
(lp7
F1.8933933659103648
aF11.889558057697561
as(S'N5'
p8
S'cerevisiae'
p9
tp10
(lp11
F0.5151818555823542
aF4.261150212320384
as(g5
S'N3'
p12
tp13
(lp14
F0.20587744891055956
aF3.611053063422408
as(S'N4'
p15
g8
tp16
(lp17
F0.011906163093550198
aF2.653532102561067
as(g4
S'castellii'
p18
tp19
(lp20
F1.471604853421947
aF10.67457594996516
as(g5
S'bayanus'
p21
tp22
(lp23
F0.538849937124502
aF8.136794768262833
as(S'N0'
p24
g4
tp25
(lp26
F0.5989169728063891
aF5.003533019506516
as(g12
S'kudriavzevii'
p27
tp28
(lp29
F0.8097787552785384
aF3.3836701630525043
as(g8
S'paradoxus'
p30
tp31
(lp32
F0.0462082079042481
aF6.671344531069738
as(g24
S'kluyveri'
p33
tp34
(lp35
F0.0
aF0.0
as(g12
g15
tp36
(lp37
F0.06519000215075037
aF1.5836892462956873
as(g15
S'mikatae'
p38
tp39
(lp40
F1.8389909442255024
aF8.911083246320379
assS'ExpectedDwellTime'
p41
(dp42
g6
F42.26125104023027
sg10
F58.474093179276764
sg13
F49.54519623134568
sg16
F57.853998355230445
sg19
F40.6329182736144
sg22
F48.17584016795571
sg25
F19.24981106869973
sg28
F61.57310416057643
sg31
F56.18146485961143
sg34
F0.0
sg36
F56.35210494834212
sg39
F60.05860196196403
ssS'newicktree'
p43
S'../PairsAlignemt/YeastTree.newick'
p44
sS'll'
p45
cnumpy.core.multiarray
scalar
p46
(cnumpy
dtype
p47
(S'f8'
p48
I0
I1
tp49
Rp50
(I3
S'<'
p51
NNNI-1
I-1
I0
tp52
bS'\xa9\xa4Q9=\xba\x93\xc0'
p53
tp54
Rp55
sS'edge_list'
p56
(lp57
g25
ag34
ag6
ag19
ag13
ag22
ag36
ag28
ag16
ag39
ag10
ag31
asS'edge_to_blen'
p58
(dp59
g6
g46
(g50
S'\x1e\xad\x0e\x885M\xa2?'
p60
tp61
Rp62
sg10
g46
(g50
S'\x80\xbdx\xb3\x90c\x85?'
p63
tp64
Rp65
sg13
g46
(g50
S'\xf9\xeeX\xd6\x05\xaa\x86?'
p66
tp67
Rp68
sg16
g46
(g50
S'\x1e\x00\xect\xe1\xdbo?'
p69
tp70
Rp71
sg28
g46
(g50
S'J\x05\xd8\x1b0\x8e\x8e?'
p72
tp73
Rp74
sg22
g46
(g50
S'\x97\x99\x8f\x8e\xe6\x82\x95?'
p75
tp76
Rp77
sg25
g46
(g50
S'\xd8\xb1#\x0e\x15\x1c\xa2?'
p78
tp79
Rp80
sg19
g46
(g50
S'9\xc8C\x10"\xbe\x9f?'
p81
tp82
Rp83
sg31
g46
(g50
S'u\xc3c\xf0\r\x97\x88?'
p84
tp85
Rp86
sg39
g46
(g50
S'\xa0,\xf7=\xe6\xd2\x96?'
p87
tp88
Rp89
sg36
g46
(g50
S'o\x9d\x0b\x16\xf8\x05v?'
p90
tp91
Rp92
sg34
g46
(g50
S'4I\x93y\xe2\xeb\xa9?'
p93
tp94
Rp95
ssS'paralog'
p96
(lp97
S'YLR406C'
p98
aS'YDL075W'
p99
asS'alignment_file'
p100
S'../MafftAlignment/YLR406C_YDL075W/YLR406C_YDL075W_input.fasta'
p101
sS'x_clock'
p102
NsS'x'
p103
cnumpy.core.multiarray
_reconstruct
p104
(cnumpy
ndarray
p105
(I0
tp106
S'b'
p107
tp108
Rp109
(I1
(I18
tp110
g50
I00
S'\xa3\xfc\x13\xa9\x84Y\xe6\xbf\x10\xacLW\x9fS\xe0\xbfW5m\xd6!8\xec\xbf9\x16\x85\x03\x05\xdb\x02@O\x02kBn\x18\xe2?\x18\x08y\xd8\x8d\x81\x05@f"\xe0\x12*\xbc\n\xc0I"\x0e\xb1\xb4\xdd\x07\xc08T\xab\x9d\x93\xa6\n\xc0\xa8v\x81D\\\xca\x0b\xc0\xaf\rZ3\xed\x03\x12\xc0\r\xc2\xe0\xec3\xe7\x0e\xc0\xea\x1e\x0c\x93\x14\xe7\x14\xc0jLw\xaa\xff\xd1\x10\xc0H\x95\x96^\xc92\x16\xc0\xac\xf1\xb0\xdf\xe8m\x0e\xc0\xcen\xd9?:?\x12\xc0\xe8\x9f\xa9Vi\xb0\x11\xc0'
p111
tp112
bsS'Model'
p113
S'HKY'
p114
sS'clock'
p115
I00
s.