(dp0
S'Force'
p1
NsS'ExpectedGeneconv'
p2
(dp3
(S'N1'
p4
S'N2'
p5
tp6
(lp7
F9.208553974649826
aF15.458446168908138
as(S'N5'
p8
S'cerevisiae'
p9
tp10
(lp11
F3.2457025895154272
aF3.3965704252518605
as(g5
S'N3'
p12
tp13
(lp14
F1.3282098278048264
aF3.043134081240449
as(S'N4'
p15
g8
tp16
(lp17
F0.3595927412149126
aF2.621586651219796
as(g4
S'castellii'
p18
tp19
(lp20
F14.562597679308205
aF27.374612859254412
as(g5
S'bayanus'
p21
tp22
(lp23
F3.573758322858634
aF10.549903498871846
as(S'N0'
p24
g4
tp25
(lp26
F14.439337093855325
aF25.278619326331675
as(g12
S'kudriavzevii'
p27
tp28
(lp29
F3.3222230865089806
aF4.036549219029472
as(g8
S'paradoxus'
p30
tp31
(lp32
F3.00628820424963
aF5.359407655000626
as(g24
S'kluyveri'
p33
tp34
(lp35
F0.0
aF0.0
as(g12
g15
tp36
(lp37
F3.903489485137997
aF3.871018888176214
as(g15
S'mikatae'
p38
tp39
(lp40
F4.3442264225975995
aF6.309067828293184
assS'ExpectedDwellTime'
p41
(dp42
g6
F84.93188041860212
sg10
F84.74433027579285
sg13
F93.00831187964985
sg16
F86.54555167991285
sg19
F78.19588665840973
sg22
F80.46015791118167
sg25
F49.720291371094554
sg28
F101.89912930524692
sg31
F82.04748727438339
sg34
F0.0
sg36
F91.94099789797873
sg39
F88.64752107919054
ssS'newicktree'
p43
S'../PairsAlignemt/YeastTree.newick'
p44
sS'll'
p45
cnumpy.core.multiarray
scalar
p46
(cnumpy
dtype
p47
(S'f8'
p48
I0
I1
tp49
Rp50
(I3
S'<'
p51
NNNI-1
I-1
I0
tp52
bS'.\x19\xa3\xe2\xed\x8a\x9e\xc0'
p53
tp54
Rp55
sS'edge_list'
p56
(lp57
g25
ag34
ag6
ag19
ag13
ag22
ag36
ag28
ag16
ag39
ag10
ag31
asS'edge_to_blen'
p58
(dp59
g25
g46
(g50
S'p\xac\xe1\x84\xd5\x8c\xb3?'
p60
tp61
Rp62
sg10
g46
(g50
S'\xdc\x08\xd7\xd5\x0c"\x7f?'
p63
tp64
Rp65
sg13
g46
(g50
S'\xa9\x9c\x92WrMw?'
p66
tp67
Rp68
sg16
g46
(g50
S'\xd2\xda\xe9\xab\xb8|a?'
p69
tp70
Rp71
sg19
g46
(g50
S'\x1a?\xe4\xfd\x94^\xa9?'
p72
tp73
Rp74
sg22
g46
(g50
S'\x05p\x95\n.6\x87?'
p75
tp76
Rp77
sg6
g46
(g50
S'.\x0e:\xad\xebB\x9e?'
p78
tp79
Rp80
sg28
g46
(g50
S'\x02\xe5\x04\xed}\xad\x85?'
p81
tp82
Rp83
sg31
g46
(g50
S'y\x18\xa2\xad\xe3\x8a\x82?'
p84
tp85
Rp86
sg39
g46
(g50
S"\x16'\x87R\xd4\xd2\x87?"
p87
tp88
Rp89
sg36
g46
(g50
S'%\x938\xc5k\xacz?'
p90
tp91
Rp92
sg34
g46
(g50
S'\x85h\xa3\x12\x99\x98\xd4>'
p93
tp94
Rp95
ssS'paralog'
p96
(lp97
S'YJL177W'
p98
aS'YKL180W'
p99
asS'alignment_file'
p100
S'../MafftAlignment/YJL177W_YKL180W/YJL177W_YKL180W_input.fasta'
p101
sS'x_clock'
p102
NsS'x'
p103
cnumpy.core.multiarray
_reconstruct
p104
(cnumpy
ndarray
p105
(I0
tp106
S'b'
p107
tp108
Rp109
(I1
(I18
tp110
g50
I00
S'\xee\xbf( \xc5\xb5\xe7\xbf\x8f\xc2"E\xac\xcf\xde\xbfN%$f\xf0=\xe7\xbf\xbf\xdd\xaf\xb4\x80"\x01@1\x9cS\x1d\xaeV\x00@tg\x1e\xd3\x90\xd1\x04@N\xb2:(\xdb\x93\x04\xc0\x0c\x9eV\x13\xc2r(\xc0\x05\xdc\xea\xdb;,\x0c\xc0\xc0\xc8cO\xc9\t\x08\xc0gW&\xebC\xad\x14\xc0!n"\xf9{\xeb\x11\xc0\x0b\xf9K\xc4\xe9"\x14\xc0?t\x0b\xac~1\x12\xc0\xd6g]\xff\x07\x99\x18\xc0\xb4B\x80\xc6\xd6\xd0\x11\xc0\xfc\x9e`\x01\x9b\x84\x13\xc0\xfcf\xb6\xfau\xd1\x12\xc0'
p111
tp112
bsS'Model'
p113
S'HKY'
p114
sS'clock'
p115
I00
s.