(dp0
S'Force'
p1
NsS'ExpectedGeneconv'
p2
(dp3
(S'N1'
p4
S'N2'
p5
tp6
(lp7
F36.05652962533328
aF26.72053797451128
as(S'N5'
p8
S'cerevisiae'
p9
tp10
(lp11
F13.66042686707729
aF10.388554740768127
as(g5
S'N3'
p12
tp13
(lp14
F4.901887050018854
aF3.4958085001225956
as(S'N4'
p15
g8
tp16
(lp17
F6.567393572038627
aF4.840428830020022
as(g4
S'castellii'
p18
tp19
(lp20
F61.97677107092454
aF43.25398984002029
as(g5
S'bayanus'
p21
tp22
(lp23
F14.874327152034548
aF7.182560354582857
as(S'N0'
p24
g4
tp25
(lp26
F6.710857445556422
aF4.7885952736355675
as(g12
S'kudriavzevii'
p27
tp28
(lp29
F10.341303826480885
aF10.210851065474316
as(g8
S'paradoxus'
p30
tp31
(lp32
F3.9213627552692234
aF3.3033727135546647
as(g24
S'kluyveri'
p33
tp34
(lp35
F0.0
aF0.0
as(g12
g15
tp36
(lp37
F5.23629238624509
aF3.6782490849890097
as(g15
S'mikatae'
p38
tp39
(lp40
F15.414660441925065
aF10.353561256436974
assS'ExpectedDwellTime'
p41
(dp42
g6
F576.8046215820326
sg10
F775.9182372429884
sg13
F768.1263405030128
sg16
F787.4908867735759
sg19
F592.8411617007547
sg22
F750.3119002518715
sg25
F194.4850042561009
sg28
F787.4484062590299
sg31
F782.5623847632666
sg34
F0.0
sg36
F787.6426951763148
sg39
F783.5636436180739
ssS'newicktree'
p43
S'../PairsAlignemt/YeastTree.newick'
p44
sS'll'
p45
cnumpy.core.multiarray
scalar
p46
(cnumpy
dtype
p47
(S'f8'
p48
I0
I1
tp49
Rp50
(I3
S'<'
p51
NNNI-1
I-1
I0
tp52
bS'k\x01!hFq\xbf\xc0'
p53
tp54
Rp55
sS'edge_list'
p56
(lp57
g25
ag34
ag6
ag19
ag13
ag22
ag36
ag28
ag16
ag39
ag10
ag31
asS'edge_to_blen'
p58
(dp59
g6
g46
(g50
S'rxv2\x1fs\xd0?'
p60
tp61
Rp62
sg10
g46
(g50
S'\x8a\xec\xa4\xc9\x0b\xe4\xac?'
p63
tp64
Rp65
sg13
g46
(g50
S'\xb6\xbf\x0e\xfaP\x1d\xa2?'
p66
tp67
Rp68
sg16
g46
(g50
S'\x1cQjR_=\x9f?'
p69
tp70
Rp71
sg28
g46
(g50
S'\xab\x16\xddQ\xf0\xe7\xae?'
p72
tp73
Rp74
sg22
g46
(g50
S'`\xab\xc3\xdbQi\xad?'
p75
tp76
Rp77
sg25
g46
(g50
S'^jG\x92\xc3\x02\xc0?'
p78
tp79
Rp80
sg19
g46
(g50
S't\xb1\xe1\xae\xbcK\xd6?'
p81
tp82
Rp83
sg31
g46
(g50
S'\x01\xb3\xce!V\xb4\x96?'
p84
tp85
Rp86
sg39
g46
(g50
S'\xd1-1\x00LU\xb1?'
p87
tp88
Rp89
sg36
g46
(g50
S'\xad\xde(\xe2\x8d\xcb\x99?'
p90
tp91
Rp92
sg34
g46
(g50
S"\x83\xa0\x9a\x8b'\x1d\xce?"
p93
tp94
Rp95
ssS'paralog'
p96
(lp97
S'YPL087W'
p98
aS'YBR183W'
p99
asS'alignment_file'
p100
S'../MafftAlignment/YPL087W_YBR183W/YPL087W_YBR183W_input.fasta'
p101
sS'x_clock'
p102
NsS'x'
p103
cnumpy.core.multiarray
_reconstruct
p104
(cnumpy
ndarray
p105
(I0
tp106
S'b'
p107
tp108
Rp109
(I1
(I18
tp110
g50
I00
S"\xc9\xa6\x99\xcc\x12.\xe8\xbf\xb6\xf3cD\xda\x9c\xe2\xbf\xf5O\xc4\xb0\xec\x99\xf0\xbfd\x90\xe8\x0fA\xed\xf3?Y]\xba\x9d\x8d5\xe3\xbf\x97\xf6_\xa7D\x02\xee\xbf\xf96\xa3\x94P\xa1\x00\xc0u\xe1\xe8\x84\x17'\xf7\xbf\x86\x0e6[\xba\xbc\xf5\xbf\xda\x8a\x81*)\xdf\xf0\xbfb\xbd\x81\x88\x9e\xbb\n\xc0\xb2\n_t\x04\xdb\x06\xc0\xc5O\xec\x0bFs\r\xc02\x99\x92w\x80u\x06\xc0\x0ea\xe9D\x12\xeb\x0b\xc0\x95\xaeK\xdfY\x8a\x05\xc0\x1dCf\xcc\x97\xff\x06\xc0\x0c\x11\xe4\x81\xa6x\x0e\xc0"
p111
tp112
bsS'Model'
p113
S'HKY'
p114
sS'clock'
p115
I00
s.