(dp0
S'Force'
p1
NsS'ExpectedGeneconv'
p2
(dp3
(S'N1'
p4
S'N2'
p5
tp6
(lp7
F4.923249522000331
aF25.025638579598972
as(S'N5'
p8
S'cerevisiae'
p9
tp10
(lp11
F0.6374688875359262
aF2.8737035073513306
as(g5
S'N3'
p12
tp13
(lp14
F0.33224298223966026
aF1.8655369935903319
as(S'N4'
p15
g8
tp16
(lp17
F0.24570847836827256
aF1.8866584287157004
as(g4
S'castellii'
p18
tp19
(lp20
F8.22276886357027
aF41.797783022356626
as(g5
S'bayanus'
p21
tp22
(lp23
F0.9317821592716978
aF5.650249559078852
as(S'N0'
p24
g4
tp25
(lp26
F5.579073200633198e-08
aF2.835937414759102e-07
as(g12
S'kudriavzevii'
p27
tp28
(lp29
F0.900730788745346
aF4.4714360897021015
as(g8
S'paradoxus'
p30
tp31
(lp32
F0.6643133358884067
aF1.790306583435735
as(g24
S'kluyveri'
p33
tp34
(lp35
F0.0
aF0.0
as(g12
g15
tp36
(lp37
F0.2947524532195384
aF2.345030624730459
as(g15
S'mikatae'
p38
tp39
(lp40
F0.8749338049854131
aF3.8817247335272116
assS'ExpectedDwellTime'
p41
(dp42
g6
F435.2112731040597
sg10
F575.4367578621401
sg13
F575.431775405156
sg16
F577.2076389927531
sg19
F497.95190669804106
sg22
F571.8808372869971
sg25
F0.07186047856425053
sg28
F580.7391216042485
sg31
F588.4639354796335
sg34
F0.0
sg36
F576.9786465205002
sg39
F570.5204580033117
ssS'newicktree'
p43
S'../PairsAlignemt/YeastTree.newick'
p44
sS'll'
p45
cnumpy.core.multiarray
scalar
p46
(cnumpy
dtype
p47
(S'f8'
p48
I0
I1
tp49
Rp50
(I3
S'<'
p51
NNNI-1
I-1
I0
tp52
bS'[\xc7E\xdc\x1ev\xc2\xc0'
p53
tp54
Rp55
sS'edge_list'
p56
(lp57
g25
ag34
ag6
ag19
ag13
ag22
ag36
ag28
ag16
ag39
ag10
ag31
asS'edge_to_blen'
p58
(dp59
g25
g46
(g50
S'f\xe4\x94\xeb`\x9a\x18?'
p60
tp61
Rp62
sg10
g46
(g50
S'NC\x9a~J~\xca?'
p63
tp64
Rp65
sg13
g46
(g50
S'\\\x81\xe3@,\xdc\xc2?'
p66
tp67
Rp68
sg16
g46
(g50
S'\x12\xf8aM\x06\x0f\xbc?'
p69
tp70
Rp71
sg19
g46
(g50
S'\x997\x8c3\xdf\xdb\x07@'
p72
tp73
Rp74
sg22
g46
(g50
S'MR\x81\x1e\xa2\xa3\xd3?'
p75
tp76
Rp77
sg6
g46
(g50
S'`yde\xb4\x81\xfc?'
p78
tp79
Rp80
sg28
g46
(g50
S'L@\xfa\xbbq\x89\xd3?'
p81
tp82
Rp83
sg31
g46
(g50
S'\xb8\xb4<\x1b\xd7A\xc3?'
p84
tp85
Rp86
sg39
g46
(g50
S'I\x90\xb79(\xda\xd3?'
p87
tp88
Rp89
sg36
g46
(g50
S'bz7\xa9\x08\xdd\xbd?'
p90
tp91
Rp92
sg34
g46
(g50
S'\xf7\xdd\xfaD\xd6\xb4\x03@'
p93
tp94
Rp95
ssS'paralog'
p96
(lp97
S'YPR157W'
p98
aS'YGR141W'
p99
asS'alignment_file'
p100
S'../MafftAlignment/YPR157W_YGR141W/YPR157W_YGR141W_input.fasta'
p101
sS'x_clock'
p102
NsS'x'
p103
cnumpy.core.multiarray
_reconstruct
p104
(cnumpy
ndarray
p105
(I0
tp106
S'b'
p107
tp108
Rp109
(I1
(I19
tp110
g50
I00
S'\xd7K\xb8\xed\xf0\t\xe5\xbf\x88\x7f\xab\xbd\xca)\xe1\xbf\xa6\x1c\x03\x95\x02\xea\xee\xbf8D\x95-I5\xee?\xfa\xef\xa8\xcb\xde9\x05\xc0\x15\xc7\x01\x9b\x02\x81\x0f\xc0x\x83\x98m\x18\x7f\x02\xc0\xc2`\xeb\xc8,\x8c"\xc0yM\xe8\xf4\x19\xd9\xec?\xccb\xf5\x00H{\xe2?)\x16\xe9i\xc2{\xf1?\xfcx\xbd\x99\xc6\xa3\xfe\xbf\xb8\xdf\xd7p\xd5\xe6\xf2\xbf\xe25N~70\x01\xc0\xea\xf6\xf5\xc29\xfc\xf2\xbf\x86\xf3B\\\xe1\xaf\x01\xc0\x88\x11\xd9\x06\xa7\xba\xf2\xbf\xd6\x8f\xa5[\xc33\xf9\xbfd\xaaD\xdfkN\xfe\xbf'
p111
tp112
bsS'Model'
p113
S'MG94'
p114
sS'clock'
p115
I00
s.