(dp0
S'Force'
p1
NsS'ExpectedGeneconv'
p2
(dp3
(S'N1'
p4
S'N2'
p5
tp6
(lp7
F2.110633039836583
aF57.366169360909026
as(S'N5'
p8
S'cerevisiae'
p9
tp10
(lp11
F0.30129671991055007
aF10.529752054654478
as(g5
S'N3'
p12
tp13
(lp14
F0.2460313071666014
aF8.553662761497286
as(S'N4'
p15
g8
tp16
(lp17
F0.18538498081410945
aF6.925235245009335
as(g4
S'castellii'
p18
tp19
(lp20
F2.248870654012511
aF63.67091167536283
as(g5
S'bayanus'
p21
tp22
(lp23
F0.727383524210788
aF19.112151549898332
as(S'N0'
p24
g4
tp25
(lp26
F0.6801680984758511
aF18.617899776867613
as(g12
S'kudriavzevii'
p27
tp28
(lp29
F0.30262039487270403
aF12.843533094430477
as(g8
S'paradoxus'
p30
tp31
(lp32
F0.30204386226697344
aF6.9925201318792185
as(g24
S'kluyveri'
p33
tp34
(lp35
F0.0
aF0.0
as(g12
g15
tp36
(lp37
F0.2558970664501126
aF6.864750090583601
as(g15
S'mikatae'
p38
tp39
(lp40
F0.7586810788194152
aF10.817266798200551
assS'ExpectedDwellTime'
p41
(dp42
g6
F801.1146653873366
sg10
F985.4454796164898
sg13
F942.5006763842663
sg16
F964.6614884245563
sg19
F773.4142514380588
sg22
F939.146231836933
sg25
F352.6891162458679
sg28
F960.5467358176442
sg31
F973.2589304466173
sg34
F0.0
sg36
F957.3018062746561
sg39
F957.5069759243986
ssS'newicktree'
p43
S'../PairsAlignemt/YeastTree.newick'
p44
sS'll'
p45
cnumpy.core.multiarray
scalar
p46
(cnumpy
dtype
p47
(S'f8'
p48
I0
I1
tp49
Rp50
(I3
S'<'
p51
NNNI-1
I-1
I0
tp52
bS'E\xb94)r\xe5\xc1\xc0'
p53
tp54
Rp55
sS'edge_list'
p56
(lp57
g25
ag34
ag6
ag19
ag13
ag22
ag36
ag28
ag16
ag39
ag10
ag31
asS'edge_to_blen'
p58
(dp59
g6
g46
(g50
S'Y7\xaf\xe8\x0bN\xd3?'
p60
tp61
Rp62
sg10
g46
(g50
S'\x89\xc1\xe9\xaa4\xe6\xaf?'
p63
tp64
Rp65
sg13
g46
(g50
S'\xcaK\xca\xb6\x17\xd0\xa5?'
p66
tp67
Rp68
sg16
g46
(g50
S'\xe7&\xd4\xadG\x10\xa1?'
p69
tp70
Rp71
sg28
g46
(g50
S'\xeb\xb0T\x9b\xf5\xd0\xb0?'
p72
tp73
Rp74
sg22
g46
(g50
S'\xca\xf7\xe3\xbb1\xfa\xb5?'
p75
tp76
Rp77
sg25
g46
(g50
S'\x87\xbb9\xccix\xcd?'
p78
tp79
Rp80
sg19
g46
(g50
S'\xbc\xc9\xb7Io\xd8\xd3?'
p81
tp82
Rp83
sg31
g46
(g50
S'\xa1\x8bt\xa8\x8aR\xa3?'
p84
tp85
Rp86
sg34
g46
(g50
S'h\xd4gS\xd8M\xc2?'
p87
tp88
Rp89
sg36
g46
(g50
S'\xb3!\x1fK\x16,\xa3?'
p90
tp91
Rp92
sg39
g46
(g50
S'\xd99c\xaf\x95,\xb1?'
p93
tp94
Rp95
ssS'paralog'
p96
(lp97
S'YDR438W'
p98
aS'YML018C'
p99
asS'alignment_file'
p100
S'../MafftAlignment/YDR438W_YML018C/YDR438W_YML018C_input.fasta'
p101
sS'x_clock'
p102
NsS'x'
p103
cnumpy.core.multiarray
_reconstruct
p104
(cnumpy
ndarray
p105
(I0
tp106
S'b'
p107
tp108
Rp109
(I1
(I18
tp110
g50
I00
S'\xf56\xa5\xca\x01o\xe8\xbfe\xf9\xd7r\x0e\xbd\xe1\xbf?6\x1f[\xe0\xcc\xee\xbf\xf2\xc1o\xb2I\x89\xf4?\xfa\xf5,\xff\x1bc\x10\xc0\xb7\xdd\xad\x1a"1\xe9\xbf\xf4\xf9/\x02\x92\x7f\xf7\xbf-Y\x8d\xecU\x1e\xff\xbf\\7gP)-\xf3\xbf\x1f\xde\xb0v\n\xbc\xf2\xbf\xc4\xfc{\x17!?\t\xc0\x17\xf9\xeeC.\xa4\x03\xc0\x9bBO\x00fG\n\xc0`\x1b\xb5\x17\\\xc8\x05\xc0\xa3l\xbda\x056\x0b\xc0\x02\xe4$j:\x9d\x05\xc0\xabK\xfen\xb84\x06\xc0\x0bP$?j7\n\xc0'
p111
tp112
bsS'Model'
p113
S'HKY'
p114
sS'clock'
p115
I00
s.