(dp0
S'Force'
p1
NsS'ExpectedGeneconv'
p2
(dp3
(S'N1'
p4
S'N2'
p5
tp6
(lp7
F11.199285727082014
aF11.334116763093935
as(S'N5'
p8
S'cerevisiae'
p9
tp10
(lp11
F5.274191366780873
aF4.440120399009812
as(g5
S'N3'
p12
tp13
(lp14
F3.0024759360968867
aF2.9042344530721276
as(S'N4'
p15
g8
tp16
(lp17
F1.4863616869305756
aF2.173433123035282
as(g4
S'castellii'
p18
tp19
(lp20
F12.141463627752367
aF11.99420649249913
as(g5
S'bayanus'
p21
tp22
(lp23
F4.617676435181876
aF5.2232669989096
as(S'N0'
p24
g4
tp25
(lp26
F0.03878467236651712
aF0.03893978043491691
as(g12
S'kudriavzevii'
p27
tp28
(lp29
F4.447602396066498
aF3.968690944175412
as(g8
S'paradoxus'
p30
tp31
(lp32
F2.416007140103998
aF2.1235976560830987
as(g24
S'kluyveri'
p33
tp34
(lp35
F0.0
aF0.0
as(g12
g15
tp36
(lp37
F2.2669651598455185
aF2.9672338995639413
as(g15
S'mikatae'
p38
tp39
(lp40
F8.14168244380201
aF8.096325945864258
assS'ExpectedDwellTime'
p41
(dp42
g6
F147.06482384721005
sg10
F243.44310076777322
sg13
F228.5882647007869
sg16
F235.70852601810603
sg19
F126.44186288759697
sg22
F244.255866775778
sg25
F10.638681782270563
sg28
F228.67893608205725
sg31
F244.57434876211857
sg34
F0.0
sg36
F231.87261283143803
sg39
F221.2372644969912
ssS'newicktree'
p43
S'../PairsAlignemt/YeastTree.newick'
p44
sS'll'
p45
cnumpy.core.multiarray
scalar
p46
(cnumpy
dtype
p47
(S'f8'
p48
I0
I1
tp49
Rp50
(I3
S'<'
p51
NNNI-1
I-1
I0
tp52
bS'\xa9@\xf9\xfd\x1a,\xab\xc0'
p53
tp54
Rp55
sS'edge_list'
p56
(lp57
g25
ag34
ag6
ag19
ag13
ag22
ag36
ag28
ag16
ag39
ag10
ag31
asS'edge_to_blen'
p58
(dp59
g25
g46
(g50
S'\xb7\x8d\xe9O\x0e\xe7\x96?'
p60
tp61
Rp62
sg10
g46
(g50
S'\\e\xbe\xcc\xeay\xc1?'
p63
tp64
Rp65
sg13
g46
(g50
S'\x8eo\x1c\x15\x16\x9c\xb4?'
p66
tp67
Rp68
sg16
g46
(g50
S'+\x8dD\xa6}i\xad?'
p69
tp70
Rp71
sg19
g46
(g50
S't\xe0\xed\xc4\x89l\xde?'
p72
tp73
Rp74
sg22
g46
(g50
S'hI\xd7kM\xcd\xc4?'
p75
tp76
Rp77
sg6
g46
(g50
S'\x15\x8b\x1ax\xbd.\xde?'
p78
tp79
Rp80
sg28
g46
(g50
S'\xe3x\x03a\x08\xba\xba?'
p81
tp82
Rp83
sg31
g46
(g50
S'\xf3\x04\xbeOX\xae\xaf?'
p84
tp85
Rp86
sg39
g46
(g50
S'\x89\x1f\x9d\x16\x82&\xc8?'
p87
tp88
Rp89
sg36
g46
(g50
S'\x94 \xd2\xcf|\x8c\xb0?'
p90
tp91
Rp92
sg34
g46
(g50
S'+\x03\x96\x89q\x85\xe4?'
p93
tp94
Rp95
ssS'paralog'
p96
(lp97
S'YDR099W'
p98
aS'YER177W'
p99
asS'alignment_file'
p100
S'../MafftAlignment/YDR099W_YER177W/YDR099W_YER177W_input.fasta'
p101
sS'x_clock'
p102
NsS'x'
p103
cnumpy.core.multiarray
_reconstruct
p104
(cnumpy
ndarray
p105
(I0
tp106
S'b'
p107
tp108
Rp109
(I1
(I19
tp110
g50
I00
S"\x7f\xa5{\x1e\xb5\x9f\xe8\xbf\xb8\xa7\x00C\xf2W\xde\xbf\xf1o\x0e\xe3\x7f\xf2\xeb\xbf\xdc`\x1f\xc5\x91@\xfa?\x99t\x08T\xffF\r\xc0\xd9\x87}\xbd\xd8\x82\xf0\xbfT\xab\x87\xa0\x7fr\xf0\xbf\x8a\x84QS\xdbf\x0e\xc0\xaf\xc4+z\xfdn\xdc\xbfb\xf8F\x99A\r\xe8\xbf(K\xf4h\xff\xcb\xe7\xbf\xf2\x88\xa7\x10\xc3'\x04\xc0 \x932\xb0\\\x12\xfd\xbf\x98\x81\x14\x1a2\xe9\x05\xc0\xc2\xb0\xbev|\x13\x02\xc0/\x98\x1c\x8b\xf8\xda\x06\xc0\xc6L\xbb\xf6\x03\xaf\xfa\xbf\x17\x96G\x07\xe8\xdb\xff\xbf\xe0\x0b:#\xc7B\x06\xc0"
p111
tp112
bsS'Model'
p113
S'MG94'
p114
sS'clock'
p115
I00
s.