(dp0
S'Force'
p1
NsS'ExpectedGeneconv'
p2
(dp3
(S'N1'
p4
S'N2'
p5
tp6
(lp7
F21.375417864501483
aF3.19809634902236e-05
as(S'N5'
p8
S'cerevisiae'
p9
tp10
(lp11
F7.87744440054196
aF3.7855814809843107e-06
as(g5
S'N3'
p12
tp13
(lp14
F1.1486961711302683
aF9.79034963749866e-07
as(S'N4'
p15
g8
tp16
(lp17
F4.834062685743839
aF7.93434151816973e-06
as(g4
S'castellii'
p18
tp19
(lp20
F10.100893786184306
aF1.0983541260256748e-05
as(g5
S'bayanus'
p21
tp22
(lp23
F10.420969575129043
aF1.2951288726409294e-05
as(S'N0'
p24
g4
tp25
(lp26
F0.4512626497948077
aF5.679116628951681e-07
as(g12
S'kudriavzevii'
p27
tp28
(lp29
F8.058989939277069
aF1.4538198062203506e-05
as(g8
S'paradoxus'
p30
tp31
(lp32
F5.147045983430164
aF1.988899151642473e-06
as(g24
S'kluyveri'
p33
tp34
(lp35
F0.0
aF0.0
as(g12
g15
tp36
(lp37
F3.5755534602605925
aF1.8433870053184513e-06
as(g15
S'mikatae'
p38
tp39
(lp40
F12.366616334392578
aF7.70532138110142e-06
assS'ExpectedDwellTime'
p41
(dp42
g6
F213.13402784806829
sg10
F353.4226595688129
sg13
F341.14038761738783
sg16
F346.8728058149914
sg19
F120.13603760390664
sg22
F343.25329877360394
sg25
F27.842774704536648
sg28
F344.4719271583081
sg31
F355.88230009271075
sg34
F0.0
sg36
F342.4427003219509
sg39
F339.42070758505963
ssS'newicktree'
p43
S'../PairsAlignemt/YeastTree.newick'
p44
sS'll'
p45
cnumpy.core.multiarray
scalar
p46
(cnumpy
dtype
p47
(S'f8'
p48
I0
I1
tp49
Rp50
(I3
S'<'
p51
NNNI-1
I-1
I0
tp52
bS'\x15\xb7\raSv\xa8\xc0'
p53
tp54
Rp55
sS'edge_list'
p56
(lp57
g25
ag34
ag6
ag19
ag13
ag22
ag36
ag28
ag16
ag39
ag10
ag31
asS'edge_to_blen'
p58
(dp59
g25
g46
(g50
S'Lu/\x1c*\x85\xa1?'
p60
tp61
Rp62
sg10
g46
(g50
S'\x9c\xa2\x8b\xa8\xb0\xf9\xa5?'
p63
tp64
Rp65
sg13
g46
(g50
S'\xbe\xb7\x9c7aL\x82?'
p66
tp67
Rp68
sg16
g46
(g50
S'\xb4l"A\t\x91\x9e?'
p69
tp70
Rp71
sg19
g46
(g50
S'~)\xb9\x82>t\xbd?'
p72
tp73
Rp74
sg22
g46
(g50
S'A\xc3\xbch^\xb8\xb0?'
p75
tp76
Rp77
sg6
g46
(g50
S'\xdc\xd6\xa1\x11 \xc2\xd1?'
p78
tp79
Rp80
sg28
g46
(g50
S'B\xdbs\xbaNt\xab?'
p81
tp82
Rp83
sg31
g46
(g50
S'\xfeX\xd4\xc0\xd1?\x9e?'
p84
tp85
Rp86
sg34
g46
(g50
S'\xcf\x82\x18\x9a/\xa4\xc1?'
p87
tp88
Rp89
sg36
g46
(g50
S'z\xe5\xfd\x1e\x9e\xf7\x8f?'
p90
tp91
Rp92
sg39
g46
(g50
S'6\xc3w\x800\x16\xb0?'
p93
tp94
Rp95
ssS'paralog'
p96
(lp97
S'YPL037C'
p98
aS'YDR252W'
p99
asS'alignment_file'
p100
S'../MafftAlignment/YPL037C_YDR252W/YPL037C_YDR252W_input.fasta'
p101
sS'x_clock'
p102
NsS'x'
p103
cnumpy.core.multiarray
_reconstruct
p104
(cnumpy
ndarray
p105
(I0
tp106
S'b'
p107
tp108
Rp109
(I1
(I18
tp110
g50
I00
S'j\x12gJ\xdd\x8c\xe5\xbf\x8d\x1f\xc0\xc6\xb2\xd5\xdc\xbf\x06\xc1\x13\x17J\x9a\xe6\xbf\xbb\x18\xa9\x7fE\xf0\xf6?e\x8f(\x9f\x9a\xb8\xac\xbf\xf8\xb3\x8e\x9b\x8bH+\xc0\x15\xcc\xd6\x1e\xf1\xff\n\xc0\x8f-G\xc7c\xb5\xff\xbf\xb5\x8a\x0b\xdb1\x83\xf4\xbf\xb3\xa6\xe6\x8e{L\x01\xc0\xa8\xb5\xe8\xf6\x08\xdf\x12\xc0\xbd\xe1\xdc~\x17\xd4\x05\xc0\xc7\xd0\x83\x9e\xbe\xa3\x10\xc0`\xefhH\nh\x07\xc0\xbb\x8f\x8c\xb6\xaf\x17\x0c\xc0\xb6\xe0%i2#\x06\xc0\xe6\xbb`\x00\xee/\t\xc0%\xcb\xfe\xc8\r-\x0c\xc0'
p111
tp112
bsS'Model'
p113
S'HKY'
p114
sS'clock'
p115
I00
s.