(dp0
S'Force'
p1
NsS'ExpectedGeneconv'
p2
(dp3
(S'N1'
p4
S'N2'
p5
tp6
(lp7
F23.209343903323788
aF62.145128837670406
as(S'N5'
p8
S'cerevisiae'
p9
tp10
(lp11
F1.476397737781383
aF3.3719165031339036
as(g5
S'N3'
p12
tp13
(lp14
F1.2436456898524886
aF3.7840976718774555
as(S'N4'
p15
g8
tp16
(lp17
F0.5185990244618884
aF1.4415799708742247
as(g4
S'castellii'
p18
tp19
(lp20
F36.838457964643496
aF97.27681562887527
as(g5
S'bayanus'
p21
tp22
(lp23
F2.1590184617691395
aF5.735100738346968
as(S'N0'
p24
g4
tp25
(lp26
F2.678245976902042
aF7.116688176746845
as(g12
S'kudriavzevii'
p27
tp28
(lp29
F2.087023584688547
aF4.622618913305809
as(g8
S'paradoxus'
p30
tp31
(lp32
F0.6812297136844898
aF3.3736649613062175
as(g24
S'kluyveri'
p33
tp34
(lp35
F0.0
aF0.0
as(g12
g15
tp36
(lp37
F0.7194730416538577
aF2.598749292320266
as(g15
S'mikatae'
p38
tp39
(lp40
F2.526089827098609
aF5.5479996046467015
assS'ExpectedDwellTime'
p41
(dp42
g6
F178.18499759397685
sg10
F226.50299322803434
sg13
F200.150649916869
sg16
F217.85368433180753
sg19
F184.75689994498364
sg22
F200.86434172892893
sg25
F82.15910972871801
sg28
F203.25068856351277
sg31
F220.86467611319128
sg34
F0.0
sg36
F206.8208845017745
sg39
F211.46827300048557
ssS'newicktree'
p43
S'../PairsAlignemt/YeastTree.newick'
p44
sS'll'
p45
cnumpy.core.multiarray
scalar
p46
(cnumpy
dtype
p47
(S'f8'
p48
I0
I1
tp49
Rp50
(I3
S'<'
p51
NNNI-1
I-1
I0
tp52
bS'\x12\xd3\x9b\xd4,\xd6\xa9\xc0'
p53
tp54
Rp55
sS'edge_list'
p56
(lp57
g25
ag34
ag6
ag19
ag13
ag22
ag36
ag28
ag16
ag39
ag10
ag31
asS'edge_to_blen'
p58
(dp59
g25
g46
(g50
S'\xff\xad\xc0sO5\xdf?'
p60
tp61
Rp62
sg10
g46
(g50
S'\x9ddM%hr\xcc?'
p63
tp64
Rp65
sg13
g46
(g50
S'\xae\xcdG\xe7|G\xc5?'
p66
tp67
Rp68
sg16
g46
(g50
S'\xd1\xd8\x8f\x80\xa0P\xb9?'
p69
tp70
Rp71
sg19
g46
(g50
S";\x1d;\x82'F\x10@"
p72
tp73
Rp74
sg22
g46
(g50
S'M\x1f\x1c[\x12(\xd2?'
p75
tp76
Rp77
sg6
g46
(g50
S'\xe0~\xa6\r\x16\xc1\x04@'
p78
tp79
Rp80
sg28
g46
(g50
S'>\x05\\j\r!\xd0?'
p81
tp82
Rp83
sg31
g46
(g50
S'\x91;\x1b\xddj%\xb8?'
p84
tp85
Rp86
sg39
g46
(g50
S'\x9d+\xc6\x0f=*\xd1?'
p87
tp88
Rp89
sg36
g46
(g50
S'#A`\x9bU[\xc1?'
p90
tp91
Rp92
sg34
g46
(g50
S'\xaci(\x8a\xb9l\x14@'
p93
tp94
Rp95
ssS'paralog'
p96
(lp97
S'YIL057C'
p98
aS'YER067W'
p99
asS'alignment_file'
p100
S'../MafftAlignment/YIL057C_YER067W/YIL057C_YER067W_input.fasta'
p101
sS'x_clock'
p102
NsS'x'
p103
cnumpy.core.multiarray
_reconstruct
p104
(cnumpy
ndarray
p105
(I0
tp106
S'b'
p107
tp108
Rp109
(I1
(I19
tp110
g50
I00
S'\xde}q\x07X<\xe5\xbf\xe4\xb2V\xb2\xb53\xe3\xbf\x86v\xa7\xd2/\x12\xea\xbfz`\xfd/\x99B\xe9?\xac\x03\xc3)E\x17\x0b\xc0/\xe2Y\xfe\x08\xb9\xfd\xbfsD\x18|0,\xec\xbfW\x93\x8dA\x80\xfb\xe6\xbf\xfd(]\xacS\x16\xfa?D\xe5\x173\x82\x81\xee?u\x93\x0bp\xd2s\xf6?\x8f\xe8\xcb\xacq\xb5\xfc\xbf\x96A\xa0i[(\xf4\xbf#\x98\xb9}\x00\xf8\xff\xbf\x0cj\x93\x89W\r\xf6\xbf\xfc\xf2:R\xa0\x82\x02\xc0W\xe2\xf4\x8aa\x0e\xf5\xbfz\xc5\xe1\xe1X\x10\xf8\xbf\xc9\x8c\xf5;o\xe3\x02\xc0'
p111
tp112
bsS'Model'
p113
S'MG94'
p114
sS'clock'
p115
I00
s.