(dp0
S'Force'
p1
NsS'ExpectedGeneconv'
p2
(dp3
(S'N1'
p4
S'N2'
p5
tp6
(lp7
F58.51026796644611
aF30.876601265647214
as(S'N5'
p8
S'cerevisiae'
p9
tp10
(lp11
F21.308293934109585
aF9.86672111560004
as(g5
S'N3'
p12
tp13
(lp14
F12.11344841408083
aF7.4787114628811295
as(S'N4'
p15
g8
tp16
(lp17
F7.52286287346779
aF3.9096916558778037
as(g4
S'castellii'
p18
tp19
(lp20
F77.31230373433122
aF37.733806002399575
as(g5
S'bayanus'
p21
tp22
(lp23
F26.029167135263133
aF10.942939842056616
as(S'N0'
p24
g4
tp25
(lp26
F19.205630416864334
aF9.632900112109299
as(g12
S'kudriavzevii'
p27
tp28
(lp29
F28.617364442164273
aF12.595759974139511
as(g8
S'paradoxus'
p30
tp31
(lp32
F9.936944792214971
aF5.34550770674671
as(g24
S'kluyveri'
p33
tp34
(lp35
F0.0
aF0.0
as(g12
g15
tp36
(lp37
F8.536238236209115
aF3.353249746945753
as(g15
S'mikatae'
p38
tp39
(lp40
F26.190213756187646
aF16.368715595593137
assS'ExpectedDwellTime'
p41
(dp42
g6
F647.4011076749819
sg10
F830.917467077516
sg13
F798.5959949636169
sg16
F823.7317491667824
sg19
F623.2303083823608
sg22
F793.8736155194846
sg25
F270.80438999573346
sg28
F836.462659049423
sg31
F830.6075415285335
sg34
F0.0
sg36
F817.7139810927008
sg39
F823.5544362718531
ssS'newicktree'
p43
S'../PairsAlignemt/YeastTree.newick'
p44
sS'll'
p45
cnumpy.core.multiarray
scalar
p46
(cnumpy
dtype
p47
(S'f8'
p48
I0
I1
tp49
Rp50
(I3
S'<'
p51
NNNI-1
I-1
I0
tp52
bS'3\x93\xd26q\xbe\xc2\xc0'
p53
tp54
Rp55
sS'edge_list'
p56
(lp57
g25
ag34
ag6
ag19
ag13
ag22
ag36
ag28
ag16
ag39
ag10
ag31
asS'edge_to_blen'
p58
(dp59
g25
g46
(g50
S'0*\xd7\xa4\xcb]\xc3?'
p60
tp61
Rp62
sg10
g46
(g50
S'\x0f\x85V\x10ut\xab?'
p63
tp64
Rp65
sg13
g46
(g50
S'e\xb6\x95\xe4A3\xa5?'
p66
tp67
Rp68
sg16
g46
(g50
S'S\xba\x8d\x8b/(\x97?'
p69
tp70
Rp71
sg19
g46
(g50
S'Q\xaa\x84\xc3\xd3E\xcc?'
p72
tp73
Rp74
sg22
g46
(g50
S'\xc3f\xfe\xf2;\xd0\xb0?'
p75
tp76
Rp77
sg6
g46
(g50
S'y\x8e\x89\x1b\xfe\xdf\xc8?'
p78
tp79
Rp80
sg28
g46
(g50
S'X\xf9\xf9\xa8%\xc3\xb3?'
p81
tp82
Rp83
sg31
g46
(g50
S'\xf6\x15G\x16-\xa8\x9f?'
p84
tp85
Rp86
sg39
g46
(g50
S'\xdf#he\x80\xa3\xb4?'
p87
tp88
Rp89
sg36
g46
(g50
S'F\xe9xx7\xb3\x96?'
p90
tp91
Rp92
sg34
g46
(g50
S'\xba\\+\xea\xa0a\xbe?'
p93
tp94
Rp95
ssS'paralog'
p96
(lp97
S'YMR243C'
p98
aS'YOR316C'
p99
asS'alignment_file'
p100
S'../MafftAlignment/YMR243C_YOR316C/YMR243C_YOR316C_input.fasta'
p101
sS'x_clock'
p102
NsS'x'
p103
cnumpy.core.multiarray
_reconstruct
p104
(cnumpy
ndarray
p105
(I0
tp106
S'b'
p107
tp108
Rp109
(I1
(I18
tp110
g50
I00
S"yX?\xe5M\x7f\xe8\xbf\x01\xb6%|\x0c\xd3\xe1\xbf\xe0\xadE\xe1\x90\xc0\xea\xbf\xb4\xdc\x0f\xe5\x99\xe0\xf3?\xa2Su\x04t'\xaf\xbf9\xb7\x00L\x1a\x07\xe8\xbf\t\x9f\xdd\x98B7\xfe\xbf@+p?\x00\r\x01\xc0M2!\xcc\xef5\xfa\xbf\x1e\t%\x85\x7f)\xf8\xbf\x1e\xf2f\x06yy\t\xc0\x89NIl\xb4\xc8\x05\xc0\xbf\x95\xff\x85\x0by\x0e\xc0\xf7\x07,,\xc0}\x04\xc0h\x0f\xaa`;P\x0e\xc0\x80\xd4x\xb8\xe2$\x04\xc0\xdc\x08\xbe\x1c\xffg\x07\xc0lY\xc2\xd1\xe6\xcf\x0b\xc0"
p111
tp112
bsS'Model'
p113
S'HKY'
p114
sS'clock'
p115
I00
s.