(dp0
S'Force'
p1
NsS'ExpectedGeneconv'
p2
(dp3
(S'N1'
p4
S'N2'
p5
tp6
(lp7
F5.210612543512982
aF11.222706100186118
as(S'N5'
p8
S'cerevisiae'
p9
tp10
(lp11
F1.6111429235401615
aF12.820821749403924
as(g5
S'N3'
p12
tp13
(lp14
F2.0989099201939982
aF1.8245345582573949
as(S'N4'
p15
g8
tp16
(lp17
F0.8393134984072137
aF3.5630787617877804
as(g4
S'castellii'
p18
tp19
(lp20
F10.636214569281774
aF21.534966121981103
as(g5
S'bayanus'
p21
tp22
(lp23
F7.39863344151895
aF15.34679930585967
as(S'N0'
p24
g4
tp25
(lp26
F9.432648866354711
aF20.21749055177255
as(g12
S'kudriavzevii'
p27
tp28
(lp29
F3.0172946949803
aF9.811879297800392
as(g8
S'paradoxus'
p30
tp31
(lp32
F3.3360132479197344
aF1.4339417273713697
as(g24
S'kluyveri'
p33
tp34
(lp35
F0.0
aF0.0
as(g12
g15
tp36
(lp37
F1.5537460165994708
aF2.779298901984524
as(g15
S'mikatae'
p38
tp39
(lp40
F3.6361175999036197
aF3.9756659746034315
assS'ExpectedDwellTime'
p41
(dp42
g6
F60.032088912949696
sg10
F55.88052823793404
sg13
F64.90694612638914
sg16
F65.91382137641153
sg19
F49.99269416080778
sg22
F46.09269971344907
sg25
F33.86062558447409
sg28
F62.15428148908763
sg31
F62.172360568806845
sg34
F0.0
sg36
F67.60871714701456
sg39
F73.76379563014362
ssS'newicktree'
p43
S'../PairsAlignemt/YeastTree.newick'
p44
sS'll'
p45
cnumpy.core.multiarray
scalar
p46
(cnumpy
dtype
p47
(S'f8'
p48
I0
I1
tp49
Rp50
(I3
S'<'
p51
NNNI-1
I-1
I0
tp52
bS"'-\x92\x19F\xee\x96\xc0"
p53
tp54
Rp55
sS'edge_list'
p56
(lp57
g25
ag34
ag6
ag19
ag13
ag22
ag36
ag28
ag16
ag39
ag10
ag31
asS'edge_to_blen'
p58
(dp59
g25
g46
(g50
S'\xaa\x88\xf5\xa1\x9a\x1d\xb2?'
p60
tp61
Rp62
sg10
g46
(g50
S'\xda&\xd2Y\xd9q\x8e?'
p63
tp64
Rp65
sg13
g46
(g50
S'a:\xf8=X\xabx?'
p66
tp67
Rp68
sg16
g46
(g50
S'\xe5\xd5[r\xbd\xecn?'
p69
tp70
Rp71
sg19
g46
(g50
S'ZdUi\xe5\x11\xa5?'
p72
tp73
Rp74
sg22
g46
(g50
S'\xe1\x8ct\x1b\x10\x03\x97?'
p75
tp76
Rp77
sg6
g46
(g50
S'\xd2\xb6\xb4\xb1\x92\x89\x97?'
p78
tp79
Rp80
sg28
g46
(g50
S'*\x82\xdd\xe5i\xdc\x8d?'
p81
tp82
Rp83
sg31
g46
(g50
S'\xdb\xbbJ\xef\x07\x85x?'
p84
tp85
Rp86
sg39
g46
(g50
S'\xf0RZ\rot\x89?'
p87
tp88
Rp89
sg36
g46
(g50
S'd\x1a{\xabk\x9cw?'
p90
tp91
Rp92
sg34
g46
(g50
S'\xcc\xac\xa6\xf9\xe7\xaa\x9f>'
p93
tp94
Rp95
ssS'paralog'
p96
(lp97
S'YBL087C'
p98
aS'YER117W'
p99
asS'alignment_file'
p100
S'../MafftAlignment/YBL087C_YER117W/YBL087C_YER117W_input.fasta'
p101
sS'x_clock'
p102
NsS'x'
p103
cnumpy.core.multiarray
_reconstruct
p104
(cnumpy
ndarray
p105
(I0
tp106
S'b'
p107
tp108
Rp109
(I1
(I18
tp110
g50
I00
S'\xe5\xa3Q\xa10\xdd\xe8\xbfA\xa2=\xb8\x83,\xe5\xbf\xb9\x11M\x1e)\xa5\xec\xbf\xb7W\xb7\x00\x1d\xf9\x02@\x0f*\xca\xae\xac\x83\x01@~/\x95\xb9\x02\x9d\x07@o{\x99A\xed/\x05\xc0\xdb\x01\xee\x8d\x10"-\xc0\xa8\xc4\xfao\xdc.\x0e\xc0\xddz\x96\xc2\x19\x86\t\xc0\x94f\xcf \xe6r\x14\xc07;$\xd6\x18]\x0e\xc0\xdc\xf4\x9eG\xcc\x9f\x14\xc0\xb5\x9b\xe3"\x8a\xe9\x10\xc0\xd5\xe6P\xb3BQ\x16\xc0\x04\xa9\xa4\xde\x04\x8d\x11\xc0L\xdb\xbb\x1b\xb7\xd5\x10\xc0\xfe1gV!y\x14\xc0'
p111
tp112
bsS'Model'
p113
S'HKY'
p114
sS'clock'
p115
I00
s.