(dp0
S'Force'
p1
NsS'ExpectedGeneconv'
p2
(dp3
(S'N1'
p4
S'N2'
p5
tp6
(lp7
F42.62052459120734
aF131.19287705029834
as(S'N5'
p8
S'cerevisiae'
p9
tp10
(lp11
F15.18073020564336
aF38.46798602159185
as(g5
S'N3'
p12
tp13
(lp14
F5.91147546894748
aF20.102736757282422
as(S'N4'
p15
g8
tp16
(lp17
F9.122955100315703
aF17.670607094355738
as(g4
S'castellii'
p18
tp19
(lp20
F81.81356841735746
aF219.14050878184386
as(g5
S'bayanus'
p21
tp22
(lp23
F16.082313621409714
aF53.87979674467294
as(S'N0'
p24
g4
tp25
(lp26
F16.546247640668373
aF45.03692737009005
as(g12
S'kudriavzevii'
p27
tp28
(lp29
F17.080716981205807
aF49.292300299054055
as(g8
S'paradoxus'
p30
tp31
(lp32
F11.67441774276223
aF28.021942170423902
as(g24
S'kluyveri'
p33
tp34
(lp35
F0.0
aF0.0
as(g12
g15
tp36
(lp37
F9.469549697387754
aF29.509080967260257
as(g15
S'mikatae'
p38
tp39
(lp40
F23.37160275208302
aF45.17817115848043
assS'ExpectedDwellTime'
p41
(dp42
g6
F1446.355088432775
sg10
F1838.4662967169713
sg13
F1737.5882084342181
sg16
F1813.864358421439
sg19
F1599.770602334893
sg22
F1735.4296644238134
sg25
F619.303462313207
sg28
F1789.2805171283262
sg31
F1827.3601070626178
sg34
F0.0
sg36
F1773.2547630863876
sg39
F1795.474082370988
ssS'newicktree'
p43
S'../PairsAlignemt/YeastTree.newick'
p44
sS'll'
p45
cnumpy.core.multiarray
scalar
p46
(cnumpy
dtype
p47
(S'f8'
p48
I0
I1
tp49
Rp50
(I3
S'<'
p51
NNNI-1
I-1
I0
tp52
bS'\xb1\xec\x96\xf2\xa3w\xd4\xc0'
p53
tp54
Rp55
sS'edge_list'
p56
(lp57
g25
ag34
ag6
ag19
ag13
ag22
ag36
ag28
ag16
ag39
ag10
ag31
asS'edge_to_blen'
p58
(dp59
g25
g46
(g50
S'\n \xc8%\xba\xba\xc3?'
p60
tp61
Rp62
sg10
g46
(g50
S'\x7f\x12\xf5\xbd\xd0\xee\xa7?'
p63
tp64
Rp65
sg13
g46
(g50
S'\xc9\xdc\xbc\x06y\x98\x99?'
p66
tp67
Rp68
sg16
g46
(g50
S'}\x02\xd5/\xc3^\x9b?'
p69
tp70
Rp71
sg19
g46
(g50
S'\xc1\x8a\r\xa6\x02\xc5\xd2?'
p72
tp73
Rp74
sg22
g46
(g50
S'\xe9T%2g\x8d\xad?'
p75
tp76
Rp77
sg6
g46
(g50
S'\x17\xa8C.\xe3\xbb\xc6?'
p78
tp79
Rp80
sg28
g46
(g50
S'_\xeb\x15#;\xd0\xaf?'
p81
tp82
Rp83
sg31
g46
(g50
S'\xc7\x9f\xca\x08\xd6\xa1\x9f?'
p84
tp85
Rp86
sg39
g46
(g50
S']"\x05\xab\x10D\xaf?'
p87
tp88
Rp89
sg36
g46
(g50
S'\x06\x04\xaa\xd3\x94\xb7\xa2?'
p90
tp91
Rp92
sg34
g46
(g50
S'k\x8d\x8d\xf6\xa2\x0b\xc1?'
p93
tp94
Rp95
ssS'paralog'
p96
(lp97
S'YNL049C'
p98
aS'YIL109C'
p99
asS'alignment_file'
p100
S'../MafftAlignment/YNL049C_YIL109C/YNL049C_YIL109C_input.fasta'
p101
sS'x_clock'
p102
NsS'x'
p103
cnumpy.core.multiarray
_reconstruct
p104
(cnumpy
ndarray
p105
(I0
tp106
S'b'
p107
tp108
Rp109
(I1
(I18
tp110
g50
I00
S'j\n\xa5\x03\x89D\xe7\xbf\xd6\xd0\xc2\xa4M\xbb\xde\xbf\xad=\xa7\x90j:\xeb\xbf\xff\x93>IZ\xde\xf4?\x91\xa1G1|\x03\xf1\xbf\xb4\xc1\x0c\xc1\x0f\xc2\xaf\xbf\xdb>\xdfs1\xeb\xfd\xbf\xd6\xb0\xbb}\x11!\x00\xc0\xd5;\x85+\x97\xa6\xfb\xbf\x9a\xbb\xa4\x9cW\xa0\xf3\xbf\xce\xc0\x13k-\x83\r\xc0gc\x9b\xde9\xd1\x06\xc0\t>\xfb`\x99x\n\xc0\xa0\x1f\xfe(=:\x06\xc0y\xdf\xd6\xb0\xe4\xf9\x0c\xc0\x06\x9ce\xf1\xca]\x06\xc0\xc5\x0bt\xba+\x81\x08\xc0\xa9k\xe8#\x81\xd1\x0b\xc0'
p111
tp112
bsS'Model'
p113
S'HKY'
p114
sS'clock'
p115
I00
s.