(dp0
S'Force'
p1
NsS'ExpectedGeneconv'
p2
(dp3
(S'N1'
p4
S'N2'
p5
tp6
(lp7
F16.300237962247223
aF13.886674490241697
as(S'N5'
p8
S'cerevisiae'
p9
tp10
(lp11
F10.434265249898557
aF4.5827622247719795
as(g5
S'N3'
p12
tp13
(lp14
F7.8562588704881495
aF5.126361008807258
as(S'N4'
p15
g8
tp16
(lp17
F6.827104603831844
aF4.127376919665928
as(g4
S'castellii'
p18
tp19
(lp20
F55.5103997110143
aF31.34359409322571
as(g5
S'bayanus'
p21
tp22
(lp23
F9.148453095316029
aF6.113592999966218
as(S'N0'
p24
g4
tp25
(lp26
F7.053593508888089
aF4.123466497706616
as(g12
S'kudriavzevii'
p27
tp28
(lp29
F17.26136082215422
aF10.112611233349853
as(g8
S'paradoxus'
p30
tp31
(lp32
F7.574282399611708
aF4.458870636066022
as(g24
S'kluyveri'
p33
tp34
(lp35
F0.0
aF0.0
as(g12
g15
tp36
(lp37
F9.08227508734298
aF3.7433169980183734
as(g15
S'mikatae'
p38
tp39
(lp40
F18.17404416478792
aF8.94372787026058
assS'ExpectedDwellTime'
p41
(dp42
g6
F245.6094434794741
sg10
F319.06589934270056
sg13
F295.48434341014934
sg16
F314.42769143405224
sg19
F303.4285963773258
sg22
F311.3949715555107
sg25
F114.51129781299132
sg28
F313.55250477061526
sg31
F333.09142202491427
sg34
F0.0
sg36
F307.22838710938316
sg39
F326.6970964042944
ssS'newicktree'
p43
S'../PairsAlignemt/YeastTree.newick'
p44
sS'll'
p45
cnumpy.core.multiarray
scalar
p46
(cnumpy
dtype
p47
(S'f8'
p48
I0
I1
tp49
Rp50
(I3
S'<'
p51
NNNI-1
I-1
I0
tp52
bS'\xf9\xb8\x17M\xcfz\xb6\xc0'
p53
tp54
Rp55
sS'edge_list'
p56
(lp57
g25
ag34
ag6
ag19
ag13
ag22
ag36
ag28
ag16
ag39
ag10
ag31
asS'edge_to_blen'
p58
(dp59
g6
g46
(g50
S'\xd8\x1c\x12\x83\xcdE\xcc?'
p60
tp61
Rp62
sg10
g46
(g50
S'p)\xfejp\x88\xb7?'
p63
tp64
Rp65
sg13
g46
(g50
S'\xbd\xb3\x88\xefEH\xb7?'
p66
tp67
Rp68
sg16
g46
(g50
S'G\xfbXap\x88\xb2?'
p69
tp70
Rp71
sg28
g46
(g50
S'\n\x06\x85\xda\x94&\xc6?'
p72
tp73
Rp74
sg22
g46
(g50
S'\xbe\xb4\xe0\xc1I\x10\xc0?'
p75
tp76
Rp77
sg25
g46
(g50
S'\xf5\x90H\xf0\x97\x9f\xc9?'
p78
tp79
Rp80
sg19
g46
(g50
S'e060\xccQ\xe3?'
p81
tp82
Rp83
sg31
g46
(g50
S'\xcd\x12\xd5\x15N\x12\xb7?'
p84
tp85
Rp86
sg39
g46
(g50
S'5F\xb7j\x14K\xc8?'
p87
tp88
Rp89
sg36
g46
(g50
S'\x03s:jL\xb3\xb5?'
p90
tp91
Rp92
sg34
g46
(g50
S'\xba^\x1c\xe2&8\xce?'
p93
tp94
Rp95
ssS'paralog'
p96
(lp97
S'YDR502C'
p98
aS'YLR180W'
p99
asS'alignment_file'
p100
S'../MafftAlignment/YDR502C_YLR180W/YDR502C_YLR180W_input.fasta'
p101
sS'x_clock'
p102
NsS'x'
p103
cnumpy.core.multiarray
_reconstruct
p104
(cnumpy
ndarray
p105
(I0
tp106
S'b'
p107
tp108
Rp109
(I1
(I19
tp110
g50
I00
S'\x15\xaf$\xa9\xcfX\xe8\xbf\x967(\x15r\x00\xe2\xbf\x86\xa8v\xd6\xbe\x90\xeb\xbfH\x9f\x89\xdd\x15r\xf5?\x0e\xf4`\xa8\xd0r\t\xc0\x97\xf3\x94e\xe1\xb1\xd3\xbfFl>\x18\xc2\x06\xeb\xbf\x85k\xf0q\x83\xbc\xf9\xbf|\xdb\xb9\xd3\xc5\x18\xf7\xbfjR\xdd\x0e\x83)\xf8\xbf\xa8\xdb\xe3v\xd8%\xe0\xbf\xa1\x83\x8c\xb8\x0b.\x03\xc0\x86/\xb3\x80\x91\x9a\x00\xc0f\xf3H\xce&\xbe\x03\xc0\xcb_T\xe1\n\x11\xfc\xbf\xe1&\\lH\x01\x05\xc06\xb2\x8f\x8f\xdb\x96\xfa\xbf\xa9\xe6\xf0\x9b\x1d\x18\x03\xc0P\xbe\x12\x96\xac@\x03\xc0'
p111
tp112
bsS'Model'
p113
S'MG94'
p114
sS'clock'
p115
I00
s.