(dp0
S'Force'
p1
NsS'ExpectedGeneconv'
p2
(dp3
(S'N1'
p4
S'N2'
p5
tp6
(lp7
F4.64117528022034e-05
aF7.443049366475236
as(S'N5'
p8
S'cerevisiae'
p9
tp10
(lp11
F1.6491700088034137e-05
aF3.854954601683126
as(g5
S'N3'
p12
tp13
(lp14
F3.7952109283381423e-06
aF2.2085748063955415
as(S'N4'
p15
g8
tp16
(lp17
F3.1614107155105093e-07
aF1.3828919380708085
as(g4
S'castellii'
p18
tp19
(lp20
F4.224128272325441e-05
aF7.2763520978339615
as(g5
S'bayanus'
p21
tp22
(lp23
F1.568952778284787e-05
aF4.9941910491705865
as(S'N0'
p24
g4
tp25
(lp26
F2.9911401566434143e-06
aF0.5234449444049102
as(g12
S'kudriavzevii'
p27
tp28
(lp29
F2.8675416946664974e-05
aF1.7405413918572383
as(g8
S'paradoxus'
p30
tp31
(lp32
F1.7303512661263593e-06
aF4.748265307789818
as(g24
S'kluyveri'
p33
tp34
(lp35
F0.0
aF0.0
as(g12
g15
tp36
(lp37
F2.4603205024423443e-06
aF1.4625946108652694
as(g15
S'mikatae'
p38
tp39
(lp40
F6.751394355616491e-05
aF7.66315215795412
assS'ExpectedDwellTime'
p41
(dp42
g6
F28.681756296852782
sg10
F52.02056951149291
sg13
F40.587272359480096
sg16
F49.52106226866985
sg19
F29.411047791908658
sg22
F41.327152223008504
sg25
F8.395999970779213
sg28
F56.407615791727586
sg31
F49.58848298376901
sg34
F0.0
sg36
F47.48602101773726
sg39
F52.703707971264826
ssS'newicktree'
p43
S'../PairsAlignemt/YeastTree.newick'
p44
sS'll'
p45
cnumpy.core.multiarray
scalar
p46
(cnumpy
dtype
p47
(S'f8'
p48
I0
I1
tp49
Rp50
(I3
S'<'
p51
NNNI-1
I-1
I0
tp52
bS'w\xac\xf8\x11\xcfR\x92\xc0'
p53
tp54
Rp55
sS'edge_list'
p56
(lp57
g25
ag34
ag6
ag19
ag13
ag22
ag36
ag28
ag16
ag39
ag10
ag31
asS'edge_to_blen'
p58
(dp59
g6
g46
(g50
S'Z\xf1\xbd\xf1y\xcd\xbc?'
p60
tp61
Rp62
sg10
g46
(g50
S'D\x81\xfd\xa5\x95\x06\xa5?'
p63
tp64
Rp65
sg13
g46
(g50
S'0%X\xd3a\xc2\xa0?'
p66
tp67
Rp68
sg16
g46
(g50
S'\xbf&z1\x1a\xe0\x83?'
p69
tp70
Rp71
sg19
g46
(g50
S'\x1e\x83\xc34\xfa\xe3\xbd?'
p72
tp73
Rp74
sg22
g46
(g50
S'\xbc\x9d\xfe\xa4(\xce\xb1?'
p75
tp76
Rp77
sg25
g46
(g50
S'N\x88\xadk\x8aV\xa5?'
p78
tp79
Rp80
sg28
g46
(g50
S'o-MP\xa6\x12\xab?'
p81
tp82
Rp83
sg31
g46
(g50
S'\xd3\x06\x9c\x84\\\x85\xa3?'
p84
tp85
Rp86
sg34
g46
(g50
S'dY\xab\x95V\xc2\xcd?'
p87
tp88
Rp89
sg36
g46
(g50
S'N\x8e\xaf~\x04\xd9\x95?'
p90
tp91
Rp92
sg39
g46
(g50
S'6\x16\xb2\xda\x88\xcf\xb5?'
p93
tp94
Rp95
ssS'paralog'
p96
(lp97
S'YLR406C'
p98
aS'YDL075W'
p99
asS'alignment_file'
p100
S'../MafftAlignment/YLR406C_YDL075W/YLR406C_YDL075W_input.fasta'
p101
sS'x_clock'
p102
NsS'x'
p103
cnumpy.core.multiarray
_reconstruct
p104
(cnumpy
ndarray
p105
(I0
tp106
S'b'
p107
tp108
Rp109
(I1
(I19
tp110
g50
I00
S'\x01\xb8n0>\xd2\xe4\xbfm\xd0\xbd)\xd2\xdc\xde\xbf$\xf2\xd2\xde\xae\xe9\xed\xbfdA\xee\x9e\x1a\x95\xfd?\tg\xad\xb1\x9e\xa0\x03\xc0V\x0e\t@8\x81%\xc0;\xad\xad\xd5U\x1f\xf5?\xd1\xa3x\x973l\t\xc0\x92Y[h\xa1W\xf7\xbf\xcb\xaeXhIz\x01\xc0Fr\x8b\x87[.\x01\xc0!\x9b\x06-\xdfZ\x0b\xc0\x01I\xdczPS\x05\xc0\x9a@h\x8dl\xc7\x0e\xc0*\xad\xd4P\xb2\x84\x07\xc0\xebQ\xf5%a\x8a\x12\xc0\xf4\xe1r\xbd\xc4\xb3\x03\xc0DA\x00gf\x8a\t\xc0\x8e|\xaeL{"\n\xc0'
p111
tp112
bsS'Model'
p113
S'MG94'
p114
sS'clock'
p115
I00
s.