(dp0
S'Force'
p1
NsS'ExpectedGeneconv'
p2
(dp3
(S'N1'
p4
S'N2'
p5
tp6
(lp7
F0.011443764275404998
aF44.41956458813266
as(S'N5'
p8
S'cerevisiae'
p9
tp10
(lp11
F0.0004231308963927003
aF2.554275761888597
as(g5
S'N3'
p12
tp13
(lp14
F0.00038735820889673235
aF2.2301611051222348
as(S'N4'
p15
g8
tp16
(lp17
F0.000350350688985973
aF1.3925461484717818
as(g4
S'castellii'
p18
tp19
(lp20
F0.009534058414220236
aF37.32495119353462
as(g5
S'bayanus'
p21
tp22
(lp23
F0.0014745932704246392
aF5.464762164777324
as(S'N0'
p24
g4
tp25
(lp26
F0.00609753148438558
aF22.92829890090888
as(g12
S'kudriavzevii'
p27
tp28
(lp29
F0.0006306974539401104
aF2.8208983343480214
as(g8
S'paradoxus'
p30
tp31
(lp32
F0.0003870035612353657
aF1.747461529844951
as(g24
S'kluyveri'
p33
tp34
(lp35
F0.0
aF0.0
as(g12
g15
tp36
(lp37
F0.00041918090070939775
aF1.6292007615526356
as(g15
S'mikatae'
p38
tp39
(lp40
F0.0011223212858306087
aF2.831984930094735
assS'ExpectedDwellTime'
p41
(dp42
g6
F513.0530601412938
sg10
F559.0179822858837
sg13
F539.5232050021185
sg16
F548.5093517631664
sg19
F496.2340132630175
sg22
F540.0648507411123
sg25
F335.9733636492334
sg28
F545.0006532222984
sg31
F555.0782074288065
sg34
F0.0
sg36
F543.0357446097455
sg39
F542.3787090429255
ssS'newicktree'
p43
S'../PairsAlignemt/YeastTree.newick'
p44
sS'll'
p45
cnumpy.core.multiarray
scalar
p46
(cnumpy
dtype
p47
(S'f8'
p48
I0
I1
tp49
Rp50
(I3
S'<'
p51
NNNI-1
I-1
I0
tp52
bS'\x94\xa7Y\xcc\xa0n\xc0\xc0'
p53
tp54
Rp55
sS'edge_list'
p56
(lp57
g25
ag34
ag6
ag19
ag13
ag22
ag36
ag28
ag16
ag39
ag10
ag31
asS'edge_to_blen'
p58
(dp59
g6
g46
(g50
S'd\xe3%\xaa\xd8 \x01@'
p60
tp61
Rp62
sg10
g46
(g50
S'Jb\xe0\xe2\xcd\xe4\xcc?'
p63
tp64
Rp65
sg13
g46
(g50
S'\x8a\x8c:\xfcx\xcc\xc0?'
p66
tp67
Rp68
sg16
g46
(g50
S'\x1c\x80\xab\x191\x8f\xbd?'
p69
tp70
Rp71
sg19
g46
(g50
S'\xc5.\xb2.MK\xfb?'
p72
tp73
Rp74
sg22
g46
(g50
S"\xefe\x8cL'\x82\xd6?"
p75
tp76
Rp77
sg25
g46
(g50
S'H\xa8\x8a\xd7z\xca\xf3?'
p78
tp79
Rp80
sg28
g46
(g50
S'\xf5:\xdf\xbb\x80%\xcd?'
p81
tp82
Rp83
sg31
g46
(g50
S':}\xa4\xef\xab\x98\xbf?'
p84
tp85
Rp86
sg34
g46
(g50
S'\x1f3\xe1\x93\xf7\xa7\xef?'
p87
tp88
Rp89
sg36
g46
(g50
S"'\xe8T\xabI\x0c\xc2?"
p90
tp91
Rp92
sg39
g46
(g50
S'\xac\xf8\xec\x9cX\xd6\xcf?'
p93
tp94
Rp95
ssS'paralog'
p96
(lp97
S'YDR438W'
p98
aS'YML018C'
p99
asS'alignment_file'
p100
S'../MafftAlignment/YDR438W_YML018C/YDR438W_YML018C_input.fasta'
p101
sS'x_clock'
p102
NsS'x'
p103
cnumpy.core.multiarray
_reconstruct
p104
(cnumpy
ndarray
p105
(I0
tp106
S'b'
p107
tp108
Rp109
(I1
(I19
tp110
g50
I00
S'6C\xef|\x04\xd0\xe6\xbf6\x96\x8b\xd6\xb4\xa4\xe2\xbfL+\xd1wR\x80\xee\xbfH\xcd\xc4\xca\x1c\xb4\xf0?\x981$\xef\xe8\x07\x02\xc0\x0e(\xd4\xc5\x00\x0b$\xc0\x91\xdb\xe0\x90\xc1\xa0\xfc\xbfk\x06\x1b\xd8\xa27\xcb?9\xcf\x1e\xcb\x98 \x86\xbf\xa9\xb4\x93\xaf~\\\xe8?\xa2&\r^6\x17\xe1?\xcd\xa7\r\x10\xee>\x00\xc0\x81\x80\xf9\x98K\xb8\xf0\xbfR\x9a\xc5\x99\x0bX\xff\xbf\xe9\xb2qE\xd5\xac\xf7\xbf\x90\x94\x80--E\x01\xc0\xde\xefhJ$C\xf6\xbf\xf9\xe5\xdd\x1c\x81\xd0\xf7\xbf\xa8\x87\xb6R\xb1\xbc\x00\xc0'
p111
tp112
bsS'Model'
p113
S'MG94'
p114
sS'clock'
p115
I00
s.