(dp0
S'Force'
p1
NsS'ExpectedGeneconv'
p2
(dp3
(S'N1'
p4
S'N2'
p5
tp6
(lp7
F22.42094949427142
aF12.91214967639792
as(S'N5'
p8
S'cerevisiae'
p9
tp10
(lp11
F7.1086501682608665
aF3.8751942298984505
as(g5
S'N3'
p12
tp13
(lp14
F5.14812107193904
aF2.4660894893299954
as(S'N4'
p15
g8
tp16
(lp17
F6.655255091725091
aF2.388983104667939
as(g4
S'castellii'
p18
tp19
(lp20
F28.10749574096792
aF16.239814891603803
as(g5
S'bayanus'
p21
tp22
(lp23
F5.539130281397613
aF4.378980573275627
as(S'N0'
p24
g4
tp25
(lp26
F0.7261272885921092
aF0.4128948550995618
as(g12
S'kudriavzevii'
p27
tp28
(lp29
F10.442061422579325
aF4.379716526463336
as(g8
S'paradoxus'
p30
tp31
(lp32
F4.242282051018681
aF3.208639192969517
as(g24
S'kluyveri'
p33
tp34
(lp35
F0.0
aF0.0
as(g12
g15
tp36
(lp37
F5.7404514870500725
aF1.7278502874545143
as(g15
S'mikatae'
p38
tp39
(lp40
F9.083458924488065
aF7.840222164275059
assS'ExpectedDwellTime'
p41
(dp42
g6
F499.1344080613959
sg10
F752.0933502772883
sg13
F734.6520822557907
sg16
F751.7015890635726
sg19
F542.8816576457117
sg22
F747.2534230174598
sg25
F90.58207962297624
sg28
F754.3980635876705
sg31
F749.4507749436599
sg34
F0.0
sg36
F750.0898286449809
sg39
F760.7171521110811
ssS'newicktree'
p43
S'../PairsAlignemt/YeastTree.newick'
p44
sS'll'
p45
cnumpy.core.multiarray
scalar
p46
(cnumpy
dtype
p47
(S'f8'
p48
I0
I1
tp49
Rp50
(I3
S'<'
p51
NNNI-1
I-1
I0
tp52
bS'\xc6\xc0GM\x87C\xbf\xc0'
p53
tp54
Rp55
sS'edge_list'
p56
(lp57
g25
ag34
ag6
ag19
ag13
ag22
ag36
ag28
ag16
ag39
ag10
ag31
asS'edge_to_blen'
p58
(dp59
g6
g46
(g50
S'\xa9\xa7\x92\xde[\xb3\xd6?'
p60
tp61
Rp62
sg10
g46
(g50
S'\x8cb\x0b\xbfT\\\xb2?'
p63
tp64
Rp65
sg13
g46
(g50
S'\x05\xd2O\x85\xec\n\xa9?'
p66
tp67
Rp68
sg16
g46
(g50
S'\xbb\xf3\xc3\x18)\xe3\xa5?'
p69
tp70
Rp71
sg28
g46
(g50
S'\x95Q1\xc4\x9d\x0c\xb5?'
p72
tp73
Rp74
sg22
g46
(g50
S')\x98\xe6\xebV\x1b\xb2?'
p75
tp76
Rp77
sg25
g46
(g50
S'\xd1>\xce\xb2\xee\x01\xaf?'
p78
tp79
Rp80
sg19
g46
(g50
S'\xf8<T\xd5\xe0\xe0\xda?'
p81
tp82
Rp83
sg31
g46
(g50
S'\xe2w\xba\xfa\xcbM\xa9?'
p84
tp85
Rp86
sg39
g46
(g50
S'\xd51\x9ejJ\xc5\xb9?'
p87
tp88
Rp89
sg36
g46
(g50
S'\xb8\xee\x18\xa2\x96\xfe\xa8?'
p90
tp91
Rp92
sg34
g46
(g50
S'\xf7\xfa\x91\x90\x10\xa3\xda?'
p93
tp94
Rp95
ssS'paralog'
p96
(lp97
S'YLR284C'
p98
aS'YOR180C'
p99
asS'alignment_file'
p100
S'../MafftAlignment/YLR284C_YOR180C/YLR284C_YOR180C_input.fasta'
p101
sS'x_clock'
p102
NsS'x'
p103
cnumpy.core.multiarray
_reconstruct
p104
(cnumpy
ndarray
p105
(I0
tp106
S'b'
p107
tp108
Rp109
(I1
(I18
tp110
g50
I00
S'?O\xb5\xff\xbf\x90\xe5\xbf\xf5\xb3\xc0\xc6m\xca\xe1\xbf~\xc4\x04qQ\x8b\xec\xbf\xfanr2\xbc\x10\xf4?is\xe3i,R\xf5\xbf\xb0\xa06~\x7fZ\xfe\xbf\x99\xa1\x18\xcf\xc8n\x06\xc0\x8d?\x15\xa3\xf7\x0c\xec\xbf\r\x1fQfw\x95\xf0\xbf\xd3:\x9c\xfd\n\xc3\xeb\xbf\x9d"\x15\xa6V$\x08\xc0\xf0\x83\xcfR\xed0\x05\xc0f\x8d4lH(\x08\xc0L\xd0iw\x8a\xfc\x03\xc0\xbcOS\xdd%8\t\xc0\xd7\xbf\xd1\x13\x16^\x02\xc0Mw\xc2gi\x14\x05\xc0B\xc5B\x15\x16\x0f\x08\xc0'
p111
tp112
bsS'Model'
p113
S'HKY'
p114
sS'clock'
p115
I00
s.