(dp0
S'Force'
p1
NsS'ExpectedGeneconv'
p2
(dp3
(S'N1'
p4
S'N2'
p5
tp6
(lp7
F22.710946200559675
aF3.680272587831773e-05
as(S'N5'
p8
S'cerevisiae'
p9
tp10
(lp11
F4.412844542616795
aF2.1114197259315127e-06
as(g5
S'N3'
p12
tp13
(lp14
F1.2578374983710805
aF1.0715820890846518e-06
as(S'N4'
p15
g8
tp16
(lp17
F2.3789467469062617
aF1.2640803714811958e-06
as(g4
S'castellii'
p18
tp19
(lp20
F7.543568247935685
aF1.1043659525337171e-05
as(g5
S'bayanus'
p21
tp22
(lp23
F3.6143036936958897
aF6.104674681408916e-06
as(S'N0'
p24
g4
tp25
(lp26
F0.19886786760386432
aF3.1497703306613307e-07
as(g12
S'kudriavzevii'
p27
tp28
(lp29
F3.329053383757819
aF2.78579536022937e-06
as(g8
S'paradoxus'
p30
tp31
(lp32
F2.6954659432226014
aF1.8128163442483336e-06
as(g24
S'kluyveri'
p33
tp34
(lp35
F0.0
aF0.0
as(g12
g15
tp36
(lp37
F1.5720817077416376
aF9.111623576902725e-07
as(g15
S'mikatae'
p38
tp39
(lp40
F5.87499467375221
aF3.4508403609349155e-06
assS'ExpectedDwellTime'
p41
(dp42
g6
F156.37433748272778
sg10
F210.2278853546256
sg13
F211.82918708764163
sg16
F210.5600548716961
sg19
F93.66029477266125
sg22
F220.12987875325229
sg25
F17.238809213833417
sg28
F211.68710309704448
sg31
F213.3043817874471
sg34
F0.0
sg36
F210.12022266884247
sg39
F206.29045754920963
ssS'newicktree'
p43
S'../PairsAlignemt/YeastTree.newick'
p44
sS'll'
p45
cnumpy.core.multiarray
scalar
p46
(cnumpy
dtype
p47
(S'f8'
p48
I0
I1
tp49
Rp50
(I3
S'<'
p51
NNNI-1
I-1
I0
tp52
bS'\xdd&1\x0e\x0c\xbc\xa6\xc0'
p53
tp54
Rp55
sS'edge_list'
p56
(lp57
g25
ag34
ag6
ag19
ag13
ag22
ag36
ag28
ag16
ag39
ag10
ag31
asS'edge_to_blen'
p58
(dp59
g6
g46
(g50
S'\xc4Eo\xc7\xb8\xeb\xf3?'
p60
tp61
Rp62
sg10
g46
(g50
S'{w\x188\x02\x1d\xc3?'
p63
tp64
Rp65
sg13
g46
(g50
S'2F\xdc8L\xc3\xa6?'
p66
tp67
Rp68
sg16
g46
(g50
S'\x9b\xc4Q4a\xc8\xbd?'
p69
tp70
Rp71
sg28
g46
(g50
S'z\xcd\x0ep\xcc\x02\xc9?'
p72
tp73
Rp74
sg22
g46
(g50
S'V9e\xdd;\xcc\xcc?'
p75
tp76
Rp77
sg25
g46
(g50
S'\x8dD\x06\xc9:\xbe\xb0?'
p78
tp79
Rp80
sg19
g46
(g50
S'\xa1\xd5vl\xa5\xeb\xda?'
p81
tp82
Rp83
sg31
g46
(g50
S'*\x05j\xbf\xaa\xef\xb9?'
p84
tp85
Rp86
sg39
g46
(g50
S'\x19X\x83\xc0[3\xcd?'
p87
tp88
Rp89
sg36
g46
(g50
S'L\xcb-\xc4\x85\x94\xa7?'
p90
tp91
Rp92
sg34
g46
(g50
S'\xce\xd0\xd5C\xa0\xb1\xe1?'
p93
tp94
Rp95
ssS'paralog'
p96
(lp97
S'YPL037C'
p98
aS'YDR252W'
p99
asS'alignment_file'
p100
S'../MafftAlignment/YPL037C_YDR252W/YPL037C_YDR252W_input.fasta'
p101
sS'x_clock'
p102
NsS'x'
p103
cnumpy.core.multiarray
_reconstruct
p104
(cnumpy
ndarray
p105
(I0
tp106
S'b'
p107
tp108
Rp109
(I1
(I19
tp110
g50
I00
S'\xdf\xa8\xa2\xc3\xd6\xbe\xe5\xbf\xd4\xb4\x83it\x11\xdc\xbf\x8c\xff5\xb1\xbd\xfb\xe8\xbf\x9c\xc5\xaa\x87-\x16\xf0?\xe0\x05.\xad}=\xfe\xbfv\xfb\xd5\x93&\xfa\xe7\xbfE9\xba[\xba5,\xc0\x84\x0e\x88\x1cJ\xd1\x05\xc0\x94\x98\xe2\xbe\xe9\xf5\xe2\xbf\x88\xc3\x98\xff\xed\r\xcc?\xdc\xee\x85\xb5;\xb6\xeb\xbf\x9b.\xdc\xf1\xd1\xe7\x08\xc0\x1b#\xd6\x06"\xde\xf7\xbf\xbb\x1f\xea\xd4\x93\x9f\x08\xc0j\x9a\x10!\x9c\x1f\xfa\xbf\x01\xac\xf5\xd8\xc15\x01\xc0\x16\xe3\xfe\xef;\xa5\xf7\xbfQ\x00\xf1Z#m\xfe\xbf\x9f\x98\xcd1\xf9P\x02\xc0'
p111
tp112
bsS'Model'
p113
S'MG94'
p114
sS'clock'
p115
I00
s.