(dp0
S'Force'
p1
NsS'ExpectedGeneconv'
p2
(dp3
(S'N1'
p4
S'N2'
p5
tp6
(lp7
F145.76548965753247
aF0.02794801573204514
as(S'N5'
p8
S'cerevisiae'
p9
tp10
(lp11
F49.36075065750599
aF0.009081734499733464
as(g5
S'N3'
p12
tp13
(lp14
F37.05984848903942
aF0.004927584625616057
as(S'N4'
p15
g8
tp16
(lp17
F23.662838218959674
aF0.003810162458041763
as(g4
S'castellii'
p18
tp19
(lp20
F198.48850565669605
aF0.03540927494112433
as(g5
S'bayanus'
p21
tp22
(lp23
F50.05499000464265
aF0.006794737531513629
as(S'N0'
p24
g4
tp25
(lp26
F46.68844628250988
aF0.009024503045910976
as(g12
S'kudriavzevii'
p27
tp28
(lp29
F64.67639644944579
aF0.010800155397851905
as(g8
S'paradoxus'
p30
tp31
(lp32
F28.794607905838244
aF0.004012728509051531
as(g24
S'kluyveri'
p33
tp34
(lp35
F0.0
aF0.0
as(g12
g15
tp36
(lp37
F27.833935506249862
aF0.004622404375353862
as(g15
S'mikatae'
p38
tp39
(lp40
F60.37909503252004
aF0.013148353494856798
assS'ExpectedDwellTime'
p41
(dp42
g6
F2414.566385385261
sg10
F3043.2691831621464
sg13
F2898.497062944551
sg16
F2998.834167578211
sg19
F2436.9581386061045
sg22
F2936.70161037625
sg25
F1029.0650787225093
sg28
F2991.6429378633584
sg31
F3051.5894786410054
sg34
F0.0
sg36
F2959.950846692338
sg39
F3020.9807378253295
ssS'newicktree'
p43
S'../PairsAlignemt/YeastTree.newick'
p44
sS'll'
p45
cnumpy.core.multiarray
scalar
p46
(cnumpy
dtype
p47
(S'f8'
p48
I0
I1
tp49
Rp50
(I3
S'<'
p51
NNNI-1
I-1
I0
tp52
bS'\xe9\xa5^\xa7\xea/\xdd\xc0'
p53
tp54
Rp55
sS'edge_list'
p56
(lp57
g25
ag34
ag6
ag19
ag13
ag22
ag36
ag28
ag16
ag39
ag10
ag31
asS'edge_to_blen'
p58
(dp59
g25
g46
(g50
S'\xd18\xe0\xeb\xac\xc5\xcd?'
p60
tp61
Rp62
sg10
g46
(g50
S'\x9ex\\b\x18\x86\xb6?'
p63
tp64
Rp65
sg13
g46
(g50
S';_,\xd1\xe5\xfe\xaf?'
p66
tp67
Rp68
sg16
g46
(g50
S'|m\xbf\x8a\x03\x0e\xa4?'
p69
tp70
Rp71
sg19
g46
(g50
S'\x98\xb8\xfc\xffu\xbd\xd8?'
p72
tp73
Rp74
sg22
g46
(g50
S'\x01X\x7ftj\xbf\xb7?'
p75
tp76
Rp77
sg6
g46
(g50
S'\x91\xe4p\\\xd3\xed\xd3?'
p78
tp79
Rp80
sg28
g46
(g50
S'\r\x12\x82\xb0\xd1\t\xbd?'
p81
tp82
Rp83
sg31
g46
(g50
S'\xa8\xcf/\x0b\x0c\xf4\xab?'
p84
tp85
Rp86
sg39
g46
(g50
S'S/\xe31\x11\xaf\xbd?'
p87
tp88
Rp89
sg36
g46
(g50
S'\xd1x_\x8b\xd8;\xa9?'
p90
tp91
Rp92
sg34
g46
(g50
S'\xa5\x93On\xed\xfb\xce?'
p93
tp94
Rp95
ssS'paralog'
p96
(lp97
S'YGL133W'
p98
aS'YPL216W'
p99
asS'alignment_file'
p100
S'../MafftAlignment/YGL133W_YPL216W/YGL133W_YPL216W_input.fasta'
p101
sS'x_clock'
p102
NsS'x'
p103
cnumpy.core.multiarray
_reconstruct
p104
(cnumpy
ndarray
p105
(I0
tp106
S'b'
p107
tp108
Rp109
(I1
(I18
tp110
g50
I00
S'43\xach\xad\x1f\xe4\xbf\xfc\x12u\xbc\x8d\xaa\xdc\xbfj\xbd\xc2\xed\x03\x15\xed\xbf!O\'\xf9\xe20\xf4?tl\xaa\xb3\x0bE\xee\xbf\xc9>4\xd9\x95\xfe"\xc0J\x8f\x8c,\xd6U\xf7\xbf\x7flJ(h\xb2\xf6\xbf\xe3\xa1\xa9\xc1\xd4\xaa\xf2\xbf\xc5\xe3\xb2\xc1\'j\xee\xbfx4\xe6\x8b\x89.\x06\xc0f\x90\x93\xdb\x82\x05\x03\xc0bJl\xfa\xc4\x14\x08\xc0-\xca\xf48\x98i\x01\xc0g\xc1\xc83;\xeb\t\xc0\xde\x1c\x08Z\x91<\x01\xc0\xda\xda\x83\xc4\xe0q\x03\xc0\xb9V\xe0\xe7&C\x07\xc0'
p111
tp112
bsS'Model'
p113
S'HKY'
p114
sS'clock'
p115
I00
s.