(dp0
S'Force'
p1
NsS'ExpectedGeneconv'
p2
(dp3
(S'N1'
p4
S'N2'
p5
tp6
(lp7
F11.294850874526428
aF54.558765568748996
as(S'N5'
p8
S'cerevisiae'
p9
tp10
(lp11
F0.7964968539464639
aF4.771648131295954
as(g5
S'N3'
p12
tp13
(lp14
F1.1428016942584611
aF4.752927864768172
as(S'N4'
p15
g8
tp16
(lp17
F0.38629528847956823
aF2.630084164475009
as(g4
S'castellii'
p18
tp19
(lp20
F14.920705456552792
aF72.688043703561
as(g5
S'bayanus'
p21
tp22
(lp23
F1.770875616915317
aF5.670052520522171
as(S'N0'
p24
g4
tp25
(lp26
F0.6495216005810275
aF3.152424007397865
as(g12
S'kudriavzevii'
p27
tp28
(lp29
F1.7185645873495088
aF4.367826579892628
as(g8
S'paradoxus'
p30
tp31
(lp32
F0.9209896993820721
aF9.292802086531825
as(g24
S'kluyveri'
p33
tp34
(lp35
F0.0
aF0.0
as(g12
g15
tp36
(lp37
F0.2831196378285557
aF1.9628034180791039
as(g15
S'mikatae'
p38
tp39
(lp40
F0.8887755118626274
aF4.959234466738004
assS'ExpectedDwellTime'
p41
(dp42
g6
F912.9205869383725
sg10
F1073.8879404029208
sg13
F1058.1563056142556
sg16
F1074.7031130792204
sg19
F940.5915336595871
sg22
F1058.4014967537325
sg25
F277.1969399833973
sg28
F1074.155981603244
sg31
F1096.786931908783
sg34
F0.0
sg36
F1067.4206939061246
sg39
F1078.836824422209
ssS'newicktree'
p43
S'../PairsAlignemt/YeastTree.newick'
p44
sS'll'
p45
cnumpy.core.multiarray
scalar
p46
(cnumpy
dtype
p47
(S'f8'
p48
I0
I1
tp49
Rp50
(I3
S'<'
p51
NNNI-1
I-1
I0
tp52
bS'tS\n\x84\xc8\x16\xd2\xc0'
p53
tp54
Rp55
sS'edge_list'
p56
(lp57
g25
ag34
ag6
ag19
ag13
ag22
ag36
ag28
ag16
ag39
ag10
ag31
asS'edge_to_blen'
p58
(dp59
g6
g46
(g50
S'B\x07v\xb4=\x1c\x01@'
p60
tp61
Rp62
sg10
g46
(g50
S'\xa0\xa1(\xe26e\xc8?'
p63
tp64
Rp65
sg13
g46
(g50
S'\xb7k\xb9HQ\x88\xcd?'
p66
tp67
Rp68
sg16
g46
(g50
S'#\xfd\xd0\xc1\x9c\x07\xbf?'
p69
tp70
Rp71
sg19
g46
(g50
S'\xd4\xb8\x17\xab\xc8\x93\x06@'
p72
tp73
Rp74
sg22
g46
(g50
S'\xc9\xc1\xd0\x94K/\xd5?'
p75
tp76
Rp77
sg25
g46
(g50
S'\x06\x917\xc2\xc5y\xd1?'
p78
tp79
Rp80
sg28
g46
(g50
S'IaC\xb7&\xc3\xd5?'
p81
tp82
Rp83
sg31
g46
(g50
S'\x18xhN\xa2\x14\xd6?'
p84
tp85
Rp86
sg34
g46
(g50
S'4\xc6M\xf4\xc8\x18\r@'
p87
tp88
Rp89
sg36
g46
(g50
S'\x97\xb4\xe3\xeap\x93\xbb?'
p90
tp91
Rp92
sg39
g46
(g50
S'FD\xb2\xa8\x91\x19\xd2?'
p93
tp94
Rp95
ssS'paralog'
p96
(lp97
S'YAL056W'
p98
aS'YOR371C'
p99
asS'alignment_file'
p100
S'../MafftAlignment/YAL056W_YOR371C/YAL056W_YOR371C_input.fasta'
p101
sS'x_clock'
p102
NsS'x'
p103
cnumpy.core.multiarray
_reconstruct
p104
(cnumpy
ndarray
p105
(I0
tp106
S'b'
p107
tp108
Rp109
(I1
(I19
tp110
g50
I00
S'\x8eH\xc9\x88\x95\r\xe4\xbfQ\xd3\xb5\xd8\xc4\xad\xdd\xbf\x16uyz\x10\x01\xf0\xbf?\r\x1a|kt\xed?\x9f\x1fj\x10<\xd5\x00\xc0\xe7\x9e\x86}m\x01\x0e\xc0R.\x1d\x868^\x01\xc0\xa5\x1euq\xe8\xc4\xf4\xbf\xcf>\xa2\xee\xb3\xa8\xf4?$\xe3\x18\xef\xe2S\xe8?\x05nIN\x9c\x99\xf0?l\xf4\xcd\xd9\xf1v\xf7\xbf\x8b\x91}X\x8b\xb0\xf1\xbf\x9aQr4l\xd3\x01\xc0\xed\xe0a\xa2^B\xf1\xbf\xe3xf\x0b\xc1\xe1\x00\xc0C_K@(5\xf4\xbf\xc4\xe8bT\xae\x85\xfa\xbfB"?f\xe5\x06\xf1\xbf'
p111
tp112
bsS'Model'
p113
S'MG94'
p114
sS'clock'
p115
I00
s.