(dp0
S'Force'
p1
NsS'ExpectedGeneconv'
p2
(dp3
(S'N1'
p4
S'N2'
p5
tp6
(lp7
F6.568685397684315
aF11.308802436919839
as(S'N5'
p8
S'cerevisiae'
p9
tp10
(lp11
F1.45814217001876
aF2.7035712322566114
as(g5
S'N3'
p12
tp13
(lp14
F2.234380640120876
aF4.702729832671402
as(S'N4'
p15
g8
tp16
(lp17
F2.627663617160471
aF10.597659838917927
as(g4
S'castellii'
p18
tp19
(lp20
F13.987405064303465
aF27.11362847173329
as(g5
S'bayanus'
p21
tp22
(lp23
F8.822235384125657
aF11.732815151210184
as(S'N0'
p24
g4
tp25
(lp26
F0.6322928632010805
aF1.282307945797713
as(g12
S'kudriavzevii'
p27
tp28
(lp29
F3.876505259251311
aF11.205040035917172
as(g8
S'paradoxus'
p30
tp31
(lp32
F3.2497508381822753
aF2.2385948153508886
as(g24
S'kluyveri'
p33
tp34
(lp35
F0.0
aF0.0
as(g12
g15
tp36
(lp37
F1.3618773940783224
aF4.972261090310927
as(g15
S'mikatae'
p38
tp39
(lp40
F1.3241657706070555
aF5.713828241145608
assS'ExpectedDwellTime'
p41
(dp42
g6
F43.724745723218255
sg10
F26.226857730897336
sg13
F57.30011870662872
sg16
F40.65926125110314
sg19
F52.571254607592294
sg22
F55.49262974932186
sg25
F13.793753590759614
sg28
F75.5500386929243
sg31
F32.77349952082447
sg34
F0.0
sg36
F56.0142957176829
sg39
F57.486274368817284
ssS'newicktree'
p43
S'../PairsAlignemt/YeastTree.newick'
p44
sS'll'
p45
cnumpy.core.multiarray
scalar
p46
(cnumpy
dtype
p47
(S'f8'
p48
I0
I1
tp49
Rp50
(I3
S'<'
p51
NNNI-1
I-1
I0
tp52
bS'\xff\xd8\x97\xecF\x13\xa0\xc0'
p53
tp54
Rp55
sS'edge_list'
p56
(lp57
g25
ag34
ag6
ag19
ag13
ag22
ag36
ag28
ag16
ag39
ag10
ag31
asS'edge_to_blen'
p58
(dp59
g25
g46
(g50
S'\xeb\xcd\xf6\x86BH\xa4?'
p60
tp61
Rp62
sg10
g46
(g50
S'\x83[p\xf6\xd0\x82\x86?'
p63
tp64
Rp65
sg13
g46
(g50
S'\x8a\xfd;\x93\xa6\xd0\x9c?'
p66
tp67
Rp68
sg16
g46
(g50
S'\x03\xd2\xd7\xaf\xab\x14\x9f?'
p69
tp70
Rp71
sg19
g46
(g50
S'\x86I\xb8 \xe8\xcf\xca?'
p72
tp73
Rp74
sg22
g46
(g50
S'\xe3\x04\xa4\xc0\xd9\xfd\xb1?'
p75
tp76
Rp77
sg6
g46
(g50
S'YMG(\xa4\xea\xb8?'
p78
tp79
Rp80
sg28
g46
(g50
S'H\xab\xdd7\xeeE\xb5?'
p81
tp82
Rp83
sg31
g46
(g50
S'z~\xa4\xa1\x1d_\x9c?'
p84
tp85
Rp86
sg39
g46
(g50
S'\x16r!\x0f\xf3Y\x9f?'
p87
tp88
Rp89
sg36
g46
(g50
S'\xd9\xab\xa2\x1b\xfa\xa5\x91?'
p90
tp91
Rp92
sg34
g46
(g50
S'u\x86\x8a\xc7\x04=\xc8?'
p93
tp94
Rp95
ssS'paralog'
p96
(lp97
S'YER102W'
p98
aS'YBL072C'
p99
asS'alignment_file'
p100
S'../MafftAlignment/YER102W_YBL072C/YER102W_YBL072C_input.fasta'
p101
sS'x_clock'
p102
NsS'x'
p103
cnumpy.core.multiarray
_reconstruct
p104
(cnumpy
ndarray
p105
(I0
tp106
S'b'
p107
tp108
Rp109
(I1
(I19
tp110
g50
I00
S'\xa1}\xc2\xd2XU\xe6\xbf\x94l\xda7\xd1\xf8\xe0\xbf\xac\x15Um\xfbl\xeb\xbf\x03\x17\x1c\xf8\xa5`\xff?>\xfb\x94,\xa7\xfd\xfa\xbf\x93F\x88\xfc\xde\xcd\xf2?\x18)\xd7x\x01\x1e\xfe?\xfa\x0f\x9f\x93 \xd4\t\xc0\xba\xde<\x08!\xa0\xfa\xbf\xd2*\xcc\xa8\x1c\xa3\x02\xc0\xa0\x1e+y\xc4\x02\xf9\xbf\x82\x1d}>\x89\x90\x0c\xc0\xdb\xf7\x13`\xff=\x05\xc0\x92X\x87 J>\x10\xc0\xec\xb2\xaf~\xdf\xe6\x03\xc0\xc7\xf5\xa3b\x85\xf5\x0b\xc0\xab^\x14*\xc4\xe3\x0b\xc0r\x8cZ\x9f\xde\n\x12\xc0\xe0\xf2<^M\xb0\x0c\xc0'
p111
tp112
bsS'Model'
p113
S'MG94'
p114
sS'clock'
p115
I00
s.