(dp0
S'Force'
p1
NsS'ExpectedGeneconv'
p2
(dp3
(S'N1'
p4
S'N2'
p5
tp6
(lp7
F12.084184175893132
aF5.071817388725082
as(S'N5'
p8
S'cerevisiae'
p9
tp10
(lp11
F6.349025124120455
aF1.1537024397026447
as(g5
S'N3'
p12
tp13
(lp14
F0.3615928889207508
aF0.4460365672150861
as(S'N4'
p15
g8
tp16
(lp17
F4.899282863235019
aF4.561776808215394
as(g4
S'castellii'
p18
tp19
(lp20
F30.47078900027539
aF12.481146282950174
as(g5
S'bayanus'
p21
tp22
(lp23
F13.344241523658038
aF5.294545878569949
as(S'N0'
p24
g4
tp25
(lp26
F5.652001248665984
aF2.4348251978421094
as(g12
S'kudriavzevii'
p27
tp28
(lp29
F20.778982299704776
aF6.80130294980506
as(g8
S'paradoxus'
p30
tp31
(lp32
F4.031936665569793
aF0.6362576256582804
as(g24
S'kluyveri'
p33
tp34
(lp35
F0.0
aF0.0
as(g12
g15
tp36
(lp37
F2.77074898982142
aF2.916652606642995
as(g15
S'mikatae'
p38
tp39
(lp40
F10.53350258705982
aF6.143637793996296
assS'ExpectedDwellTime'
p41
(dp42
g6
F55.85829603428476
sg10
F69.64315056839024
sg13
F65.9611276967187
sg16
F62.83452133913533
sg19
F51.18024706385524
sg22
F55.76666942740759
sg25
F25.22620675522135
sg28
F60.70037265489516
sg31
F58.03443110200997
sg34
F0.0
sg36
F65.95332462059247
sg39
F73.48523990596632
ssS'newicktree'
p43
S'../PairsAlignemt/YeastTree.newick'
p44
sS'll'
p45
cnumpy.core.multiarray
scalar
p46
(cnumpy
dtype
p47
(S'f8'
p48
I0
I1
tp49
Rp50
(I3
S'<'
p51
NNNI-1
I-1
I0
tp52
bS'q\x84\x96\x02\xa7\x06\xa0\xc0'
p53
tp54
Rp55
sS'edge_list'
p56
(lp57
g25
ag34
ag6
ag19
ag13
ag22
ag36
ag28
ag16
ag39
ag10
ag31
asS'edge_to_blen'
p58
(dp59
g25
g46
(g50
S'\xe0\xe5\x1bY\x00\xa5\xb5?'
p60
tp61
Rp62
sg10
g46
(g50
S'\xaf\xb5\x00hi\xd5\xa1?'
p63
tp64
Rp65
sg13
g46
(g50
S'\xaa\xda\x84\x15\xd3\xc4d?'
p66
tp67
Rp68
sg16
g46
(g50
S'F\xecbp\xd2\x86\x9a?'
p69
tp70
Rp71
sg19
g46
(g50
S'C\x01\x8e\xee,e\xc6?'
p72
tp73
Rp74
sg22
g46
(g50
S'\x86b\xd2B&\xfe\xa7?'
p75
tp76
Rp77
sg6
g46
(g50
S'[\xf5\xbc\xd6\xad\x1e\xb4?'
p78
tp79
Rp80
sg28
g46
(g50
S'\x11\xf4\x1b\xc4\xb0\xf5\xb3?'
p81
tp82
Rp83
sg31
g46
(g50
S'\x8f\xbf\x99\x15\x8e\xae\x8b?'
p84
tp85
Rp86
sg39
g46
(g50
S'\x1d\xa3\tB\xa13\xae?'
p87
tp88
Rp89
sg36
g46
(g50
S'\xc9\x16\x90\xdc\xba|\x91?'
p90
tp91
Rp92
sg34
g46
(g50
S'\xf4\xbaD\xb0\xab\x00\xc1?'
p93
tp94
Rp95
ssS'paralog'
p96
(lp97
S'YMR142C'
p98
aS'YDL082W'
p99
asS'alignment_file'
p100
S'../MafftAlignment/YMR142C_YDL082W/YMR142C_YDL082W_input.fasta'
p101
sS'x_clock'
p102
NsS'x'
p103
cnumpy.core.multiarray
_reconstruct
p104
(cnumpy
ndarray
p105
(I0
tp106
S'b'
p107
tp108
Rp109
(I1
(I19
tp110
g50
I00
S'j=\'9\xab\x86\xe5\xbf\x1f\xe9\xaf\xce\xc9u\xde\xbf\xbdQ&\x8b\xf1\xd4\xe9\xbf\xa3YE\xc3\xdd\xa8\xff?\xe8\xb9\xd4\x1ai\xa7\xf7\xbf\xfc\xea\t:\xaa\xd5\x00@;|\xbc2\xf21\xf4?q\xc0\xc4\xdam\xc3\x03\xc07\xb4g\xb28&\x00\xc0\x1e\x05OY\x07Y\x04\xc0X\'5\xb6\x13\xe4\xfb\xbfIE\xb4\x15\xeb\xe8\x17\xc0\xe2\x8c\xf10\r|\x08\xc0[\x94\x81_\xaeG\x10\xc0\xc5/\x84Ddi\x04\xc0\r\x0e\xcb\xde\x00:\r\xc0\xe7j\xe6\xf5\xb6\xa4\x06\xc0D\x05\x1c\xa4\x9f\xdb\n\xc0\x8e\xaf\x89O"7\x11\xc0'
p111
tp112
bsS'Model'
p113
S'MG94'
p114
sS'clock'
p115
I00
s.