(dp0
S'Force'
p1
NsS'ExpectedGeneconv'
p2
(dp3
(S'N1'
p4
S'N2'
p5
tp6
(lp7
F8.137442144334113
aF9.793950145074483
as(S'N5'
p8
S'cerevisiae'
p9
tp10
(lp11
F2.7315967334754845
aF2.651245926148676
as(g5
S'N3'
p12
tp13
(lp14
F0.9215579518827263
aF1.6455976720143226
as(S'N4'
p15
g8
tp16
(lp17
F0.07960488012808853
aF0.3724715138629719
as(g4
S'castellii'
p18
tp19
(lp20
F4.374326421704277
aF5.255628058018904
as(g5
S'bayanus'
p21
tp22
(lp23
F4.648467754081426
aF3.5657613239894816
as(S'N0'
p24
g4
tp25
(lp26
F9.887125407253746e-05
aF0.00011897810268134328
as(g12
S'kudriavzevii'
p27
tp28
(lp29
F3.8350537653704513
aF5.123562540284897
as(g8
S'paradoxus'
p30
tp31
(lp32
F2.3501733547382986
aF4.422486699837535
as(g24
S'kluyveri'
p33
tp34
(lp35
F0.0
aF0.0
as(g12
g15
tp36
(lp37
F0.5395177982458014
aF0.8951920763736817
as(g15
S'mikatae'
p38
tp39
(lp40
F3.7387443965660996
aF4.013377423939755
assS'ExpectedDwellTime'
p41
(dp42
g6
F26.961877893989005
sg10
F51.71131762505007
sg13
F43.83727655907981
sg16
F51.20030698966096
sg19
F25.699287007816203
sg22
F35.67000864103512
sg25
F0.14436094031880542
sg28
F57.69200015147641
sg31
F48.15519329867772
sg34
F0.0
sg36
F50.272794265330326
sg39
F54.60021651330779
ssS'newicktree'
p43
S'../PairsAlignemt/YeastTree.newick'
p44
sS'll'
p45
cnumpy.core.multiarray
scalar
p46
(cnumpy
dtype
p47
(S'f8'
p48
I0
I1
tp49
Rp50
(I3
S'<'
p51
NNNI-1
I-1
I0
tp52
bS'\xf5CX\xfb\xc7\xe6\x92\xc0'
p53
tp54
Rp55
sS'edge_list'
p56
(lp57
g25
ag34
ag6
ag19
ag13
ag22
ag36
ag28
ag16
ag39
ag10
ag31
asS'edge_to_blen'
p58
(dp59
g25
g46
(g50
S'\xf2\xf5\xae\x84|\xac@?'
p60
tp61
Rp62
sg10
g46
(g50
S'\xe7\x93oJ\xa8\xcd\x9d?'
p63
tp64
Rp65
sg13
g46
(g50
S'\xba\xa2\xf8\x1e\x88\x7f\x9e?'
p66
tp67
Rp68
sg16
g46
(g50
S'MD\x99\xfaf\x9co?'
p69
tp70
Rp71
sg28
g46
(g50
S'\xf2!\xaf\xc6\x88`\xb3?'
p72
tp73
Rp74
sg22
g46
(g50
S'd\xb4\x06I?\xc7\xa8?'
p75
tp76
Rp77
sg6
g46
(g50
S'H\xe2\xd2\xb4r\xa0\xc6?'
p78
tp79
Rp80
sg19
g46
(g50
S'\x1c\xa2$C@\xc4\xc0?'
p81
tp82
Rp83
sg31
g46
(g50
S'\xdf9\xb5\x8d\x18/\xa1?'
p84
tp85
Rp86
sg39
g46
(g50
S'\x86\xee\xa9@\x08\x8f\xab?'
p87
tp88
Rp89
sg36
g46
(g50
S'\r\xa8\x18Q\x17\x89\x82?'
p90
tp91
Rp92
sg34
g46
(g50
S'\xbb\xcc\xd5\x1f@!\xb2?'
p93
tp94
Rp95
ssS'paralog'
p96
(lp97
S'YMR143W'
p98
aS'YDL083C'
p99
asS'alignment_file'
p100
S'../MafftAlignment/YMR143W_YDL083C/YMR143W_YDL083C_input.fasta'
p101
sS'x_clock'
p102
NsS'x'
p103
cnumpy.core.multiarray
_reconstruct
p104
(cnumpy
ndarray
p105
(I0
tp106
S'b'
p107
tp108
Rp109
(I1
(I19
tp110
g50
I00
S'F\x87)\xa0u\xf5\xe6\xbf\xa2>\xbf61&\xdf\xbf\xd5\xacH\xd0H\x83\xee\xbf\xf7\x96\xb2\x9c\x95z\x03@\xa4\x95\xc8\xa2\x16\xb7\r\xc0\xc1\xb9q\xe1\xac\xe5\xf0?\xb0\xb9k=\xee\xdb\xf3?\xff\xe7\x17\x19_U\x1e\xc0d\xbbr.Q.\x05\xc0\xc0\xc1M\xa4\xf2\xb9\xfb\xbf\xeb\xab\xeeX\xd9B\x00\xc0@\xe4\xdd\xd8E\x1c\x0c\xc0\xe7\xd8\x93\xb2\x12:\x08\xc0l;\xb4N\xd9\xd1\x12\xc0bq\xc2\x7f\x10\xa6\x04\xc0\x8a\x1e\x14\xa8\xc9:\x16\xc0\\r\xa7}D`\x07\xc0+9\x92\x8dxK\x0c\xc0"?g\xca\x9f\'\x0b\xc0'
p111
tp112
bsS'Model'
p113
S'MG94'
p114
sS'clock'
p115
I00
s.