(dp0
S'Force'
p1
NsS'ExpectedGeneconv'
p2
(dp3
(S'N1'
p4
S'N2'
p5
tp6
(lp7
F235.21817949163716
aF13.21210168680963
as(S'N5'
p8
S'cerevisiae'
p9
tp10
(lp11
F10.001550271286403
aF0.7122560661967774
as(g5
S'N3'
p12
tp13
(lp14
F12.754382559193356
aF0.8321243704024288
as(S'N4'
p15
g8
tp16
(lp17
F6.311055541268522
aF0.37989288018604067
as(g4
S'castellii'
p18
tp19
(lp20
F256.8764584889588
aF14.455811113464433
as(g5
S'bayanus'
p21
tp22
(lp23
F17.235160180602854
aF1.0293932911186239
as(S'N0'
p24
g4
tp25
(lp26
F36.96801245616919
aF2.0868667663505125
as(g12
S'kudriavzevii'
p27
tp28
(lp29
F15.026375469355044
aF0.764609970333471
as(g8
S'paradoxus'
p30
tp31
(lp32
F7.938494535582103
aF0.42367664274453026
as(g24
S'kluyveri'
p33
tp34
(lp35
F0.0
aF0.0
as(g12
g15
tp36
(lp37
F5.286688452037832
aF0.3541454040845731
as(g15
S'mikatae'
p38
tp39
(lp40
F17.980772614355523
aF0.8386358508673408
assS'ExpectedDwellTime'
p41
(dp42
g6
F1202.5156295098448
sg10
F1315.0562847479134
sg13
F1301.8494818729646
sg16
F1314.80063810082
sg19
F1225.939817531475
sg22
F1304.0788388925255
sg25
F596.5050987502556
sg28
F1308.3402221737879
sg31
F1325.4140914911982
sg34
F0.0
sg36
F1307.0078130221664
sg39
F1327.4042638597496
ssS'newicktree'
p43
S'../PairsAlignemt/YeastTree.newick'
p44
sS'll'
p45
cnumpy.core.multiarray
scalar
p46
(cnumpy
dtype
p47
(S'f8'
p48
I0
I1
tp49
Rp50
(I3
S'<'
p51
NNNI-1
I-1
I0
tp52
bS'~\x00P\x88u8\xd5\xc0'
p53
tp54
Rp55
sS'edge_list'
p56
(lp57
g25
ag34
ag6
ag19
ag13
ag22
ag36
ag28
ag16
ag39
ag10
ag31
asS'edge_to_blen'
p58
(dp59
g25
g46
(g50
S'\xe3A\x9d\xb25\xf7\xe3?'
p60
tp61
Rp62
sg10
g46
(g50
S'\x0e\x1al\x94\xf9\xea\xc8?'
p63
tp64
Rp65
sg13
g46
(g50
S'\t\x8f4\xc0\xb0\xe9\xc9?'
p66
tp67
Rp68
sg16
g46
(g50
S'\x85;`\xfa\xe3.\xc0?'
p69
tp70
Rp71
sg19
g46
(g50
S'>\x10r\xcb}\xf7\n@'
p72
tp73
Rp74
sg22
g46
(g50
S'\x96\xab\x9d\x0e\r\x94\xd1?'
p75
tp76
Rp77
sg6
g46
(g50
S'\xb9/l\xc1\xe6\x1d\x07@'
p78
tp79
Rp80
sg28
g46
(g50
S'\x1ab\xde\xba\xdb\xb6\xd0?'
p81
tp82
Rp83
sg31
g46
(g50
S'\x9c7_\x99\xf8@\xc2?'
p84
tp85
Rp86
sg39
g46
(g50
S'\xe4^E/\xf1~\xd4?'
p87
tp88
Rp89
sg36
g46
(g50
S'\xfd\xd7\x91!\x94\xbe\xbc?'
p90
tp91
Rp92
sg34
g46
(g50
S'\xd5aQ\xa8`\xfc\x06@'
p93
tp94
Rp95
ssS'paralog'
p96
(lp97
S'YIR033W'
p98
aS'YKL020C'
p99
asS'alignment_file'
p100
S'../MafftAlignment/YIR033W_YKL020C/YIR033W_YKL020C_input.fasta'
p101
sS'x_clock'
p102
NsS'x'
p103
cnumpy.core.multiarray
_reconstruct
p104
(cnumpy
ndarray
p105
(I0
tp106
S'b'
p107
tp108
Rp109
(I1
(I19
tp110
g50
I00
S'\x94\xf1C\xafy\x15\xe5\xbf\x96Zu\x13\xdb\xab\xdd\xbf\xf8HV9\xa12\xee\xbft\xa7\xa8\x08\xad]\xef?\xfb\r\xf6!L\xb2\x03\xc0"\x141\x83\xd7\xed\xf4\xbfu\xc4T\xc4\xd5\xba\x10\xc0\x1d\xa1\x0eB\xb10\xde\xbf\x94\xbc\xbe.\x12\xe3\xf0?\x16q\x86\x0fW\xfa\xf0?\xe2\xda2\\Oq\xf3?\xc9\x016+\x81\x8e\xf9\xbf\xc1"9:\xeb\xac\xf4\xbf\xe5\x8cH\xc6m~\x01\xc0~x\x88\x15^{\xf5\xbf\xd6\x8abZb\x8b\x00\xc07\x05\xfdT\xf37\xf2\xbf\x10a\xff\xf7\xe0.\xfa\xbf\xa2\x9a|\xc1\x9a)\xff\xbf'
p111
tp112
bsS'Model'
p113
S'MG94'
p114
sS'clock'
p115
I00
s.