(dp0
S'Force'
p1
NsS'ExpectedGeneconv'
p2
(dp3
(S'N1'
p4
S'N2'
p5
tp6
(lp7
F9.584399623718834
aF12.929789578709398
as(S'N5'
p8
S'cerevisiae'
p9
tp10
(lp11
F0.2958812609878938
aF2.0362021861474373
as(g5
S'N3'
p12
tp13
(lp14
F2.5534172544795695
aF2.4943212811946434
as(S'N4'
p15
g8
tp16
(lp17
F2.134608084860611
aF1.9994672841885868
as(g4
S'castellii'
p18
tp19
(lp20
F9.060191536469711
aF12.58878516661381
as(g5
S'bayanus'
p21
tp22
(lp23
F2.216450216198781
aF5.436129865135077
as(S'N0'
p24
g4
tp25
(lp26
F12.245886232210534
aF14.221863980753863
as(g12
S'kudriavzevii'
p27
tp28
(lp29
F8.568790648408457
aF6.1033966442818395
as(g8
S'paradoxus'
p30
tp31
(lp32
F3.002746508214728
aF3.3052971176204933
as(g24
S'kluyveri'
p33
tp34
(lp35
F0.0
aF0.0
as(g12
g15
tp36
(lp37
F2.5332395958162355
aF2.776363009285814
as(g15
S'mikatae'
p38
tp39
(lp40
F9.46360661595482
aF7.729779739509568
assS'ExpectedDwellTime'
p41
(dp42
g6
F57.71936364491389
sg10
F54.40572251173513
sg13
F59.17661949816338
sg16
F53.765297088536364
sg19
F53.0161912221065
sg22
F55.89408667776146
sg25
F32.52695661743067
sg28
F61.20747135816213
sg31
F50.2969152456033
sg34
F0.0
sg36
F56.36296886360775
sg39
F47.85501870598749
ssS'newicktree'
p43
S'../PairsAlignemt/YeastTree.newick'
p44
sS'll'
p45
cnumpy.core.multiarray
scalar
p46
(cnumpy
dtype
p47
(S'f8'
p48
I0
I1
tp49
Rp50
(I3
S'<'
p51
NNNI-1
I-1
I0
tp52
bS'\x0c\xf6BG\xa9;\x98\xc0'
p53
tp54
Rp55
sS'edge_list'
p56
(lp57
g25
ag34
ag6
ag19
ag13
ag22
ag36
ag28
ag16
ag39
ag10
ag31
asS'edge_to_blen'
p58
(dp59
g25
g46
(g50
S'\x06\xfb\xc5\x8eS\xe2\xac?'
p60
tp61
Rp62
sg10
g46
(g50
S'\xca\x15\t\xaa\xff\x90m?'
p63
tp64
Rp65
sg13
g46
(g50
S'w\xfaO\xe6\x97au?'
p66
tp67
Rp68
sg16
g46
(g50
S'9YgU\xf0\x16t?'
p69
tp70
Rp71
sg19
g46
(g50
S'\xcam\x9f\x87\xa5\xec\x9a?'
p72
tp73
Rp74
sg22
g46
(g50
S'+\xa7\xfd5}E{?'
p75
tp76
Rp77
sg6
g46
(g50
S'(\xb7\xe9O\xc9H\x9c?'
p78
tp79
Rp80
sg28
g46
(g50
S'x\t\x1a\x92;\n\x94?'
p81
tp82
Rp83
sg31
g46
(g50
S'\xd5\xd4\xb4T\x7f\xb2y?'
p84
tp85
Rp86
sg39
g46
(g50
S'\xcd\xfd\x8b\xe9\x96)\x92?'
p87
tp88
Rp89
sg36
g46
(g50
S'-\xe9]l\x87\x9du?'
p90
tp91
Rp92
sg34
g46
(g50
S'hs\x82\xcd1d\xb7>'
p93
tp94
Rp95
ssS'paralog'
p96
(lp97
S'YBR191W'
p98
aS'YPL079W'
p99
asS'alignment_file'
p100
S'../MafftAlignment/YBR191W_YPL079W/YBR191W_YPL079W_input.fasta'
p101
sS'x_clock'
p102
NsS'x'
p103
cnumpy.core.multiarray
_reconstruct
p104
(cnumpy
ndarray
p105
(I0
tp106
S'b'
p107
tp108
Rp109
(I1
(I18
tp110
g50
I00
S"\xae\xc1\x1aL\xf6\xd6\xe7\xbfCU\x80y\xbf[\xe0\xbf.\xc2\xf7=\xb9\xae\xe9\xbf\xfe=\xbb\x10\x0b\x95\x03@\xccP\xe2^qH\x05@\xc2\x89%\xd7\xcdz\x06@\xebW\xe0\xb6\x11\x00\x07\xc0\x1bG\xd8Wa\xf7*\xc0\x13\xc7S\xb2\x9b\xb6\x0c\xc0\xbc+G\xd2\x85\x1b\r\xc0z\x03\x90\x0ba\x05\x15\xc0M\xdb\xfaZ6\x0c\x14\xc0\xb9o'.:\xfa\x14\xc0\xcey\xa59Nx\x0f\xc0(\x91\xc6h/E\x15\xc0\xdaN\x7f\xc3\xe2 \x10\xc0\xd3\xa1\xcd\xdfA\x7f\x16\xc0Rd*[\x18I\x14\xc0"
p111
tp112
bsS'Model'
p113
S'HKY'
p114
sS'clock'
p115
I00
s.