(dp0
S'Force'
p1
NsS'ExpectedGeneconv'
p2
(dp3
(S'N1'
p4
S'N2'
p5
tp6
(lp7
F3.8181145837546926
aF182.79186407002553
as(S'N5'
p8
S'cerevisiae'
p9
tp10
(lp11
F0.3771165786663295
aF16.029523105908677
as(g5
S'N3'
p12
tp13
(lp14
F0.10614202459782468
aF5.617598169947349
as(S'N4'
p15
g8
tp16
(lp17
F0.2891463160136448
aF10.224969043011255
as(g4
S'castellii'
p18
tp19
(lp20
F6.6615447118461075
aF310.1619736766864
as(g5
S'bayanus'
p21
tp22
(lp23
F0.6434205491087914
aF37.625270673976004
as(S'N0'
p24
g4
tp25
(lp26
F0.9241816948271048
aF42.99116817492374
as(g12
S'kudriavzevii'
p27
tp28
(lp29
F0.47420215970588203
aF22.711394823427288
as(g8
S'paradoxus'
p30
tp31
(lp32
F0.3683161304465427
aF11.240222723733469
as(g24
S'kluyveri'
p33
tp34
(lp35
F0.0
aF0.0
as(g12
g15
tp36
(lp37
F0.26283841651418866
aF14.342523433178041
as(g15
S'mikatae'
p38
tp39
(lp40
F0.6089817157076561
aF22.25952418841966
assS'ExpectedDwellTime'
p41
(dp42
g6
F1054.7843137059801
sg10
F1236.0894855359854
sg13
F1175.155415677863
sg16
F1212.1073252831532
sg19
F1123.8090956763979
sg22
F1163.9062473867675
sg25
F538.7739213503138
sg28
F1200.6648578410582
sg31
F1227.3600731012214
sg34
F0.0
sg36
F1189.0722702680189
sg39
F1199.657297508194
ssS'newicktree'
p43
S'../PairsAlignemt/YeastTree.newick'
p44
sS'll'
p45
cnumpy.core.multiarray
scalar
p46
(cnumpy
dtype
p47
(S'f8'
p48
I0
I1
tp49
Rp50
(I3
S'<'
p51
NNNI-1
I-1
I0
tp52
bS'5\x8bK\xfe0g\xd2\xc0'
p53
tp54
Rp55
sS'edge_list'
p56
(lp57
g25
ag34
ag6
ag19
ag13
ag22
ag36
ag28
ag16
ag39
ag10
ag31
asS'edge_to_blen'
p58
(dp59
g25
g46
(g50
S'\xd9\x98\xb3\x98\xadU\xe1?'
p60
tp61
Rp62
sg10
g46
(g50
S'\x84\xd2\xf7\x954#\xc7?'
p63
tp64
Rp65
sg13
g46
(g50
S'\x06\xb8Hm\x1f\xff\xa9?'
p66
tp67
Rp68
sg16
g46
(g50
S'\xd8\x9dH\xd2Sn\xbb?'
p69
tp70
Rp71
sg19
g46
(g50
S'\t\x00\xdeMN\xe8\x05@'
p72
tp73
Rp74
sg22
g46
(g50
S'\x11\xb3\xe4x!\xb7\xd1?'
p75
tp76
Rp77
sg6
g46
(g50
S'\x9d1 \x9eh>\xf7?'
p78
tp79
Rp80
sg28
g46
(g50
S'\xf3b`k\xeb\x11\xd0?'
p81
tp82
Rp83
sg31
g46
(g50
S'\xe1X\x0blS\x7f\xbc?'
p84
tp85
Rp86
sg39
g46
(g50
S'\x96o\xf0(\xfb\n\xcf?'
p87
tp88
Rp89
sg36
g46
(g50
S'N\xb1t\x9e\r\xd7\xc1?'
p90
tp91
Rp92
sg34
g46
(g50
S'\x18\xf0Q\x8b0\xde\xf4?'
p93
tp94
Rp95
ssS'paralog'
p96
(lp97
S'YNL049C'
p98
aS'YIL109C'
p99
asS'alignment_file'
p100
S'../MafftAlignment/YNL049C_YIL109C/YNL049C_YIL109C_input.fasta'
p101
sS'x_clock'
p102
NsS'x'
p103
cnumpy.core.multiarray
_reconstruct
p104
(cnumpy
ndarray
p105
(I0
tp106
S'b'
p107
tp108
Rp109
(I1
(I19
tp110
g50
I00
S'}E\xcf\x15a\x9f\xe6\xbf[\x80g\xcc\xe4\xf0\xdc\xbf\x8b:s(v\xaf\xef\xbfP\xa1\x96 L;\xf1?c&N\x95\xad\x1b\x05\xc0#&\n\r\xe3=\x13\xc0\xcfU\xb7\x90\x1d\x0f\xef\xbfx\xb8\x9aT\xea\x9d\xe3\xbfJK\x18\xd7\xfe\xff\xd0?g\xa3\x9f\xaf\x96\xe6\xd7?P\xa2~\xb7?\x1e\xf0?\x8c\xd2`\xed\xc6\xd7\x07\xc0\xbd2\x9a\xd7\x1c\x8d\xf4\xbf\xc6 \xd9X\x83\x87\xff\xbf\xc9\x13\x08\x95a\x1c\xf6\xbf\xb9\xec\xc2\xd17\xde\x01\xc0\xf9\x880\x00\xa4\xaa\xf6\xbf\x80\x98 \x8c\x83^\xfb\xbfg\x98N\xec\x1b\x90\x01\xc0'
p111
tp112
bsS'Model'
p113
S'MG94'
p114
sS'clock'
p115
I00
s.