(dp0
S'Force'
p1
NsS'ExpectedGeneconv'
p2
(dp3
(S'N1'
p4
S'N2'
p5
tp6
(lp7
F18.173340710368578
aF41.25607276825623
as(S'N5'
p8
S'cerevisiae'
p9
tp10
(lp11
F6.871741321161393
aF14.19803005813747
as(g5
S'N3'
p12
tp13
(lp14
F4.841901741390892
aF8.619258232523611
as(S'N4'
p15
g8
tp16
(lp17
F3.293840057573051
aF6.547870697632447
as(g4
S'castellii'
p18
tp19
(lp20
F24.941785769536285
aF58.064772603889544
as(g5
S'bayanus'
p21
tp22
(lp23
F6.830591718266583
aF12.158971630121961
as(S'N0'
p24
g4
tp25
(lp26
F0.5252240658743366
aF1.2050430333489994
as(g12
S'kudriavzevii'
p27
tp28
(lp29
F7.437445615500554
aF15.203533421699538
as(g8
S'paradoxus'
p30
tp31
(lp32
F4.4966277914799715
aF25.59558668127096
as(g24
S'kluyveri'
p33
tp34
(lp35
F0.0
aF0.0
as(g12
g15
tp36
(lp37
F2.8957372276149203
aF6.1620025562894405
as(g15
S'mikatae'
p38
tp39
(lp40
F7.560098818734621
aF12.60976132798536
assS'ExpectedDwellTime'
p41
(dp42
g6
F1202.763694790381
sg10
F1855.940990109136
sg13
F1799.583620536667
sg16
F1856.5930187681186
sg19
F1337.7775081635873
sg22
F1813.4818504576187
sg25
F209.26219697910156
sg28
F1883.9825627607008
sg31
F1917.5923797804667
sg34
F0.0
sg36
F1843.766938601353
sg39
F1876.658647125587
ssS'newicktree'
p43
S'../PairsAlignemt/YeastTree.newick'
p44
sS'll'
p45
cnumpy.core.multiarray
scalar
p46
(cnumpy
dtype
p47
(S'f8'
p48
I0
I1
tp49
Rp50
(I3
S'<'
p51
NNNI-1
I-1
I0
tp52
bS'y\xd7B\xfb\xb5o\xd3\xc0'
p53
tp54
Rp55
sS'edge_list'
p56
(lp57
g25
ag34
ag6
ag19
ag13
ag22
ag36
ag28
ag16
ag39
ag10
ag31
asS'edge_to_blen'
p58
(dp59
g25
g46
(g50
S'\x1a\x04>\xcd\xd2<\xad?'
p60
tp61
Rp62
sg10
g46
(g50
S'M\xce\x85\xf0\xd9\x13\xad?'
p63
tp64
Rp65
sg13
g46
(g50
S'qI\xcf\xd6\xdf-\xae?'
p66
tp67
Rp68
sg16
g46
(g50
S'D\xc6\xa5\xe8\xed\x0b\xa2?'
p69
tp70
Rp71
sg19
g46
(g50
S'=#e\x9a%=\xdc?'
p72
tp73
Rp74
sg22
g46
(g50
S'\xe5\x0f\xfe\x05\x12\xe7\xb4?'
p75
tp76
Rp77
sg6
g46
(g50
S'\xdb>l\xa4\xa5D\xd6?'
p78
tp79
Rp80
sg28
g46
(g50
S'N\x86\x8eyZ\x05\xb7?'
p81
tp82
Rp83
sg31
g46
(g50
S'mW\xab\x14e\xdc\xb7?'
p84
tp85
Rp86
sg34
g46
(g50
S'\xb7\xfb\x82J\xe6\xb2\xe1?'
p87
tp88
Rp89
sg36
g46
(g50
S'1\x86I\x1b\x8c\xba\xa1?'
p90
tp91
Rp92
sg39
g46
(g50
S'\xb05\x94\xe6\x1e\xbe\xb3?'
p93
tp94
Rp95
ssS'paralog'
p96
(lp97
S'YAL056W'
p98
aS'YOR371C'
p99
asS'alignment_file'
p100
S'../MafftAlignment/YAL056W_YOR371C/YAL056W_YOR371C_input.fasta'
p101
sS'x_clock'
p102
NsS'x'
p103
cnumpy.core.multiarray
_reconstruct
p104
(cnumpy
ndarray
p105
(I0
tp106
S'b'
p107
tp108
Rp109
(I1
(I18
tp110
g50
I00
S'\xe4\x05|\x1d\xa83\xe5\xbfE@\r\x10\xde(\xdf\xbf\xd3g;\xfc\xb8\xc4\xeb\xbf\xbce\xf4\xc8\x7f\xe6\xf1?2\x0b\x7fo7w\x03\xc0\xe5\xbdM\x8d\xed\xa4\xf9\xbf[\xd1-\r(\xe7\x06\xc0+\xa4\xb12\x9c\xf3\xe2\xbf|.[}@\xe4\xf0\xbf9\t,\xaa\x90.\xea\xbfS\x1f\xd1d=\xa6\x06\xc0\x01\xf3\xbfK\xdc\n\x04\xc07\x94/\xd8\xb5\xe7\n\xc0R\x84\xbb\x87+E\x03\xc0\xbb\xfeP\xf9O\xc3\n\xc0e\xf6\x83S\xc9\x7f\x04\xc0Sx\xca\xe6e\xf2\x06\xc0%3O\xa6\xc5\xfb\x02\xc0'
p111
tp112
bsS'Model'
p113
S'HKY'
p114
sS'clock'
p115
I00
s.