(dp0
S'Force'
p1
NsS'ExpectedGeneconv'
p2
(dp3
(S'N1'
p4
S'N2'
p5
tp6
(lp7
F3.4754439617586157
aF15.278008801315524
as(S'N5'
p8
S'cerevisiae'
p9
tp10
(lp11
F1.8373716050890374
aF3.2631371984322404
as(g5
S'N3'
p12
tp13
(lp14
F0.1144456360542519
aF1.982785707339886
as(S'N4'
p15
g8
tp16
(lp17
F0.24894175920168496
aF0.8499278970677084
as(g4
S'castellii'
p18
tp19
(lp20
F7.404770335743667
aF32.551253718951536
as(g5
S'bayanus'
p21
tp22
(lp23
F0.966336956235459
aF5.397225566967583
as(S'N0'
p24
g4
tp25
(lp26
F4.3863832249639444e-11
aF1.9282248322631877e-10
as(g12
S'kudriavzevii'
p27
tp28
(lp29
F0.2065207869799917
aF2.9613274870372694
as(g8
S'paradoxus'
p30
tp31
(lp32
F0.9942455513511347
aF0.6903751293698501
as(g24
S'kluyveri'
p33
tp34
(lp35
F0.0
aF0.0
as(g12
g15
tp36
(lp37
F0.20160217433123265
aF3.3253848431426576
as(g15
S'mikatae'
p38
tp39
(lp40
F0.8281418450810678
aF5.262088295795461
assS'ExpectedDwellTime'
p41
(dp42
g6
F21.857539907928622
sg10
F45.927279369482896
sg13
F29.039821962594182
sg16
F41.2175364201749
sg19
F35.36535377651021
sg22
F22.100117713824577
sg25
F0.00011705575380308523
sg28
F41.08254147009586
sg31
F50.21202354337779
sg34
F0.0
sg36
F35.40833758741646
sg39
F41.51176852604385
ssS'newicktree'
p43
S'../PairsAlignemt/YeastTree.newick'
p44
sS'll'
p45
cnumpy.core.multiarray
scalar
p46
(cnumpy
dtype
p47
(S'f8'
p48
I0
I1
tp49
Rp50
(I3
S'<'
p51
NNNI-1
I-1
I0
tp52
bS't\x84\xc9w\xc0\xb3\x93\xc0'
p53
tp54
Rp55
sS'edge_list'
p56
(lp57
g25
ag34
ag6
ag19
ag13
ag22
ag36
ag28
ag16
ag39
ag10
ag31
asS'edge_to_blen'
p58
(dp59
g25
g46
(g50
S'\xef\xc1\xcdI\xad\x88\xa5>'
p60
tp61
Rp62
sg10
g46
(g50
S'\xcd\x8bt\x17j\xf4\xa5?'
p63
tp64
Rp65
sg13
g46
(g50
S']C\xa6\xc6\xa7.\x9e?'
p66
tp67
Rp68
sg16
g46
(g50
S'\xcc\x14\xb1\xc3K\x0c\x92?'
p69
tp70
Rp71
sg19
g46
(g50
S'}\x92nx\xa7a\xdb?'
p72
tp73
Rp74
sg22
g46
(g50
S'\xaf\x06\xa5n\xbd$\xa8?'
p75
tp76
Rp77
sg6
g46
(g50
S'\x10\t\xa4U\xd7\xa2\xcc?'
p78
tp79
Rp80
sg28
g46
(g50
S'\x05\xae\xba\xd7\x18\xbd\xa6?'
p81
tp82
Rp83
sg31
g46
(g50
S'\x98\x8c\xda\x88J\x89\x9d?'
p84
tp85
Rp86
sg39
g46
(g50
S'\xb8\xa4a\xf2=\x18\xad?'
p87
tp88
Rp89
sg36
g46
(g50
S'\xb8\x92\x05\xb9W\xad\x9f?'
p90
tp91
Rp92
sg34
g46
(g50
S'\\\xff/Y)"\xd6?'
p93
tp94
Rp95
ssS'paralog'
p96
(lp97
S'YLR333C'
p98
aS'YGR027C'
p99
asS'alignment_file'
p100
S'../MafftAlignment/YLR333C_YGR027C/YLR333C_YGR027C_input.fasta'
p101
sS'x_clock'
p102
NsS'x'
p103
cnumpy.core.multiarray
_reconstruct
p104
(cnumpy
ndarray
p105
(I0
tp106
S'b'
p107
tp108
Rp109
(I1
(I19
tp110
g50
I00
S"R\x88\xc5\xa82\x00\xe7\xbf\xb9\xca\x0cwy\x8e\xe0\xbf\x00l\xc6\xbf\x8d\x1d\xeb\xbf\x92\x06\xbb\x88\xbc\xae\xfb?\xf4\x90V\xdf|\xbd\xfe\xbf\x8a\r\x11\x17*\x1f\xce?\x10@\x8a\x8a\xcft\xfb?\x81X\xd0`\xa2\x84,\xc0'\x02\xcc\x03\x1b\xfd\xf0\xbfz\x1a\xb8\x072\xf5\xf7\xbf=\xaaQs%+\xeb\xbf\x01\x85D%\x991\x0c\xc0v\x98ir9o\x08\xc0\xe7\x87\x02\xaf\x98\xce\x0b\xc0\x00\xce\x10 \x00\xea\x08\xc0\x1a|/\x8f['\x10\xc0=\xd6\xa5\xbf0\xf1\x06\xc0\x1b\xce\xef\xe5\xd91\t\xc0\xf6\xbcb\xa8\xe7]\x0c\xc0"
p111
tp112
bsS'Model'
p113
S'MG94'
p114
sS'clock'
p115
I00
s.