(dp0
S'Force'
p1
NsS'ExpectedGeneconv'
p2
(dp3
(S'N1'
p4
S'N2'
p5
tp6
(lp7
F23.552901041602162
aF56.39559363597055
as(S'N5'
p8
S'cerevisiae'
p9
tp10
(lp11
F13.628073490044253
aF28.147474790263836
as(g5
S'N3'
p12
tp13
(lp14
F5.44445029929592
aF15.583776195530062
as(S'N4'
p15
g8
tp16
(lp17
F3.574442609846691
aF13.278068257628467
as(g4
S'castellii'
p18
tp19
(lp20
F34.63784011831384
aF104.53238665323687
as(g5
S'bayanus'
p21
tp22
(lp23
F7.885187518757998
aF33.43488215788912
as(S'N0'
p24
g4
tp25
(lp26
F1.6368488103557153
aF4.328910610264658
as(g12
S'kudriavzevii'
p27
tp28
(lp29
F14.343218601059235
aF26.825073865346212
as(g8
S'paradoxus'
p30
tp31
(lp32
F6.919169094336476
aF19.884088797689987
as(g24
S'kluyveri'
p33
tp34
(lp35
F0.0
aF0.0
as(g12
g15
tp36
(lp37
F5.021023057690534
aF17.480005277007706
as(g15
S'mikatae'
p38
tp39
(lp40
F18.148197231178106
aF36.665607138647474
assS'ExpectedDwellTime'
p41
(dp42
g6
F803.3701504889038
sg10
F1280.3564907728717
sg13
F1217.5104486439207
sg16
F1285.5993699569344
sg19
F868.486666529641
sg22
F1222.369307026132
sg25
F181.15183237494222
sg28
F1281.4903966768632
sg31
F1298.029416645776
sg34
F0.0
sg36
F1262.5338419823636
sg39
F1282.456191421015
ssS'newicktree'
p43
S'../PairsAlignemt/YeastTree.newick'
p44
sS'll'
p45
cnumpy.core.multiarray
scalar
p46
(cnumpy
dtype
p47
(S'f8'
p48
I0
I1
tp49
Rp50
(I3
S'<'
p51
NNNI-1
I-1
I0
tp52
bS'\x86\x9c\xfb:aO\xcd\xc0'
p53
tp54
Rp55
sS'edge_list'
p56
(lp57
g25
ag34
ag6
ag19
ag13
ag22
ag36
ag28
ag16
ag39
ag10
ag31
asS'edge_to_blen'
p58
(dp59
g25
g46
(g50
S'\xab\xc9c\x7f\x19q\xa8?'
p60
tp61
Rp62
sg10
g46
(g50
S'N\xd6~\x8f\x16\x1f\xa4?'
p63
tp64
Rp65
sg13
g46
(g50
S'#HbS\xad.\x9c?'
p66
tp67
Rp68
sg16
g46
(g50
S'\xd9*\xd7\xf0\x1aV\x93?'
p69
tp70
Rp71
sg19
g46
(g50
S'\xc8_\x8a\xb3.\x07\xcd?'
p72
tp73
Rp74
sg22
g46
(g50
S'\xd5Uk\x8d\xb02\xa8?'
p75
tp76
Rp77
sg6
g46
(g50
S'\x9dKh(\xa0\xae\xc5?'
p78
tp79
Rp80
sg28
g46
(g50
S';`p\x08\x02\x10\xa9?'
p81
tp82
Rp83
sg31
g46
(g50
S'=\x05\xbd\xe1\x11b\x9e?'
p84
tp85
Rp86
sg34
g46
(g50
S'\xb4\x1e?@^f\xba?'
p87
tp88
Rp89
sg36
g46
(g50
S'\xd6\xc2g\\?\xb6\x99?'
p90
tp91
Rp92
sg39
g46
(g50
S'D\x15\xb2\xc1\x88*\xad?'
p93
tp94
Rp95
ssS'paralog'
p96
(lp97
S'YBR117C'
p98
aS'YPR074C'
p99
asS'alignment_file'
p100
S'../MafftAlignment/YBR117C_YPR074C/YBR117C_YPR074C_input.fasta'
p101
sS'x_clock'
p102
NsS'x'
p103
cnumpy.core.multiarray
_reconstruct
p104
(cnumpy
ndarray
p105
(I0
tp106
S'b'
p107
tp108
Rp109
(I1
(I18
tp110
g50
I00
S'4\x91m\xab/U\xe8\xbf8\x01\xe8\xa2\xc9?\xe2\xbf\xe3\x9b!d\x80C\xe9\xbf\x08\xfda9Z\x19\xf6?\x88\x1e\xdb\x86T$\xef\xbfTD\xc4\xd2B\x08E\xbfi1\xde\xd7\x13V\x08\xc01\xb5\xc3\xfd\xae,\x02\xc0-b\x84\x80\x9eh\xfc\xbf\x1f\xd4\xa4\xed\x82\xbd\xf7\xbf\x89\x10s\xa0\x01\xbe\x0c\xc0\x13\xca\x94{\x9bj\x08\xc0\xdfJ\xe8l\xe4y\r\xc0\x85\x15\x0f\n\xb7"\x08\xc0\x0ce\x1al\x81\xc1\x0f\xc0\xc8\xbb\xd7\xb8*\xec\x06\xc0\xd8\x8d\xd8un\xe4\t\xc0\xe0\xa8\x0f\x00\x04$\x0c\xc0'
p111
tp112
bsS'Model'
p113
S'HKY'
p114
sS'clock'
p115
I00
s.