(dp0
S'Force'
p1
(dp2
I4
F0.0
ssS'ExpectedGeneconv'
p3
(dp4
(S'N1'
p5
S'N2'
p6
tp7
F0.0
s(S'N5'
p8
S'cerevisiae'
p9
tp10
F0.0
s(g6
S'N3'
p11
tp12
F0.0
s(S'N4'
p13
g8
tp14
F0.0
s(g5
S'castellii'
p15
tp16
F0.0
s(g6
S'bayanus'
p17
tp18
F0.0
s(S'N0'
p19
g5
tp20
F0.0
s(g11
S'kudriavzevii'
p21
tp22
F0.0
s(g8
S'paradoxus'
p23
tp24
F0.0
s(g19
S'kluyveri'
p25
tp26
F0.0
s(g11
g13
tp27
F0.0
s(g13
S'mikatae'
p28
tp29
F0.0
ssS'ExpectedDwellTime'
p30
(dp31
g7
F339.16502040474165
sg10
F946.0666843088629
sg12
F646.3049480910493
sg14
F874.0543416193279
sg16
F775.8795880642247
sg18
F781.875367326663
sg20
F27.453917391979086
sg22
F926.6443216498415
sg24
F995.5060955811116
sg26
F0.0
sg27
F788.6250237680018
sg29
F981.2134836848527
ssS'newicktree'
p32
S'../PairsAlignemt/YeastTree.newick'
p33
sS'll'
p34
cnumpy.core.multiarray
scalar
p35
(cnumpy
dtype
p36
(S'f8'
p37
I0
I1
tp38
Rp39
(I3
S'<'
p40
NNNI-1
I-1
I0
tp41
bS'`\xd2\xad\x84\x99h\xd6\xc0'
p42
tp43
Rp44
sS'edge_list'
p45
(lp46
g20
ag26
ag7
ag16
ag12
ag18
ag27
ag22
ag14
ag29
ag10
ag24
asS'edge_to_blen'
p47
(dp48
g20
g35
(g39
S'\xac\xa2=\r\x0f\xc3p?'
p49
tp50
Rp51
sg10
g35
(g39
S'@#{\x7f\xb2\xbc\xa8?'
p52
tp53
Rp54
sg12
g35
(g39
S'C3+\x10\x95l\x9a?'
p55
tp56
Rp57
sg14
g35
(g39
S'\x1d\xd1\xff\xf4Q\xe0\x9c?'
p58
tp59
Rp60
sg22
g35
(g39
S'\\IM(u\x91\xb1?'
p61
tp62
Rp63
sg18
g35
(g39
S'?b\xf4R\xd6i\xb2?'
p64
tp65
Rp66
sg7
g35
(g39
S'\xdd\xf8\xe9\x1e\x0c\xbf\xab?'
p67
tp68
Rp69
sg16
g35
(g39
S'\x87\xcc\x85\xfd\x1a\x95\xc4?'
p70
tp71
Rp72
sg24
g35
(g39
S'\xe9\x90\xea&}\t\xa4?'
p73
tp74
Rp75
sg26
g35
(g39
S'\x94\x1b\xa85\x1f\x1c\xca?'
p76
tp77
Rp78
sg27
g35
(g39
S'\xbdHB\xff\x9b\xad\xa0?'
p79
tp80
Rp81
sg29
g35
(g39
S'\xf9\x0e\xc3+\x03\x96\xb1?'
p82
tp83
Rp84
ssS'paralog'
p85
(lp86
S'YGL062W'
p87
aS'YBR218C'
p88
asS'alignment_file'
p89
S'../MafftAlignment/YGL062W_YBR218C/YGL062W_YBR218C_input.fasta'
p90
sS'x_clock'
p91
NsS'x'
p92
cnumpy.core.multiarray
_reconstruct
p93
(cnumpy
ndarray
p94
(I0
tp95
S'b'
p96
tp97
Rp98
(I1
(I17
tp99
g39
I00
S'\x03\x8b\xfeig(\xe9\xbfr\x83\xabS\xf9\xa9\xe2\xbf#ZQ\x9e2\xf3\xe9\xbf\xf4\x91\x92\x10!\x8b\xfa?\x8f4\x13\xd9\xc2\x88\xd5?\xacp\xc7^\x9f\xfe\x15\xc0:bV\xb3{o\xf9\xbf\x88\r\x8ea`R\x07\xc0\xbc\xaa\xec\xed\xd0=\xfd\xbfQL\xe9\xa4\xeeA\r\xc0\xab\x99\xf4\x0c\x89\x0e\x05\xc0U6\x07\xca\xcfd\x0b\xc0\x0c\xf0\xefW\xc5n\x05\xc0\xf9\xaa\xf3\xbb0\x8c\x0c\xc0\x1f2\x81\xa5\xb2l\x05\xc0\x9b\xf6ih{=\x08\xc0\xfa{K\x7f\t\xed\t\xc0'
p100
tp101
bsS'Model'
p102
S'HKY'
p103
sS'clock'
p104
I00
s.