(dp0
S'Force'
p1
(dp2
I4
F0.0
ssS'ExpectedGeneconv'
p3
(dp4
(S'N1'
p5
S'N2'
p6
tp7
F0.0
s(S'N5'
p8
S'cerevisiae'
p9
tp10
F0.0
s(g6
S'N3'
p11
tp12
F0.0
s(S'N4'
p13
g8
tp14
F0.0
s(g5
S'castellii'
p15
tp16
F0.0
s(g6
S'bayanus'
p17
tp18
F0.0
s(S'N0'
p19
g5
tp20
F0.0
s(g11
S'kudriavzevii'
p21
tp22
F0.0
s(g8
S'paradoxus'
p23
tp24
F0.0
s(g19
S'kluyveri'
p25
tp26
F0.0
s(g11
g13
tp27
F0.0
s(g13
S'mikatae'
p28
tp29
F0.0
ssS'ExpectedDwellTime'
p30
(dp31
g7
F69.78500747503828
sg10
F145.4259495736965
sg12
F125.90583782370658
sg14
F143.09162252758762
sg16
F71.07209845742238
sg18
F130.60732455171762
sg20
F1.9899259954728192
sg22
F148.9960432407373
sg24
F147.8429356215016
sg26
F0.0
sg27
F139.15778262857685
sg29
F151.24593596637015
ssS'newicktree'
p32
S'../PairsAlignemt/YeastTree.newick'
p33
sS'll'
p34
cnumpy.core.multiarray
scalar
p35
(cnumpy
dtype
p36
(S'f8'
p37
I0
I1
tp38
Rp39
(I3
S'<'
p40
NNNI-1
I-1
I0
tp41
bS'R\x84\xc3\xf4A8\xa1\xc0'
p42
tp43
Rp44
sS'edge_list'
p45
(lp46
g20
ag26
ag7
ag16
ag12
ag18
ag27
ag22
ag14
ag29
ag10
ag24
asS'edge_to_blen'
p47
(dp48
g20
g35
(g39
S'\xf4\xad2\xc6\xbd<i?'
p49
tp50
Rp51
sg10
g35
(g39
S'b\xb0\xbc\xa9\x9e?\xaa?'
p52
tp53
Rp54
sg12
g35
(g39
S'\xb4DIJ\x15*\xa1?'
p55
tp56
Rp57
sg14
g35
(g39
S'\xb7\x8e\xb1\x1d\x01Y\x96?'
p58
tp59
Rp60
sg16
g35
(g39
S'\x1e\xb5;\x9a\xe2\x0c\xc3?'
p61
tp62
Rp63
sg18
g35
(g39
S'-nyA\xbf\x0b\xa8?'
p64
tp65
Rp66
sg7
g35
(g39
S'\xd7\xcdR_\x15\x91\xc1?'
p67
tp68
Rp69
sg22
g35
(g39
S'\xf9I\xe5\xc5\xf0$\xb2?'
p70
tp71
Rp72
sg24
g35
(g39
S'W)\xecQ\xd2]\xa3?'
p73
tp74
Rp75
sg26
g35
(g39
S'{\xaa\xa8\xe9\xc5\x08\xc1?'
p76
tp77
Rp78
sg27
g35
(g39
S'\xa0\xe9n\xa6.\x8c\x8e?'
p79
tp80
Rp81
sg29
g35
(g39
S'\xbfJ\xf0?m\xf0\xaf?'
p82
tp83
Rp84
ssS'paralog'
p85
(lp86
S'YJR048W'
p87
aS'YEL039C'
p88
asS'alignment_file'
p89
S'../MafftAlignment/YJR048W_YEL039C/YJR048W_YEL039C_input.fasta'
p90
sS'x_clock'
p91
NsS'x'
p92
cnumpy.core.multiarray
_reconstruct
p93
(cnumpy
ndarray
p94
(I0
tp95
S'b'
p96
tp97
Rp98
(I1
(I17
tp99
g39
I00
S'\r\xb6|\xd3\x8c\x16\xe6\xbfwCT\x9d\x10T\xe0\xbfm/h\xc7\xa3\xc6\xe9\xbf\x1b\x86\xd4Wz\x86\xf8?\x8f4\x13\xd9\xc2\x88\xd5?\xde\xde\x13\xa7_!\x17\xc0\xde\x16\'\xa6i"\x00\xc0?\xa2xm\xc0\xc6\xff\xbf\xfe\xeb^W\xa8z\xfe\xbftS\x07\x8e\xf5)\x0b\xc0\xfe\x1b\xfb\xca\x85w\x08\xc0\x90\xaa%\xe4B\xd2\x10\xc0A\xa0\xd1\x82\xb0,\x05\xc0\x0e\xd6\xa6P\x16\x99\x0e\xc0\x08\x95\xd3\xa1(2\x06\xc0\xd4\xce#W\x06\xc4\x07\xc0D\x96\xec\t\xc02\n\xc0'
p100
tp101
bsS'Model'
p102
S'HKY'
p103
sS'clock'
p104
I00
s.