(dp0
S'Force'
p1
(dp2
I5
F0.0
ssS'ExpectedGeneconv'
p3
(dp4
(S'N1'
p5
S'N2'
p6
tp7
F0.0
s(S'N5'
p8
S'cerevisiae'
p9
tp10
F0.0
s(g6
S'N3'
p11
tp12
F0.0
s(S'N4'
p13
g8
tp14
F0.0
s(g5
S'castellii'
p15
tp16
F0.0
s(g6
S'bayanus'
p17
tp18
F0.0
s(S'N0'
p19
g5
tp20
F0.0
s(g11
S'kudriavzevii'
p21
tp22
F0.0
s(g8
S'paradoxus'
p23
tp24
F0.0
s(g19
S'kluyveri'
p25
tp26
F0.0
s(g11
g13
tp27
F0.0
s(g13
S'mikatae'
p28
tp29
F0.0
ssS'ExpectedDwellTime'
p30
(dp31
g7
F20.511008334063483
sg10
F44.350340816459614
sg12
F37.01880832970987
sg14
F41.22927382278452
sg16
F28.044780361460376
sg18
F44.40826870702499
sg20
F0.0008699070027110336
sg22
F48.22494389729598
sg24
F47.35517337827922
sg26
F0.0
sg27
F39.71415653668482
sg29
F51.17962973620543
ssS'newicktree'
p32
S'../PairsAlignemt/YeastTree.newick'
p33
sS'll'
p34
cnumpy.core.multiarray
scalar
p35
(cnumpy
dtype
p36
(S'f8'
p37
I0
I1
tp38
Rp39
(I3
S'<'
p40
NNNI-1
I-1
I0
tp41
bS'p\x18\x90.@\x91\x96\xc0'
p42
tp43
Rp44
sS'edge_list'
p45
(lp46
g20
ag26
ag7
ag16
ag12
ag18
ag27
ag22
ag14
ag29
ag10
ag24
asS'edge_to_blen'
p47
(dp48
g7
g35
(g39
S'\xbfv\xa5\xb8x`\xb9?'
p49
tp50
Rp51
sg10
g35
(g39
S'\x9c\x81\xf1>\x00F\xad?'
p52
tp53
Rp54
sg12
g35
(g39
S'W\x9e"\xcd\x06\xd9\x97?'
p55
tp56
Rp57
sg14
g35
(g39
S'\x0c,e+\xd4r\x87?'
p58
tp59
Rp60
sg22
g35
(g39
S'`\x8f\x0c6\xdb\xfb\xbb?'
p61
tp62
Rp63
sg18
g35
(g39
S'\x13\xf2\x17%\x88\x01\xb1?'
p64
tp65
Rp66
sg20
g35
(g39
S'\x04\xfdD)$\x1c\xcb>'
p67
tp68
Rp69
sg16
g35
(g39
S'Kn\xc4Bre\xc8?'
p70
tp71
Rp72
sg24
g35
(g39
S'\xd6\x14H\x81\x8e\xec\x9e?'
p73
tp74
Rp75
sg29
g35
(g39
S'\x8eB\xf6\xa8\xd3\x1a\xbf?'
p76
tp77
Rp78
sg27
g35
(g39
S'\xf9]\xe9\x16\x08\x8b_>'
p79
tp80
Rp81
sg26
g35
(g39
S'\x19\xf7\xf1%\xa8\xc6\xcf?'
p82
tp83
Rp84
ssS'paralog'
p85
(lp86
S'YML026C'
p87
aS'YDR450W'
p88
asS'alignment_file'
p89
S'../MafftAlignment/YML026C_YDR450W/YML026C_YDR450W_input.fasta'
p90
sS'x_clock'
p91
NsS'x'
p92
cnumpy.core.multiarray
_reconstruct
p93
(cnumpy
ndarray
p94
(I0
tp95
S'b'
p96
tp97
Rp98
(I1
(I18
tp99
g39
I00
S"\x04\x89k\x96\n\x03\xe7\xbf\xe7\xf6\xe5;\x9a\x88\xe0\xbfOU\x00N)\xa1\xec\xbf3qQ\t\xacB\xf9?\xce6!bu\xa4\x06\xc0\x8f4\x13\xd9\xc2\x88\xd5?l\x81\xa1\xd1\xf3H)\xc0_\xcfU\xbb\x08K\xf6\xbf\xb9DM\x0b\xa0}\x02\xc0\xe5'\x11c\x87\x85\xfa\xbf\x9f\rIT\x08\x14\x0e\xc0\xe6\xb6\\\xbaa\xb1\x05\xc0w>$\xd5\xd2W1\xc0_\x8c\xeeRZ\xb5\x01\xc0M\xa1y\xf5\x15\xe1\x11\xc0\xed\xa6\xe2e\xce\xdc\x00\xc0t\xd5\xec\x96\xa5\xe4\x06\xc05()L\xdf\xff\x0b\xc0"
p100
tp101
bsS'Model'
p102
S'MG94'
p103
sS'clock'
p104
I00
s.