(dp0
S'Force'
p1
(dp2
I4
F0.0
ssS'ExpectedGeneconv'
p3
(dp4
(S'N1'
p5
S'N2'
p6
tp7
F0.0
s(S'N5'
p8
S'cerevisiae'
p9
tp10
F0.0
s(g6
S'N3'
p11
tp12
F0.0
s(S'N4'
p13
g8
tp14
F0.0
s(g5
S'castellii'
p15
tp16
F0.0
s(g6
S'bayanus'
p17
tp18
F0.0
s(S'N0'
p19
g5
tp20
F0.0
s(g11
S'kudriavzevii'
p21
tp22
F0.0
s(g8
S'paradoxus'
p23
tp24
F0.0
s(g19
S'kluyveri'
p25
tp26
F0.0
s(g11
g13
tp27
F0.0
s(g13
S'mikatae'
p28
tp29
F0.0
ssS'ExpectedDwellTime'
p30
(dp31
g7
F626.9362011169907
sg10
F1271.475552668352
sg12
F1139.9829902442186
sg14
F1253.8524423545834
sg16
F751.4272609797248
sg18
F1177.6818557219044
sg20
F28.977024238607676
sg22
F1255.2685609793116
sg24
F1288.1690619081915
sg26
F0.0
sg27
F1211.8358234301054
sg29
F1264.4242354540709
ssS'newicktree'
p32
S'../PairsAlignemt/YeastTree.newick'
p33
sS'll'
p34
cnumpy.core.multiarray
scalar
p35
(cnumpy
dtype
p36
(S'f8'
p37
I0
I1
tp38
Rp39
(I3
S'<'
p40
NNNI-1
I-1
I0
tp41
bS'\x0b\x0e\x8e\xe1\xa4\x84\xcd\xc0'
p42
tp43
Rp44
sS'edge_list'
p45
(lp46
g20
ag26
ag7
ag16
ag12
ag18
ag27
ag22
ag14
ag29
ag10
ag24
asS'edge_to_blen'
p47
(dp48
g20
g35
(g39
S'/1\xaf\tsb}?'
p49
tp50
Rp51
sg10
g35
(g39
S'\x9f\xad8a/\xfe\xa7?'
p52
tp53
Rp54
sg12
g35
(g39
S'\xe8\x18\xd6\x92\xb9w\xa0?'
p55
tp56
Rp57
sg14
g35
(g39
S'\xc4\xbb\xce\xe4w\x9d\x97?'
p58
tp59
Rp60
sg22
g35
(g39
S'\x1d\t-\xa8\x94\xec\xad?'
p61
tp62
Rp63
sg18
g35
(g39
S'O\xd8\xa0va\xa7\xad?'
p64
tp65
Rp66
sg7
g35
(g39
S'\xa9\xda\xc4R6e\xc6?'
p67
tp68
Rp69
sg16
g35
(g39
S'\xa2N\x11\x19\x1bw\xcd?'
p70
tp71
Rp72
sg24
g35
(g39
S'f;%\xe0\x9dg\xa2?'
p73
tp74
Rp75
sg26
g35
(g39
S"\xac\xe0'\xa9\x10\x8a\xc3?"
p76
tp77
Rp78
sg27
g35
(g39
S'h\x0b0\x86\xe3\xcf\x9d?'
p79
tp80
Rp81
sg29
g35
(g39
S'\x9f\x8c\x13\xf0cD\xb1?'
p82
tp83
Rp84
ssS'paralog'
p85
(lp86
S'YBR117C'
p87
aS'YPR074C'
p88
asS'alignment_file'
p89
S'../MafftAlignment/YBR117C_YPR074C/YBR117C_YPR074C_input.fasta'
p90
sS'x_clock'
p91
NsS'x'
p92
cnumpy.core.multiarray
_reconstruct
p93
(cnumpy
ndarray
p94
(I0
tp95
S'b'
p96
tp97
Rp98
(I1
(I17
tp99
g39
I00
S"\x96\xd8\xae\xa1u\xad\xe8\xbf\xd8<LPw\xfd\xe1\xbf\x0e\x08]sK7\xe9\xbf\xc6,\x8f\x1bLf\xf6?\x8f4\x13\xd9\xc2\x88\xd5?a\xcf\x9a\xa9\xca\xbf\x13\xc0\xc5\x03\xd8\x1c\xd9\x12\xfe\xbfy\xea\x8c\x00\r\xe4\xfb\xbf\xc0:,\xbdG\x80\xf7\xbf\xdf:)\xa8\xd2~\x0b\xc0>\xfd\x9e\xaf4\xca\x06\xc0-C\xcd=\xdfJ\x0c\xc0\xdd\xdbv#\x9f\xb7\x06\xc0'\xc9?0\x1c(\x0e\xc0!\x9dwE+\x92\x05\xc0x\x03\x94&\n|\x08\xc0\xff??\xd4\x10\x9b\n\xc0"
p100
tp101
bsS'Model'
p102
S'HKY'
p103
sS'clock'
p104
I00
s.