(dp0
S'Force'
p1
(dp2
I5
F0.0
ssS'ExpectedGeneconv'
p3
(dp4
(S'N1'
p5
S'N2'
p6
tp7
F0.0
s(S'N5'
p8
S'cerevisiae'
p9
tp10
F0.0
s(g6
S'N3'
p11
tp12
F0.0
s(S'N4'
p13
g8
tp14
F0.0
s(g5
S'castellii'
p15
tp16
F0.0
s(g6
S'bayanus'
p17
tp18
F0.0
s(S'N0'
p19
g5
tp20
F0.0
s(g11
S'kudriavzevii'
p21
tp22
F0.0
s(g8
S'paradoxus'
p23
tp24
F0.0
s(g19
S'kluyveri'
p25
tp26
F0.0
s(g11
g13
tp27
F0.0
s(g13
S'mikatae'
p28
tp29
F0.0
ssS'ExpectedDwellTime'
p30
(dp31
g7
F1054.6132113241965
sg10
F1237.687129032725
sg12
F1172.4814997479327
sg14
F1210.6082802497783
sg16
F1152.8114832567458
sg18
F1166.512796446373
sg20
F423.1061957935138
sg22
F1203.9323994348022
sg24
F1227.5982945034273
sg26
F0.0
sg27
F1188.195919519612
sg29
F1202.2665967350918
ssS'newicktree'
p32
S'../PairsAlignemt/YeastTree.newick'
p33
sS'll'
p34
cnumpy.core.multiarray
scalar
p35
(cnumpy
dtype
p36
(S'f8'
p37
I0
I1
tp38
Rp39
(I3
S'<'
p40
NNNI-1
I-1
I0
tp41
bS'#\xcf\xa9\xb1\x10w\xd2\xc0'
p42
tp43
Rp44
sS'edge_list'
p45
(lp46
g20
ag26
ag7
ag16
ag12
ag18
ag27
ag22
ag14
ag29
ag10
ag24
asS'edge_to_blen'
p47
(dp48
g20
g35
(g39
S'\x17\xb7>\x86e\x8c\xd6?'
p49
tp50
Rp51
sg10
g35
(g39
S'\xd9\xb9f\xbc\x06\xd7\xc8?'
p52
tp53
Rp54
sg12
g35
(g39
S'\x8a\xd4lh\x86\xf2\xb5?'
p55
tp56
Rp57
sg14
g35
(g39
S'\x9fN\x17\xec\xdb\xbc\xbd?'
p58
tp59
Rp60
sg16
g35
(g39
S'\n\x9c#\xc9K\xa3\x05@'
p61
tp62
Rp63
sg18
g35
(g39
S'\xcc\xbf9\x1c\xd9\xd7\xd0?'
p64
tp65
Rp66
sg7
g35
(g39
S'\xf7T\xe8\x18]\xef\xf5?'
p67
tp68
Rp69
sg22
g35
(g39
S'.]\x80Z\xc2\x05\xd1?'
p70
tp71
Rp72
sg24
g35
(g39
S'\xb69\x89\xd4\x0e\x96\xbe?'
p73
tp74
Rp75
sg26
g35
(g39
S'\xa6p\xac\xbe\xb9\x83\xf7?'
p76
tp77
Rp78
sg27
g35
(g39
S'%feA\xbeG\xc3?'
p79
tp80
Rp81
sg29
g35
(g39
S'\x97F6\xcdSi\xd0?'
p82
tp83
Rp84
ssS'paralog'
p85
(lp86
S'YNL049C'
p87
aS'YIL109C'
p88
asS'alignment_file'
p89
S'../MafftAlignment/YNL049C_YIL109C/YNL049C_YIL109C_input.fasta'
p90
sS'x_clock'
p91
NsS'x'
p92
cnumpy.core.multiarray
_reconstruct
p93
(cnumpy
ndarray
p94
(I0
tp95
S'b'
p96
tp97
Rp98
(I1
(I18
tp99
g39
I00
S"Z\xe7N\x9e\xf7\xaa\xe6\xbf\x8d\x04(\x87v\xf5\xdc\xbfy+N\x14\xb6\xc7\xef\xbf!i\x11\xa72B\xf1?X#N\x1dT\xe1\x04\xc0\x8f4\x13\xd9\xc2\x88\xd5?f\xb9rA\x05\xb1\xf0\xbf\xd5\t\xb8'X\xa4\xd8?#7g\xe3\x131\xd4?\x8eN\xbd\x08\x12\xd7\xef?\x167&m\xf9\xa6\x03\xc0\x80\xaa7\xa0\xe8[\xf5\xbf\x99\xd3t\x12\x85I\xfe\xbfJ\xf8W\xc3\x860\xf5\xbf\x88\x97\xc4\xa8\xda8\x01\xc0XV\xdb\x0bD\xc6\xf5\xbf&\x1cjB\xb5;\xfa\xbft7_\xdb=\xff\x00\xc0"
p100
tp101
bsS'Model'
p102
S'MG94'
p103
sS'clock'
p104
I00
s.