(dp0
S'Force'
p1
(dp2
I4
F0.0
ssS'ExpectedGeneconv'
p3
(dp4
(S'N1'
p5
S'N2'
p6
tp7
F0.0
s(S'N5'
p8
S'cerevisiae'
p9
tp10
F0.0
s(g6
S'N3'
p11
tp12
F0.0
s(S'N4'
p13
g8
tp14
F0.0
s(g5
S'castellii'
p15
tp16
F0.0
s(g6
S'bayanus'
p17
tp18
F0.0
s(S'N0'
p19
g5
tp20
F0.0
s(g11
S'kudriavzevii'
p21
tp22
F0.0
s(g8
S'paradoxus'
p23
tp24
F0.0
s(g19
S'kluyveri'
p25
tp26
F0.0
s(g11
g13
tp27
F0.0
s(g13
S'mikatae'
p28
tp29
F0.0
ssS'ExpectedDwellTime'
p30
(dp31
g7
F417.5982171058059
sg10
F643.2837411871964
sg12
F592.0610421590189
sg14
F633.3891038814503
sg16
F499.6719683873196
sg18
F607.7764191597574
sg20
F127.611454080252
sg22
F646.0859742554481
sg24
F650.61464710196
sg26
F0.0
sg27
F621.3618093901785
sg29
F631.1641422798767
ssS'newicktree'
p32
S'../PairsAlignemt/YeastTree.newick'
p33
sS'll'
p34
cnumpy.core.multiarray
scalar
p35
(cnumpy
dtype
p36
(S'f8'
p37
I0
I1
tp38
Rp39
(I3
S'<'
p40
NNNI-1
I-1
I0
tp41
bS'/-\xf6\x06IM\xbd\xc0'
p42
tp43
Rp44
sS'edge_list'
p45
(lp46
g20
ag26
ag7
ag16
ag12
ag18
ag27
ag22
ag14
ag29
ag10
ag24
asS'edge_to_blen'
p47
(dp48
g20
g35
(g39
S'\xa9Z\xf7\x1f\x10\x98\xb1?'
p49
tp50
Rp51
sg10
g35
(g39
S'3\x9b\xbb\xc3!9\xa9?'
p52
tp53
Rp54
sg12
g35
(g39
S'P@\xc1\xd8\x1c\x88\xa0?'
p55
tp56
Rp57
sg14
g35
(g39
S'\x9a\x16\x9d,J\xa5\x9b?'
p58
tp59
Rp60
sg16
g35
(g39
S'\xd2\xce\x97y\xd5\x95\xcb?'
p61
tp62
Rp63
sg18
g35
(g39
S'\\\xc0\x02H\xf1\x02\xad?'
p64
tp65
Rp66
sg7
g35
(g39
S"x\xa7\x85'\xc7\x8b\xc0?"
p67
tp68
Rp69
sg22
g35
(g39
S'\xb8D@7?\xe8\xb1?'
p70
tp71
Rp72
sg24
g35
(g39
S'P\xa7\x16\x80+_\xa3?'
p73
tp74
Rp75
sg26
g35
(g39
S'HF\xbf\xafT\xc6\xc0?'
p76
tp77
Rp78
sg27
g35
(g39
S'Q\xb9*\x1f]\x08\x9a?'
p79
tp80
Rp81
sg29
g35
(g39
S'\x83\xe2\xd2\xf2e\x19\xb3?'
p82
tp83
Rp84
ssS'paralog'
p85
(lp86
S'YGR043C'
p87
aS'YLR354C'
p88
asS'alignment_file'
p89
S'../MafftAlignment/YGR043C_YLR354C/YGR043C_YLR354C_input.fasta'
p90
sS'x_clock'
p91
NsS'x'
p92
cnumpy.core.multiarray
_reconstruct
p93
(cnumpy
ndarray
p94
(I0
tp95
S'b'
p96
tp97
Rp98
(I1
(I17
tp99
g39
I00
S"f\x9b\x13\x92Pi\xe7\xbf\x03\xc6Y\x0b#\x0b\xe0\xbftG\xa4\xa0W\xb7\xea\xbf\xdd\xbf\\\x11\x1c'\xf8?\x8f4\x13\xd9\xc2\x88\xd5?\\\x882\xe5\xc3k\x05\xc0\xb2Z\\^\xdbA\x00\xc0\xd0\xc3K-\xf9]\x00\xc0\x8e\x88o\x8eS\x8e\xf8\xbf\xda\x8c\x1c\x8b\xe0v\x0b\xc0^\x990/\x0e\xf7\x06\xc0r\x19\xde-\x80`\r\xc0H\x13\xf9R\xa0G\x05\xc0\xe2\xb2O\xcca\xe5\x0c\xc0\xc6\x11\xc4m\xa5\xc3\x04\xc0\xfc\xd0XK\xa1\x15\x08\xc0\xde\x14.x12\n\xc0"
p100
tp101
bsS'Model'
p102
S'HKY'
p103
sS'clock'
p104
I00
s.