(dp0
S'Force'
p1
(dp2
I4
F0.0
ssS'ExpectedGeneconv'
p3
(dp4
(S'N1'
p5
S'N2'
p6
tp7
F0.0
s(S'N5'
p8
S'cerevisiae'
p9
tp10
F0.0
s(g6
S'N3'
p11
tp12
F0.0
s(S'N4'
p13
g8
tp14
F0.0
s(g5
S'castellii'
p15
tp16
F0.0
s(g6
S'bayanus'
p17
tp18
F0.0
s(S'N0'
p19
g5
tp20
F0.0
s(g11
S'kudriavzevii'
p21
tp22
F0.0
s(g8
S'paradoxus'
p23
tp24
F0.0
s(g19
S'kluyveri'
p25
tp26
F0.0
s(g11
g13
tp27
F0.0
s(g13
S'mikatae'
p28
tp29
F0.0
ssS'ExpectedDwellTime'
p30
(dp31
g7
F188.86991731041573
sg10
F374.69382085357813
sg12
F289.2833555820585
sg14
F349.7267127994278
sg16
F307.1378975123514
sg18
F337.27059796103134
sg20
F53.326979120795755
sg22
F356.1849859290479
sg24
F389.8906342508789
sg26
F0.0
sg27
F325.6128267154125
sg29
F377.3137268129206
ssS'newicktree'
p32
S'../PairsAlignemt/YeastTree.newick'
p33
sS'll'
p34
cnumpy.core.multiarray
scalar
p35
(cnumpy
dtype
p36
(S'f8'
p37
I0
I1
tp38
Rp39
(I3
S'<'
p40
NNNI-1
I-1
I0
tp41
bS'\x96O\xdc\x83M\xd2\xba\xc0'
p42
tp43
Rp44
sS'edge_list'
p45
(lp46
g20
ag26
ag7
ag16
ag12
ag18
ag27
ag22
ag14
ag29
ag10
ag24
asS'edge_to_blen'
p47
(dp48
g20
g35
(g39
S'\x98^z\x9b\xdd\xa2\x98?'
p49
tp50
Rp51
sg10
g35
(g39
S'\x14\xa8\xb1\xf8\xd9\xf7\xa0?'
p52
tp53
Rp54
sg12
g35
(g39
S"PoY\\'\xe8\x99?"
p55
tp56
Rp57
sg14
g35
(g39
S'\xaa\xfb\xa5jaf\x99?'
p58
tp59
Rp60
sg16
g35
(g39
S'/\r\xa3\x1b\xb7\xf9\xc2?'
p61
tp62
Rp63
sg18
g35
(g39
S'q\xc4\x07\x1d\xa1\xc4\xa9?'
p64
tp65
Rp66
sg7
g35
(g39
S'\xca\x9d[;\x00\xa2\xa7?'
p67
tp68
Rp69
sg22
g35
(g39
S'h\x02\xcc_\xcaK\xad?'
p70
tp71
Rp72
sg24
g35
(g39
S"o\xbf'\x99\xf6`\xa0?"
p73
tp74
Rp75
sg26
g35
(g39
S'\x85\xa1q\xf5]l\xba?'
p76
tp77
Rp78
sg27
g35
(g39
S'N&\x85\xcaQ0\x9a?'
p79
tp80
Rp81
sg29
g35
(g39
S'\x90\x94\xe1*\x9c\xe7\xae?'
p82
tp83
Rp84
ssS'paralog'
p85
(lp86
S'YDR502C'
p87
aS'YLR180W'
p88
asS'alignment_file'
p89
S'../MafftAlignment/YDR502C_YLR180W/YDR502C_YLR180W_input.fasta'
p90
sS'x_clock'
p91
NsS'x'
p92
cnumpy.core.multiarray
_reconstruct
p93
(cnumpy
ndarray
p94
(I0
tp95
S'b'
p96
tp97
Rp98
(I1
(I17
tp99
g39
I00
S'\xbd\xe9\xdcN\x06\x01\xeb\xbf\xe5\xfa\x89\xa7\x8c\xcc\xe2\xbfS\x02\xb5\xc8\xc1Q\xeb\xbfJ\xa37A\xed\x16\xff?\x8f4\x13\xd9\xc2\x88\xd5?\x1c\xcb5%k\xd1\r\xc0\xfbOY\xd4\xdd*\x02\xc0}\x04\xe5\x80\x02\x9b\x08\xc0\xfdF\xe8+\xca\x8a\xfe\xbf\xff4\xafKlj\r\xc0\xbf\x85\xc9b\xdb\xe9\x07\xc0PQ@;BT\r\xc0\x02\x18\xbd\xb3\x10\xe3\x06\xc03\xe3w\xe2\xe4\x92\r\xc0\xe0/\x13@\x96u\x06\xc0\x1e0^\x90\x81A\x0b\xc0d\x98z\x12\xe9\x89\x0b\xc0'
p100
tp101
bsS'Model'
p102
S'HKY'
p103
sS'clock'
p104
I00
s.