(dp0
S'Force'
p1
(dp2
I4
F0.0
ssS'ExpectedGeneconv'
p3
(dp4
(S'N1'
p5
S'N2'
p6
tp7
F0.0
s(S'N5'
p8
S'cerevisiae'
p9
tp10
F0.0
s(g6
S'N3'
p11
tp12
F0.0
s(S'N4'
p13
g8
tp14
F0.0
s(g5
S'castellii'
p15
tp16
F0.0
s(g6
S'bayanus'
p17
tp18
F0.0
s(S'N0'
p19
g5
tp20
F0.0
s(g11
S'kudriavzevii'
p21
tp22
F0.0
s(g8
S'paradoxus'
p23
tp24
F0.0
s(g19
S'kluyveri'
p25
tp26
F0.0
s(g11
g13
tp27
F0.0
s(g13
S'mikatae'
p28
tp29
F0.0
ssS'ExpectedDwellTime'
p30
(dp31
g7
F18.99080191681853
sg10
F49.911472411390335
sg12
F33.35889693096206
sg14
F45.351955177634785
sg16
F25.527905214793606
sg18
F30.373505220687825
sg20
F0.1545727491625521
sg22
F57.13264068034015
sg24
F46.295121008776505
sg26
F0.0
sg27
F42.82736686345743
sg29
F51.983691633113764
ssS'newicktree'
p32
S'../PairsAlignemt/YeastTree.newick'
p33
sS'll'
p34
cnumpy.core.multiarray
scalar
p35
(cnumpy
dtype
p36
(S'f8'
p37
I0
I1
tp38
Rp39
(I3
S'<'
p40
NNNI-1
I-1
I0
tp41
bS"H\x9a\x9e\xe5\xe8'\x96\xc0"
p42
tp43
Rp44
sS'edge_list'
p45
(lp46
g20
ag26
ag7
ag16
ag12
ag18
ag27
ag22
ag14
ag29
ag10
ag24
asS'edge_to_blen'
p47
(dp48
g20
g35
(g39
S'\xecO\xb2\xdaM6)?'
p49
tp50
Rp51
sg10
g35
(g39
S"\x0f'Ev\xd7\x15\x91?"
p52
tp53
Rp54
sg12
g35
(g39
S'7m\xc4\xad`\x17\x8c?'
p55
tp56
Rp57
sg14
g35
(g39
S'^q\x96(\x80\x8bh?'
p58
tp59
Rp60
sg16
g35
(g39
S'\xd0\xed0IMt\xa4?'
p61
tp62
Rp63
sg18
g35
(g39
S'\xb3H6\xdb\xb9\xe8\x90?'
p64
tp65
Rp66
sg7
g35
(g39
S'\xa8\xb56\xd8\x9eT\xa4?'
p67
tp68
Rp69
sg22
g35
(g39
S'\xd6sA\xf79\xfe\xa1?'
p70
tp71
Rp72
sg24
g35
(g39
S's\xf5\x1a`\x97@\x8d?'
p73
tp74
Rp75
sg26
g35
(g39
S'\xa9P\xf6\xb4\xe0\x0b\xa1?'
p76
tp77
Rp78
sg27
g35
(g39
S'\x87\xffTV\x99Cu?'
p79
tp80
Rp81
sg29
g35
(g39
S'\xdf\xa38r$\x1b\x9c?'
p82
tp83
Rp84
ssS'paralog'
p85
(lp86
S'YMR143W'
p87
aS'YDL083C'
p88
asS'alignment_file'
p89
S'../MafftAlignment/YMR143W_YDL083C/YMR143W_YDL083C_input.fasta'
p90
sS'x_clock'
p91
NsS'x'
p92
cnumpy.core.multiarray
_reconstruct
p93
(cnumpy
ndarray
p94
(I0
tp95
S'b'
p96
tp97
Rp98
(I1
(I17
tp99
g39
I00
S"'\x10\xa13P\x07\xea\xbfH\xb4\x16\xd2\x93\x81\xde\xbfG\x1eH\xe5$\x97\xec\xbf-\x9fsU\n\x10\x08@\x8f4\x13\xd9\xc2\x88\xd5?C\x15\r<\xc3\x1c!\xc0\xc8\xd8\xf3\x02\x168\x0b\xc0\x11s\xa8\xf2A\xcf\t\xc0\xe1\xb8\x111\xd4\xc2\t\xc09m.#\x19(\x11\xc0\x0c\xe0[\x8b\x1bj\x10\xc0T\xb7M\x80\x01\x0b\x15\xc0*y8Xe\xc9\n\xc0\t\x93\xfb\xa9\xdb=\x17\xc0\x85\x96u!\x8f\xc3\x0c\xc0\x1c\xb9\xb9\x84}_\x10\xc0$\x00.\xd8\xa0\xfe\x10\xc0"
p100
tp101
bsS'Model'
p102
S'HKY'
p103
sS'clock'
p104
I00
s.