(dp0
S'Force'
p1
(dp2
I4
F0.0
ssS'ExpectedGeneconv'
p3
(dp4
(S'N1'
p5
S'N2'
p6
tp7
F0.0
s(S'N5'
p8
S'cerevisiae'
p9
tp10
F0.0
s(g6
S'N3'
p11
tp12
F0.0
s(S'N4'
p13
g8
tp14
F0.0
s(g5
S'castellii'
p15
tp16
F0.0
s(g6
S'bayanus'
p17
tp18
F0.0
s(S'N0'
p19
g5
tp20
F0.0
s(g11
S'kudriavzevii'
p21
tp22
F0.0
s(g8
S'paradoxus'
p23
tp24
F0.0
s(g19
S'kluyveri'
p25
tp26
F0.0
s(g11
g13
tp27
F0.0
s(g13
S'mikatae'
p28
tp29
F0.0
ssS'ExpectedDwellTime'
p30
(dp31
g7
F7.2640345822803045
sg10
F20.300257387073735
sg12
F12.483475814298753
sg14
F13.237172167921523
sg16
F40.49546033991287
sg18
F16.596677529308526
sg20
F0.755775465972311
sg22
F35.61413184690824
sg24
F14.588350325197645
sg26
F0.0
sg27
F13.165630348603885
sg29
F20.22252261993359
ssS'newicktree'
p32
S'../PairsAlignemt/YeastTree.newick'
p33
sS'll'
p34
cnumpy.core.multiarray
scalar
p35
(cnumpy
dtype
p36
(S'f8'
p37
I0
I1
tp38
Rp39
(I3
S'<'
p40
NNNI-1
I-1
I0
tp41
bS'\xe8\x86\xa7\x96)\xe2\x96\xc0'
p42
tp43
Rp44
sS'edge_list'
p45
(lp46
g20
ag26
ag7
ag16
ag12
ag18
ag27
ag22
ag14
ag29
ag10
ag24
asS'edge_to_blen'
p47
(dp48
g20
g35
(g39
S'K\x8fL?V\xd0N?'
p49
tp50
Rp51
sg10
g35
(g39
S'\xcf\xe9a\x7f\xc5y\x95?'
p52
tp53
Rp54
sg12
g35
(g39
S'w\xe3\x99\xd0\xce\x8eL?'
p55
tp56
Rp57
sg14
g35
(g39
S"\xfc\xd4f,'5k?"
p58
tp59
Rp60
sg16
g35
(g39
S'\x07\xe4+#\x00g\xb7?'
p61
tp62
Rp63
sg18
g35
(g39
S'\xd8\xc5(\xbb\x84\xa3\x92?'
p64
tp65
Rp66
sg7
g35
(g39
S']\xd3\xf5p\xc6\xde\x81?'
p67
tp68
Rp69
sg22
g35
(g39
S'\x8f\x16[@\x87p\xa6?'
p70
tp71
Rp72
sg24
g35
(g39
S'\xdf\xa8^j\x9c%}?'
p73
tp74
Rp75
sg26
g35
(g39
S'\xbf\xcc\xeco`c\xb6?'
p76
tp77
Rp78
sg27
g35
(g39
S'*>\xdd\xdb+\x9cu>'
p79
tp80
Rp81
sg29
g35
(g39
S'~\xd7\xf8\xa0\x9d$\x9a?'
p82
tp83
Rp84
ssS'paralog'
p85
(lp86
S'YER074W'
p87
aS'YIL069C'
p88
asS'alignment_file'
p89
S'../MafftAlignment/YER074W_YIL069C/YER074W_YIL069C_input.fasta'
p90
sS'x_clock'
p91
NsS'x'
p92
cnumpy.core.multiarray
_reconstruct
p93
(cnumpy
ndarray
p94
(I0
tp95
S'b'
p96
tp97
Rp98
(I1
(I17
tp99
g39
I00
S"\xd6|\x84\xb0\x06\xf4\xe7\xbfl\xa6\xfeK'\x14\xdf\xbf\xa3\xfd\xa3\xa5/J\xea\xbf\xa4\x055\xb91\xd2\x04@\x8f4\x13\xd9\xc2\x88\xd5?\xc0\x7fv\xa4\x81\xe0\x1b\xc0\xc6\xd7\xd0 ?~\x03\xc0\xb5\x16\x05zG\xf7\x12\xc0R\xdbj\xc5\x83#\x03\xc0f\xf0\xfe\xda\\.\x1c\xc0\xea\xffj\xfe`\x06\x10\xc0\xbd\xd6\xe3\x1f\xc0U0\xc0{\xea\xfe/\x1e\x05\t\xc0\xda\xf3\xd2\xd7d\xd4\x16\xc0w\xa8uH\xd6W\r\xc0\x93c\xbc\xca\x99\xea\x0e\xc0\xfb\x9f1d\x1b\xc8\x13\xc0"
p100
tp101
bsS'Model'
p102
S'HKY'
p103
sS'clock'
p104
I00
s.