(dp0
S'Force'
p1
(dp2
I5
F0.0
ssS'ExpectedGeneconv'
p3
(dp4
(S'N1'
p5
S'N2'
p6
tp7
F0.0
s(S'N5'
p8
S'cerevisiae'
p9
tp10
F0.0
s(g6
S'N3'
p11
tp12
F0.0
s(S'N4'
p13
g8
tp14
F0.0
s(g5
S'castellii'
p15
tp16
F0.0
s(g6
S'bayanus'
p17
tp18
F0.0
s(S'N0'
p19
g5
tp20
F0.0
s(g11
S'kudriavzevii'
p21
tp22
F0.0
s(g8
S'paradoxus'
p23
tp24
F0.0
s(g19
S'kluyveri'
p25
tp26
F0.0
s(g11
g13
tp27
F0.0
s(g13
S'mikatae'
p28
tp29
F0.0
ssS'ExpectedDwellTime'
p30
(dp31
g7
F440.0739969075625
sg10
F565.4971526108361
sg12
F529.3285050683357
sg14
F551.0168823279608
sg16
F432.4253600101232
sg18
F525.5667423214495
sg20
F125.52361919909333
sg22
F552.4995984849483
sg24
F559.092399874093
sg26
F0.0
sg27
F539.1337317599836
sg29
F548.1252178743335
ssS'newicktree'
p32
S'../PairsAlignemt/YeastTree.newick'
p33
sS'll'
p34
cnumpy.core.multiarray
scalar
p35
(cnumpy
dtype
p36
(S'f8'
p37
I0
I1
tp38
Rp39
(I3
S'<'
p40
NNNI-1
I-1
I0
tp41
bS'\x0f\x83\xbd?\x86\x06\xc1\xc0'
p42
tp43
Rp44
sS'edge_list'
p45
(lp46
g20
ag26
ag7
ag16
ag12
ag18
ag27
ag22
ag14
ag29
ag10
ag24
asS'edge_to_blen'
p47
(dp48
g20
g35
(g39
S'\xc2\x182|\xdb\x18\xca?'
p49
tp50
Rp51
sg10
g35
(g39
S'p,\x99\x8c\xb4.\xcc?'
p52
tp53
Rp54
sg12
g35
(g39
S'\xe3\x91\xa3\x92{\xe8\xc6?'
p55
tp56
Rp57
sg14
g35
(g39
S'\xd8\x01\xb1\xc0\xd7U\xb7?'
p58
tp59
Rp60
sg22
g35
(g39
S's_\xd3\xb3\x17\xf0\xd5?'
p61
tp62
Rp63
sg18
g35
(g39
S'\xac11/\xd0m\xd1?'
p64
tp65
Rp66
sg7
g35
(g39
S'\x8e\xca\x11\xb5\xf5.\xf2?'
p67
tp68
Rp69
sg16
g35
(g39
S'o\x98\xec}\xf6\x07\xf3?'
p70
tp71
Rp72
sg24
g35
(g39
S'\x12+t~\xfd\x02\xbf?'
p73
tp74
Rp75
sg29
g35
(g39
S'3B\xf3d:\xe4\xd5?'
p76
tp77
Rp78
sg27
g35
(g39
S'\xfa/2e\xab\xc5\xb4?'
p79
tp80
Rp81
sg26
g35
(g39
S"%\xa2\xd6\xb7'\xa7\xf3?"
p82
tp83
Rp84
ssS'paralog'
p85
(lp86
S'YMR243C'
p87
aS'YOR316C'
p88
asS'alignment_file'
p89
S'../MafftAlignment/YMR243C_YOR316C/YMR243C_YOR316C_input.fasta'
p90
sS'x_clock'
p91
NsS'x'
p92
cnumpy.core.multiarray
_reconstruct
p93
(cnumpy
ndarray
p94
(I0
tp95
S'b'
p96
tp97
Rp98
(I1
(I18
tp99
g39
I00
S'\xe5Kfx\x88\xb8\xe7\xbf\x02!`s>k\xe1\xbfbt6Lw\x18\xee\xbf\xef\xa7\xd2\x1aOr\xee?\xd8\xf4\xcb!.K\x02\xc0\x8f4\x13\xd9\xc2\x88\xd5?\xd8a/\xf4{q\xf9\xbf\xae\xb2\xa0\xa0^R\xca?\xf2p\xc4\xbf\xc2_\xc0?y\xc4\x8b5\xca4\xc6?*K7\x03S\x87\xfb\xbf\x92c\x1c?\xdf\xcf\xf4\xbfby\x18\x1c\xaf\x17\x04\xc0*\xf3\xf8\xeau!\xf1\xbf\xa1J\xe1qc)\x03\xc0\xd0.\x1ex\x1f*\xf1\xbf\x8e\xd0\x93\xa8\x9a6\xf8\xbf^\xc5\xec2\xf2\xe2\x00\xc0'
p100
tp101
bsS'Model'
p102
S'MG94'
p103
sS'clock'
p104
I00
s.