(dp0
S'Force'
p1
(dp2
I5
F0.0
ssS'ExpectedGeneconv'
p3
(dp4
(S'N1'
p5
S'N2'
p6
tp7
F0.0
s(S'N5'
p8
S'cerevisiae'
p9
tp10
F0.0
s(g6
S'N3'
p11
tp12
F0.0
s(S'N4'
p13
g8
tp14
F0.0
s(g5
S'castellii'
p15
tp16
F0.0
s(g6
S'bayanus'
p17
tp18
F0.0
s(S'N0'
p19
g5
tp20
F0.0
s(g11
S'kudriavzevii'
p21
tp22
F0.0
s(g8
S'paradoxus'
p23
tp24
F0.0
s(g19
S'kluyveri'
p25
tp26
F0.0
s(g11
g13
tp27
F0.0
s(g13
S'mikatae'
p28
tp29
F0.0
ssS'ExpectedDwellTime'
p30
(dp31
g7
F242.83352980113733
sg10
F377.1394831795982
sg12
F345.34780933046295
sg14
F371.7825104529069
sg16
F239.01273705693512
sg18
F362.5238966342151
sg20
F33.824056417975314
sg22
F377.9590255744235
sg24
F389.16352977891097
sg26
F0.0
sg27
F357.3286842475696
sg29
F382.7421367851305
ssS'newicktree'
p32
S'../PairsAlignemt/YeastTree.newick'
p33
sS'll'
p34
cnumpy.core.multiarray
scalar
p35
(cnumpy
dtype
p36
(S'f8'
p37
I0
I1
tp38
Rp39
(I3
S'<'
p40
NNNI-1
I-1
I0
tp41
bS'\x02\xf3\xb7.\x8d\xb8\xb6\xc0'
p42
tp43
Rp44
sS'edge_list'
p45
(lp46
g20
ag26
ag7
ag16
ag12
ag18
ag27
ag22
ag14
ag29
ag10
ag24
asS'edge_to_blen'
p47
(dp48
g7
g35
(g39
S'B\xec\x9f\x0e\xc1m\xe2?'
p49
tp50
Rp51
sg10
g35
(g39
S'\x07F\xe2$\t\xd3\xc1?'
p52
tp53
Rp54
sg12
g35
(g39
S'$\xb4J<\x06]\xc0?'
p55
tp56
Rp57
sg14
g35
(g39
S'\xf2Pgn\xa4?\xbe?'
p58
tp59
Rp60
sg16
g35
(g39
S'\x97\x1d|Ji\r\xe2?'
p61
tp62
Rp63
sg18
g35
(g39
S'\x0eA\x8e\x15\xcay\xd1?'
p64
tp65
Rp66
sg20
g35
(g39
S'\xa0T\xeeP\xe3\xad\xac?'
p67
tp68
Rp69
sg22
g35
(g39
S'\x85\x02\xf4h\x03E\xcf?'
p70
tp71
Rp72
sg24
g35
(g39
S'w\xc6\xd8P?\x17\xc0?'
p73
tp74
Rp75
sg29
g35
(g39
S',\xf7A\xe5\xa7\xeb\xcf?'
p76
tp77
Rp78
sg27
g35
(g39
S'9\xf9M\xc3\x93i\xc2?'
p79
tp80
Rp81
sg26
g35
(g39
S'T!\xda\xf4\x0bD\xe3?'
p82
tp83
Rp84
ssS'paralog'
p85
(lp86
S'YHR106W'
p87
aS'YDR353W'
p88
asS'alignment_file'
p89
S'../MafftAlignment/YHR106W_YDR353W/YHR106W_YDR353W_input.fasta'
p90
sS'x_clock'
p91
NsS'x'
p92
cnumpy.core.multiarray
_reconstruct
p93
(cnumpy
ndarray
p94
(I0
tp95
S'b'
p96
tp97
Rp98
(I1
(I18
tp99
g39
I00
S'\xfc\x98\xaf\xfeg0\xe6\xbfd\x07Vw|\xbe\xe1\xbf\x1b(\xa6U\x10\xd9\xeb\xbfyO\xcc\xdf*#\xf4?\xbdV=I\x8a`\x06\xc0\x8f4\x13\xd9\xc2\x88\xd5?\xab%\xa5\x0f\xa5\x0e\x07\xc0\x91\x92[W\xa7<\xe0\xbff\x80sS\x8d\xa8\xe1\xbf8W\xc3M\x93Q\xe2\xbf\xa7\xcd\xe5S\xb4t\x00\xc0\xbbP\xa0{\xe4\xc4\xf4\xbf\xf6\x03\x1dq*\x06\xff\xbf\xb5n0\xad\xd6\x8c\xf6\xbf\x1a\xfc\x05F\xf8\x15\x01\xc0\xf1\xbc}Ir8\xf6\xbfR-;&\x1e\x8b\xff\xbf\x02\xf2j\x00\x1b\x97\x00\xc0'
p100
tp101
bsS'Model'
p102
S'MG94'
p103
sS'clock'
p104
I00
s.