(dp0
S'Force'
p1
(dp2
I4
F0.0
ssS'ExpectedGeneconv'
p3
(dp4
(S'N1'
p5
S'N2'
p6
tp7
F0.0
s(S'N5'
p8
S'cerevisiae'
p9
tp10
F0.0
s(g6
S'N3'
p11
tp12
F0.0
s(S'N4'
p13
g8
tp14
F0.0
s(g5
S'castellii'
p15
tp16
F0.0
s(g6
S'bayanus'
p17
tp18
F0.0
s(S'N0'
p19
g5
tp20
F0.0
s(g11
S'kudriavzevii'
p21
tp22
F0.0
s(g8
S'paradoxus'
p23
tp24
F0.0
s(g19
S'kluyveri'
p25
tp26
F0.0
s(g11
g13
tp27
F0.0
s(g13
S'mikatae'
p28
tp29
F0.0
ssS'ExpectedDwellTime'
p30
(dp31
g7
F32.1984941157909
sg10
F50.17812783654091
sg12
F42.246634206421156
sg14
F41.05539404383438
sg16
F35.34126630552014
sg18
F48.05122925101435
sg20
F3.5062836202600236
sg22
F54.99085458436033
sg24
F45.96196938712981
sg26
F0.0
sg27
F39.97727522725648
sg29
F41.518061287926784
ssS'newicktree'
p32
S'../PairsAlignemt/YeastTree.newick'
p33
sS'll'
p34
cnumpy.core.multiarray
scalar
p35
(cnumpy
dtype
p36
(S'f8'
p37
I0
I1
tp38
Rp39
(I3
S'<'
p40
NNNI-1
I-1
I0
tp41
bS'S\xb5\x90a\xb6\x1d\x9a\xc0'
p42
tp43
Rp44
sS'edge_list'
p45
(lp46
g20
ag26
ag7
ag16
ag12
ag18
ag27
ag22
ag14
ag29
ag10
ag24
asS'edge_to_blen'
p47
(dp48
g20
g35
(g39
S'B/\x17\x17?+n?'
p49
tp50
Rp51
sg10
g35
(g39
S'z\x8eV\xf0]"\x85?'
p52
tp53
Rp54
sg12
g35
(g39
S'\xfe\xc2\xe8\xb0]\xf0\x87?'
p55
tp56
Rp57
sg14
g35
(g39
S'\x90f\x03\xd1qV{?'
p58
tp59
Rp60
sg16
g35
(g39
S'\xaf\xe8\tT\x10\xdc\xa4?'
p61
tp62
Rp63
sg18
g35
(g39
S'\xb0\x80\x96.\xa5\r\x84?'
p64
tp65
Rp66
sg7
g35
(g39
S'\xde\xa1\x02\x07\xe9\xca\xa5?'
p67
tp68
Rp69
sg22
g35
(g39
S';\xbbw\xf4\xcb\xa7\x9e?'
p70
tp71
Rp72
sg24
g35
(g39
S'\xc3\xb3\x1c\x1d\xa6\xa2{?'
p73
tp74
Rp75
sg26
g35
(g39
S'b\x13\xaem\xec\xff\xa5?'
p76
tp77
Rp78
sg27
g35
(g39
S'1!\xf0K\xda\xea\x84?'
p79
tp80
Rp81
sg29
g35
(g39
S'\xc3\x08v\xc0gf\x98?'
p82
tp83
Rp84
ssS'paralog'
p85
(lp86
S'YBR191W'
p87
aS'YPL079W'
p88
asS'alignment_file'
p89
S'../MafftAlignment/YBR191W_YPL079W/YBR191W_YPL079W_input.fasta'
p90
sS'x_clock'
p91
NsS'x'
p92
cnumpy.core.multiarray
_reconstruct
p93
(cnumpy
ndarray
p94
(I0
tp95
S'b'
p96
tp97
Rp98
(I1
(I17
tp99
g39
I00
S'\x145\xf6/:7\xe9\xbf-\x92\xa0\xde:\x92\xde\xbf7J5%(\x16\xea\xbfN\x03\x90\xbfr\x99\x04@\x8f4\x13\xd9\xc2\x88\xd5?\x00\xd7\x97`\x99j\x16\xc0\xc3\xa5gd\xa9-\t\xc0\xe9nX\xe3\x07A\t\xc0\xbc\xe8`\x90\xa4\x9a\t\xc0\x1e\xc2\x1fG\xe4\xcb\x11\xc0*\xa2\xda+A\x81\x12\xc0\xf9\xado\x0b\x0eV\x12\xc0\x83\xc8h\xf0\xbc\x11\x0c\xc0\x8e\x08\x9fy\xba\t\x14\xc0\x02\x84\x0er%\xe5\r\xc0\xe3`\x8b]~K\x12\xc0\x946\xf8{\xa3\xfe\x13\xc0'
p100
tp101
bsS'Model'
p102
S'HKY'
p103
sS'clock'
p104
I00
s.