(dp0
S'Force'
p1
(dp2
I5
F0.0
ssS'ExpectedGeneconv'
p3
(dp4
(S'N1'
p5
S'N2'
p6
tp7
F0.0
s(S'N5'
p8
S'cerevisiae'
p9
tp10
F0.0
s(g6
S'N3'
p11
tp12
F0.0
s(S'N4'
p13
g8
tp14
F0.0
s(g5
S'castellii'
p15
tp16
F0.0
s(g6
S'bayanus'
p17
tp18
F0.0
s(S'N0'
p19
g5
tp20
F0.0
s(g11
S'kudriavzevii'
p21
tp22
F0.0
s(g8
S'paradoxus'
p23
tp24
F0.0
s(g19
S'kluyveri'
p25
tp26
F0.0
s(g11
g13
tp27
F0.0
s(g13
S'mikatae'
p28
tp29
F0.0
ssS'ExpectedDwellTime'
p30
(dp31
g7
F8.077208011847482
sg10
F20.110566593874992
sg12
F12.21405097957957
sg14
F12.467889715922913
sg16
F37.55437592676478
sg18
F16.870003768776034
sg20
F5.361584681415691e-05
sg22
F35.220967927846544
sg24
F14.531839328174241
sg26
F0.0
sg27
F12.214689106594081
sg29
F19.805525136725826
ssS'newicktree'
p32
S'../PairsAlignemt/YeastTree.newick'
p33
sS'll'
p34
cnumpy.core.multiarray
scalar
p35
(cnumpy
dtype
p36
(S'f8'
p37
I0
I1
tp38
Rp39
(I3
S'<'
p40
NNNI-1
I-1
I0
tp41
bS'\x03qKT6F\x95\xc0'
p42
tp43
Rp44
sS'edge_list'
p45
(lp46
g20
ag26
ag7
ag16
ag12
ag18
ag27
ag22
ag14
ag29
ag10
ag24
asS'edge_to_blen'
p47
(dp48
g20
g35
(g39
S'W\xe97d0#\x93>'
p49
tp50
Rp51
sg10
g35
(g39
S'}8CH\xa7\xd5\xae?'
p52
tp53
Rp54
sg12
g35
(g39
S'\x10/\xd6\xe4\xe8t\xc4>'
p55
tp56
Rp57
sg14
g35
(g39
S'\xea\xcf\x08\x9e\xee1\x82?'
p58
tp59
Rp60
sg16
g35
(g39
S'\xd8hk\xcd\x86\xfd\xd1?'
p61
tp62
Rp63
sg18
g35
(g39
S'\xc2b\xa3\xbaw\xda\xab?'
p64
tp65
Rp66
sg7
g35
(g39
S'\xf8\x92B\xe3\xd8{\xa6?'
p67
tp68
Rp69
sg22
g35
(g39
S'\xc5\xf1z1&-\xc1?'
p70
tp71
Rp72
sg24
g35
(g39
S'\x93tf\n\x08^\x98?'
p73
tp74
Rp75
sg29
g35
(g39
S'\xe9\x01@\xda`I\xb3?'
p76
tp77
Rp78
sg27
g35
(g39
S'\xb0#\xc9\x1e\xfa\x7f}>'
p79
tp80
Rp81
sg26
g35
(g39
S'\x95\xda\x98\x85\xf9\x84\xd0?'
p82
tp83
Rp84
ssS'paralog'
p85
(lp86
S'YER074W'
p87
aS'YIL069C'
p88
asS'alignment_file'
p89
S'../MafftAlignment/YER074W_YIL069C/YER074W_YIL069C_input.fasta'
p90
sS'x_clock'
p91
NsS'x'
p92
cnumpy.core.multiarray
_reconstruct
p93
(cnumpy
ndarray
p94
(I0
tp95
S'b'
p96
tp97
Rp98
(I1
(I18
tp99
g39
I00
S"\xb2\xe7p\x84{\n\xe6\xbf\xdc8\xb0A\x14\xf4\xde\xbf1m\xfb)\x01\xa3\xeb\xbf}@\xb9A\xf5\xc5\x00@;\xa5@\x7f4\x8e\x01\xc0\x8f4\x13\xd9\xc2\x88\xd5?\x04\xc1H\x86\xee#.\xc0j?\x9d^f\xab\xf5\xbf\x08_\x8b(\x16\x01\t\xc0\xf4Wg\x86\x05N\xf4\xbf\x08\x06\x83t \xd9)\xc0'\xa3\xd9U|J\x07\xc0\x142\xa7k\x13\x060\xc0\x0c\xbb\x0f[f\x11\x00\xc0\x1eF&4\xd5\xe4\x12\xc0P\x1d\xd2\x9f\xa5\xaf\x04\xc0&E\x84\x8d=z\x06\xc0\xe6q\xc9\xc5\xe4\xe7\r\xc0"
p100
tp101
bsS'Model'
p102
S'MG94'
p103
sS'clock'
p104
I00
s.