(dp0
S'Force'
p1
(dp2
I4
F0.0
ssS'ExpectedGeneconv'
p3
(dp4
(S'N1'
p5
S'N2'
p6
tp7
F0.0
s(S'N5'
p8
S'cerevisiae'
p9
tp10
F0.0
s(g6
S'N3'
p11
tp12
F0.0
s(S'N4'
p13
g8
tp14
F0.0
s(g5
S'castellii'
p15
tp16
F0.0
s(g6
S'bayanus'
p17
tp18
F0.0
s(S'N0'
p19
g5
tp20
F0.0
s(g11
S'kudriavzevii'
p21
tp22
F0.0
s(g8
S'paradoxus'
p23
tp24
F0.0
s(g19
S'kluyveri'
p25
tp26
F0.0
s(g11
g13
tp27
F0.0
s(g13
S'mikatae'
p28
tp29
F0.0
ssS'ExpectedDwellTime'
p30
(dp31
g7
F23.564058628210848
sg10
F44.51531894806129
sg12
F38.249130203569514
sg14
F42.131757126150646
sg16
F30.611963028506942
sg18
F45.01187677718291
sg20
F2.662097958149415
sg22
F49.13416766609503
sg24
F47.65487503682161
sg26
F0.0
sg27
F40.87585706126215
sg29
F51.8197566011491
ssS'newicktree'
p32
S'../PairsAlignemt/YeastTree.newick'
p33
sS'll'
p34
cnumpy.core.multiarray
scalar
p35
(cnumpy
dtype
p36
(S'f8'
p37
I0
I1
tp38
Rp39
(I3
S'<'
p40
NNNI-1
I-1
I0
tp41
bS'\xb2\xbf\x1d\xe3v\xf5\x98\xc0'
p42
tp43
Rp44
sS'edge_list'
p45
(lp46
g20
ag26
ag7
ag16
ag12
ag18
ag27
ag22
ag14
ag29
ag10
ag24
asS'edge_to_blen'
p47
(dp48
g20
g35
(g39
S'\xef*\xe5\x1d\x16Zj?'
p49
tp50
Rp51
sg10
g35
(g39
S'\xees7\x8cA-\x94?'
p52
tp53
Rp54
sg12
g35
(g39
S'\xd9X\x93\xe9\xae\xf4\x80?'
p55
tp56
Rp57
sg14
g35
(g39
S'\x84U\\\xaav\x8do?'
p58
tp59
Rp60
sg16
g35
(g39
S'\xf5\x95\x1b5^y\xac?'
p61
tp62
Rp63
sg18
g35
(g39
S'\xdc^[h_9\x96?'
p64
tp65
Rp66
sg7
g35
(g39
S'|\xdd\xee\xe2>\xdd\x9e?'
p67
tp68
Rp69
sg22
g35
(g39
S'u\xf4\x0c\xd6\xd2\xfe\xa1?'
p70
tp71
Rp72
sg24
g35
(g39
S'\xa0\x01E\x85\xe5\xd9\x81?'
p73
tp74
Rp75
sg26
g35
(g39
S'\x1aJ2\x80?\xc3\xb2?'
p76
tp77
Rp78
sg27
g35
(g39
S'\xe8x\xae\x18\xd2Fc>'
p79
tp80
Rp81
sg29
g35
(g39
S'`\x17\x0e\xf4\x08\xab\xa3?'
p82
tp83
Rp84
ssS'paralog'
p85
(lp86
S'YML026C'
p87
aS'YDR450W'
p88
asS'alignment_file'
p89
S'../MafftAlignment/YML026C_YDR450W/YML026C_YDR450W_input.fasta'
p90
sS'x_clock'
p91
NsS'x'
p92
cnumpy.core.multiarray
_reconstruct
p93
(cnumpy
ndarray
p94
(I0
tp95
S'b'
p96
tp97
Rp98
(I1
(I17
tp99
g39
I00
S'J\xca\xcd\xf3\x19\\\xe9\xbf/\x19]OCo\xe0\xbf\xd2\x0b\xf1\x91\xebH\xea\xbf\xc4\xf4\x8eN\x9f\xb7\x02@\x8f4\x13\xd9\xc2\x88\xd5?r`\x0f0\x1e\xf5\x16\xc0b\xda\xd5\xa0\r\xe8\x04\xc0e72G\xd6\x03\x0c\xc0\xad\xf4X\x04Y\x1d\x07\xc0\x1b\xf1\xcf\xcb\x10-\x13\xc0}9<+q\xa4\x0e\xc0\xbc\xd6l\xa0r$1\xc0\xd9\xbbha!\xc9\n\xc0\xebI\xc5\x06\xae<\x16\xc07\xde=\xad\x19\x13\n\xc01;_&_j\x0f\xc0\xbe\x12\xec-_\xf8\x12\xc0'
p100
tp101
bsS'Model'
p102
S'HKY'
p103
sS'clock'
p104
I00
s.