(dp0
S'Force'
p1
(dp2
I4
F0.0
ssS'ExpectedGeneconv'
p3
(dp4
(S'N1'
p5
S'N2'
p6
tp7
F0.0
s(S'N5'
p8
S'cerevisiae'
p9
tp10
F0.0
s(g6
S'N3'
p11
tp12
F0.0
s(S'N4'
p13
g8
tp14
F0.0
s(g5
S'castellii'
p15
tp16
F0.0
s(g6
S'bayanus'
p17
tp18
F0.0
s(S'N0'
p19
g5
tp20
F0.0
s(g11
S'kudriavzevii'
p21
tp22
F0.0
s(g8
S'paradoxus'
p23
tp24
F0.0
s(g19
S'kluyveri'
p25
tp26
F0.0
s(g11
g13
tp27
F0.0
s(g13
S'mikatae'
p28
tp29
F0.0
ssS'ExpectedDwellTime'
p30
(dp31
g7
F23.115613431329262
sg10
F25.070753375413805
sg12
F39.84661351726349
sg14
F34.74371687053291
sg16
F55.523952679711556
sg18
F50.14255074312972
sg20
F2.147684284360466
sg22
F75.5664425407656
sg24
F32.18290364176135
sg26
F0.0
sg27
F42.31738458568654
sg29
F54.326879662954
ssS'newicktree'
p32
S'../PairsAlignemt/YeastTree.newick'
p33
sS'll'
p34
cnumpy.core.multiarray
scalar
p35
(cnumpy
dtype
p36
(S'f8'
p37
I0
I1
tp38
Rp39
(I3
S'<'
p40
NNNI-1
I-1
I0
tp41
bS'\xcd\xfe\xed\xa8\x02Z\xa2\xc0'
p42
tp43
Rp44
sS'edge_list'
p45
(lp46
g20
ag26
ag7
ag16
ag12
ag18
ag27
ag22
ag14
ag29
ag10
ag24
asS'edge_to_blen'
p47
(dp48
g20
g35
(g39
S'\x8f\r\xf8\x1dM\xfb]?'
p49
tp50
Rp51
sg10
g35
(g39
S'S]5B\x1f\x96n?'
p52
tp53
Rp54
sg12
g35
(g39
S'\x03\xc7j\x95\xe8\x13\x89?'
p55
tp56
Rp57
sg14
g35
(g39
S'm\xfbtD~\xf1\x86?'
p58
tp59
Rp60
sg16
g35
(g39
S'\xbf\xa8S%\x1e\x7f\xb2?'
p61
tp62
Rp63
sg18
g35
(g39
S'\x83\xda+\x8a\xa4x\xa1?'
p64
tp65
Rp66
sg7
g35
(g39
S'M~F\xc797\x98?'
p67
tp68
Rp69
sg22
g35
(g39
S'%\xcer\xef)\x1a\xa7?'
p70
tp71
Rp72
sg24
g35
(g39
S'In*\x1fJ\x12\x88?'
p73
tp74
Rp75
sg26
g35
(g39
S'\x04`\xac\x8b\xad\x94\xb3?'
p76
tp77
Rp78
sg27
g35
(g39
S' \x0c\x08/\x8eX{?'
p79
tp80
Rp81
sg29
g35
(g39
S'M\xa1al\x10\xb6\x91?'
p82
tp83
Rp84
ssS'paralog'
p85
(lp86
S'YER102W'
p87
aS'YBL072C'
p88
asS'alignment_file'
p89
S'../MafftAlignment/YER102W_YBL072C/YER102W_YBL072C_input.fasta'
p90
sS'x_clock'
p91
NsS'x'
p92
cnumpy.core.multiarray
_reconstruct
p93
(cnumpy
ndarray
p94
(I0
tp95
S'b'
p96
tp97
Rp98
(I1
(I17
tp99
g39
I00
S'd\xcd\x1f\xba\x92\xbd\xe8\xbf^I\xab\x96\x93\x96\xe1\xbf\xaf\x10\xcdCU\xa9\xe8\xbfi`6\xf0\x17m\x01@\x8f4\x13\xd9\xc2\x88\xd5?\x88$\xa80\xc26\x19\xc0\x85\xf1l\x1b\xa6\x90\x04\xc0\xe3x\xd8v\xac\xf4\r\xc0\r\xdew|O\x05\x05\xc0!\xc1\x94\xf2L\x9c\x11\xc0\xe15<\xe2\xaa\x05\x0b\xc0s\x86\xe2kk\t\x14\xc0\xe8\x9c\x991\x84\xc9\x08\xc0T[\x89\xc9c\xf7\x11\xc0\xac\xa6G^\xa6:\x10\xc0\xba\x11\n\xa7\x86\\\x16\xc0 &\x88.=\xc6\x11\xc0'
p100
tp101
bsS'Model'
p102
S'HKY'
p103
sS'clock'
p104
I00
s.