(dp0
S'Force'
p1
(dp2
I5
F0.0
ssS'ExpectedGeneconv'
p3
(dp4
(S'N1'
p5
S'N2'
p6
tp7
F0.0
s(S'N5'
p8
S'cerevisiae'
p9
tp10
F0.0
s(g6
S'N3'
p11
tp12
F0.0
s(S'N4'
p13
g8
tp14
F0.0
s(g5
S'castellii'
p15
tp16
F0.0
s(g6
S'bayanus'
p17
tp18
F0.0
s(S'N0'
p19
g5
tp20
F0.0
s(g11
S'kudriavzevii'
p21
tp22
F0.0
s(g8
S'paradoxus'
p23
tp24
F0.0
s(g19
S'kluyveri'
p25
tp26
F0.0
s(g11
g13
tp27
F0.0
s(g13
S'mikatae'
p28
tp29
F0.0
ssS'ExpectedDwellTime'
p30
(dp31
g7
F1212.1102869565407
sg10
F1315.5313238862716
sg12
F1308.8477932508297
sg14
F1313.5557778774003
sg16
F1238.6572585900701
sg18
F1311.6507903413901
sg20
F450.53338962148996
sg22
F1311.4322356775535
sg24
F1325.399204643566
sg26
F0.0
sg27
F1307.3736384954402
sg29
F1329.862334089407
ssS'newicktree'
p32
S'../PairsAlignemt/YeastTree.newick'
p33
sS'll'
p34
cnumpy.core.multiarray
scalar
p35
(cnumpy
dtype
p36
(S'f8'
p37
I0
I1
tp38
Rp39
(I3
S'<'
p40
NNNI-1
I-1
I0
tp41
bS'\xb1\xca\x1e\x95_A\xd5\xc0'
p42
tp43
Rp44
sS'edge_list'
p45
(lp46
g20
ag26
ag7
ag16
ag12
ag18
ag27
ag22
ag14
ag29
ag10
ag24
asS'edge_to_blen'
p47
(dp48
g7
g35
(g39
S'F\x03\xce\x8c\xf0\xf3\x06@'
p49
tp50
Rp51
sg10
g35
(g39
S'\x90\xc6u\xce\xd6\r\xca?'
p52
tp53
Rp54
sg12
g35
(g39
S'\x9e=f\xa72q\xc8?'
p55
tp56
Rp57
sg14
g35
(g39
S'\xcad[\x08\x12\xf4\xc0?'
p58
tp59
Rp60
sg16
g35
(g39
S'\xab<$\xa3C\xda\n@'
p61
tp62
Rp63
sg18
g35
(g39
S'\x8a\x91,?\xd7\x97\xd3?'
p64
tp65
Rp66
sg20
g35
(g39
S'kHZ[\xc3\x87\xd8?'
p67
tp68
Rp69
sg22
g35
(g39
S'\x9bc\xefG\xfcU\xd1?'
p70
tp71
Rp72
sg24
g35
(g39
S't\x0bj_j\x01\xc3?'
p73
tp74
Rp75
sg29
g35
(g39
S'T\xd1\xa2@4{\xd5?'
p76
tp77
Rp78
sg27
g35
(g39
S'\xca\xda:;\x99\xc9\xbd?'
p79
tp80
Rp81
sg26
g35
(g39
S'\xbb\xb9\x04Txe\t@'
p82
tp83
Rp84
ssS'paralog'
p85
(lp86
S'YIR033W'
p87
aS'YKL020C'
p88
asS'alignment_file'
p89
S'../MafftAlignment/YIR033W_YKL020C/YIR033W_YKL020C_input.fasta'
p90
sS'x_clock'
p91
NsS'x'
p92
cnumpy.core.multiarray
_reconstruct
p93
(cnumpy
ndarray
p94
(I0
tp95
S'b'
p96
tp97
Rp98
(I1
(I18
tp99
g39
I00
S'\xcd \xb3\x1aN \xe5\xbf\xd7\x8fc\xf91\x97\xdd\xbf\xa8\xbf\xffg\x7fG\xee\xbf_\xec\xf1]\xef\x1f\xef?\xa9\x06\t\x8b\xac\xa7\x03\xc0\x8f4\x13\xd9\xc2\x88\xd5?\xfec\xb9\x1f\xe8\xaf\xee\xbf~\x10\xf1\xe0\x8d{\xf2?oZ\xb8~1\xdd\xf0?+u\xae\x99\xee_\xf3?(@\x0e9\xd4}\xfa\xbf\xb5)\x1d\xccs\xf0\xf2\xbf"G=\nn5\x01\xc0\xd9\x13 \n\xce\xe5\xf4\xbf\xbc\xb1\xa7\x9e(,\x00\xc0\x16\x11fb\x9cw\xf1\xbfZ\xbb\xaf\xb9>x\xf9\xbfUR\xd2SM\x84\xfe\xbf'
p100
tp101
bsS'Model'
p102
S'MG94'
p103
sS'clock'
p104
I00
s.