(dp0
S'Force'
p1
(dp2
I4
F0.0
ssS'ExpectedGeneconv'
p3
(dp4
(S'N1'
p5
S'N2'
p6
tp7
F0.0
s(S'N5'
p8
S'cerevisiae'
p9
tp10
F0.0
s(g6
S'N3'
p11
tp12
F0.0
s(S'N4'
p13
g8
tp14
F0.0
s(g5
S'castellii'
p15
tp16
F0.0
s(g6
S'bayanus'
p17
tp18
F0.0
s(S'N0'
p19
g5
tp20
F0.0
s(g11
S'kudriavzevii'
p21
tp22
F0.0
s(g8
S'paradoxus'
p23
tp24
F0.0
s(g19
S'kluyveri'
p25
tp26
F0.0
s(g11
g13
tp27
F0.0
s(g13
S'mikatae'
p28
tp29
F0.0
ssS'ExpectedDwellTime'
p30
(dp31
g7
F709.980963242285
sg10
F983.8163287672402
sg12
F921.6888367964682
sg14
F958.6815297096753
sg16
F696.6439908069723
sg18
F926.6321771346027
sg20
F228.3317828939623
sg22
F954.2664858555167
sg24
F971.3298909623059
sg26
F0.0
sg27
F946.2163919311746
sg29
F954.1919846946237
ssS'newicktree'
p32
S'../PairsAlignemt/YeastTree.newick'
p33
sS'll'
p34
cnumpy.core.multiarray
scalar
p35
(cnumpy
dtype
p36
(S'f8'
p37
I0
I1
tp38
Rp39
(I3
S'<'
p40
NNNI-1
I-1
I0
tp41
bS'W\x1d\xe7g\xd1\xf2\xc1\xc0'
p42
tp43
Rp44
sS'edge_list'
p45
(lp46
g20
ag26
ag7
ag16
ag12
ag18
ag27
ag22
ag14
ag29
ag10
ag24
asS'edge_to_blen'
p47
(dp48
g20
g35
(g39
S'O\x92\xca4\xa2\xe0\xc0?'
p49
tp50
Rp51
sg10
g35
(g39
S"<4'\x95\xc6\xba\xb1?"
p52
tp53
Rp54
sg12
g35
(g39
S'o;\x19\xf1\x14\x8c\xa8?'
p55
tp56
Rp57
sg14
g35
(g39
S'p\xc8!\xb1*f\xa3?'
p58
tp59
Rp60
sg16
g35
(g39
S';T\x90P\xfcY\xd4?'
p61
tp62
Rp63
sg18
g35
(g39
S'\xc7\xd4\xad\x91\xb33\xb8?'
p64
tp65
Rp66
sg7
g35
(g39
S'E\xf7N\x8ak\xfd\xd3?'
p67
tp68
Rp69
sg22
g35
(g39
S'W5\xc7_\xe1U\xb2?'
p70
tp71
Rp72
sg24
g35
(g39
S'z\xd55\xc2_v\xa5?'
p73
tp74
Rp75
sg26
g35
(g39
S'\xf0\x85\x04\x99m\x04\xce?'
p76
tp77
Rp78
sg27
g35
(g39
S'3\xf8N\xc4\x0f\x0e\xa5?'
p79
tp80
Rp81
sg29
g35
(g39
S'l\xbc\xeaFy\xcc\xb2?'
p82
tp83
Rp84
ssS'paralog'
p85
(lp86
S'YDR438W'
p87
aS'YML018C'
p88
asS'alignment_file'
p89
S'../MafftAlignment/YDR438W_YML018C/YDR438W_YML018C_input.fasta'
p90
sS'x_clock'
p91
NsS'x'
p92
cnumpy.core.multiarray
_reconstruct
p93
(cnumpy
ndarray
p94
(I0
tp95
S'b'
p96
tp97
Rp98
(I1
(I17
tp99
g39
I00
S'\xbd\xc0Q\xe1h^\xe8\xbf\xc9\xfd\x88\xd2\xb7\xca\xe1\xbf.K\nB\x91\xa7\xee\xbf1R{4,\x15\xf4?\x8f4\x13\xd9\xc2\x88\xd5?o\x1b\x15\xe5Y5\x00\xc0*\x0f\x0e!@4\xf7\xbf\x873E\x86T\x9e\xf2\xbf\x96\xb7\x0e\x0c\xe7T\xf2\xbfE\xbdB\xd7CM\x08\xc0\x0c5\xbc\x1b\xb5\xde\x02\xc0q\x0e\x9d\x9c\x8e\x87\t\xc0\xa5\xbd\xe9l9\x17\x05\xc0y!9GN/\n\xc0|#\x97\x95\x1f\xe4\x04\xc0\xb6\x0f\x86\xb5\n\\\x05\xc0\xbf]."M`\t\xc0'
p100
tp101
bsS'Model'
p102
S'HKY'
p103
sS'clock'
p104
I00
s.