(dp0
S'Force'
p1
(dp2
I5
F0.0
ssS'ExpectedGeneconv'
p3
(dp4
(S'N1'
p5
S'N2'
p6
tp7
F0.0
s(S'N5'
p8
S'cerevisiae'
p9
tp10
F0.0
s(g6
S'N3'
p11
tp12
F0.0
s(S'N4'
p13
g8
tp14
F0.0
s(g5
S'castellii'
p15
tp16
F0.0
s(g6
S'bayanus'
p17
tp18
F0.0
s(S'N0'
p19
g5
tp20
F0.0
s(g11
S'kudriavzevii'
p21
tp22
F0.0
s(g8
S'paradoxus'
p23
tp24
F0.0
s(g19
S'kluyveri'
p25
tp26
F0.0
s(g11
g13
tp27
F0.0
s(g13
S'mikatae'
p28
tp29
F0.0
ssS'ExpectedDwellTime'
p30
(dp31
g7
F1461.4183844561426
sg10
F1665.1754506139046
sg12
F1620.7223323579785
sg14
F1649.6083121466802
sg16
F1454.0485439277068
sg18
F1626.0274484750773
sg20
F727.3054943127357
sg22
F1647.5996393554176
sg24
F1666.8598384496481
sg26
F0.0
sg27
F1638.1789743017885
sg29
F1644.3966805892094
ssS'newicktree'
p32
S'../PairsAlignemt/YeastTree.newick'
p33
sS'll'
p34
cnumpy.core.multiarray
scalar
p35
(cnumpy
dtype
p36
(S'f8'
p37
I0
I1
tp38
Rp39
(I3
S'<'
p40
NNNI-1
I-1
I0
tp41
bS'[\x13\x93+4\x9b\xdb\xc0'
p42
tp43
Rp44
sS'edge_list'
p45
(lp46
g20
ag26
ag7
ag16
ag12
ag18
ag27
ag22
ag14
ag29
ag10
ag24
asS'edge_to_blen'
p47
(dp48
g20
g35
(g39
S'\xcc\x94\xe36?K\xe4?'
p49
tp50
Rp51
sg10
g35
(g39
S'\x19\xf0\xc3b\xec\xdc\xd4?'
p52
tp53
Rp54
sg12
g35
(g39
S'\xe5C\x019\xdb\xef\xc8?'
p55
tp56
Rp57
sg14
g35
(g39
S'\xceU0ruA\xc2?'
p58
tp59
Rp60
sg16
g35
(g39
S'\xd4\xaaZ\xaedq\xfd?'
p61
tp62
Rp63
sg18
g35
(g39
S'\xa7\xbd\xb9\x05mC\xda?'
p64
tp65
Rp66
sg7
g35
(g39
S'\x11\x9f\xfe\xd3Y\xeb\xf8?'
p67
tp68
Rp69
sg22
g35
(g39
S'\xcf)/\xf2\x8en\xdb?'
p70
tp71
Rp72
sg24
g35
(g39
S'@\x0b\xad\x9c\xa5\xd8\xc8?'
p73
tp74
Rp75
sg29
g35
(g39
S'\xb4{Z^}\x0e\xdc?'
p76
tp77
Rp78
sg27
g35
(g39
S'\x07\x84\xff6;H\xc8?'
p79
tp80
Rp81
sg26
g35
(g39
S'\\C\xbe\xab\xd2\xf8\xf6?'
p82
tp83
Rp84
ssS'paralog'
p85
(lp86
S'YGL133W'
p87
aS'YPL216W'
p88
asS'alignment_file'
p89
S'../MafftAlignment/YGL133W_YPL216W/YGL133W_YPL216W_input.fasta'
p90
sS'x_clock'
p91
NsS'x'
p92
cnumpy.core.multiarray
_reconstruct
p93
(cnumpy
ndarray
p94
(I0
tp95
S'b'
p96
tp97
Rp98
(I1
(I18
tp99
g39
I00
S"\x1e\xbau\xc8!h\xe3\xbfU\x1d\xa2\x05\x89\x82\xdb\xbf\x13\xd0&\xce\xaeG\xf0\xbf\xd1HL\xc2\x80\xf7\xef?\xbaf\xf4%\\\xa0\xfa\xbf\x8f4\x13\xd9\xc2\x88\xd5?[\x85\xf5d\x80%\xdd\xbf\xf4\xd6\xfeF\xdc%\xd7?T\x9d7M\x05[\xdc?;$\xfc\xaf\x04\x84\xe3?\xb1\xb7;\xde\xbe+\xfa\xbf5z)\xda\xac\x80\xec\xbf\xb4'\xc7\xef\xbb\x98\xfa\xbf\xe5O_P\x14\x1c\xeb\xbf\x82GTT-)\xff\xbf\xb3\xe7\xab\x9f\x9bc\xea\xbf\x99n:\xdb;\xef\xf1\xbf\xa5*\xdb\x0f\xaa:\xfa\xbf"
p100
tp101
bsS'Model'
p102
S'MG94'
p103
sS'clock'
p104
I00
s.