(dp0
S'Force'
p1
(dp2
I4
F0.0
ssS'ExpectedGeneconv'
p3
(dp4
(S'N1'
p5
S'N2'
p6
tp7
F0.0
s(S'N5'
p8
S'cerevisiae'
p9
tp10
F0.0
s(g6
S'N3'
p11
tp12
F0.0
s(S'N4'
p13
g8
tp14
F0.0
s(g5
S'castellii'
p15
tp16
F0.0
s(g6
S'bayanus'
p17
tp18
F0.0
s(S'N0'
p19
g5
tp20
F0.0
s(g11
S'kudriavzevii'
p21
tp22
F0.0
s(g8
S'paradoxus'
p23
tp24
F0.0
s(g19
S'kluyveri'
p25
tp26
F0.0
s(g11
g13
tp27
F0.0
s(g13
S'mikatae'
p28
tp29
F0.0
ssS'ExpectedDwellTime'
p30
(dp31
g7
F595.5446518048402
sg10
F1203.1136046080412
sg12
F1026.623534652901
sg14
F1148.0209786834203
sg16
F743.9613656866521
sg18
F1069.1927049247665
sg20
F64.40578598342695
sg22
F1152.7816609754848
sg24
F1164.2991882802753
sg26
F0.0
sg27
F1114.2783108893527
sg29
F1176.2628150180958
ssS'newicktree'
p32
S'../PairsAlignemt/YeastTree.newick'
p33
sS'll'
p34
cnumpy.core.multiarray
scalar
p35
(cnumpy
dtype
p36
(S'f8'
p37
I0
I1
tp38
Rp39
(I3
S'<'
p40
NNNI-1
I-1
I0
tp41
bS'\xbf\xde\xa8\xab\x0b\x81\xcf\xc0'
p42
tp43
Rp44
sS'edge_list'
p45
(lp46
g20
ag26
ag7
ag16
ag12
ag18
ag27
ag22
ag14
ag29
ag10
ag24
asS'edge_to_blen'
p47
(dp48
g20
g35
(g39
S'0\x0f|\xbav\xe9\x90?'
p49
tp50
Rp51
sg10
g35
(g39
S'\x1f\\\xa7\x81\x06 \xaa?'
p52
tp53
Rp54
sg12
g35
(g39
S'i\x85B\xb4\xbc\xa8\xa4?'
p55
tp56
Rp57
sg14
g35
(g39
S'\xc6$\xa2TC\x8b\x9c?'
p58
tp59
Rp60
sg16
g35
(g39
S'\xe6\x92\x07\x91}\x03\xcd?'
p61
tp62
Rp63
sg18
g35
(g39
S'o\t\xfe#a\xb9\xb3?'
p64
tp65
Rp66
sg7
g35
(g39
S'P\xee\xac\xd3\x95\xf1\xc3?'
p67
tp68
Rp69
sg22
g35
(g39
S'l.\\\xf5\x97\xea\xb2?'
p70
tp71
Rp72
sg24
g35
(g39
S'xw\x9b\x88\xf60\xa3?'
p73
tp74
Rp75
sg26
g35
(g39
S'\x92\x03\xc9r\xff\xb5\xd3?'
p76
tp77
Rp78
sg27
g35
(g39
S'*\xe4\x1c\xe2\x9f\xdc\x9c?'
p79
tp80
Rp81
sg29
g35
(g39
S'`\x97\ti\xa1\x07\xb4?'
p82
tp83
Rp84
ssS'paralog'
p85
(lp86
S'YPR159W'
p87
aS'YGR143W'
p88
asS'alignment_file'
p89
S'../MafftAlignment/YPR159W_YGR143W/YPR159W_YGR143W_input.fasta'
p90
sS'x_clock'
p91
NsS'x'
p92
cnumpy.core.multiarray
_reconstruct
p93
(cnumpy
ndarray
p94
(I0
tp95
S'b'
p96
tp97
Rp98
(I1
(I17
tp99
g39
I00
S'+\x03\x03fg\x07\xe8\xbf8HAL\x16~\xe0\xbf\\\x00\x94\xb9\x87\xd9\xe9\xbf1i\x8c^\xa7F\xf4?\x8f4\x13\xd9\xc2\x88\xd5?k\x0be\xde\xeei\x10\xc0\xc9h\x16B\xe6\xd7\xf2\xbfg{\xd5\xd2\xf1\xbe\xfd\xbfB[\xe7\x01\x8c\xbf\xf7\xbf\xda@\xbf1l\xae\t\xc0 +\xb9c\xb5\x81\x04\xc0o\xe5o\xe76\x8d\x0c\xc0c\xda^rX\xd7\x04\xc0i\xdbw>\xe4\xa3\x0c\xc0~\xc61\xba6b\x04\xc03\x82\\A\xad\xcd\x07\xc0V\xea\xebg]E\n\xc0'
p100
tp101
bsS'Model'
p102
S'HKY'
p103
sS'clock'
p104
I00
s.