(dp0
S'Force'
p1
(dp2
I4
F0.0
ssS'ExpectedGeneconv'
p3
(dp4
(S'N1'
p5
S'N2'
p6
tp7
F0.0
s(S'N5'
p8
S'cerevisiae'
p9
tp10
F0.0
s(g6
S'N3'
p11
tp12
F0.0
s(S'N4'
p13
g8
tp14
F0.0
s(g5
S'castellii'
p15
tp16
F0.0
s(g6
S'bayanus'
p17
tp18
F0.0
s(S'N0'
p19
g5
tp20
F0.0
s(g11
S'kudriavzevii'
p21
tp22
F0.0
s(g8
S'paradoxus'
p23
tp24
F0.0
s(g19
S'kluyveri'
p25
tp26
F0.0
s(g11
g13
tp27
F0.0
s(g13
S'mikatae'
p28
tp29
F0.0
ssS'ExpectedDwellTime'
p30
(dp31
g7
F1097.1243037315871
sg10
F1826.9159160410113
sg12
F1628.5653401731638
sg14
F1772.2025359904012
sg16
F1382.48010654108
sg18
F1673.7100143806513
sg20
F242.71972556012417
sg22
F1753.849776963931
sg24
F1813.9933822827202
sg26
F0.0
sg27
F1706.5376158149381
sg29
F1774.3576184536957
ssS'newicktree'
p32
S'../PairsAlignemt/YeastTree.newick'
p33
sS'll'
p34
cnumpy.core.multiarray
scalar
p35
(cnumpy
dtype
p36
(S'f8'
p37
I0
I1
tp38
Rp39
(I3
S'<'
p40
NNNI-1
I-1
I0
tp41
bS'\xda\x1d\xab\xff\n\xa3\xd4\xc0'
p42
tp43
Rp44
sS'edge_list'
p45
(lp46
g20
ag26
ag7
ag16
ag12
ag18
ag27
ag22
ag14
ag29
ag10
ag24
asS'edge_to_blen'
p47
(dp48
g20
g35
(g39
S'\x16\xff\x11\xc3\x1aY\xaa?'
p49
tp50
Rp51
sg10
g35
(g39
S',\x18\xe7r\xf3E\xad?'
p52
tp53
Rp54
sg12
g35
(g39
S'{\\\\d=j\xa0?'
p55
tp56
Rp57
sg14
g35
(g39
S'Ap\xb2\x07\xce6\xa1?'
p58
tp59
Rp60
sg22
g35
(g39
S'oP\xc7\xbcK\x1e\xb3?'
p61
tp62
Rp63
sg18
g35
(g39
S'Y\xf1 %}H\xb1?'
p64
tp65
Rp66
sg7
g35
(g39
S'0\x0bo\x19Z\x1c\xc8?'
p67
tp68
Rp69
sg16
g35
(g39
S'F\xf6\x03\x0b\x91\x8e\xd4?'
p70
tp71
Rp72
sg24
g35
(g39
S'\x85\xb42\xd5\x93.\xa3?'
p73
tp74
Rp75
sg26
g35
(g39
S'\xd5\xba\xee\x7f\xd3\xc3\xcd?'
p76
tp77
Rp78
sg27
g35
(g39
S'\xccA\xc4<&\x93\xa5?'
p79
tp80
Rp81
sg29
g35
(g39
S'\xe5;s\xe9\xd6\xb7\xb2?'
p82
tp83
Rp84
ssS'paralog'
p85
(lp86
S'YNL049C'
p87
aS'YIL109C'
p88
asS'alignment_file'
p89
S'../MafftAlignment/YNL049C_YIL109C/YNL049C_YIL109C_input.fasta'
p90
sS'x_clock'
p91
NsS'x'
p92
cnumpy.core.multiarray
_reconstruct
p93
(cnumpy
ndarray
p94
(I0
tp95
S'b'
p96
tp97
Rp98
(I1
(I17
tp99
g39
I00
S'\xae\xf8Ne\xad~\xe7\xbf\xb9W\xdd\x1c\x81e\xde\xbf\xddpp_\x1dJ\xeb\xbfz\x87\xa8\xe2)\xda\xf4?\x8f4\x13\xd9\xc2\x88\xd5?\x9b\x9a1\xb1E\xbc\x07\xc0\xda:\xed\xa0\xd4V\xf7\xbfm\xb4\xf7\xe8\xbf\xb5\xfa\xbf9\xder\x80\xc5+\xf2\xbf\x19\xbfUjb\x85\x0b\xc0\xbf\n\x18dE\x90\x05\xc0\x9eQ3{\x9aU\t\xc0\xbb\x99\xd4\x85\x98\xc1\x04\xc0\xaa>\xa1\xd7\t$\x0b\xc0F\x86~b\xec\xec\x04\xc0<\xc48\x16\xa9\xe4\x06\xc0\xcdl\xd4\n\\F\n\xc0'
p100
tp101
bsS'Model'
p102
S'HKY'
p103
sS'clock'
p104
I00
s.