(dp0
S'Force'
p1
NsS'ExpectedGeneconv'
p2
(dp3
(S'N1'
p4
S'N2'
p5
tp6
(lp7
F95.82376097503804
aF94.46459238379734
as(S'N5'
p8
S'cerevisiae'
p9
tp10
(lp11
F52.90174253871504
aF68.29026875077857
as(g5
S'N3'
p12
tp13
(lp14
F43.49057736763873
aF44.78401032986328
as(S'N4'
p15
g8
tp16
(lp17
F30.49731523964545
aF29.34099489775231
as(g4
S'castellii'
p18
tp19
(lp20
F302.8923806334421
aF302.3383022475179
as(g5
S'bayanus'
p21
tp22
(lp23
F60.00537456902911
aF59.950459825890945
as(S'N0'
p24
g4
tp25
(lp26
F8.75322519643273
aF8.658458081521891
as(g12
S'kudriavzevii'
p27
tp28
(lp29
F68.49273128801799
aF69.64552150961589
as(g8
S'paradoxus'
p30
tp31
(lp32
F29.680593911061713
aF34.5391797715012
as(g24
S'kluyveri'
p33
tp34
(lp35
F0.0
aF0.0
as(g12
g15
tp36
(lp37
F42.55442328595584
aF44.83818633559292
as(g15
S'mikatae'
p38
tp39
(lp40
F77.98171221891351
aF83.87598553215825
assS'ExpectedDwellTime'
p41
(dp42
g6
F602.3912917907494
sg10
F850.2681133970942
sg13
F780.3085368917214
sg16
F867.789173362031
sg19
F792.0488419526008
sg22
F774.4547828692147
sg25
F188.05663766166805
sg28
F876.7826868078312
sg31
F903.5801442144876
sg34
F0.0
sg36
F838.2037229175705
sg39
F898.1285709778228
ssS'newicktree'
p43
S'../PairsAlignemt/YeastTree.newick'
p44
sS'll'
p45
cnumpy.core.multiarray
scalar
p46
(cnumpy
dtype
p47
(S'f8'
p48
I0
I1
tp49
Rp50
(I3
S'<'
p51
NNNI-1
I-1
I0
tp52
bS'\x00w\xcdK4b\xd2\xc0'
p53
tp54
Rp55
sS'edge_list'
p56
(lp57
g25
ag34
ag6
ag19
ag13
ag22
ag36
ag28
ag16
ag39
ag10
ag31
asS'edge_to_blen'
p58
(dp59
g6
g46
(g50
S'op4\xc5h\xb4\xd4?'
p60
tp61
Rp62
sg10
g46
(g50
S'N{\xf3V\x06\x04\xc2?'
p63
tp64
Rp65
sg13
g46
(g50
S'a\xed\xb5\xf8\xdfb\xbf?'
p66
tp67
Rp68
sg16
g46
(g50
S'\xb5\xbf\x02\xeb#\xb2\xb3?'
p69
tp70
Rp71
sg28
g46
(g50
S'\xfb\xc9pE(\xad\xc9?'
p72
tp73
Rp74
sg22
g46
(g50
S'\x06\x19\xa3.\xdf\x02\xc6?'
p75
tp76
Rp77
sg25
g46
(g50
S'\xdbR\xbd\xb1w\x17\xb9?'
p78
tp79
Rp80
sg19
g46
(g50
S',\xd8XNr\xe1\xeb?'
p81
tp82
Rp83
sg31
g46
(g50
S'\xd2okD\x00\x1c\xb8?'
p84
tp85
Rp86
sg34
g46
(g50
S'\x15\xc4\x18\x99\x05\x02\xec?'
p87
tp88
Rp89
sg36
g46
(g50
S'{\xc21\x917\xc5\xbc?'
p90
tp91
Rp92
sg39
g46
(g50
S'\xfe\x9a\x98lV;\xcb?'
p93
tp94
Rp95
ssS'paralog'
p96
(lp97
S'YGL062W'
p98
aS'YBR218C'
p99
asS'alignment_file'
p100
S'../MafftAlignment/YGL062W_YBR218C/YGL062W_YBR218C_input.fasta'
p101
sS'x_clock'
p102
NsS'x'
p103
cnumpy.core.multiarray
_reconstruct
p104
(cnumpy
ndarray
p105
(I0
tp106
S'b'
p107
tp108
Rp109
(I1
(I20
tp110
g50
I00
S"\xed\xac7\xb0\xba~\xe7\xbf\x1d\x82SZQ>\xe2\xbf\xab|?\xa8\x190\xeb\xbf2\xcf\xe4\xaa\xa0\x15\xf4?\xa3\xe9\xe2oq\xa0\x08\xc0\x93\xce.QX\x95\xa3\xbf+\x8cR\xa4D\x01\xac\xbfv\x88~{\xd4J\xf7\xbf\x11\x05\xd2\x13\xc5\x94\x02\xc0\x11\x03\xfc\xadP\x0e\xc1\xbf\x1d\x07NBl\x0e\xf2\xbf\xe4\xd2\x0b?\x87\xa3\xc1\xbf\x8d{\xa7\xf1[\xca\x00\xc0s\x16E\x03\xeb*\xfc\xbf\xf2\xe6\x86\x02\x95|\x01\xc0\x14Xnu\r\xb4\xf9\xbf\xa1\x96\xe7\x95\xa5\x84\x04\xc0u(\t\xbc'\xc3\xf8\xbf\xe3\xa5f\x92`_\xff\xbf\xa4\xb4\xe7\x82\x8e\xe6\x02\xc0"
p111
tp112
bsS'Model'
p113
S'MG94'
p114
sS'clock'
p115
I00
s.