(dp0
S'Force'
p1
NsS'ExpectedGeneconv'
p2
(dp3
(S'N1'
p4
S'N2'
p5
tp6
(lp7
F0.16375133032786574
aF30.86363870523563
as(S'N5'
p8
S'cerevisiae'
p9
tp10
(lp11
F0.012571785509771649
aF0.5514599379079211
as(g5
S'N3'
p12
tp13
(lp14
F0.009840933306505317
aF1.460277917635065
as(S'N4'
p15
g8
tp16
(lp17
F0.006844068373761266
aF0.9423670892639889
as(g4
S'castellii'
p18
tp19
(lp20
F0.1783501201203103
aF31.328524337506554
as(g5
S'bayanus'
p21
tp22
(lp23
F0.04272385257934094
aF1.9339791201858467
as(S'N0'
p24
g4
tp25
(lp26
F0.005326001907732765
aF0.18640483057535986
as(g12
S'kudriavzevii'
p27
tp28
(lp29
F0.010791345587704362
aF1.1943214528040407
as(g8
S'paradoxus'
p30
tp31
(lp32
F0.014295575515940224
aF0.2674031233431405
as(g24
S'kluyveri'
p33
tp34
(lp35
F0.0
aF0.0
as(g12
g15
tp36
(lp37
F0.011878139878516849
aF1.509846155240579
as(g15
S'mikatae'
p38
tp39
(lp40
F0.020834718878914353
aF1.0847591108633607
assS'ExpectedDwellTime'
p41
(dp42
g6
F678.3903664007432
sg10
F821.617041080092
sg13
F818.3691533747095
sg16
F826.1088725823291
sg19
F647.2659664409247
sg22
F808.1213511534863
sg25
F170.05381046950305
sg28
F821.8008574729424
sg31
F827.9979880094552
sg34
F0.0
sg36
F824.2836762906188
sg39
F816.2048230835095
ssS'newicktree'
p43
S'../PairsAlignemt/YeastTree.newick'
p44
sS'll'
p45
cnumpy.core.multiarray
scalar
p46
(cnumpy
dtype
p47
(S'f8'
p48
I0
I1
tp49
Rp50
(I3
S'<'
p51
NNNI-1
I-1
I0
tp52
bS'\xb3M\xb0\xa5\x97\xac\xc8\xc0'
p53
tp54
Rp55
sS'edge_list'
p56
(lp57
g25
ag34
ag6
ag19
ag13
ag22
ag36
ag28
ag16
ag39
ag10
ag31
asS'edge_to_blen'
p58
(dp59
g6
g46
(g50
S'\xf5\x95\xda\x84<\xac\x05@'
p60
tp61
Rp62
sg10
g46
(g50
S'j\t4\x04\x1aC\xc5?'
p63
tp64
Rp65
sg13
g46
(g50
S'\xcb<\xae\x94\xc6\x11\xc2?'
p66
tp67
Rp68
sg16
g46
(g50
S'\xf7\x0bsB\xc5[\xba?'
p69
tp70
Rp71
sg19
g46
(g50
S'\x00\xbd\xdc\xf6\xa4\x1b\x03@'
p72
tp73
Rp74
sg22
g46
(g50
S'\xc9\xc0\xf4\xc7)\xbb\xd3?'
p75
tp76
Rp77
sg25
g46
(g50
S'?|\xed\xa2}u\xcc?'
p78
tp79
Rp80
sg28
g46
(g50
S'\x1b\xfcw\xff\x14\x98\xd0?'
p81
tp82
Rp83
sg31
g46
(g50
S'\xc3X\xd5\xc2\xbf\xa8\xc1?'
p84
tp85
Rp86
sg34
g46
(g50
S'H\x14\xef/\x14\xc6\xf8?'
p87
tp88
Rp89
sg36
g46
(g50
S'\xe9^x\xcb\xe0\xb5\xc0?'
p90
tp91
Rp92
sg39
g46
(g50
S'\xe3\xe6\x0c\x1d/\xcc\xd0?'
p93
tp94
Rp95
ssS'paralog'
p96
(lp97
S'YDR518W'
p98
aS'YCL043C'
p99
asS'alignment_file'
p100
S'../MafftAlignment/YDR518W_YCL043C/YDR518W_YCL043C_input.fasta'
p101
sS'x_clock'
p102
NsS'x'
p103
cnumpy.core.multiarray
_reconstruct
p104
(cnumpy
ndarray
p105
(I0
tp106
S'b'
p107
tp108
Rp109
(I1
(I20
tp110
g50
I00
S'\xbd\x18\xba\xd1\x93\xce\xe7\xbf5\x84t\xb3{\x98\xe1\xbfQ\xaf\xcf\x8ak\x8a\xe6\xbf\xa6D\x90\xce\xeee\xed?\xca\xaa\xc2G\xd8k\x01\xc0\x1d\xa5\xb2\x99M\xa4 \xc0\x1e$\xee\x0cJK\xf0\xbf\xbc\xce\xf4]$z\x05\xc0i\xce\x19\xed\x9c\x0e\xf8\xbf\xc0\x82N\xc4\x03\xfb\xdb?\xc5\x96\x1c\x16H\xe4\xef?\xbf\x1d\xefu|\xdc\xeb?{\xa7\xcc\xd9.S\xff\xbf\x14_Fm\xb5\xd3\xf2\xbf\x16[\x16\xe9\xb7I\x00\xc0\xa4\x18\xd6^\xef\x98\xf5\xbf\x1eeM\xc2\xe5/\x02\xc0GN=\xfd\x00g\xf5\xbf\xa4\xa1 R\xbe\xb8\xfc\xbfQ\r\xf7\xd6@\xb1\xff\xbf'
p111
tp112
bsS'Model'
p113
S'MG94'
p114
sS'clock'
p115
I00
s.