(dp0
S'Force'
p1
NsS'ExpectedGeneconv'
p2
(dp3
(S'N1'
p4
S'N2'
p5
tp6
(lp7
F118.27657961503354
aF136.77221890009884
as(S'N5'
p8
S'cerevisiae'
p9
tp10
(lp11
F5.427383624117104
aF5.127086892502832
as(g5
S'N3'
p12
tp13
(lp14
F5.785037726100709
aF6.5554608093326685
as(S'N4'
p15
g8
tp16
(lp17
F4.313156409319596
aF3.0066039422155253
as(g4
S'castellii'
p18
tp19
(lp20
F132.97562861017752
aF152.03440000305037
as(g5
S'bayanus'
p21
tp22
(lp23
F8.717181760849085
aF7.848020232441064
as(S'N0'
p24
g4
tp25
(lp26
F20.727509822820675
aF24.367722185642208
as(g12
S'kudriavzevii'
p27
tp28
(lp29
F8.451878995052368
aF6.691674686152647
as(g8
S'paradoxus'
p30
tp31
(lp32
F4.487076209992985
aF2.565164761178138
as(g24
S'kluyveri'
p33
tp34
(lp35
F0.0
aF0.0
as(g12
g15
tp36
(lp37
F3.0735965090890662
aF2.7910836071107092
as(g15
S'mikatae'
p38
tp39
(lp40
F9.614859443165797
aF6.745081133298693
assS'ExpectedDwellTime'
p41
(dp42
g6
F1203.9345114730272
sg10
F1315.5621331767175
sg13
F1302.3551250969028
sg16
F1315.284218092921
sg19
F1224.7812036645646
sg22
F1303.8803155272456
sg25
F621.8540539473988
sg28
F1309.1280619071017
sg31
F1326.1043838004987
sg34
F0.0
sg36
F1307.745267880132
sg39
F1327.6627058025483
ssS'newicktree'
p43
S'../PairsAlignemt/YeastTree.newick'
p44
sS'll'
p45
cnumpy.core.multiarray
scalar
p46
(cnumpy
dtype
p47
(S'f8'
p48
I0
I1
tp49
Rp50
(I3
S'<'
p51
NNNI-1
I-1
I0
tp52
bS'\xe1I\x11&\xcd4\xd5\xc0'
p53
tp54
Rp55
sS'edge_list'
p56
(lp57
g25
ag34
ag6
ag19
ag13
ag22
ag36
ag28
ag16
ag39
ag10
ag31
asS'edge_to_blen'
p58
(dp59
g6
g46
(g50
S'5\x0cY4\x00u\x08@'
p60
tp61
Rp62
sg10
g46
(g50
S'\xf2I\x18s\xecQ\xc9?'
p63
tp64
Rp65
sg13
g46
(g50
S'\xb1\x92\xee\x8f\xbf\x96\xc8?'
p66
tp67
Rp68
sg16
g46
(g50
S'\xfd\x12\x1dV\r\x7f\xc0?'
p69
tp70
Rp71
sg19
g46
(g50
S'm\x04\x87H2\xc2\x0b@'
p72
tp73
Rp74
sg22
g46
(g50
S'5\xb8\x82\x19\xb7\x97\xd2?'
p75
tp76
Rp77
sg25
g46
(g50
S'Jl@\x11\x8a\xcc\xe5?'
p78
tp79
Rp80
sg28
g46
(g50
S'\xa5\xd7\xffv$\xd8\xd0?'
p81
tp82
Rp83
sg31
g46
(g50
S'\x8a\xc2\xbe\xf2\x8a:\xc2?'
p84
tp85
Rp86
sg34
g46
(g50
S'\x0em.\xb7\x86?\x07@'
p87
tp88
Rp89
sg36
g46
(g50
S'4\xe1\xb9n\x1aG\xbd?'
p90
tp91
Rp92
sg39
g46
(g50
S'\x94\x0f\xcdtW\xd1\xd4?'
p93
tp94
Rp95
ssS'paralog'
p96
(lp97
S'YIR033W'
p98
aS'YKL020C'
p99
asS'alignment_file'
p100
S'../MafftAlignment/YIR033W_YKL020C/YIR033W_YKL020C_input.fasta'
p101
sS'x_clock'
p102
NsS'x'
p103
cnumpy.core.multiarray
_reconstruct
p104
(cnumpy
ndarray
p105
(I0
tp106
S'b'
p107
tp108
Rp109
(I1
(I20
tp110
g50
I00
S'\x94\x87\r\xfa\x91<\xe5\xbf\xbb\xca\xc0=\x15S\xdf\xbf\xe5\xc0\x84l=\x98\xec\xbf\xecC\xff\x9d\x01\xda\xee?kn\x1b\xe7-\xe5\x03\xc0\xe4\xf5^W!\x93\x12\xc0\xc61\x9d\x15\x14\xbe\x10\xc0>\x98X\xbfS\xbc?\xc0\x11Y\x1c\x90^\x91\xd8\xbf\xcdB\x96\x16\x8c\x11\xf1?\xa6\xc0"\xde.\xe1\xf1?\x0b\x1c\xe8\xff\xd8\xe7\xf3?\x05\nX\\Re\xfa\xbf\x87\xdb\xec\x0b#\xc7\xf3\xbf\x82\x94\x90\xba\xc7X\x01\xc02o\xc0\x0b\xa1[\xf5\xbfy\xdf3\xb4"d\x00\xc0\x92\x83\xbe\' \xf8\xf1\xbf=\x12\xb7\\M\xed\xf9\xbf\xd7\x12#6>/\xff\xbf'
p111
tp112
bsS'Model'
p113
S'MG94'
p114
sS'clock'
p115
I00
s.