(dp0
S'Force'
p1
NsS'ExpectedGeneconv'
p2
(dp3
(S'N1'
p4
S'N2'
p5
tp6
F99.03486686705325
s(S'N5'
p7
S'cerevisiae'
p8
tp9
F34.795021400972786
s(g5
S'N3'
p10
tp11
F23.660054950565193
s(S'N4'
p12
g7
tp13
F17.02398806730012
s(g4
S'castellii'
p14
tp15
F149.87133246052358
s(g5
S'bayanus'
p16
tp17
F32.22600567045321
s(S'N0'
p18
g4
tp19
F24.96467647722729
s(g10
S'kudriavzevii'
p20
tp21
F43.01459714693696
s(g7
S'paradoxus'
p22
tp23
F16.799159941806284
s(g18
S'kluyveri'
p24
tp25
F0.0
s(g10
g12
tp26
F21.661467060298154
s(g12
S'mikatae'
p27
tp28
F45.37341601557267
ssS'ExpectedDwellTime'
p29
(dp30
g6
F2281.0387082012576
sg9
F3040.1413966268465
sg11
F2863.2195380289427
sg13
F2988.8011853072785
sg15
F2343.9654195772055
sg17
F2914.9836888471455
sg19
F855.3484718347912
sg21
F2982.945530605488
sg23
F3047.912688996966
sg25
F0.0
sg26
F2943.4652601990774
sg28
F3017.4623544211818
ssS'newicktree'
p31
S'../PairsAlignemt/YeastTree.newick'
p32
sS'll'
p33
cnumpy.core.multiarray
scalar
p34
(cnumpy
dtype
p35
(S'f8'
p36
I0
I1
tp37
Rp38
(I3
S'<'
p39
NNNI-1
I-1
I0
tp40
bS'\x9c\xa19l\xc5;\xdd\xc0'
p41
tp42
Rp43
sS'edge_list'
p44
(lp45
g19
ag25
ag6
ag15
ag11
ag17
ag26
ag21
ag13
ag28
ag9
ag23
asS'edge_to_blen'
p46
(dp47
g19
g34
(g38
S'\x0b+TPTe\xc7?'
p48
tp49
Rp50
sg9
g34
(g38
S'U\xde.\xf1\xa4?\xb7?'
p51
tp52
Rp53
sg11
g34
(g38
S'\xd4i\xfb\xa1n\x1d\xb0?'
p54
tp55
Rp56
sg13
g34
(g38
S'd\x9eg\xd1\xb2u\xa4?'
p57
tp58
Rp59
sg15
g34
(g38
S'v"\x90&\xae\x90\xd9?'
p60
tp61
Rp62
sg17
g34
(g38
S'w\xafx[\xae\xef\xb8?'
p63
tp64
Rp65
sg6
g34
(g38
S'\xe6\xe8x\xc5YN\xd4?'
p66
tp67
Rp68
sg21
g34
(g38
S'\xea\xd6\x9a\xbbB\xe2\xbd?'
p69
tp70
Rp71
sg23
g34
(g38
S'\xea\xc81j\x96\xec\xac?'
p72
tp73
Rp74
sg25
g34
(g38
S'`;P~\xf4\xd1\xd1?'
p75
tp76
Rp77
sg26
g34
(g38
S'\xac\xd0yJ\x18\x19\xaa?'
p78
tp79
Rp80
sg28
g34
(g38
S'\nH\x94\xa4\x9b\xbb\xbe?'
p81
tp82
Rp83
ssS'paralog'
p84
(lp85
S'YGL133W'
p86
aS'YPL216W'
p87
asS'alignment_file'
p88
S'../MafftAlignment/YGL133W_YPL216W/YGL133W_YPL216W_input.fasta'
p89
sS'x_clock'
p90
NsS'x'
p91
cnumpy.core.multiarray
_reconstruct
p92
(cnumpy
ndarray
p93
(I0
tp94
S'b'
p95
tp96
Rp97
(I1
(I18
tp98
g38
I00
S'e\x10\x95z\xc90\xe4\xbf\x15\x96K\x97\xc1N\xde\xbf\x02\x17\xbe\xdc\x88\xc9\xeb\xbf\xdd\x88\xdd\x81q\xa9\xf3?wA\x19>\x95\x0f\x0f\xc0\xc1u\xab\xa2\xea\x182\xc0T\xf0\xb2\x95\n1\xfb\xbf\x1f!\x03\x04\xf5t\xf4\xbf\x14\x1a:X\x0f^\xf2\xbfB\xb2b2i]\xed\xbf\x1e\r|&\x99\x1f\x06\xc0\xdc\xa0\x93\x93~\xa1\x02\xc0X\xb3\xdc\xd5\xcc\xcf\x07\xc0\xfa\xfb**\xd1.\x01\xc0\x8f\r\xb8_H\xc2\t\xc0\x9dCu\x93q\xf5\x00\xc0K^\xb4L\x031\x03\xc0Wa\x12\xa9:\xfd\x06\xc0'
p99
tp100
bsS'Model'
p101
S'HKY'
p102
sS'clock'
p103
I00
s.