(dp0
S'Force'
p1
NsS'ExpectedGeneconv'
p2
(dp3
(S'N1'
p4
S'N2'
p5
tp6
(lp7
F1.8856513927167966
aF11.950176915889944
as(S'N5'
p8
S'cerevisiae'
p9
tp10
(lp11
F0.5130609610588454
aF4.265124318220117
as(g5
S'N3'
p12
tp13
(lp14
F0.19991635017471557
aF3.612917188895144
as(S'N4'
p15
g8
tp16
(lp17
F0.011733849294664997
aF2.6690279255049143
as(g4
S'castellii'
p18
tp19
(lp20
F1.487117887245588
aF10.760808954964109
as(g5
S'bayanus'
p21
tp22
(lp23
F0.5338895638737815
aF8.136133024550821
as(S'N0'
p24
g4
tp25
(lp26
F0.6093071077381665
aF5.129224189084569
as(g12
S'kudriavzevii'
p27
tp28
(lp29
F0.811888900395407
aF3.4048944182929275
as(g8
S'paradoxus'
p30
tp31
(lp32
F0.045413473652394495
aF6.635387850080286
as(g24
S'kluyveri'
p33
tp34
(lp35
F0.0
aF0.0
as(g12
g15
tp36
(lp37
F0.0625013619652183
aF1.5715155335044235
as(g15
S'mikatae'
p38
tp39
(lp40
F1.8488600808267968
aF8.949552003930473
assS'ExpectedDwellTime'
p41
(dp42
g6
F42.3475297730388
sg10
F58.465286687937905
sg13
F49.54429455842381
sg16
F57.84998893587132
sg19
F40.70847867092879
sg22
F48.17658910590678
sg25
F19.390469157318268
sg28
F61.561044393398134
sg31
F56.175289261613145
sg34
F0.0
sg36
F56.34551299573559
sg39
F60.06512634291057
ssS'newicktree'
p43
S'../PairsAlignemt/YeastTree.newick'
p44
sS'll'
p45
cnumpy.core.multiarray
scalar
p46
(cnumpy
dtype
p47
(S'f8'
p48
I0
I1
tp49
Rp50
(I3
S'<'
p51
NNNI-1
I-1
I0
tp52
bS'\x99\xda\xec(-\xba\x93\xc0'
p53
tp54
Rp55
sS'edge_list'
p56
(lp57
g25
ag34
ag6
ag19
ag13
ag22
ag36
ag28
ag16
ag39
ag10
ag31
asS'edge_to_blen'
p58
(dp59
g25
g46
(g50
S'\xeeF\xca\x94BP\xa2?'
p60
tp61
Rp62
sg10
g46
(g50
S']\x96\xf6\xd3\x10d\x85?'
p63
tp64
Rp65
sg13
g46
(g50
S'\xb8"%\xd1\xd5\x9d\x86?'
p66
tp67
Rp68
sg16
g46
(g50
S'\xd2\xc7\x8a\xf0\\\xedo?'
p69
tp70
Rp71
sg19
g46
(g50
S'\xab\x95\xd8\xd1X\xd2\x9f?'
p72
tp73
Rp74
sg22
g46
(g50
S'5\xfe\xffA\x88z\x95?'
p75
tp76
Rp77
sg6
g46
(g50
S'\xf6\xe4\x8e:\xcaI\xa2?'
p78
tp79
Rp80
sg28
g46
(g50
S'\xe2\xb4\xb7y\xee\x97\x8e?'
p81
tp82
Rp83
sg31
g46
(g50
S'EA<%\xc2b\x88?'
p84
tp85
Rp86
sg34
g46
(g50
S'\xa7\x80\x92\xa4\xcf\xb5\xa9?'
p87
tp88
Rp89
sg36
g46
(g50
S'\xd9\xf2m;\x12\xecu?'
p90
tp91
Rp92
sg39
g46
(g50
S'\x96\xb0W\x1b\xf8\xd6\x96?'
p93
tp94
Rp95
ssS'paralog'
p96
(lp97
S'YLR406C'
p98
aS'YDL075W'
p99
asS'alignment_file'
p100
S'../MafftAlignment/YLR406C_YDL075W/YLR406C_YDL075W_input.fasta'
p101
sS'x_clock'
p102
NsS'x'
p103
cnumpy.core.multiarray
_reconstruct
p104
(cnumpy
ndarray
p105
(I0
tp106
S'b'
p107
tp108
Rp109
(I1
(I19
tp110
g50
I00
S'o5\xd2\x8a8Y\xe6\xbf. \x8d`\x94Z\xe0\xbf\xf7M\x06-_.\xec\xbf\x92\x81\xa0\x93\x12\xda\x02@\x84\xc0\x7f\xc9-\x04\xe2?G`\xa8\xfd\xcb\x8d\x05@+3\xb8\x7f\x19\x96\xb0\xbfV\x07wP>\xa5\n\xc0\x94\t\x02pv\xee\x07\xc0h\x08@^\x12\xa8\n\xc0\xf3\xa7<\xb6E\xc5\x0b\xc0\xcep\xc3n\x14\x06\x12\xc0\xc9\x8c\xf5>Q\xea\x0e\xc0HD\x13\x80\xcb\xeb\x14\xc0\x0e\xd1\x16U\xb9\xd0\x10\xc0&q\xd7\x0e\x980\x16\xc0\x82\x1b\xe2\xd0{l\x0e\xc0\x13\xca\x05J"?\x12\xc0\xe5\x8b*1\xf4\xb8\x11\xc0'
p111
tp112
bsS'Model'
p113
S'HKY'
p114
sS'clock'
p115
I00
s.