(dp0
S'Force'
p1
NsS'ExpectedGeneconv'
p2
(dp3
(S'N1'
p4
S'N2'
p5
tp6
F25.593003035225443
s(S'N5'
p7
S'cerevisiae'
p8
tp9
F8.844741650673152
s(g5
S'N3'
p10
tp11
F7.073180498790483
s(S'N4'
p12
g7
tp13
F4.586277575690977
s(g4
S'castellii'
p14
tp15
F25.959707498704315
s(g5
S'bayanus'
p16
tp17
F11.08977364605696
s(S'N0'
p18
g4
tp19
F0.9247843660431417
s(g10
S'kudriavzevii'
p20
tp21
F8.873700362306414
s(g7
S'paradoxus'
p22
tp23
F5.367864488519686
s(g18
S'kluyveri'
p24
tp25
F0.0
s(g10
g12
tp26
F7.178481138023339
s(g12
S'mikatae'
p27
tp28
F11.641749152483424
ssS'ExpectedDwellTime'
p29
(dp30
g6
F261.44906324883976
sg9
F377.83832988512836
sg11
F351.7302076046767
sg13
F375.4881490361147
sg15
F252.14034993022784
sg17
F363.96057065393535
sg19
F57.78975564507908
sg21
F379.3285351034196
sg23
F390.2732403438959
sg25
F0.0
sg26
F362.3775165182814
sg28
F383.24690376940146
ssS'newicktree'
p31
S'../PairsAlignemt/YeastTree.newick'
p32
sS'll'
p33
cnumpy.core.multiarray
scalar
p34
(cnumpy
dtype
p35
(S'f8'
p36
I0
I1
tp37
Rp38
(I3
S'<'
p39
NNNI-1
I-1
I0
tp40
bS'Z\x1f\x0b\xd8\xe5\xa1\xb6\xc0'
p41
tp42
Rp43
sS'edge_list'
p44
(lp45
g19
ag25
ag6
ag15
ag11
ag17
ag26
ag21
ag13
ag28
ag9
ag23
asS'edge_to_blen'
p46
(dp47
g19
g34
(g38
S'V\xbdfDJ\xd8\xb9?'
p48
tp49
Rp50
sg9
g34
(g38
S'E#\xcd\xd3?\x89\xc0?'
p51
tp52
Rp53
sg11
g34
(g38
S'\xb7\r\x13\xda=.\xc1?'
p54
tp55
Rp56
sg13
g34
(g38
S'\x7f\x03%%\xfb\xdd\xbb?'
p57
tp58
Rp59
sg21
g34
(g38
S'omWI\xae\x14\xcd?'
p60
tp61
Rp62
sg17
g34
(g38
S'\x19`\x10\xef\xc1i\xcf?'
p63
tp64
Rp65
sg6
g34
(g38
S'!\x85\x8d\xa8&^\xe3?'
p66
tp67
Rp68
sg15
g34
(g38
S'\x84\xdd\x14{\xd9\x01\xe2?'
p69
tp70
Rp71
sg23
g34
(g38
S'\xd5\x94\x10\x9a\n3\xbd?'
p72
tp73
Rp74
sg25
g34
(g38
S'\x1e\x839\x8bP\xab\xe1?'
p75
tp76
Rp77
sg26
g34
(g38
S'\xf5\xc3c\x9b\xd0\xb3\xc1?'
p78
tp79
Rp80
sg28
g34
(g38
S'\xafW\xa9w\x9ev\xcd?'
p81
tp82
Rp83
ssS'paralog'
p84
(lp85
S'YHR106W'
p86
aS'YDR353W'
p87
asS'alignment_file'
p88
S'../MafftAlignment/YHR106W_YDR353W/YHR106W_YDR353W_input.fasta'
p89
sS'x_clock'
p90
NsS'x'
p91
cnumpy.core.multiarray
_reconstruct
p92
(cnumpy
ndarray
p93
(I0
tp94
S'b'
p95
tp96
Rp97
(I1
(I19
tp98
g38
I00
S"6z6|\xc7\xfd\xe5\xbf&\xe8\xb8#'\xf3\xe1\xbf\xa5\xec\x87\xfd\x0bt\xeb\xbfCz#\x07Q\xd6\xf4?\xf2\x8c1\xdfWf\x06\xc0Dk%\x1dWw\xfb\xbf\x96\r\x8c$\x1c\xda\xe4\xbfCV'\\2X\x02\xc0\xa00G\xe0U\x01\xe3\xbf\xfe\xa4\xf0\xd1h\x11\xe0\xbf'\xbb\x12~\x18f\xe2\xbf\x99\x01\x80\x1e\xe4\x10\x00\xc0(z\xb8\x90\x14z\xf6\xbfuF\x96J=\xa7\xff\xbf\xde\n\x14\xf8\x13\xb6\xf7\xbfU\x8bBR\xe9\xbd\x01\xc0wR\xc3j\x8b\x80\xf7\xbf\x92K\xd3@2_\x00\xc0\x936_\xf3D^\x01\xc0"
p99
tp100
bsS'Model'
p101
S'MG94'
p102
sS'clock'
p103
I00
s.