(dp0
S'Force'
p1
NsS'ExpectedGeneconv'
p2
(dp3
(S'N1'
p4
S'N2'
p5
tp6
(lp7
F5.834447678146132
aF18.542658887743492
as(S'N5'
p8
S'cerevisiae'
p9
tp10
(lp11
F4.849213314821772
aF4.292458212725393
as(g5
S'N3'
p12
tp13
(lp14
F4.709265582377522
aF4.530689564915421
as(S'N4'
p15
g8
tp16
(lp17
F4.392527180191538
aF5.2377553341284475
as(g4
S'castellii'
p18
tp19
(lp20
F30.02328541606054
aF51.24157604644774
as(g5
S'bayanus'
p21
tp22
(lp23
F3.4433072349984135
aF7.02967149861981
as(S'N0'
p24
g4
tp25
(lp26
F2.782760843191274
aF6.983474673734422
as(g12
S'kudriavzevii'
p27
tp28
(lp29
F9.19156243485748
aF9.23775685810779
as(g8
S'paradoxus'
p30
tp31
(lp32
F4.011123649787014
aF4.53615543411206
as(g24
S'kluyveri'
p33
tp34
(lp35
F0.0
aF0.0
as(g12
g15
tp36
(lp37
F6.17466320312276
aF4.303656533325974
as(g15
S'mikatae'
p38
tp39
(lp40
F10.18985284140924
aF10.201071321023562
assS'ExpectedDwellTime'
p41
(dp42
g6
F242.74148518979192
sg10
F318.1745098453297
sg13
F289.10989719822453
sg16
F312.1366876923211
sg19
F302.30898434984675
sg22
F308.31067452288
sg25
F116.32789760172665
sg28
F310.7266752629369
sg31
F332.10461849460324
sg34
F0.0
sg36
F303.0997566212849
sg39
F325.7987059552636
ssS'newicktree'
p43
S'../PairsAlignemt/YeastTree.newick'
p44
sS'll'
p45
cnumpy.core.multiarray
scalar
p46
(cnumpy
dtype
p47
(S'f8'
p48
I0
I1
tp49
Rp50
(I3
S'<'
p51
NNNI-1
I-1
I0
tp52
bS'\xfb\xd2_\xe5w`\xb6\xc0'
p53
tp54
Rp55
sS'edge_list'
p56
(lp57
g25
ag34
ag6
ag19
ag13
ag22
ag36
ag28
ag16
ag39
ag10
ag31
asS'edge_to_blen'
p58
(dp59
g6
g46
(g50
S'\xe1>\x0b\xfa\xba`\xce?'
p60
tp61
Rp62
sg10
g46
(g50
S'x\t\n\x8f1\x8c\xb7?'
p63
tp64
Rp65
sg13
g46
(g50
S'\x80\xa1\xb9\x1e\xb3\xf4\xb8?'
p66
tp67
Rp68
sg16
g46
(g50
S'\xf5\xea\xcef\x10\xe3\xb4?'
p69
tp70
Rp71
sg28
g46
(g50
S'\x8apQ%\xe3\x11\xc7?'
p72
tp73
Rp74
sg22
g46
(g50
S'S\xa0+\xa8\xc7[\xc2?'
p75
tp76
Rp77
sg25
g46
(g50
S'\x87k^\xdb+6\xcb?'
p78
tp79
Rp80
sg19
g46
(g50
S'\xd1\x0b\t\xf5\x0c\xed\xe4?'
p81
tp82
Rp83
sg31
g46
(g50
S'\x8e_\xc5l!\xd4\xb8?'
p84
tp85
Rp86
sg34
g46
(g50
S'\x8dp\xc1Y\xc1C\xcb?'
p87
tp88
Rp89
sg36
g46
(g50
S'R\xca\xe5\xcf\xf0\xbf\xb7?'
p90
tp91
Rp92
sg39
g46
(g50
S'G:\xb4<\x16\xc2\xc8?'
p93
tp94
Rp95
ssS'paralog'
p96
(lp97
S'YDR502C'
p98
aS'YLR180W'
p99
asS'alignment_file'
p100
S'../MafftAlignment/YDR502C_YLR180W/YDR502C_YLR180W_input.fasta'
p101
sS'x_clock'
p102
NsS'x'
p103
cnumpy.core.multiarray
_reconstruct
p104
(cnumpy
ndarray
p105
(I0
tp106
S'b'
p107
tp108
Rp109
(I1
(I20
tp110
g50
I00
S'\xcdB\xdb\x8dHm\xe8\xbfE\x07\xcbp@P\xe3\xbf\x11\xfb\xd1\xb5\xfb\xd3\xe8\xbf\xc0Yv!\xff\xd9\xf5?\xe1b\x06\xc2\xcb\xbe\t\xc0,\xd5\xcb\x95\x99\xb7\xfd\xbfhZ\xc2 \xb2\xba\xcc\xbf\xa5\xd3^\x88\xeb[\x0b\xc0Df`\x181\xc6\xf8\xbf\xf0\xa8\xcb_6\xbe\xf8\xbf1\x80M\x19X\x03\xf7\xbfY\xb9\xa8\x91\x03/\xdb\xbf\x1fk8\x90\xe2\x9f\x02\xc0\xed\xa0\xdfD,\x12\xff\xbf\xf1\xee$\x99U\x05\x03\xc0oX\xd6\xd6\x81j\xfb\xbf\x80\x15\xeb\xf9d\x0c\x04\xc0!`\x10\xc87I\xfa\xbf=_\xee\xf8\xd6\x16\x03\xc0V\x83^.Z\xaa\x02\xc0'
p111
tp112
bsS'Model'
p113
S'MG94'
p114
sS'clock'
p115
I00
s.