(dp0
S'Force'
p1
NsS'ExpectedGeneconv'
p2
(dp3
(S'N1'
p4
S'N2'
p5
tp6
(lp7
F45.38619283853341
aF128.30517875214764
as(S'N5'
p8
S'cerevisiae'
p9
tp10
(lp11
F16.873510354685177
aF36.401665509507616
as(g5
S'N3'
p12
tp13
(lp14
F7.2350433926056
aF20.171897521259755
as(S'N4'
p15
g8
tp16
(lp17
F10.120132331653128
aF16.826506302469735
as(g4
S'castellii'
p18
tp19
(lp20
F96.0624727988641
aF215.58769128967242
as(g5
S'bayanus'
p21
tp22
(lp23
F16.470965024927168
aF51.32478581718535
as(S'N0'
p24
g4
tp25
(lp26
F21.512859512276254
aF50.58379468598857
as(g12
S'kudriavzevii'
p27
tp28
(lp29
F19.026332781104475
aF48.55880274579631
as(g8
S'paradoxus'
p30
tp31
(lp32
F12.69061736760899
aF27.373857468600917
as(g24
S'kluyveri'
p33
tp34
(lp35
F0.0
aF0.0
as(g12
g15
tp36
(lp37
F10.958032075157435
aF27.949198512480482
as(g15
S'mikatae'
p38
tp39
(lp40
F25.578400663336282
aF42.96286724693488
assS'ExpectedDwellTime'
p41
(dp42
g6
F1474.6377355125849
sg10
F1839.581899240142
sg13
F1743.96632859745
sg16
F1816.7789913916808
sg19
F1623.0523868252217
sg22
F1738.4840816644069
sg25
F658.5779892214758
sg28
F1792.1995172866486
sg31
F1828.4343099854607
sg34
F0.0
sg36
F1777.9459987628115
sg39
F1797.1014456222704
ssS'newicktree'
p43
S'../PairsAlignemt/YeastTree.newick'
p44
sS'll'
p45
cnumpy.core.multiarray
scalar
p46
(cnumpy
dtype
p47
(S'f8'
p48
I0
I1
tp49
Rp50
(I3
S'<'
p51
NNNI-1
I-1
I0
tp52
bS'.#&g\xf8s\xd4\xc0'
p53
tp54
Rp55
sS'edge_list'
p56
(lp57
g25
ag34
ag6
ag19
ag13
ag22
ag36
ag28
ag16
ag39
ag10
ag31
asS'edge_to_blen'
p58
(dp59
g6
g46
(g50
S'|\xa3\xb5\xaf?X\xc6?'
p60
tp61
Rp62
sg10
g46
(g50
S'\x7fjq\xbf \xd2\xa7?'
p63
tp64
Rp65
sg13
g46
(g50
S'\xf2!\xee\xc7.\x8c\x9a?'
p66
tp67
Rp68
sg16
g46
(g50
S'\x1aZn\xe7\xd4|\x9b?'
p69
tp70
Rp71
sg28
g46
(g50
S'4\x0143h\xc3\xaf?'
p72
tp73
Rp74
sg22
g46
(g50
S'\xef\xeb\x8d\xe5\xf0\xac\xac?'
p75
tp76
Rp77
sg25
g46
(g50
S'g\xab\xb5\xd2\xa4s\xc5?'
p78
tp79
Rp80
sg19
g46
(g50
S'X\xc3N@.\xfb\xd2?'
p81
tp82
Rp83
sg31
g46
(g50
S'q\x9f\xd2\xec\xadX\x9f?'
p84
tp85
Rp86
sg34
g46
(g50
S'\xf2n\xa3G&q\xbf?'
p87
tp88
Rp89
sg36
g46
(g50
S'w\xfa\x87+\xf2\x9c\xa2?'
p90
tp91
Rp92
sg39
g46
(g50
S'\xd3\x1c\x18\x1c\xc2\xf8\xae?'
p93
tp94
Rp95
ssS'paralog'
p96
(lp97
S'YNL049C'
p98
aS'YIL109C'
p99
asS'alignment_file'
p100
S'../MafftAlignment/YNL049C_YIL109C/YNL049C_YIL109C_input.fasta'
p101
sS'x_clock'
p102
NsS'x'
p103
cnumpy.core.multiarray
_reconstruct
p104
(cnumpy
ndarray
p105
(I0
tp106
S'b'
p107
tp108
Rp109
(I1
(I19
tp110
g50
I00
S'\xeb\xb3\xff\xc03L\xe7\xbfS\xb9\x9f\x95\xe3\x02\xe0\xbfrjbWZ-\xea\xbf\xdf\x83\xccvI\xcb\xf4?\x19:PpCb\xf0\xbf\x0f8\xaa\xd2*T\xab\xbf\xc2\xc9\xd15\xab\x1d\xee\xbf\x96h+s`\x94\xfc\xbf\\\x10\xf4S\xb9\xc6\x00\xc0\xa9H\xfc\xa1R\xed\xfb\xbf\xe8\x88\x03glr\xf3\xbf\xc1\x1ch(c8\r\xc0\xb8\x03\x0f\xb0\xe8\x0e\x07\xc0\xd95\x12\xea\x03\x84\n\xc0[\xd7\xe3[w=\x06\xc0\x81P\xda\x8b\x1f\xf1\x0c\xc0\xc2\xf9h\x19\'q\x06\xc0\xae\x13\x97[\xc8\x8a\x08\xc0.\xa7\xd9"\x17\xe4\x0b\xc0'
p111
tp112
bsS'Model'
p113
S'HKY'
p114
sS'clock'
p115
I00
s.