(dp0
S'Force'
p1
NsS'ExpectedGeneconv'
p2
(dp3
(S'N1'
p4
S'N2'
p5
tp6
(lp7
F55.949791761059174
aF30.00391097209787
as(S'N5'
p8
S'cerevisiae'
p9
tp10
(lp11
F8.563390671391632
aF3.245672553546446
as(g5
S'N3'
p12
tp13
(lp14
F6.685866609502747
aF2.2591961444824484
as(S'N4'
p15
g8
tp16
(lp17
F3.91630896501735
aF1.775158003142029
as(g4
S'castellii'
p18
tp19
(lp20
F78.72003156688557
aF39.03690236681151
as(g5
S'bayanus'
p21
tp22
(lp23
F11.622728777004049
aF5.246503268396936
as(S'N0'
p24
g4
tp25
(lp26
F21.968386507355834
aF14.66585305102219
as(g12
S'kudriavzevii'
p27
tp28
(lp29
F11.267384084395044
aF4.70078741959189
as(g8
S'paradoxus'
p30
tp31
(lp32
F5.41489313447179
aF2.220566313623416
as(g24
S'kluyveri'
p33
tp34
(lp35
F0.0
aF0.0
as(g12
g15
tp36
(lp37
F6.916085526004254
aF2.13187310156492
as(g15
S'mikatae'
p38
tp39
(lp40
F11.914746505779682
aF6.792420795425781
assS'ExpectedDwellTime'
p41
(dp42
g6
F1474.6260193509431
sg10
F1664.1544668559059
sg13
F1619.614224662991
sg16
F1647.822022491466
sg19
F1463.7570169296453
sg22
F1623.6299611114043
sg25
F807.9350882423445
sg28
F1645.077818229749
sg31
F1666.0482302517453
sg34
F0.0
sg36
F1635.4771936404206
sg39
F1640.8914989425234
ssS'newicktree'
p43
S'../PairsAlignemt/YeastTree.newick'
p44
sS'll'
p45
cnumpy.core.multiarray
scalar
p46
(cnumpy
dtype
p47
(S'f8'
p48
I0
I1
tp49
Rp50
(I3
S'<'
p51
NNNI-1
I-1
I0
tp52
bS'\xc1L;H6\x95\xdb\xc0'
p53
tp54
Rp55
sS'edge_list'
p56
(lp57
g25
ag34
ag6
ag19
ag13
ag22
ag36
ag28
ag16
ag39
ag10
ag31
asS'edge_to_blen'
p58
(dp59
g6
g46
(g50
S'c\x8b\xc1\xcd\x06\x9e\xf8?'
p60
tp61
Rp62
sg10
g46
(g50
S'\xcaN\x8dM[\x92\xd4?'
p63
tp64
Rp65
sg13
g46
(g50
S'V~\xd7\rY\xf3\xc8?'
p66
tp67
Rp68
sg16
g46
(g50
S'\x99\x13[ii\xf4\xc1?'
p69
tp70
Rp71
sg28
g46
(g50
S'(\xa7\xf2\xf8!\xfd\xda?'
p72
tp73
Rp74
sg22
g46
(g50
S'\xb2\xca\xc7\x98\x95i\xd9?'
p75
tp76
Rp77
sg25
g46
(g50
S'\x1f\xb03\xec\xb3\xdb\xe8?'
p78
tp79
Rp80
sg19
g46
(g50
S'8!\xc3\x06\xb8\x93\xfd?'
p81
tp82
Rp83
sg31
g46
(g50
S'\t$\x8e4BC\xc8?'
p84
tp85
Rp86
sg39
g46
(g50
S'\xc8"\xeegR\x9c\xdb?'
p87
tp88
Rp89
sg36
g46
(g50
S'\x8eR.\xfcg\xdb\xc7?'
p90
tp91
Rp92
sg34
g46
(g50
S'\x14\xda\x1d\rO4\xf5?'
p93
tp94
Rp95
ssS'paralog'
p96
(lp97
S'YGL133W'
p98
aS'YPL216W'
p99
asS'alignment_file'
p100
S'../MafftAlignment/YGL133W_YPL216W/YGL133W_YPL216W_input.fasta'
p101
sS'x_clock'
p102
NsS'x'
p103
cnumpy.core.multiarray
_reconstruct
p104
(cnumpy
ndarray
p105
(I0
tp106
S'b'
p107
tp108
Rp109
(I1
(I20
tp110
g50
I00
S'\xd4\x06r\xc1\xe4e\xe3\xbf\xcd\xe9&\xe6\xbb\x08\xdc\xbfh\xdd]\xa4d\x06\xf0\xbf\xd0\'D\xd5\xfb\x0b\xf0?"\x0e\xbe\x8c\xef\xac\xfa\xbf\xcf\x9bj\x97\x07U\x04\xc0"\x0c\xebBY6 \xc0B\x13\xe6\xf7p\xc1\x04\xc0\xf4\xd1C\xa4\xbd)\xd0\xbf\x99|\xe49\x02\x06\xd2?D&\x9eb7\x93\xdb?\x00?\xaa\x83=\xa9\xe3?\xfc\x83\xb2\x86\x81)\xfa\xbf\n\xa3\x0e\x82~\x8e\xed\xbft\xdbj\x87\x13\xe1\xfa\xbfq%i=y\xa1\xeb\xbf4\xa0\x84QDm\xff\xbf\r8\xd9A\xde\xe6\xea\xbf"\x1b\xf9\x97\xd2(\xf2\xbf\xea5}\x15\x03\x9c\xfa\xbf'
p111
tp112
bsS'Model'
p113
S'MG94'
p114
sS'clock'
p115
I00
s.