(dp0
S'Force'
p1
NsS'ExpectedGeneconv'
p2
(dp3
(S'N1'
p4
S'N2'
p5
tp6
(lp7
F25.331141154324847
aF0.0010817758766311458
as(S'N5'
p8
S'cerevisiae'
p9
tp10
(lp11
F8.28321043076623
aF8.893428797118126e-05
as(g5
S'N3'
p12
tp13
(lp14
F1.0062088731413108
aF2.1055816423681357e-05
as(S'N4'
p15
g8
tp16
(lp17
F4.949873185214277
aF0.00023413667311669703
as(g4
S'castellii'
p18
tp19
(lp20
F11.709030251012592
aF0.0003389834190460381
as(g5
S'bayanus'
p21
tp22
(lp23
F11.706715443515986
aF0.000358405288013774
as(S'N0'
p24
g4
tp25
(lp26
F0.6566526984398277
aF2.1627179617591615e-05
as(g12
S'kudriavzevii'
p27
tp28
(lp29
F7.942482510755179
aF0.0004206064214287755
as(g8
S'paradoxus'
p30
tp31
(lp32
F5.394658651585031
aF6.058002051937169e-05
as(g24
S'kluyveri'
p33
tp34
(lp35
F0.0
aF0.0
as(g12
g15
tp36
(lp37
F3.56940530230764
aF3.8229549266313994e-05
as(g15
S'mikatae'
p38
tp39
(lp40
F12.931659055019601
aF0.00021195939635780794
assS'ExpectedDwellTime'
p41
(dp42
g6
F216.22344593835612
sg10
F353.7921732532082
sg13
F342.20942746061314
sg16
F347.8465878950167
sg19
F122.45935607378618
sg22
F343.8211068045613
sg25
F30.428095408170453
sg28
F344.83885172705783
sg31
F356.27810412896906
sg34
F0.0
sg36
F343.44195997752126
sg39
F339.96120687220656
ssS'newicktree'
p43
S'../PairsAlignemt/YeastTree.newick'
p44
sS'll'
p45
cnumpy.core.multiarray
scalar
p46
(cnumpy
dtype
p47
(S'f8'
p48
I0
I1
tp49
Rp50
(I3
S'<'
p51
NNNI-1
I-1
I0
tp52
bS'2\xf0w[Qs\xa8\xc0'
p53
tp54
Rp55
sS'edge_list'
p56
(lp57
g25
ag34
ag6
ag19
ag13
ag22
ag36
ag28
ag16
ag39
ag10
ag31
asS'edge_to_blen'
p58
(dp59
g6
g46
(g50
S'C\x9fe\xd7}\x12\xd2?'
p60
tp61
Rp62
sg10
g46
(g50
S'\xc0 \xb5\xbfC\xab\xa5?'
p63
tp64
Rp65
sg13
g46
(g50
S'\x15$Q-Q\x01\x7f?'
p66
tp67
Rp68
sg16
g46
(g50
S'\xad\x1f\xab\xe7\xfbC\x9e?'
p69
tp70
Rp71
sg28
g46
(g50
S'\x8c\x91s\xd6[L\xab?'
p72
tp73
Rp74
sg22
g46
(g50
S'IL\xbc\x95\xf6\x18\xb1?'
p75
tp76
Rp77
sg25
g46
(g50
S'\xb1h\xe7\x1c\xaaK\xa3?'
p78
tp79
Rp80
sg19
g46
(g50
S'W\x01\xbcG\x827\xbd?'
p81
tp82
Rp83
sg31
g46
(g50
S'\x17\x10\xbc\xf9\xbb\xfe\x9d?'
p84
tp85
Rp86
sg34
g46
(g50
S'\xfb\x12\x85HU>\xc1?'
p87
tp88
Rp89
sg36
g46
(g50
S'h\x0e*\x9c)O\x90?'
p90
tp91
Rp92
sg39
g46
(g50
S'(\xa9\x11j3\x07\xb0?'
p93
tp94
Rp95
ssS'paralog'
p96
(lp97
S'YPL037C'
p98
aS'YDR252W'
p99
asS'alignment_file'
p100
S'../MafftAlignment/YPL037C_YDR252W/YPL037C_YDR252W_input.fasta'
p101
sS'x_clock'
p102
NsS'x'
p103
cnumpy.core.multiarray
_reconstruct
p104
(cnumpy
ndarray
p105
(I0
tp106
S'b'
p107
tp108
Rp109
(I1
(I19
tp110
g50
I00
S'K\xc5=nN\x99\xe5\xbf\xcb\xbc\xcd\xe4\xa8X\xdd\xbf\xed\xd7\xa7\xc5=5\xe6\xbf\xcd\xb7\xddZ\x93\xf1\xf6?\x93\xc2!K\xf2[\xb1?\xca\x83=\xb7/i$\xc0:\x8eaL\xa8\xc3\xe9\xbf3\xe3\x98\xaaC:\n\xc0t\xd6\xe4qi\t\x00\xc0\xbf\x13\xce\x17k;\xf4\xbf\x97\xa8y\xb3\x0b]\x01\xc0\x97qc\xd9\xd1\x88\x13\xc0!\x85\x11~c\xa6\x05\xc0\x06\xdcl.\x18\x8f\x10\xc0\xcdaI\xd4\xb6s\x07\xc0\xb2\xa0\x99\xe5\xf3+\x0c\xc0 \xc1\x1b\x19\xaa*\x06\xc0\xde \xdcN\xaeL\t\xc0\x9b\x86J\xeeV>\x0c\xc0'
p111
tp112
bsS'Model'
p113
S'HKY'
p114
sS'clock'
p115
I00
s.