(dp0
S'Force'
p1
NsS'ExpectedGeneconv'
p2
(dp3
(S'N1'
p4
S'N2'
p5
tp6
(lp7
F5.924544710385399
aF8.204147391811997
as(S'N5'
p8
S'cerevisiae'
p9
tp10
(lp11
F2.029684163510628
aF1.3679804087417142
as(g5
S'N3'
p12
tp13
(lp14
F1.309441052265707
aF1.6591768222802759
as(S'N4'
p15
g8
tp16
(lp17
F0.2733769351360038
aF1.8417864301928402
as(g4
S'castellii'
p18
tp19
(lp20
F4.911543699231521
aF6.748277767059608
as(g5
S'bayanus'
p21
tp22
(lp23
F1.0627075482505959
aF3.554066508261221
as(S'N0'
p24
g4
tp25
(lp26
F3.7973233007809443e-07
aF5.205504339953869e-07
as(g12
S'kudriavzevii'
p27
tp28
(lp29
F1.7018851761682938
aF2.3167243887154148
as(g8
S'paradoxus'
p30
tp31
(lp32
F2.20895699168304
aF3.384733629597352
as(g24
S'kluyveri'
p33
tp34
(lp35
F0.0
aF0.0
as(g12
g15
tp36
(lp37
F1.8989822552485587
aF1.1676775442403986
as(g15
S'mikatae'
p38
tp39
(lp40
F3.0710453198757937
aF3.3209145965088025
assS'ExpectedDwellTime'
p41
(dp42
g6
F43.49080910280614
sg10
F80.38217100780788
sg13
F75.44251895986159
sg16
F78.96636527614228
sg19
F46.97566509310246
sg22
F67.31885430458429
sg25
F0.015064775332488733
sg28
F93.7653988047078
sg31
F76.88343764347152
sg34
F0.0
sg36
F80.63947064825048
sg39
F82.84386882903974
ssS'newicktree'
p43
S'../PairsAlignemt/YeastTree.newick'
p44
sS'll'
p45
cnumpy.core.multiarray
scalar
p46
(cnumpy
dtype
p47
(S'f8'
p48
I0
I1
tp49
Rp50
(I3
S'<'
p51
NNNI-1
I-1
I0
tp52
bS'R\xdf\xb0\x93\xcc\xb2\x9c\xc0'
p53
tp54
Rp55
sS'edge_list'
p56
(lp57
g25
ag34
ag6
ag19
ag13
ag22
ag36
ag28
ag16
ag39
ag10
ag31
asS'edge_to_blen'
p58
(dp59
g6
g46
(g50
S'\xd7\xd2\xb4\xaa\xdeE\xc7?'
p60
tp61
Rp62
sg10
g46
(g50
S'\x06\x1b\xd03\xb5*\x9b?'
p63
tp64
Rp65
sg13
g46
(g50
S'W\x03\xebx\xe5\xff\x9e?'
p66
tp67
Rp68
sg16
g46
(g50
S'\x9d\xb8\xf3\x17\x80\x8e\x81?'
p69
tp70
Rp71
sg19
g46
(g50
S'IO\x92\xef\x05C\xc7?'
p72
tp73
Rp74
sg22
g46
(g50
S'q5\xf16<\x1b\x9d?'
p75
tp76
Rp77
sg25
g46
(g50
S'\x80\xd3\xb5\xc50\x14\x06?'
p78
tp79
Rp80
sg28
g46
(g50
S'X\\2\x17 \xa2\xab?'
p81
tp82
Rp83
sg31
g46
(g50
S'\xa4\xfd#w\x1c\x93\xa3?'
p84
tp85
Rp86
sg34
g46
(g50
S'\x02\xb4\x1bd\xa7d\xcc?'
p87
tp88
Rp89
sg36
g46
(g50
S'&m\xfb|ol\x94?'
p90
tp91
Rp92
sg39
g46
(g50
S'M\x96\xe9\xb2:\xec\xa5?'
p93
tp94
Rp95
ssS'paralog'
p96
(lp97
S'YJL177W'
p98
aS'YKL180W'
p99
asS'alignment_file'
p100
S'../MafftAlignment/YJL177W_YKL180W/YJL177W_YKL180W_input.fasta'
p101
sS'x_clock'
p102
NsS'x'
p103
cnumpy.core.multiarray
_reconstruct
p104
(cnumpy
ndarray
p105
(I0
tp106
S'b'
p107
tp108
Rp109
(I1
(I20
tp110
g50
I00
S'\x84d\xa3P\x0f\t\xe7\xbfDz\xef\xa7\x8b%\xdd\xbf\x96\x9a)\xda~\xf8\xe9\xbfe\xeb\xe3\x8bM\x8f\xfd?4\xbf\x02@j\xd5\x02\xc0\xb5\x84\xd0\xd0oW\xd6?\x9d\xf6\xb9\xefP\xe0\xe8?\xd1\xc8\xa6\xccY\xaf\xce\xbf\xfbH\xa7d}&$\xc0\xf5"\r\x02\x17\x18\xf8\xbf\xbd\x94\'\xda\x9cF\xfb\xbf$\x1cY\xf8\x91H\xfb\xbf\xde\xdel\r\xe0\xfa\x0b\xc07>\xfe\xd7\xee{\x0c\xc0\xfb\x1f,)yQ\x0f\xc0D\xaaA\x85\xbbZ\x07\xc0\xf1G29h\t\x13\xc0\xe6B\x82\xfc\xd54\t\xc0k#SE*\t\r\xc0\xd3\xd5\xaa\xbf\xda\x1c\n\xc0'
p111
tp112
bsS'Model'
p113
S'MG94'
p114
sS'clock'
p115
I00
s.