(dp0
S'Force'
p1
NsS'ExpectedGeneconv'
p2
(dp3
(S'N1'
p4
S'N2'
p5
tp6
(lp7
F8.463445166710153
aF13.124587995037517
as(S'N5'
p8
S'cerevisiae'
p9
tp10
(lp11
F0.2705926767647888
aF2.1072708942098344
as(g5
S'N3'
p12
tp13
(lp14
F2.3989751807021573
aF2.397283525565335
as(S'N4'
p15
g8
tp16
(lp17
F2.032288489879027
aF2.0004552676567724
as(g4
S'castellii'
p18
tp19
(lp20
F8.011062628356633
aF12.499968978793852
as(g5
S'bayanus'
p21
tp22
(lp23
F2.4075426964645112
aF5.773596508777627
as(S'N0'
p24
g4
tp25
(lp26
F7.869306022433658
aF10.599452882894488
as(g12
S'kudriavzevii'
p27
tp28
(lp29
F8.378701543668873
aF6.6111288555868395
as(g8
S'paradoxus'
p30
tp31
(lp32
F2.889588165691483
aF3.3360366233755228
as(g24
S'kluyveri'
p33
tp34
(lp35
F0.0
aF0.0
as(g12
g15
tp36
(lp37
F2.5291717672504936
aF3.0149299904710167
as(g15
S'mikatae'
p38
tp39
(lp40
F9.110919744257252
aF7.979233644806999
assS'ExpectedDwellTime'
p41
(dp42
g6
F56.73049508343976
sg10
F54.32524218357565
sg13
F59.64198631046187
sg16
F53.642731983622284
sg19
F51.71892379246539
sg22
F56.23065091224861
sg25
F29.19344728479449
sg28
F61.44105306626562
sg31
F50.23041863676781
sg34
F0.0
sg36
F56.464050318242634
sg39
F47.83043973225229
ssS'newicktree'
p43
S'../PairsAlignemt/YeastTree.newick'
p44
sS'll'
p45
cnumpy.core.multiarray
scalar
p46
(cnumpy
dtype
p47
(S'f8'
p48
I0
I1
tp49
Rp50
(I3
S'<'
p51
NNNI-1
I-1
I0
tp52
bS'f\xef&uU4\x98\xc0'
p53
tp54
Rp55
sS'edge_list'
p56
(lp57
g25
ag34
ag6
ag19
ag13
ag22
ag36
ag28
ag16
ag39
ag10
ag31
asS'edge_to_blen'
p58
(dp59
g6
g46
(g50
S'\xf2\xc4\xec\xf1\x98\xee\x9c?'
p60
tp61
Rp62
sg10
g46
(g50
S'_4\xbf\xb85\xd6n?'
p63
tp64
Rp65
sg13
g46
(g50
S'\xba\x80d\x8aR:t?'
p66
tp67
Rp68
sg16
g46
(g50
S'\xa0Z]\x9by\xf3s?'
p69
tp70
Rp71
sg28
g46
(g50
S'\x14m\x02q#\xa3\x94?'
p72
tp73
Rp74
sg22
g46
(g50
S'\x8bm_\x9d<H}?'
p75
tp76
Rp77
sg25
g46
(g50
S'w\x8d\x96.\xc0`\xa7?'
p78
tp79
Rp80
sg19
g46
(g50
S'7I\xd6\xe3\xae\x1c\x9b?'
p81
tp82
Rp83
sg31
g46
(g50
S'?d\x00\xe9\x1a\x93y?'
p84
tp85
Rp86
sg34
g46
(g50
S'\xd1$\x01\x90\x1f\x12\x83?'
p87
tp88
Rp89
sg36
g46
(g50
S'|,\xca\x8e\xd2{v?'
p90
tp91
Rp92
sg39
g46
(g50
S'\xe1\xfe\x17"\x7fC\x92?'
p93
tp94
Rp95
ssS'paralog'
p96
(lp97
S'YBR191W'
p98
aS'YPL079W'
p99
asS'alignment_file'
p100
S'../MafftAlignment/YBR191W_YPL079W/YBR191W_YPL079W_input.fasta'
p101
sS'x_clock'
p102
NsS'x'
p103
cnumpy.core.multiarray
_reconstruct
p104
(cnumpy
ndarray
p105
(I0
tp106
S'b'
p107
tp108
Rp109
(I1
(I19
tp110
g50
I00
S'\xd1j\xb7\x0c\x1b\xdb\xe7\xbf\xcc\xd9\xb7\xa0\xef\xab\xe0\xbf\xc9\x0c\x14\x87\xca1\xe9\xbf\x95e\x02\xb9\xb3\x94\x03@\x18t\x0e\x8d\xb4D\x04@\xf5fH\x90\xd8\xbb\x06@n\xa0\xaa\xc9\x964\xe2\xbf\xb3X~\xbe7\xb1\x08\xc0\x0f#E,\xb2\xb4\x12\xc0\xef\x14\x05\x1e=\x88\x0c\xc0[\xf5\x16\x9aL\r\r\xc0\xd3.4\x06*>\x15\xc0Q\xfeN\xb8]\xc3\x13\xc0\xfcJ.T\xe5\xd1\x14\xc0\x1aAG@(<\x0f\xc0X\xe51QEL\x15\xc0d7\x90,2\x1b\x10\xc0)\xf2\x13\xcc-T\x16\xc0\xca\xfe\xe9I\xfeM\x14\xc0'
p111
tp112
bsS'Model'
p113
S'HKY'
p114
sS'clock'
p115
I00
s.