(dp0
S'Force'
p1
NsS'ExpectedGeneconv'
p2
(dp3
(S'N1'
p4
S'N2'
p5
tp6
F85.62086868511818
s(S'N5'
p7
S'cerevisiae'
p8
tp9
F4.821093214773017
s(g5
S'N3'
p10
tp11
F5.181934242710424
s(S'N4'
p12
g7
tp13
F1.770567148997917
s(g4
S'castellii'
p14
tp15
F134.75317112057363
s(g5
S'bayanus'
p16
tp17
F8.496100700516749
s(S'N0'
p18
g4
tp19
F9.465388589550933
s(g10
S'kudriavzevii'
p20
tp21
F7.143106079544793
s(g7
S'paradoxus'
p22
tp23
F3.957702830964203
s(g18
S'kluyveri'
p24
tp25
F0.0
s(g10
g12
tp26
F3.2209315354483192
s(g12
S'mikatae'
p27
tp28
F8.49323633125393
ssS'ExpectedDwellTime'
p29
(dp30
g6
F177.09673445605037
sg9
F226.51518974839865
sg11
F200.36231052244264
sg13
F218.1227769040552
sg15
F183.9528232694143
sg17
F200.68986311608833
sg19
F80.07230466979482
sg21
F203.39417277031416
sg23
F220.76577869643629
sg25
F0.0
sg26
F207.3936446534886
sg28
F211.64290000333037
ssS'newicktree'
p31
S'../PairsAlignemt/YeastTree.newick'
p32
sS'll'
p33
cnumpy.core.multiarray
scalar
p34
(cnumpy
dtype
p35
(S'f8'
p36
I0
I1
tp37
Rp38
(I3
S'<'
p39
NNNI-1
I-1
I0
tp40
bS'\x7f\x9b\xcfY\t\xd6\xa9\xc0'
p41
tp42
Rp43
sS'edge_list'
p44
(lp45
g19
ag25
ag6
ag15
ag11
ag17
ag26
ag21
ag13
ag28
ag9
ag23
asS'edge_to_blen'
p46
(dp47
g19
g34
(g38
S'+\x1d>\xfe\xa7\xdf\xdd?'
p48
tp49
Rp50
sg9
g34
(g38
S'\x86\xac\x81\xc0\xbf\xcb\xcb?'
p51
tp52
Rp53
sg11
g34
(g38
S'b\x08\xcd.\xc0\x05\xc6?'
p54
tp55
Rp56
sg13
g34
(g38
S'Al\xb7\x9d\t\xe7\xb7?'
p57
tp58
Rp59
sg15
g34
(g38
S'\xd2\xedD)G\xd4\x0f@'
p60
tp61
Rp62
sg17
g34
(g38
S'l\x81|z%\xd3\xd1?'
p63
tp64
Rp65
sg6
g34
(g38
S"?\x8d.\xb7'\xfe\x03@"
p66
tp67
Rp68
sg21
g34
(g38
S'$Y\x9e\x12\xe5\xd1\xcf?'
p69
tp70
Rp71
sg23
g34
(g38
S'7<\xfd\xabA|\xb8?'
p72
tp73
Rp74
sg25
g34
(g38
S'\xda\xbb\xd6\xb2\xa6\xe7\x13@'
p75
tp76
Rp77
sg26
g34
(g38
S'\xabX\xe4\x11{a\xc1?'
p78
tp79
Rp80
sg28
g34
(g38
S'\xba$\xc0-\x99\x1c\xd1?'
p81
tp82
Rp83
ssS'paralog'
p84
(lp85
S'YIL057C'
p86
aS'YER067W'
p87
asS'alignment_file'
p88
S'../MafftAlignment/YIL057C_YER067W/YIL057C_YER067W_input.fasta'
p89
sS'x_clock'
p90
NsS'x'
p91
cnumpy.core.multiarray
_reconstruct
p92
(cnumpy
ndarray
p93
(I0
tp94
S'b'
p95
tp96
Rp97
(I1
(I19
tp98
g38
I00
S'_\x8f2\x7f\xe0;\xe5\xbf\xc6V\x1c\xf3\xcd\xb3\xe2\xbf,+%\xec\xe8\xcd\xea\xbf\xd2|_\xda\x10u\xe9?\x11\xdb\xf1 u\xe5\n\xc0W,HO\x99\xd8\xf3\xbf\xe6\x99k\xd5\xfd\x13\xe2?\xf8\xb9\xf8\xbd\x88a\xe8\xbfN\x1d\xabn\xbb\xac\xf9?\xa5\x1cO&MO\xed?\x94\x03\xb9\x96W\x18\xf6?$\x00\x1bl\xd3(\xfc\xbf\xa5\xb4\xa37\xe3s\xf4\xbf\xd6\x99\x14\x07W\xf2\xff\xbf\x8b3\x10!aE\xf6\xbf\xb7\xf0\xed\xf84\xf8\x02\xc0Y\x87\x1b~\x1d\x1b\xf5\xbf\t\xcc\xf2_,o\xf8\xbf\xe7\x8d\xd4\x13\xdd\xc6\x02\xc0'
p99
tp100
bsS'Model'
p101
S'MG94'
p102
sS'clock'
p103
I00
s.