(dp0
S'Force'
p1
NsS'ExpectedGeneconv'
p2
(dp3
(S'N1'
p4
S'N2'
p5
tp6
(lp7
F7.153265273906213
aF11.404895552511858
as(S'N5'
p8
S'cerevisiae'
p9
tp10
(lp11
F1.4704516550674311
aF2.476988530930423
as(g5
S'N3'
p12
tp13
(lp14
F2.387301210284211
aF4.539276715176026
as(S'N4'
p15
g8
tp16
(lp17
F2.541535991876087
aF9.772725613312744
as(g4
S'castellii'
p18
tp19
(lp20
F15.454770614872702
aF27.360543284153287
as(g5
S'bayanus'
p21
tp22
(lp23
F8.786064009242969
aF11.032033607913785
as(S'N0'
p24
g4
tp25
(lp26
F0.8339471481970222
aF1.5440472987222824
as(g12
S'kudriavzevii'
p27
tp28
(lp29
F3.8899337561360787
aF10.278380318103865
as(g8
S'paradoxus'
p30
tp31
(lp32
F3.222502902787745
aF2.1652721507561945
as(g24
S'kluyveri'
p33
tp34
(lp35
F0.0
aF0.0
as(g12
g15
tp36
(lp37
F1.5378758090770197
aF5.06030679874655
as(g15
S'mikatae'
p38
tp39
(lp40
F1.483419367379685
aF5.225967164563729
assS'ExpectedDwellTime'
p41
(dp42
g6
F45.318668646489165
sg10
F26.228897858889237
sg13
F58.003017560010676
sg16
F40.493264359544014
sg19
F53.53707503621894
sg22
F55.78702601192692
sg25
F15.21144702005564
sg28
F75.73353048087823
sg31
F32.805466701153556
sg34
F0.0
sg36
F56.03213975575545
sg39
F57.48175617881027
ssS'newicktree'
p43
S'../PairsAlignemt/YeastTree.newick'
p44
sS'll'
p45
cnumpy.core.multiarray
scalar
p46
(cnumpy
dtype
p47
(S'f8'
p48
I0
I1
tp49
Rp50
(I3
S'<'
p51
NNNI-1
I-1
I0
tp52
bS'O\xc0\x04-\x86\x10\xa0\xc0'
p53
tp54
Rp55
sS'edge_list'
p56
(lp57
g25
ag34
ag6
ag19
ag13
ag22
ag36
ag28
ag16
ag39
ag10
ag31
asS'edge_to_blen'
p58
(dp59
g25
g46
(g50
S'u\xd0J\xf1\x1e\xda\xa6?'
p60
tp61
Rp62
sg10
g46
(g50
S'~0?\xe9y\xc7\x86?'
p63
tp64
Rp65
sg13
g46
(g50
S'/\xb5\xffE\xde\xf0\x9c?'
p66
tp67
Rp68
sg16
g46
(g50
S'#\x9eM^>\xb6\x9e?'
p69
tp70
Rp71
sg28
g46
(g50
S'\xec\x0e\xd2\xe9\\\xee\xb4?'
p72
tp73
Rp74
sg22
g46
(g50
S'?\x0c71\xf6\xa6\xb1?'
p75
tp76
Rp77
sg6
g46
(g50
S'\r\x9e\xf5\xd18\x81\xb9?'
p78
tp79
Rp80
sg19
g46
(g50
S'\xa2\xa3\xcb^\x8d\xd0\xcb?'
p81
tp82
Rp83
sg31
g46
(g50
S'b\xcbd!\xe0\xc9\x9c?'
p84
tp85
Rp86
sg39
g46
(g50
S'\x8c;P\xfb2\x8c\x9f?'
p87
tp88
Rp89
sg36
g46
(g50
S'\x08\xa6\x86\xaf\x9bH\x93?'
p90
tp91
Rp92
sg34
g46
(g50
S'\x01\x01\x0ej\x8d[\xc7?'
p93
tp94
Rp95
ssS'paralog'
p96
(lp97
S'YER102W'
p98
aS'YBL072C'
p99
asS'alignment_file'
p100
S'../MafftAlignment/YER102W_YBL072C/YER102W_YBL072C_input.fasta'
p101
sS'x_clock'
p102
NsS'x'
p103
cnumpy.core.multiarray
_reconstruct
p104
(cnumpy
ndarray
p105
(I0
tp106
S'b'
p107
tp108
Rp109
(I1
(I20
tp110
g50
I00
S'\x90\xf0\x1e\x93\\]\xe6\xbf\xa9\xd1R\x99\x0c/\xe1\xbfU\xfd\xa5E\xc0\x04\xeb\xbf\xb7\x17\x1e\xcc\xd1s\xff?,\x0fydP?\xfb\xbf\xe7\xe6\xad)\xc3\xea\xf2?\xccI\xb2\xb5=\x13\xfe?\x83pE\xcd\x1e\xcc\xde\xbf\xa0\x05\x03\x89\xd0\xdf\x08\xc0\xd8\xd7n\xac\xbb7\xfb\xbf\x81b\xfb\x9cSs\x02\xc0\xb0\xa0\xa7\xd0hl\xf8\xbf\x0f\x99\rf\x9c\x87\x0c\xc0\x04r\xab\x7f\x00e\x05\xc0d|\x9b\xe9\x18\xc7\x0f\xc0jN\xd8E\x12\x08\x04\xc0\tj\x88\xab\xf8\r\x0c\xc0\xf0\x81u\xe1\xfb\xd6\x0b\xc0Q\xe2g\xd1\xbd\xfe\x11\xc0\x136\n\x01k\x92\x0c\xc0'
p111
tp112
bsS'Model'
p113
S'MG94'
p114
sS'clock'
p115
I00
s.