(dp0
S'Force'
p1
NsS'ExpectedGeneconv'
p2
(dp3
(S'N1'
p4
S'N2'
p5
tp6
F63.94332905921054
s(S'N5'
p7
S'cerevisiae'
p8
tp9
F24.550674658054202
s(g5
S'N3'
p10
tp11
F9.458742480877214
s(S'N4'
p12
g7
tp13
F11.663375436609053
s(g4
S'castellii'
p14
tp15
F110.9461758004541
s(g5
S'bayanus'
p16
tp17
F20.37669362397656
s(S'N0'
p18
g4
tp19
F13.004683208903714
s(g10
S'kudriavzevii'
p20
tp21
F21.290308944007492
s(g7
S'paradoxus'
p22
tp23
F7.838295448543825
s(g18
S'kluyveri'
p24
tp25
F0.0
s(g10
g12
tp26
F9.554265942348565
s(g12
S'mikatae'
p27
tp28
F26.939094002227133
ssS'ExpectedDwellTime'
p29
(dp30
g6
F581.2684372125435
sg9
F776.2387024831069
sg11
F768.0189425949084
sg13
F788.3585291994908
sg15
F598.1031555001974
sg17
F749.8752543792345
sg19
F202.28112827102015
sg21
F787.7995802883225
sg23
F782.9967324152057
sg25
F0.0
sg26
F788.5328590107443
sg28
F783.9934303230069
ssS'newicktree'
p31
S'../PairsAlignemt/YeastTree.newick'
p32
sS'll'
p33
cnumpy.core.multiarray
scalar
p34
(cnumpy
dtype
p35
(S'f8'
p36
I0
I1
tp37
Rp38
(I3
S'<'
p39
NNNI-1
I-1
I0
tp40
bS'\xf3\x7f7S\x0eq\xbf\xc0'
p41
tp42
Rp43
sS'edge_list'
p44
(lp45
g19
ag25
ag6
ag15
ag11
ag17
ag26
ag21
ag13
ag28
ag9
ag23
asS'edge_to_blen'
p46
(dp47
g19
g34
(g38
S'\xa5<`\xbc\xb8\xcb\xc0?'
p48
tp49
Rp50
sg9
g34
(g38
S'\xe9\x0e\xdc>\xa3\xda\xac?'
p51
tp52
Rp53
sg11
g34
(g38
S'\xe1m\xd9 [W\xa3?'
p54
tp55
Rp56
sg13
g34
(g38
S'\xf4\x94\xaf\x90\x95!\x9f?'
p57
tp58
Rp59
sg15
g34
(g38
S'\xe0<\x96\xf0\x9dd\xd6?'
p60
tp61
Rp62
sg17
g34
(g38
S'\xc1\xb7\xf5.\xa9\xf8\xab?'
p63
tp64
Rp65
sg6
g34
(g38
S'\xb0\xa8\n\x95\xc96\xd0?'
p66
tp67
Rp68
sg21
g34
(g38
S'N\xe0\xd1Q@\xe1\xae?'
p69
tp70
Rp71
sg23
g34
(g38
S'\x12\xab\xe8\xadgo\x96?'
p72
tp73
Rp74
sg28
g34
(g38
S'\xaf,\xfb\xb0QI\xb1?'
p75
tp76
Rp77
sg26
g34
(g38
S'e\xf4\xf8\xd7*\xa6\x99?'
p78
tp79
Rp80
sg25
g34
(g38
S'\xddvq\x05i\x9e\xcd?'
p81
tp82
Rp83
ssS'paralog'
p84
(lp85
S'YPL087W'
p86
aS'YBR183W'
p87
asS'alignment_file'
p88
S'../MafftAlignment/YPL087W_YBR183W/YPL087W_YBR183W_input.fasta'
p89
sS'x_clock'
p90
NsS'x'
p91
cnumpy.core.multiarray
_reconstruct
p92
(cnumpy
ndarray
p93
(I0
tp94
S'b'
p95
tp96
Rp97
(I1
(I18
tp98
g38
I00
S'\x01\x05\xc7\x16\xb2!\xe8\xbfx~\xecjE\xf1\xe2\xbf\x99\x7f\x11Y\xddU\xf0\xbf\x99*b\xbda\xdb\xf3?Q\x01\x11h[\x8b\xe7\xbf\x9e4\xc2\xea4\x87\xde\xbfC.\x01\xa0I?\x00\xc0;\xbd\xe5,\xfej\xf7\xbfu\xc0:c\xd6\xf7\xf5\xbfB\x84\xb2`X\xcd\xf0\xbf\x0fu"8l5\n\xc0\xea\xea\x85\xfb\xd4A\x07\xc0\xabd+\xce\xe6~\r\xc0H\x8a\xf7\xcd;w\x06\xc0\x12\x10[)3\xf2\x0b\xc0\xfb\xb0c\x04\xe3\x8f\x05\xc0;\\\xdf(3\x02\x07\xc0+\xa2@x\x15\x91\x0e\xc0'
p99
tp100
bsS'Model'
p101
S'HKY'
p102
sS'clock'
p103
I00
s.