(dp0
S'Force'
p1
NsS'ExpectedGeneconv'
p2
(dp3
(S'N1'
p4
S'N2'
p5
tp6
(lp7
F5.237329956133789
aF6.342732220045209
as(S'N5'
p8
S'cerevisiae'
p9
tp10
(lp11
F4.623142603554615
aF2.63330607266104
as(g5
S'N3'
p12
tp13
(lp14
F0.2759093226333375
aF0.4664760993589801
as(S'N4'
p15
g8
tp16
(lp17
F0.35957813943169586
aF0.634883631721888
as(g4
S'castellii'
p18
tp19
(lp20
F9.27811824824241
aF12.0555984571105
as(g5
S'bayanus'
p21
tp22
(lp23
F3.6227072513598753
aF5.240280285980581
as(S'N0'
p24
g4
tp25
(lp26
F0.3914670060026285
aF0.5112299415785283
as(g12
S'kudriavzevii'
p27
tp28
(lp29
F5.063070591371562
aF8.509147947031437
as(g8
S'paradoxus'
p30
tp31
(lp32
F0.292969928842785
aF3.709598267195496
as(g24
S'kluyveri'
p33
tp34
(lp35
F0.0
aF0.0
as(g12
g15
tp36
(lp37
F6.235624547280114e-06
aF1.4443519443876894e-05
as(g15
S'mikatae'
p38
tp39
(lp40
F7.442998646224357
aF6.00752097520536
assS'ExpectedDwellTime'
p41
(dp42
g6
F34.21499537414767
sg10
F48.34617355627022
sg13
F49.61958997043331
sg16
F51.49720544895703
sg19
F32.89209069067854
sg22
F50.015163323394376
sg25
F8.74535506318707
sg28
F51.228992678834466
sg31
F51.78269674313142
sg34
F0.0
sg36
F50.87819130613169
sg39
F53.78987461653252
ssS'newicktree'
p43
S'../PairsAlignemt/YeastTree.newick'
p44
sS'll'
p45
cnumpy.core.multiarray
scalar
p46
(cnumpy
dtype
p47
(S'f8'
p48
I0
I1
tp49
Rp50
(I3
S'<'
p51
NNNI-1
I-1
I0
tp52
bS'G\xe9\x8a\xd9\x8c\x7f\x95\xc0'
p53
tp54
Rp55
sS'edge_list'
p56
(lp57
g25
ag34
ag6
ag19
ag13
ag22
ag36
ag28
ag16
ag39
ag10
ag31
asS'edge_to_blen'
p58
(dp59
g25
g46
(g50
S'TA+\xe4MJ\xa1?'
p60
tp61
Rp62
sg10
g46
(g50
S'\xd5.Wf3\x90\xa1?'
p63
tp64
Rp65
sg13
g46
(g50
S'Q\x1e\xb2\xf3\xc3\x08{?'
p66
tp67
Rp68
sg16
g46
(g50
S'\x90\x80"\xe5\xb0\x80z?'
p69
tp70
Rp71
sg28
g46
(g50
S'/\xc2\x87\xdd\xddE\xb4?'
p72
tp73
Rp74
sg22
g46
(g50
S'\x9cs\xd7\x13^!\xaa?'
p75
tp76
Rp77
sg6
g46
(g50
S'\x08\x1a\xf3|\x97y\xbc?'
p78
tp79
Rp80
sg19
g46
(g50
S'\x86vb\xe0\xa5\x00\xc5?'
p81
tp82
Rp83
sg31
g46
(g50
S'\xc7f\xd1si\xd6\x96?'
p84
tp85
Rp86
sg34
g46
(g50
S'\xf4\xc4\x9bX\x15\x8c\xc9?'
p87
tp88
Rp89
sg36
g46
(g50
S'\xcf\xc6E\x97\xf8L\x95>'
p90
tp91
Rp92
sg39
g46
(g50
S'?)&`\x19\xfa\xb3?'
p93
tp94
Rp95
ssS'paralog'
p96
(lp97
S'YML026C'
p98
aS'YDR450W'
p99
asS'alignment_file'
p100
S'../MafftAlignment/YML026C_YDR450W/YML026C_YDR450W_input.fasta'
p101
sS'x_clock'
p102
NsS'x'
p103
cnumpy.core.multiarray
_reconstruct
p104
(cnumpy
ndarray
p105
(I0
tp106
S'b'
p107
tp108
Rp109
(I1
(I20
tp110
g50
I00
S'\x06\xfd\xd8t\xc3$\xe6\xbf\xbb\xf7\xe3z*\xe6\xe0\xbfQv\xa8!\xde\\\xeb\xbfV\n$\x17\xff+\xfb?\xc7\x80\xfd\x8d\x83\xdc\x04\xc0\x0c$\xb6\xef\xec\x9b\xf1?\xfc%10\x87\x99\xf6?\x86\xdd\xaf\xc6\x1d\xe9\xe6\xbf\xf7b*\x10\xff\x1a\x0b\xc0Y\x9dD\xdc\xb6\xc8\xf9\xbf6X\xc1,\xb8\x91\x01\xc0?i\xae\xf3\x0e\xeb\xfc\xbf\xbb\xc5kh(\x15\x14\xc0\x14k\xd3\x0eD\xcd\x07\xc0G\xbd?\xe7\x19\xed-\xc0o\xe4\x9d\x89\x81I\x04\xc0D\xa6 \xf7})\x14\xc0\x8e\xb5\xa6\x1b\xa0g\x04\xc0,z\x99\xa1\xe8\xfa\n\xc0\xd7/\x13\xc9\xadl\x0e\xc0'
p111
tp112
bsS'Model'
p113
S'MG94'
p114
sS'clock'
p115
I00
s.