(dp0
S'Force'
p1
NsS'ExpectedGeneconv'
p2
(dp3
(S'N1'
p4
S'N2'
p5
tp6
F7.726951974362349
s(S'N5'
p7
S'cerevisiae'
p8
tp9
F2.9137645079459715
s(g5
S'N3'
p10
tp11
F1.2198295171134679
s(S'N4'
p12
g7
tp13
F0.3924424349564743
s(g4
S'castellii'
p14
tp15
F6.503255544977771
s(g5
S'bayanus'
p16
tp17
F4.163112048781154
s(S'N0'
p18
g4
tp19
F0.4621862204093488
s(g10
S'kudriavzevii'
p20
tp21
F2.1711785307483833
s(g7
S'paradoxus'
p22
tp23
F3.3207818495341317
s(g18
S'kluyveri'
p24
tp25
F0.0
s(g10
g12
tp26
F1.0235449980921238
s(g12
S'mikatae'
p27
tp28
F7.3502844530249964
ssS'ExpectedDwellTime'
p29
(dp30
g6
F26.983176013281067
sg9
F50.309158233738245
sg11
F36.975112717350115
sg13
F46.01252824875508
sg15
F29.297239028920945
sg17
F39.40541902270398
sg19
F8.294883073499323
sg21
F54.66497793706231
sg23
F47.93614395240752
sg25
F0.0
sg26
F43.94040717682416
sg28
F50.91825160813299
ssS'newicktree'
p31
S'../PairsAlignemt/YeastTree.newick'
p32
sS'll'
p33
cnumpy.core.multiarray
scalar
p34
(cnumpy
dtype
p35
(S'f8'
p36
I0
I1
tp37
Rp38
(I3
S'<'
p39
NNNI-1
I-1
I0
tp40
bS']-\x91m\xaeg\x92\xc0'
p41
tp42
Rp43
sS'edge_list'
p44
(lp45
g19
ag25
ag6
ag15
ag11
ag17
ag26
ag21
ag13
ag28
ag9
ag23
asS'edge_to_blen'
p46
(dp47
g6
g34
(g38
S'\x83\xd3\xe3\xf4i\xbd\xbc?'
p48
tp49
Rp50
sg9
g34
(g38
S'\xcf\xee~\xe6\xbdl\xa5?'
p51
tp52
Rp53
sg11
g34
(g38
S'w\xa1\xa3\x03\xcc{\x9c?'
p54
tp55
Rp56
sg13
g34
(g38
S"\xee\xa8k')~k?"
p57
tp58
Rp59
sg21
g34
(g38
S'\x80jP\xf2\x19\x0b\xaf?'
p60
tp61
Rp62
sg17
g34
(g38
S'<\xd6\x8d\xdf\x9a+\xb3?'
p63
tp64
Rp65
sg19
g34
(g38
S'\x86\x12\x87pt\x1c\xa5?'
p66
tp67
Rp68
sg15
g34
(g38
S'\xa1\x17\x19`\x82!\xbd?'
p69
tp70
Rp71
sg23
g34
(g38
S't\xe2\x12%\xfeQ\xa3?'
p72
tp73
Rp74
sg25
g34
(g38
S'\xee%8\xc1\x11h\xce?'
p75
tp76
Rp77
sg26
g34
(g38
S'\xd4:\x83=NV\x94?'
p78
tp79
Rp80
sg28
g34
(g38
S'\xdb\x03[p\xf2\xc3\xb6?'
p81
tp82
Rp83
ssS'paralog'
p84
(lp85
S'YLR406C'
p86
aS'YDL075W'
p87
asS'alignment_file'
p88
S'../MafftAlignment/YLR406C_YDL075W/YLR406C_YDL075W_input.fasta'
p89
sS'x_clock'
p90
NsS'x'
p91
cnumpy.core.multiarray
_reconstruct
p92
(cnumpy
ndarray
p93
(I0
tp94
S'b'
p95
tp96
Rp97
(I1
(I19
tp98
g38
I00
S')}!\x8e#\x9b\xe4\xbf\x12 \xe5\x00q\xb8\xde\xbf\xd1\x11F\xc4\xd3\xef\xed\xbf\x83Q\xc8Mf}\xfd?\x90_\x02`{\xaf\x03\xc0\x84*\xb2\x98\xd1\xe0\xdf?c\xa8\xb1\x8e\xb6\x8f\xd9?Ezmt\x18\x82\t\xc0\xe9\xf0\x96\x03{\xff\xf6\xbfY*w\xc4\xc0~\x01\xc0\x9f\x8ex\x12\x14c\x01\xc0\x8c\x87\x12\x18;\xa8\x0c\xc0\xe9\x83\x1c\xc1\x08\xbc\x04\xc0>\x87\xbe\xf8(Z\x0f\xc0\xd7\x90\x81\x90kl\x06\xc0\xae5]c\xb7\xc9\x16\xc0\xdd\xe7@\xc8\x06\\\x03\xc0\xda^\x86\x13\xe5c\t\xc0\xe0\x0c\x14m\xa47\n\xc0'
p99
tp100
bsS'Model'
p101
S'MG94'
p102
sS'clock'
p103
I00
s.