(dp0
S'Force'
p1
NsS'ExpectedGeneconv'
p2
(dp3
(S'N1'
p4
S'N2'
p5
tp6
F7.795579256031557
s(S'N5'
p7
S'cerevisiae'
p8
tp9
F6.733802199862019
s(g5
S'N3'
p10
tp11
F1.4590560225195133
s(S'N4'
p12
g7
tp13
F0.6359912625528975
s(g4
S'castellii'
p14
tp15
F9.923116365215597
s(g5
S'bayanus'
p16
tp17
F4.972974552098706
s(S'N0'
p18
g4
tp19
F0.5887013685875904
s(g10
S'kudriavzevii'
p20
tp21
F2.331367147792801
s(g7
S'paradoxus'
p22
tp23
F2.064913105157868
s(g18
S'kluyveri'
p24
tp25
F0.0
s(g10
g12
tp26
F2.041219116668409
s(g12
S'mikatae'
p27
tp28
F5.256747528527721
ssS'ExpectedDwellTime'
p29
(dp30
g6
F37.778004798176404
sg9
F57.30218733435815
sg11
F51.33472555877895
sg13
F60.32334146320852
sg15
F46.4439838238584
sg17
F52.98587737312134
sg19
F10.45082375486087
sg21
F57.28740943504963
sg23
F66.36748526977263
sg25
F0.0
sg26
F56.510001193711574
sg28
F62.313297260545525
ssS'newicktree'
p31
S'../PairsAlignemt/YeastTree.newick'
p32
sS'll'
p33
cnumpy.core.multiarray
scalar
p34
(cnumpy
dtype
p35
(S'f8'
p36
I0
I1
tp37
Rp38
(I3
S'<'
p39
NNNI-1
I-1
I0
tp40
bS'K\xd4\x92\x03F\xcd\x92\xc0'
p41
tp42
Rp43
sS'edge_list'
p44
(lp45
g19
ag25
ag6
ag15
ag11
ag17
ag26
ag21
ag13
ag28
ag9
ag23
asS'edge_to_blen'
p46
(dp47
g6
g34
(g38
S'K\xc1h\x06D}\xc1?'
p48
tp49
Rp50
sg9
g34
(g38
S'\x82\xe8G\xc9\x02A\xab?'
p51
tp52
Rp53
sg11
g34
(g38
S'R\xc3eB\xf2\xfc\x9a?'
p54
tp55
Rp56
sg13
g34
(g38
S"\x92\x03F\xbd',\x84?"
p57
tp58
Rp59
sg21
g34
(g38
S'\x0c\x03s\xb5O\xcd\xa6?'
p60
tp61
Rp62
sg17
g34
(g38
S'\xb5?_B;\xf4\xb0?'
p63
tp64
Rp65
sg19
g34
(g38
S'Ty\xac0ju\xa8?'
p66
tp67
Rp68
sg15
g34
(g38
S'{\xd6{\xda\xff\x0e\xc8?'
p69
tp70
Rp71
sg23
g34
(g38
S'P\xf0\xfd\xdc\xd3\xc4\xa3?'
p72
tp73
Rp74
sg25
g34
(g38
S']b\x14!U[\xba?'
p75
tp76
Rp77
sg26
g34
(g38
S'\x1b\xcdM\xbdv\xb2\xa1?'
p78
tp79
Rp80
sg28
g34
(g38
S'\xceO\xe1\xc6:n\xb0?'
p81
tp82
Rp83
ssS'paralog'
p84
(lp85
S'YER131W'
p86
aS'YGL189C'
p87
asS'alignment_file'
p88
S'../MafftAlignment/YER131W_YGL189C/YER131W_YGL189C_input.fasta'
p89
sS'x_clock'
p90
NsS'x'
p91
cnumpy.core.multiarray
_reconstruct
p92
(cnumpy
ndarray
p93
(I0
tp94
S'b'
p95
tp96
Rp97
(I1
(I19
tp98
g38
I00
S'(m\xa1\xa6uq\xe5\xbf\xbb[#\'\xf3\xa8\xdb\xbf1\x85\xc1OkZ\xe7\xbf\xb7\xd3\xe7"\xecc\xfe??\xdb\xe3\xe7\xc9P\x07\xc0\x0cDNHI\x07\xcb?-\x80\xd0\xaff\xcf\xf6?y\xac\x97d\xaaT\x08\xc0\xf5n\xe2\xca\x070\x02\xc0+-\xf1\x81\xd7\xd8\xff\xbf\xe0\xe5\xed\xba\x9e\xbe\xfa\xbfl\xc6\x01s\xaf\x16\r\xc0E\xab>\xea\xa5\xb7\x05\xc0\'\x0cWx\\\xeb\n\xc0\x8e\xdb@\xc8M\xe4\x08\xc0\xfc\xcd\xc0\xd2/{\x12\xc0\x7f\x87\x0c\x1f\xe0\xf7\x05\xc0\xfa\xa6A\xdf\nw\x07\xc0\x06\x0e\xa2\xcc\xa2\x08\n\xc0'
p99
tp100
bsS'Model'
p101
S'MG94'
p102
sS'clock'
p103
I00
s.