(dp0
S'Force'
p1
NsS'ExpectedGeneconv'
p2
(dp3
(S'N1'
p4
S'N2'
p5
tp6
F17.571792022957535
s(S'N5'
p7
S'cerevisiae'
p8
tp9
F4.960430418518134
s(g5
S'N3'
p10
tp11
F1.5227964668147624
s(S'N4'
p12
g7
tp13
F4.095465559985798
s(g4
S'castellii'
p14
tp15
F6.700937103931338
s(g5
S'bayanus'
p16
tp17
F6.528683189336852
s(S'N0'
p18
g4
tp19
F0.2749417324867591
s(g10
S'kudriavzevii'
p20
tp21
F7.63177536115663
s(g7
S'paradoxus'
p22
tp23
F3.315053139032052
s(g18
S'kluyveri'
p24
tp25
F0.0
s(g10
g12
tp26
F2.4821489075824164
s(g12
S'mikatae'
p27
tp28
F8.655217282681496
ssS'ExpectedDwellTime'
p29
(dp30
g6
F208.8195104141999
sg9
F351.9537566468603
sg11
F335.9471193184862
sg13
F343.4017922045396
sg15
F117.66802486160353
sg17
F339.9847267115009
sg19
F25.74179895511991
sg21
F342.74746688442235
sg23
F354.3464039198729
sg25
F0.0
sg26
F338.6301313247808
sg28
F337.67088476271266
ssS'newicktree'
p31
S'../PairsAlignemt/YeastTree.newick'
p32
sS'll'
p33
cnumpy.core.multiarray
scalar
p34
(cnumpy
dtype
p35
(S'f8'
p36
I0
I1
tp37
Rp38
(I3
S'<'
p39
NNNI-1
I-1
I0
tp40
bS'\xa2\x8e\xa5\x00V\x8f\xa8\xc0'
p41
tp42
Rp43
sS'edge_list'
p44
(lp45
g19
ag25
ag6
ag15
ag11
ag17
ag26
ag21
ag13
ag28
ag9
ag23
asS'edge_to_blen'
p46
(dp47
g19
g34
(g38
S'\x05^\xdfG\xd0\x14\xa0?'
p48
tp49
Rp50
sg9
g34
(g38
S'%|\xc0cvs\xa6?'
p51
tp52
Rp53
sg11
g34
(g38
S'\xff:H\xc1\xa20\x90?'
p54
tp55
Rp56
sg13
g34
(g38
S'\xb78\xf9\x8b\xbb\xf4\x9e?'
p57
tp58
Rp59
sg15
g34
(g38
S'\xce\x16\xc1\xf4\x97E\xbc?'
p60
tp61
Rp62
sg17
g34
(g38
S'i\xde\x0c\xf7?\xb9\xaf?'
p63
tp64
Rp65
sg6
g34
(g38
S'o\xc8\x9a\xcc\xb8\xc1\xd1?'
p66
tp67
Rp68
sg21
g34
(g38
S"@\x04\xe9O'\xd4\xac?"
p69
tp70
Rp71
sg23
g34
(g38
S'\xc99\x7f\x8c\x05\x07\xa0?'
p72
tp73
Rp74
sg25
g34
(g38
S'\x82:\xf6 ](\xc2?'
p75
tp76
Rp77
sg26
g34
(g38
S'\xf9\xb6_\x80\xb6\xc6\x8d?'
p78
tp79
Rp80
sg28
g34
(g38
S'\x8c\xc0\x19\xb3\xbb\xcb\xb0?'
p81
tp82
Rp83
ssS'paralog'
p84
(lp85
S'YPL037C'
p86
aS'YDR252W'
p87
asS'alignment_file'
p88
S'../MafftAlignment/YPL037C_YDR252W/YPL037C_YDR252W_input.fasta'
p89
sS'x_clock'
p90
NsS'x'
p91
cnumpy.core.multiarray
_reconstruct
p92
(cnumpy
ndarray
p93
(I0
tp94
S'b'
p95
tp96
Rp97
(I1
(I18
tp98
g38
I00
S'`\x82i\r\xc0\x82\xe5\xbf\x92_Q#Eh\xdc\xbf9.\xe3\x0c\x1e\xc1\xe6\xbf\x9a\x1c\x93w\xd0L\xf7?\x1c\xc2 \xe6\xaa\xd3\xf1\xbfV<&1][\xf1?\xb0\xc9\xc2Yr\xaf\x0b\xc0"\x91Z\x05;?\xff\xbf\xd1}\x85\xe7\x8e\x83\xf4\xbf\xe4\xfa\xafna\xa0\x01\xc0>\x06\xab\xe4\x9b\x96\x10\xc0\xaf\x1c\xce\xab\x06@\x06\xc0\xadw\xbe\\s\xec\x10\xc0j\xb01\x97\xff\x03\x07\xc0\x87\xd8I\x1c\xc2\xfd\x0b\xc0\xbb\x83\\\xf6\xd8\xca\x05\xc0\x13 \x15w\x12\x04\t\xc0r\xc2v\xbdQ\xb6\x0b\xc0'
p99
tp100
bsS'Model'
p101
S'HKY'
p102
sS'clock'
p103
I00
s.