(dp0
S'Force'
p1
NsS'ExpectedGeneconv'
p2
(dp3
(S'N1'
p4
S'N2'
p5
tp6
(lp7
F161.35185368146682
aF0.038911356593394494
as(S'N5'
p8
S'cerevisiae'
p9
tp10
(lp11
F52.3519917379262
aF0.012041832462662752
as(g5
S'N3'
p12
tp13
(lp14
F41.04376845042931
aF0.006520683208079332
as(S'N4'
p15
g8
tp16
(lp17
F25.728950801798888
aF0.004725496694625235
as(g4
S'castellii'
p18
tp19
(lp20
F228.81166570120638
aF0.04688535990130036
as(g5
S'bayanus'
p21
tp22
(lp23
F53.1734976917581
aF0.008967522790918017
as(S'N0'
p24
g4
tp25
(lp26
F60.395430751264335
aF0.013567122119164965
as(g12
S'kudriavzevii'
p27
tp28
(lp29
F68.24950850044173
aF0.014610299339780372
as(g8
S'paradoxus'
p30
tp31
(lp32
F30.422625187061126
aF0.0056399215152593074
as(g24
S'kluyveri'
p33
tp34
(lp35
F0.0
aF0.0
as(g12
g15
tp36
(lp37
F30.917521003268433
aF0.005652123962413046
as(g15
S'mikatae'
p38
tp39
(lp40
F64.73764568663478
aF0.01785268549125062
assS'ExpectedDwellTime'
p41
(dp42
g6
F2453.220922733608
sg10
F3045.288650605217
sg13
F2907.9138743803856
sg16
F3003.7261853506775
sg19
F2469.762672030096
sg22
F2942.2877421013495
sg25
F1085.2774463748456
sg28
F2994.9628969111445
sg31
F3053.6099595967185
sg34
F0.0
sg36
F2966.5171272054986
sg39
F3023.338006346378
ssS'newicktree'
p43
S'../PairsAlignemt/YeastTree.newick'
p44
sS'll'
p45
cnumpy.core.multiarray
scalar
p46
(cnumpy
dtype
p47
(S'f8'
p48
I0
I1
tp49
Rp50
(I3
S'<'
p51
NNNI-1
I-1
I0
tp52
bS"\xc3\x0b\r'\x9a-\xdd\xc0"
p53
tp54
Rp55
sS'edge_list'
p56
(lp57
g25
ag34
ag6
ag19
ag13
ag22
ag36
ag28
ag16
ag39
ag10
ag31
asS'edge_to_blen'
p58
(dp59
g6
g46
(g50
S'\xf1\xa2\xebM\x03\xc0\xd3?'
p60
tp61
Rp62
sg10
g46
(g50
S'I\xe3Ow`p\xb6?'
p63
tp64
Rp65
sg13
g46
(g50
S'-n\xb6)\xdf/\xb0?'
p66
tp67
Rp68
sg16
g46
(g50
S'\xe3WTK\x81\xf9\xa3?'
p69
tp70
Rp71
sg28
g46
(g50
S'cJ\x8c\x05\x10\xd0\xbc?'
p72
tp73
Rp74
sg22
g46
(g50
S'\xcfDr\xb8)W\xb7?'
p75
tp76
Rp77
sg25
g46
(g50
S'T\xf5l6.\x05\xd0?'
p78
tp79
Rp80
sg19
g46
(g50
S'\xe1\x16\xa6Qj\xe7\xd8?'
p81
tp82
Rp83
sg31
g46
(g50
S'\xaa\x8e\x9b\xf4)\xbe\xab?'
p84
tp85
Rp86
sg34
g46
(g50
S'\xfc\xdb\x17Pd\x1f\xcd?'
p87
tp88
Rp89
sg36
g46
(g50
S'I\xf9\x03l\xe4=\xa9?'
p90
tp91
Rp92
sg39
g46
(g50
S'\n"\xf9\xd5,\x8e\xbd?'
p93
tp94
Rp95
ssS'paralog'
p96
(lp97
S'YGL133W'
p98
aS'YPL216W'
p99
asS'alignment_file'
p100
S'../MafftAlignment/YGL133W_YPL216W/YGL133W_YPL216W_input.fasta'
p101
sS'x_clock'
p102
NsS'x'
p103
cnumpy.core.multiarray
_reconstruct
p104
(cnumpy
ndarray
p105
(I0
tp106
S'b'
p107
tp108
Rp109
(I1
(I19
tp110
g50
I00
S'oM\xa9\xe2\xfe#\xe4\xbfGJ\xb8\xff\xf6n\xdd\xbf\x87\xcbK\xbe\x9a\x83\xec\xbf)\xf0\x0e\x81\xac \xf4?\xb7\x0b+\xf0\xdf\x83\xec\xbf\x13\x85\xa4A\xfax"\xc0\x8a7\xca\xb8\xd3`\xed\xbf\x8a\xb6\x12\x9f\x15)\xf6\xbf\xb9\t\xeai0\xb0\xf7\xbf\xfd\xe0\xdc\'\xc7\xcf\xf2\xbf\xf5\x1c\xc7\x86\x114\xee\xbfk\x97 \xf2v\x16\x06\xc0kU\xc5\x97\xef(\x03\xc0\xb5~\xb2\xea\x1e\x14\x08\xc0\xc2\xa5\xdc\x8b\x91y\x01\xc0\x9f\xe3e\xc3m\xf3\t\xc0\x05\xad\xf7\x9esE\x01\xc0g\x08"D\x9by\x03\xc0yB<\x98\xa1R\x07\xc0'
p111
tp112
bsS'Model'
p113
S'HKY'
p114
sS'clock'
p115
I00
s.