(dp0
S'Force'
p1
NsS'ExpectedGeneconv'
p2
(dp3
(S'N1'
p4
S'N2'
p5
tp6
F163.32912191941855
s(S'N5'
p7
S'cerevisiae'
p8
tp9
F55.38486405727357
s(g5
S'N3'
p10
tp11
F27.799817762448495
s(S'N4'
p12
g7
tp13
F29.117393495559174
s(g4
S'castellii'
p14
tp15
F322.71818599090676
s(g5
S'bayanus'
p16
tp17
F61.25155358206686
s(S'N0'
p18
g4
tp19
F62.09344050491883
s(g10
S'kudriavzevii'
p20
tp21
F64.33907914990678
s(g7
S'paradoxus'
p22
tp23
F39.02505003676588
s(g18
S'kluyveri'
p24
tp25
F0.0
s(g10
g12
tp26
F39.18735184993201
s(g12
S'mikatae'
p27
tp28
F69.9829714738413
ssS'ExpectedDwellTime'
p29
(dp30
g6
F1436.4212253499118
sg9
F1837.8592835612062
sg11
F1731.9476978891848
sg13
F1812.41370852426
sg15
F1598.8471612935941
sg17
F1730.6231857320997
sg19
F613.1576244562012
sg21
F1788.560620364993
sg23
F1826.571104719994
sg25
F0.0
sg26
F1771.524245861593
sg28
F1794.9091112373828
ssS'newicktree'
p31
S'../PairsAlignemt/YeastTree.newick'
p32
sS'll'
p33
cnumpy.core.multiarray
scalar
p34
(cnumpy
dtype
p35
(S'f8'
p36
I0
I1
tp37
Rp38
(I3
S'<'
p39
NNNI-1
I-1
I0
tp40
bS'\xb9m\xfa\xb8`x\xd4\xc0'
p41
tp42
Rp43
sS'edge_list'
p44
(lp45
g19
ag25
ag6
ag15
ag11
ag17
ag26
ag21
ag13
ag28
ag9
ag23
asS'edge_to_blen'
p46
(dp47
g19
g34
(g38
S'\xc69\x8a\x03\xf0\x83\xc3?'
p48
tp49
Rp50
sg9
g34
(g38
S'\xee\xc6(s\xa0\xf9\xa7?'
p51
tp52
Rp53
sg11
g34
(g38
S'sQ\xa0\xff\x0c\x83\x9b?'
p54
tp55
Rp56
sg13
g34
(g38
S'=\x94xU"\xd8\x9b?'
p57
tp58
Rp59
sg15
g34
(g38
S'\x14ss\xed\xd5W\xd3?'
p60
tp61
Rp62
sg17
g34
(g38
S'1\x93+)#=\xac?'
p63
tp64
Rp65
sg6
g34
(g38
S'\xdd\xc6\x0c>$+\xc6?'
p66
tp67
Rp68
sg21
g34
(g38
S'\xc2b\x12\r\xf1\xdd\xaf?'
p69
tp70
Rp71
sg23
g34
(g38
S'\xd0M\xe7<9\xb7\x9f?'
p72
tp73
Rp74
sg28
g34
(g38
S'\xa6heI\xd4\x15\xaf?'
p75
tp76
Rp77
sg26
g34
(g38
S'\xb3h\x06j\xd2\xb0\xa2?'
p78
tp79
Rp80
sg25
g34
(g38
S'\x80a\xaf:\xd2a\xc1?'
p81
tp82
Rp83
ssS'paralog'
p84
(lp85
S'YNL049C'
p86
aS'YIL109C'
p87
asS'alignment_file'
p88
S'../MafftAlignment/YNL049C_YIL109C/YNL049C_YIL109C_input.fasta'
p89
sS'x_clock'
p90
NsS'x'
p91
cnumpy.core.multiarray
_reconstruct
p92
(cnumpy
ndarray
p93
(I0
tp94
S'b'
p95
tp96
Rp97
(I1
(I18
tp98
g38
I00
S'\x0c\x9b\xb3C\x01H\xe7\xbf)\xdb\xfa\xdeE\x08\xe0\xbf\xb3\x85\n_a \xea\xbf\x1b\x85\x03\x17\x89\xca\xf4?`\x95Aww\xa3\xdf\xbf\xf5\x84\x92`\x95\t\xf0\xbf\x1a\x1b\xb6g\xde\x17\xfe\xbf\xad\xef\xab\xcb\x06\xf2\xff\xbfw3K\xfc\xbf\r\xfc\xbf\xd0I1]\x0e%\xf3\xbf\xbc\x0f<cP\xef\x0c\xc0\x02\xa2\xe6\x1aW.\x07\xc0x\x11\xf1\x81}{\n\xc0G\xaa\xe8F\xcb6\x06\xc0;\x7f\xf8\xb1\xb8\xd6\x0c\xc0\xc4,\x80L\xa8i\x06\xc0\xa9\x81\x00c\x8f}\x08\xc0d0{?\x1a\xcc\x0b\xc0'
p99
tp100
bsS'Model'
p101
S'HKY'
p102
sS'clock'
p103
I00
s.