(dp0
S'Force'
p1
NsS'ExpectedGeneconv'
p2
(dp3
(S'N1'
p4
S'N2'
p5
tp6
F24.700630215305797
s(S'N5'
p7
S'cerevisiae'
p8
tp9
F6.076603674940308
s(g5
S'N3'
p10
tp11
F7.759107395634337
s(S'N4'
p12
g7
tp13
F17.450447491182782
s(g4
S'castellii'
p14
tp15
F52.88133300929193
s(g5
S'bayanus'
p16
tp17
F31.160124228874768
s(S'N0'
p18
g4
tp19
F51.64036845966265
s(g10
S'kudriavzevii'
p20
tp21
F19.450710395917593
s(g7
S'paradoxus'
p22
tp23
F6.235134216358255
s(g18
S'kluyveri'
p24
tp25
F0.0
s(g10
g12
tp26
F9.222729007524343
s(g12
S'mikatae'
p27
tp28
F8.96224075679572
ssS'ExpectedDwellTime'
p29
(dp30
g6
F79.59364314642713
sg9
F27.935244736590317
sg11
F76.26349121236937
sg13
F47.24844291228172
sg15
F79.4458619898218
sg17
F66.43749316469986
sg19
F49.18096874618767
sg21
F86.23670615435265
sg23
F34.323457311505045
sg25
F0.0
sg26
F68.5458144556393
sg28
F63.21264154261407
ssS'newicktree'
p31
S'../PairsAlignemt/YeastTree.newick'
p32
sS'll'
p33
cnumpy.core.multiarray
scalar
p34
(cnumpy
dtype
p35
(S'f8'
p36
I0
I1
tp37
Rp38
(I3
S'<'
p39
NNNI-1
I-1
I0
tp40
bS'=E~\x83~\x87\xa0\xc0'
p41
tp42
Rp43
sS'edge_list'
p44
(lp45
g19
ag25
ag6
ag15
ag11
ag17
ag26
ag21
ag13
ag28
ag9
ag23
asS'edge_to_blen'
p46
(dp47
g6
g34
(g38
S'\xf3\xf7\x1d\x14\xcdy\x94?'
p48
tp49
Rp50
sg9
g34
(g38
S'\xf5bE=\xd7]r?'
p51
tp52
Rp53
sg11
g34
(g38
S'\x16L\xc4\xc5yzy?'
p54
tp55
Rp56
sg13
g34
(g38
S'\x9aB\x16\x8b\xb5;\x87?'
p57
tp58
Rp59
sg21
g34
(g38
S'\xc8\xb6}\x80kc\x97?'
p60
tp61
Rp62
sg17
g34
(g38
S'&\xb9v\x10W\x8d\x98?'
p63
tp64
Rp65
sg19
g34
(g38
S'Kt\x13\xd6\x8f|\xb3?'
p66
tp67
Rp68
sg15
g34
(g38
S'\xd4SbW\xe65\xa6?'
p69
tp70
Rp71
sg23
g34
(g38
S'\xffpj\xe0\xaf\x1e\x80?'
p72
tp73
Rp74
sg25
g34
(g38
S'Y\x15\xac\xfb5\xea\x94>'
p75
tp76
Rp77
sg26
g34
(g38
S'\x00\x19\xf3gU\xc9w?'
p78
tp79
Rp80
sg28
g34
(g38
S'\xbbZ\r\x18\x17P\x82?'
p81
tp82
Rp83
ssS'paralog'
p84
(lp85
S'YER102W'
p86
aS'YBL072C'
p87
asS'alignment_file'
p88
S'../MafftAlignment/YER102W_YBL072C/YER102W_YBL072C_input.fasta'
p89
sS'x_clock'
p90
NsS'x'
p91
cnumpy.core.multiarray
_reconstruct
p92
(cnumpy
ndarray
p93
(I0
tp94
S'b'
p95
tp96
Rp97
(I1
(I18
tp98
g38
I00
S'\x80\x97?\x07\x1a\x0b\xe7\xbf>\xe8\x1cw\xe9P\xe2\xbf\xdeW\xbd\xb6qD\xe8\xbf\x115%\xe6\x07S\x01@`\xa7\x8b\xffY!\x06@\x95\x87\xca(\xf5\x18\xd3\xbf\xe5t\xc7\x8c\x86\x9a\x04\xc0\x01&\xf1\x8au\xf6-\xc0}\x08\xa8\x9e>L\x0f\xc0\xb7\xb8\xe3\x8d \x1a\t\xc0\xf5t\xa9M\xdaQ\x14\xc0e\xdf\xa6\x9ek\xd8\r\xc0V\xf8\x15\x9f7\x98\x14\xc0Q\x07\t\xb6\xde;\x0e\xc0d3,(\x88\xea\x11\xc0\x86>\x9cg9\xde\x12\xc0o\xc4\x92\x03\x02\xa1\x15\xc0\x80\x7f\x08\xf9\xd5`\x13\xc0'
p99
tp100
bsS'Model'
p101
S'HKY'
p102
sS'clock'
p103
I00
s.