(dp0
S'Force'
p1
NsS'ExpectedGeneconv'
p2
(dp3
(S'N1'
p4
S'N2'
p5
tp6
F210.6133124820866
s(S'N5'
p7
S'cerevisiae'
p8
tp9
F48.30872137871508
s(g5
S'N3'
p10
tp11
F43.77642318453132
s(S'N4'
p12
g7
tp13
F31.364978628601023
s(g4
S'castellii'
p14
tp15
F350.3680852793864
s(g5
S'bayanus'
p16
tp17
F95.6066889988327
s(S'N0'
p18
g4
tp19
F193.47522424931242
s(g10
S'kudriavzevii'
p20
tp21
F81.57179462893518
s(g7
S'paradoxus'
p22
tp23
F50.9233423901665
s(g18
S'kluyveri'
p24
tp25
F0.0
s(g10
g12
tp26
F28.751143975912946
s(g12
S'mikatae'
p27
tp28
F100.39834191711074
ssS'ExpectedDwellTime'
p29
(dp30
g6
F1051.1965767134388
sg9
F1226.690736128713
sg11
F1180.5886932502215
sg13
F1217.6976187233026
sg15
F1054.1876167021223
sg17
F1156.5446732635683
sg19
F579.8044930411061
sg21
F1198.4947763339733
sg23
F1189.1301720976503
sg25
F0.0
sg26
F1213.3231360688917
sg28
F1211.3653628604027
ssS'newicktree'
p31
S'../PairsAlignemt/YeastTree.newick'
p32
sS'll'
p33
cnumpy.core.multiarray
scalar
p34
(cnumpy
dtype
p35
(S'f8'
p36
I0
I1
tp37
Rp38
(I3
S'<'
p39
NNNI-1
I-1
I0
tp40
bS'\x9e\xee\x88\xa4\xa0\xfd\xce\xc0'
p41
tp42
Rp43
sS'edge_list'
p44
(lp45
g19
ag25
ag6
ag15
ag11
ag17
ag26
ag21
ag13
ag28
ag9
ag23
asS'edge_to_blen'
p46
(dp47
g19
g34
(g38
S'\x9b\xc6\x15\\\\\xef\xcb?'
p48
tp49
Rp50
sg9
g34
(g38
S'5\xc7\xc7w\xef\x0b\xa2?'
p51
tp52
Rp53
sg11
g34
(g38
S')\x86\xe5\x0eM\xe5\x9e?'
p54
tp55
Rp56
sg13
g34
(g38
S'\x19u\xafF\x89p\x94?'
p57
tp58
Rp59
sg15
g34
(g38
S'c\xf8\x8f\x83\x91P\xcb?'
p60
tp61
Rp62
sg17
g34
(g38
S'\x90\xd9\xbfv3J\xad?'
p63
tp64
Rp65
sg6
g34
(g38
S'\xf4(\xe3\xafk\x84\xc1?'
p66
tp67
Rp68
sg21
g34
(g38
S'\x15z\xeb\x97\xd9\xd7\xab?'
p69
tp70
Rp71
sg23
g34
(g38
S'qM"\xf8\x88\x06\x9d?'
p72
tp73
Rp74
sg28
g34
(g38
S'\xe8\xc5\xcca\xba|\xad?'
p75
tp76
Rp77
sg26
g34
(g38
S'0\xbbO\x00c\xa0\x95?'
p78
tp79
Rp80
sg25
g34
(g38
S'f\xab\xb8-\x11|\xba?'
p81
tp82
Rp83
ssS'paralog'
p84
(lp85
S'YPR159W'
p86
aS'YGR143W'
p87
asS'alignment_file'
p88
S'../MafftAlignment/YPR159W_YGR143W/YPR159W_YGR143W_input.fasta'
p89
sS'x_clock'
p90
NsS'x'
p91
cnumpy.core.multiarray
_reconstruct
p92
(cnumpy
ndarray
p93
(I0
tp94
S'b'
p95
tp96
Rp97
(I1
(I18
tp98
g38
I00
S'#\xde\r\xc9\x97\xb2\xe7\xbf\x1a\n\xe7\xdf\r\xf9\xe1\xbf\xf1\x90\xf5i\x00\xe5\xe7\xbf}\x06\xd3\xdd\xdb\xa4\xf4?\x1ah\xff\xf2\x8c\x9c\xd0?LS\x85\x82\x16\xd0\xf5\xbf\xbdf \xb8\xb9Z\xf8\xbf\x90xS^\x1e&\x02\xc0\\\xd5\xf1(M\xd2\xff\xbf\xcc\x8f)5\xb3\xb6\xf8\xbf\x9bwF\t\xc0\x01\x0c\xc0\xbb|\xa4\xd4\x7f\xe3\x06\xc0y\xf7\x89+D\xdc\x0e\xc0V6\x88\xd8<K\x07\xc0\xfb\x93\x9e\x1d\xdeO\x0f\xc0\xc2\x12\r\xbd\xbe\xd5\x06\xc0#\xd7aHO\xc3\n\xc0\xfc;]c\xa1\x81\x0c\xc0'
p99
tp100
bsS'Model'
p101
S'HKY'
p102
sS'clock'
p103
I00
s.