(dp0
S'Force'
p1
NsS'ExpectedGeneconv'
p2
(dp3
(S'N1'
p4
S'N2'
p5
tp6
(lp7
F35.34218645075168
aF9.203918247631865
as(S'N5'
p8
S'cerevisiae'
p9
tp10
(lp11
F7.351919990861574
aF6.467220312594481
as(g5
S'N3'
p12
tp13
(lp14
F4.242239351967846
aF2.2954158105483327
as(S'N4'
p15
g8
tp16
(lp17
F2.8213348029577388
aF3.1577955459413882
as(g4
S'castellii'
p18
tp19
(lp20
F20.534690154654353
aF5.112678836376862
as(g5
S'bayanus'
p21
tp22
(lp23
F13.949340139481619
aF6.664853473758467
as(S'N0'
p24
g4
tp25
(lp26
F1.415618295399946e-08
aF2.6109837198302514e-09
as(g12
S'kudriavzevii'
p27
tp28
(lp29
F6.853718178829335
aF4.954472934893502
as(g8
S'paradoxus'
p30
tp31
(lp32
F4.653127846735628
aF2.9140195574832917
as(g24
S'kluyveri'
p33
tp34
(lp35
F0.0
aF0.0
as(g12
g15
tp36
(lp37
F2.8975311438605176
aF3.2228616652313953
as(g15
S'mikatae'
p38
tp39
(lp40
F9.04695215839903
aF8.094861447130745
assS'ExpectedDwellTime'
p41
(dp42
g6
F145.14374177364863
sg10
F243.48370658595667
sg13
F225.36160062464228
sg16
F233.81917752963219
sg19
F111.68527929829594
sg22
F243.41742895589198
sg25
F0.00374348281067727
sg28
F226.35280818965555
sg31
F244.86168250316067
sg34
F0.0
sg36
F227.64754919029937
sg39
F219.8228969982502
ssS'newicktree'
p43
S'../PairsAlignemt/YeastTree.newick'
p44
sS'll'
p45
cnumpy.core.multiarray
scalar
p46
(cnumpy
dtype
p47
(S'f8'
p48
I0
I1
tp49
Rp50
(I3
S'<'
p51
NNNI-1
I-1
I0
tp52
bS'\xb1\xff\x96\x01\xa0\x0b\xab\xc0'
p53
tp54
Rp55
sS'edge_list'
p56
(lp57
g25
ag34
ag6
ag19
ag13
ag22
ag36
ag28
ag16
ag39
ag10
ag31
asS'edge_to_blen'
p58
(dp59
g6
g46
(g50
S'\x18<G\x16\x95\\\xe2?'
p60
tp61
Rp62
sg10
g46
(g50
S'.\xe9\xd0\xda\nD\xc2?'
p63
tp64
Rp65
sg13
g46
(g50
S'\xd7\x80z\x89\xb2\xc3\xb1?'
p66
tp67
Rp68
sg16
g46
(g50
S'\xea\xcf;\xc5\x00K\xb1?'
p69
tp70
Rp71
sg28
g46
(g50
S'\xf5Q\x8a\xc9\x10\xaa\xbe?'
p72
tp73
Rp74
sg22
g46
(g50
S'\xa0\x8e\xe89\xaa\xf5\xca?'
p75
tp76
Rp77
sg25
g46
(g50
S'P%L\x82\xf5\x88\xdf>'
p78
tp79
Rp80
sg19
g46
(g50
S'\xeeD\x85\x87t\xfd\xdb?'
p81
tp82
Rp83
sg31
g46
(g50
S'\x91\xa0#\xebm\x1f\xaf?'
p84
tp85
Rp86
sg34
g46
(g50
S'\n&u\xcf\xf4(\xe7?'
p87
tp88
Rp89
sg36
g46
(g50
S'kL\xfd/\x96W\xb0?'
p90
tp91
Rp92
sg39
g46
(g50
S'\x0b\xb3\x92\x04\xf6"\xc9?'
p93
tp94
Rp95
ssS'paralog'
p96
(lp97
S'YDR099W'
p98
aS'YER177W'
p99
asS'alignment_file'
p100
S'../MafftAlignment/YDR099W_YER177W/YDR099W_YER177W_input.fasta'
p101
sS'x_clock'
p102
NsS'x'
p103
cnumpy.core.multiarray
_reconstruct
p104
(cnumpy
ndarray
p105
(I0
tp106
S'b'
p107
tp108
Rp109
(I1
(I20
tp110
g50
I00
S'\x13\xb2\xaaqB\xb2\xe8\xbfb\xedm\xf4\\\xb6\xdc\xbf\x90\x19\xc0\x05\xd7\xff\xed\xbf.F\xca\xca!\x07\xfb?\x90\x19B\x88>\xdb\r\xc0mD+gt\xc7\xf8\xbf\xff\xc1\x03\xddA`+\xc0\xd2\xc5y\x0f\x80\xa5)@?@(\xd0\xa5\x98\'\xc0\xdd\xe0\xb2\xe7\x1b\xb1\xd4\xbf\x97\xb4\xe2\x7fl\xc6\xe1\xbfC\x98\x0cK\x0fw\xea\xbf\x18\xf9\xda%\x05X\x05\xc0\xbd[s\x16L\xec\xf8\xbf\x95\x87"\x16\xee\x02\x06\xc0\x90\x9a\xd8\xe2\x03\xfa\x00\xc0\xe6z+\x8e\x1b\x8f\x05\xc0v\xcc@ \x16\x0b\xfa\xbf\x08.0\xce\xe9&\xff\xbf\x89\xe8510g\x06\xc0'
p111
tp112
bsS'Model'
p113
S'MG94'
p114
sS'clock'
p115
I00
s.