(dp0
S'Force'
p1
NsS'ExpectedGeneconv'
p2
(dp3
(S'N1'
p4
S'N2'
p5
tp6
F9.641427797752398
s(S'N5'
p7
S'cerevisiae'
p8
tp9
F25.77921788777279
s(g5
S'N3'
p10
tp11
F5.431363931282934
s(S'N4'
p12
g7
tp13
F1.7170875664622536
s(g4
S'castellii'
p14
tp15
F61.2107918169698
s(g5
S'bayanus'
p16
tp17
F23.661254156744384
s(S'N0'
p18
g4
tp19
F33.85366385679468
s(g10
S'kudriavzevii'
p20
tp21
F22.711613347071868
s(g7
S'paradoxus'
p22
tp23
F10.796117320668674
s(g18
S'kluyveri'
p24
tp25
F0.0
s(g10
g12
tp26
F6.534422959708596
s(g12
S'mikatae'
p27
tp28
F14.775104225872909
ssS'ExpectedDwellTime'
p29
(dp30
g6
F77.68598765228901
sg9
F67.89292079967686
sg11
F79.58733520812814
sg13
F84.76603672227581
sg15
F80.4169016521851
sg17
F72.77871660627075
sg19
F46.346740442368315
sg21
F81.69421035006806
sg23
F94.27659669800649
sg25
F0.0
sg26
F80.81836543726773
sg28
F93.9937358409991
ssS'newicktree'
p31
S'../PairsAlignemt/YeastTree.newick'
p32
sS'll'
p33
cnumpy.core.multiarray
scalar
p34
(cnumpy
dtype
p35
(S'f8'
p36
I0
I1
tp37
Rp38
(I3
S'<'
p39
NNNI-1
I-1
I0
tp40
bS'\x82\x13\xcaL<\x81\xa1\xc0'
p41
tp42
Rp43
sS'edge_list'
p44
(lp45
g19
ag25
ag6
ag15
ag11
ag17
ag26
ag21
ag13
ag28
ag9
ag23
asS'edge_to_blen'
p46
(dp47
g6
g34
(g38
S'\xb8\x80\t\x13\xe5]\x88?'
p48
tp49
Rp50
sg9
g34
(g38
S';"E:M\xf0\x95?'
p51
tp52
Rp53
sg11
g34
(g38
S'\xd4\xc0\x89f\x9a9v?'
p54
tp55
Rp56
sg13
g34
(g38
S'\x8aCG&r\xf3\\?'
p57
tp58
Rp59
sg21
g34
(g38
S"\xdbK\xb0O;'\x9c?"
p60
tp61
Rp62
sg17
g34
(g38
S'Am^\xcd\xb1B\x97?'
p63
tp64
Rp65
sg19
g34
(g38
S'\xf6\xa4"\xf2\xb1\\\xb1?'
p66
tp67
Rp68
sg15
g34
(g38
S'\x0c\xd4\xa7@\x9e^\xb1?'
p69
tp70
Rp71
sg23
g34
(g38
S'\xd6\xf1uJ\x10\xcc\x90?'
p72
tp73
Rp74
sg25
g34
(g38
S'\xd2\x85`\x7f:\xfes?'
p75
tp76
Rp77
sg26
g34
(g38
S's\xbe\x1a\xb6\xa3\xfc\x81?'
p78
tp79
Rp80
sg28
g34
(g38
S'\xfepd\x83\x95L\x94?'
p81
tp82
Rp83
ssS'paralog'
p84
(lp85
S'YNL301C'
p86
aS'YOL120C'
p87
asS'alignment_file'
p88
S'../MafftAlignment/YNL301C_YOL120C/YNL301C_YOL120C_input.fasta'
p89
sS'x_clock'
p90
NsS'x'
p91
cnumpy.core.multiarray
_reconstruct
p92
(cnumpy
ndarray
p93
(I0
tp94
S'b'
p95
tp96
Rp97
(I1
(I18
tp98
g38
I00
S'\xf1F\xa8\xdb\xa2\xae\xe7\xbf\xd71rp\xad\xdd\xe2\xbf\x7f\xc3\x91\xe4\x04\x9e\xe8\xbf\x13\x91\xb00\xc5\xda\xff?C\x0ePhE\xdd\x02@W\xee\xd4\x8bJS\xe8\xbfo}\xe7v\xf0\x86\x05\xc0\xcc\x0c\x15\xf8\x1dJ\x15\xc0\xe2\xd9/\x80\xc0\xb9\x11\xc0\x8a\xf5\xdf\xab\r\x86\x05\xc0\xb9mA\xb7\xbe\xdd\x14\xc0\xf1\xf9\xd7*\x18G\x0e\xc0\xed\x9b\x1a\xc0\x9d\xf0\x12\xc0B\xd3Z\xf5\x1e\xc0\x0c\xc0\xf2\xfb\x88\x82\x94Z\x19\xc0\xe8\xfb\x0f\xe0\xfc]\x0f\xc0~|\xbco\xea\xbe\x0e\xc0"K\xce\x15\xe9p\x10\xc0'
p99
tp100
bsS'Model'
p101
S'HKY'
p102
sS'clock'
p103
I00
s.