(dp0
S'Force'
p1
NsS'ExpectedGeneconv'
p2
(dp3
(S'N1'
p4
S'N2'
p5
tp6
F35.34167552774594
s(S'N5'
p7
S'cerevisiae'
p8
tp9
F1.4713271266064762
s(g5
S'N3'
p10
tp11
F1.4006196858301814
s(S'N4'
p12
g7
tp13
F1.0094494560177718
s(g4
S'castellii'
p14
tp15
F32.977670779522434
s(g5
S'bayanus'
p16
tp17
F4.191830695282945
s(S'N0'
p18
g4
tp19
F18.304066742717758
s(g10
S'kudriavzevii'
p20
tp21
F2.019525448304537
s(g7
S'paradoxus'
p22
tp23
F1.2322599791997075
s(g18
S'kluyveri'
p24
tp25
F0.0
s(g10
g12
tp26
F1.360600745351979
s(g12
S'mikatae'
p27
tp28
F2.664731043409446
ssS'ExpectedDwellTime'
p29
(dp30
g6
F514.5954405626887
sg9
F559.3179222250438
sg11
F539.6347871689564
sg13
F548.7583451334705
sg15
F497.6307288503179
sg17
F540.3072016524169
sg19
F333.6248231687868
sg21
F545.0057725072022
sg23
F555.5670617313799
sg25
F0.0
sg26
F543.0666572171251
sg28
F542.413206499467
ssS'newicktree'
p31
S'../PairsAlignemt/YeastTree.newick'
p32
sS'll'
p33
cnumpy.core.multiarray
scalar
p34
(cnumpy
dtype
p35
(S'f8'
p36
I0
I1
tp37
Rp38
(I3
S'<'
p39
NNNI-1
I-1
I0
tp40
bS'\x03\xde\xc73\xa8o\xc0\xc0'
p41
tp42
Rp43
sS'edge_list'
p44
(lp45
g19
ag25
ag6
ag15
ag11
ag17
ag26
ag21
ag13
ag28
ag9
ag23
asS'edge_to_blen'
p46
(dp47
g6
g34
(g38
S'\xa5\x11\x17\xa0~+\x01@'
p48
tp49
Rp50
sg9
g34
(g38
S'\x1a\xe6\xbd3\x0f\xf8\xcc?'
p51
tp52
Rp53
sg11
g34
(g38
S'a;zS\xab{\xbf?'
p54
tp55
Rp56
sg13
g34
(g38
S'\x08\x80\x9c*o:\xbe?'
p57
tp58
Rp59
sg21
g34
(g38
S'\x15\xee~\xf2\xe3N\xcd?'
p60
tp61
Rp62
sg17
g34
(g38
S'CN\xa8!KT\xd7?'
p63
tp64
Rp65
sg19
g34
(g38
S'~l\xd0i/7\xf3?'
p66
tp67
Rp68
sg15
g34
(g38
S"\xb6U'\x0f%\xa0\xfb?"
p69
tp70
Rp71
sg23
g34
(g38
S'it\xdez\xb3\xe6\xbf?'
p72
tp73
Rp74
sg25
g34
(g38
S'~\xb5yw\x8c!\xf0?'
p75
tp76
Rp77
sg26
g34
(g38
S'{u\xfb\xe8\xef\x15\xc2?'
p78
tp79
Rp80
sg28
g34
(g38
S'l\x913\x16\xb8\xd4\xcf?'
p81
tp82
Rp83
ssS'paralog'
p84
(lp85
S'YDR438W'
p86
aS'YML018C'
p87
asS'alignment_file'
p88
S'../MafftAlignment/YDR438W_YML018C/YDR438W_YML018C_input.fasta'
p89
sS'x_clock'
p90
NsS'x'
p91
cnumpy.core.multiarray
_reconstruct
p92
(cnumpy
ndarray
p93
(I0
tp94
S'b'
p95
tp96
Rp97
(I1
(I19
tp98
g38
I00
S'\xd0\xa4,\x05\xaf\xd1\xe6\xbf\xb7Q\x92\xeb\xe0\xea\xe2\xbfc\x08\x8b\xb6\xea\x07\xee\xbf7\xf1VHN\xb1\xf0?\x9f\xa9bx\x92\x04\x02\xc0\xb1kA\xba\xf4\xfc\x06\xc0\xbd\xd0\xca\x89\xa6o\xfa\xbf\xd5\xcb\x81\xbc\xdep\xc7?\xf024\x1c\xbe\xb4\x80?x\xc6\x80K]p\xe8?\xc3\xae`\xa9\x15z\xe1?F\xae\xb0\x90\x0c\xc4\x00\xc0,\xc9\xe5\xdf\x93%\xf0\xbf\x8b\xd1R\xf4\x7fO\xff\xbf/\x94\xc5\x16-\x96\xf7\xbf\xe5S\xe5\x01Y\x17\x01\xc0a\x83\x99\xa3\xf5C\xf6\xbf>I\xa5\t\xdb\xc5\xf7\xbf\x03\r\xdf\xe1\x07\xa9\x00\xc0'
p99
tp100
bsS'Model'
p101
S'MG94'
p102
sS'clock'
p103
I00
s.