(dp0
S'Force'
p1
NsS'ExpectedGeneconv'
p2
(dp3
(S'N1'
p4
S'N2'
p5
tp6
F25.776465071813686
s(S'N5'
p7
S'cerevisiae'
p8
tp9
F14.063501224751407
s(g5
S'N3'
p10
tp11
F3.647479765368716
s(S'N4'
p12
g7
tp13
F5.823582688056648
s(g4
S'castellii'
p14
tp15
F28.27495729049329
s(g5
S'bayanus'
p16
tp17
F7.737242887964001
s(S'N0'
p18
g4
tp19
F19.443835441471734
s(g10
S'kudriavzevii'
p20
tp21
F14.868068156560195
s(g7
S'paradoxus'
p22
tp23
F4.368893141393789
s(g18
S'kluyveri'
p24
tp25
F0.0
s(g10
g12
tp26
F5.41414709606399
s(g12
S'mikatae'
p27
tp28
F11.03339338612064
ssS'ExpectedDwellTime'
p29
(dp30
g6
F80.1119331203811
sg9
F85.60873245325187
sg11
F92.17445818704218
sg13
F93.06304116390746
sg15
F75.46311008973456
sg17
F88.61434454251895
sg19
F39.76208874803316
sg21
F95.79066267589756
sg23
F90.35750517053869
sg25
F0.0
sg26
F93.2207886238229
sg28
F93.41561886308327
ssS'newicktree'
p31
S'../PairsAlignemt/YeastTree.newick'
p32
sS'll'
p33
cnumpy.core.multiarray
scalar
p34
(cnumpy
dtype
p35
(S'f8'
p36
I0
I1
tp37
Rp38
(I3
S'<'
p39
NNNI-1
I-1
I0
tp40
bS'\\c\xc3U\x94,\x9d\xc0'
p41
tp42
Rp43
sS'edge_list'
p44
(lp45
g19
ag25
ag6
ag15
ag11
ag17
ag26
ag21
ag13
ag28
ag9
ag23
asS'edge_to_blen'
p46
(dp47
g6
g34
(g38
S'\xa4\xab\t\x89L\x90\xa5?'
p48
tp49
Rp50
sg9
g34
(g38
S'\xb2\x8ay\xe8\x8a\xec\x8e?'
p51
tp52
Rp53
sg11
g34
(g38
S'\xc2\x03\xb7\xf0C\xb9t?'
p54
tp55
Rp56
sg13
g34
(g38
S'\xd9\x1d\xe0<\x93=z?'
p57
tp58
Rp59
sg21
g34
(g38
S"\xc9\xf3\x8b'c/\x96?"
p60
tp61
Rp62
sg17
g34
(g38
S'|\xa5\xd0\xa2\xcb\xf4\x80?'
p63
tp64
Rp65
sg19
g34
(g38
S'7j\x00\x00U\xd6\xad?'
p66
tp67
Rp68
sg15
g34
(g38
S'\x80u\x94\x00V`\xa7?'
p69
tp70
Rp71
sg23
g34
(g38
S'+)\x7f%\xcd\xefw?'
p72
tp73
Rp74
sg25
g34
(g38
S'D3\x1du\xf5Y\x97?'
p75
tp76
Rp77
sg26
g34
(g38
S'ty\x00dy)\x81?'
p78
tp79
Rp80
sg28
g34
(g38
S'i.\xd4SgL\x8d?'
p81
tp82
Rp83
ssS'paralog'
p84
(lp85
S'YDR418W'
p86
aS'YEL054C'
p87
asS'alignment_file'
p88
S'../MafftAlignment/YDR418W_YEL054C/YDR418W_YEL054C_input.fasta'
p89
sS'x_clock'
p90
NsS'x'
p91
cnumpy.core.multiarray
_reconstruct
p92
(cnumpy
ndarray
p93
(I0
tp94
S'b'
p95
tp96
Rp97
(I1
(I18
tp98
g38
I00
S"\xbbO-\x17\xc8X\xe8\xbfH=\x1e%\x9aC\xe0\xbf;l+l]!\xe9\xbf't\xa9Bl\xa3\x03@\xa3:\x14z\xee\xdb\x00@\xd9'\xda\xeb;\x0b\xd4\xbf\xe7\xd8\xca\x0b\x94\xbd\x06\xc0v;\xed\xd3\x1b?\x0e\xc0W\x98s \xa9V\t\xc0\xa4\x0c\x95\x14\\\xb1\x08\xc0\xd0~\x1c@]%\x15\xc0?`&\x05\n-\x13\xc0\x922\x1f\xdc\xaf \x13\xc0\x04Wt&\n\xa8\x0e\xc0\x05\xbc\x04\x12\xac3\x14\xc0\xe9_\xc5\xab\x03\xfd\x10\xc0F\xea\x0e}\xb8\xc5\x10\xc0\xf8\xea?\xce\xc4\x91\x14\xc0"
p99
tp100
bsS'Model'
p101
S'HKY'
p102
sS'clock'
p103
I00
s.