(dp0
S'Force'
p1
NsS'ExpectedGeneconv'
p2
(dp3
(S'N1'
p4
S'N2'
p5
tp6
(lp7
F14.221641687627546
aF4.032645516436803
as(S'N5'
p8
S'cerevisiae'
p9
tp10
(lp11
F9.378253288309255
aF3.111088970911388
as(g5
S'N3'
p12
tp13
(lp14
F1.706467849030536e-07
aF5.1123844223903616e-08
as(S'N4'
p15
g8
tp16
(lp17
F2.9064871325461996
aF0.3741341946007414
as(g4
S'castellii'
p18
tp19
(lp20
F33.17489794334551
aF8.971645760957182
as(g5
S'bayanus'
p21
tp22
(lp23
F11.59477154433508
aF3.090448819271598
as(S'N0'
p24
g4
tp25
(lp26
F22.852807320912305
aF6.30111978708928
as(g12
S'kudriavzevii'
p27
tp28
(lp29
F10.938070888244262
aF2.4861726312033556
as(g8
S'paradoxus'
p30
tp31
(lp32
F4.907230856751132
aF0.5693179757923101
as(g24
S'kluyveri'
p33
tp34
(lp35
F0.0
aF0.0
as(g12
g15
tp36
(lp37
F2.531833887770219e-05
aF3.127462656682316e-06
as(g15
S'mikatae'
p38
tp39
(lp40
F12.582652330591976
aF4.637162230585695
assS'ExpectedDwellTime'
p41
(dp42
g6
F31.810873518374944
sg10
F24.94244439417124
sg13
F29.54211847635776
sg16
F27.733694584188967
sg19
F37.10334305848603
sg22
F23.988059714868598
sg25
F22.10450723328759
sg28
F40.23641393244917
sg31
F20.658312900146818
sg34
F0.0
sg36
F29.54210127761871
sg39
F26.418394755741126
ssS'newicktree'
p43
S'../PairsAlignemt/YeastTree.newick'
p44
sS'll'
p45
cnumpy.core.multiarray
scalar
p46
(cnumpy
dtype
p47
(S'f8'
p48
I0
I1
tp49
Rp50
(I3
S'<'
p51
NNNI-1
I-1
I0
tp52
bS'/\xec%$\x15b\x94\xc0'
p53
tp54
Rp55
sS'edge_list'
p56
(lp57
g25
ag34
ag6
ag19
ag13
ag22
ag36
ag28
ag16
ag39
ag10
ag31
asS'edge_to_blen'
p58
(dp59
g25
g46
(g50
S'\xd8\x88\xac\x1e\xd2\xab\xad?'
p60
tp61
Rp62
sg10
g46
(g50
S'\xee\x83Y\xee\x91\xa5\x92?'
p63
tp64
Rp65
sg13
g46
(g50
S'\x03tK\x1d\x11\\\xf6='
p66
tp67
Rp68
sg16
g46
(g50
S'u=E\xa8Krj?'
p69
tp70
Rp71
sg19
g46
(g50
S'\xa2\xd2\x89\x8c\xa3\xd6\xac?'
p72
tp73
Rp74
sg22
g46
(g50
S'Fj\xcd\xe7\xf3\xdc\x90?'
p75
tp76
Rp77
sg6
g46
(g50
S'\x8b\xeb\xb2]\xc8\xab\x97?'
p78
tp79
Rp80
sg28
g46
(g50
S'\xf8\xa8\xba\xf5\xee\x0e\x96?'
p81
tp82
Rp83
sg31
g46
(g50
S'\x14\xf1~\xe4\n\xb5t?'
p84
tp85
Rp86
sg39
g46
(g50
S'\x8cw\xf0B\xef\xc8\x94?'
p87
tp88
Rp89
sg36
g46
(g50
S'tK\x0e\x06\xe2\xf9_>'
p90
tp91
Rp92
sg34
g46
(g50
S'&\xa9\xdb$\xd5u\x90?'
p93
tp94
Rp95
ssS'paralog'
p96
(lp97
S'YER074W'
p98
aS'YIL069C'
p99
asS'alignment_file'
p100
S'../MafftAlignment/YER074W_YIL069C/YER074W_YIL069C_input.fasta'
p101
sS'x_clock'
p102
NsS'x'
p103
cnumpy.core.multiarray
_reconstruct
p104
(cnumpy
ndarray
p105
(I0
tp106
S'b'
p107
tp108
Rp109
(I1
(I19
tp110
g50
I00
S'X\x03\xaccv\x01\xe7\xbf\x9e4\xf5\r\x02\xa6\xe0\xbf\xee\x08\x8c\x87GW\xe9\xbf\xd4\xd8\xd9\xb3\xf8\xa6\x04@\x93xT\xa4,\xef\x0c@\x99\x95+k_\x9e\x02@\x82=(i\xf6\xbf\xd0\xbf\x81\x17\xff \x02\xc9\x06\xc0\x98\x1d\xb9e\xa7\x85\x10\xc0\x0b\xa1\xb7AD#\x0e\xc0\xd2\x1d`\x10O\x03\x07\xc0X\x14\xb1&\x96\xd85\xc0\xd0\x12X~\xe5l\x10\xc0\xd3\n\xb1KUT1\xc0E\x80`\xb2\xc6\xb3\x0e\xc0\xb9\xb3\xea"s\xf1\x16\xc0\xcd\xc3\xd8\xc9\x8e-\x0f\xc0\xce\x02}N\xf0\x05\x10\xc0\xd1\x88(\xfe-&\x15\xc0'
p111
tp112
bsS'Model'
p113
S'HKY'
p114
sS'clock'
p115
I00
s.