(dp0
S'Force'
p1
NsS'ExpectedGeneconv'
p2
(dp3
(S'N1'
p4
S'N2'
p5
tp6
F18.659053731041126
s(S'N5'
p7
S'cerevisiae'
p8
tp9
F2.1594533084102054
s(g5
S'N3'
p10
tp11
F4.592101437268086
s(S'N4'
p12
g7
tp13
F2.791762285722824
s(g4
S'castellii'
p14
tp15
F11.942313534267731
s(g5
S'bayanus'
p16
tp17
F3.578100245453721
s(S'N0'
p18
g4
tp19
F0.19077756388567293
s(g10
S'kudriavzevii'
p20
tp21
F10.828553781291463
s(g7
S'paradoxus'
p22
tp23
F3.4805452888158603
s(g18
S'kluyveri'
p24
tp25
F0.0
s(g10
g12
tp26
F4.636101736337279
s(g12
S'mikatae'
p27
tp28
F11.364033178303261
ssS'ExpectedDwellTime'
p29
(dp30
g6
F33.82673192935651
sg9
F48.18229210739004
sg11
F44.80951402720831
sg13
F43.36859333190173
sg15
F33.63417724616921
sg17
F46.75991417069043
sg19
F4.4487672075537406
sg21
F53.18499635744118
sg23
F44.21277335519925
sg25
F0.0
sg26
F43.86888778480215
sg28
F41.588189495116055
ssS'newicktree'
p31
S'../PairsAlignemt/YeastTree.newick'
p32
sS'll'
p33
cnumpy.core.multiarray
scalar
p34
(cnumpy
dtype
p35
(S'f8'
p36
I0
I1
tp37
Rp38
(I3
S'<'
p39
NNNI-1
I-1
I0
tp40
bS'\x9f\xd8\x85a\x15\xde\x96\xc0'
p41
tp42
Rp43
sS'edge_list'
p44
(lp45
g19
ag25
ag6
ag15
ag11
ag17
ag26
ag21
ag13
ag28
ag9
ag23
asS'edge_to_blen'
p46
(dp47
g6
g34
(g38
S'\x94_ufj|\xc3?'
p48
tp49
Rp50
sg9
g34
(g38
S'\xaa;m\xfb\x86Y\x93?'
p51
tp52
Rp53
sg11
g34
(g38
S'\xd5\xc9\xea\xa4\x87\x02\x99?'
p54
tp55
Rp56
sg13
g34
(g38
S'\xd9\xcda\x02\xc5\x14\x93?'
p57
tp58
Rp59
sg21
g34
(g38
S'1\xebj\xbf\xfeW\xb3?'
p60
tp61
Rp62
sg17
g34
(g38
S'd]I0h\x8d\x95?'
p63
tp64
Rp65
sg19
g34
(g38
S'\xa0:\x1blk\x98\x8d?'
p66
tp67
Rp68
sg15
g34
(g38
S'\x10\x95\x1e\t\xde\x86\xbe?'
p69
tp70
Rp71
sg23
g34
(g38
S'\xa6V\x99\xa8RS\x92?'
p72
tp73
Rp74
sg28
g34
(g38
S'\xd1#,s/6\xac?'
p75
tp76
Rp77
sg26
g34
(g38
S'\xe3g)L\xd7o\x96?'
p78
tp79
Rp80
sg25
g34
(g38
S'\xeb\x97\xe5BYP\xc0?'
p81
tp82
Rp83
ssS'paralog'
p84
(lp85
S'YBR191W'
p86
aS'YPL079W'
p87
asS'alignment_file'
p88
S'../MafftAlignment/YBR191W_YPL079W/YBR191W_YPL079W_input.fasta'
p89
sS'x_clock'
p90
NsS'x'
p91
cnumpy.core.multiarray
_reconstruct
p92
(cnumpy
ndarray
p93
(I0
tp94
S'b'
p95
tp96
Rp97
(I1
(I19
tp98
g38
I00
S'\xc4\xa2\xa0\xfd\xdb\xc4\xe6\xbf\x1d%\x92Q++\xe0\xbf\xbe!\xdd\xe1\x1a\xbd\xea\xbf8bQ\xa07\xe5\x00@W\xe8(L+O\x03\xc0\xc9\xff\xff\xb7\xedo\xf3?\xe1\xf2\xc4\xbcY\x97\xf4\xbf2\x17?<\xb0\xf2\x10\xc0*\xef\x9a0\xe9z\x00\xc0\xa6\xdf\x15W\n\x1e\xfe\xbf\xe47\xab\xfb7\x03\x01\xc0?J\xfcP\x96\xb2\r\xc0\xa2\xc6\xb9\x9cL\xe3\x0e\xc0\xb6\x9e\x8c\xab\xed\x90\x0e\xc0D.7\xcc\x97\xa9\x04\xc0p\x0e\xf1}\xb7\xdc\x0f\xc0;\xd9B\x89O0\x07\xc0~\x05\xaa\x1a\x17\xc0\x0f\xc0&4\xbeT\xbc\x17\x10\xc0'
p99
tp100
bsS'Model'
p101
S'MG94'
p102
sS'clock'
p103
I00
s.