(dp0
S'Force'
p1
NsS'ExpectedGeneconv'
p2
(dp3
(S'N1'
p4
S'N2'
p5
tp6
(lp7
F0.1844480131529043
aF2.468506134448412
as(S'N5'
p8
S'cerevisiae'
p9
tp10
(lp11
F0.265983101016549
aF7.018044482029536
as(g5
S'N3'
p12
tp13
(lp14
F0.2606036491222978
aF1.4502340903845756
as(S'N4'
p15
g8
tp16
(lp17
F0.0068347273997667836
aF0.4448460220342157
as(g4
S'castellii'
p18
tp19
(lp20
F1.0587438509745508
aF15.037138803283828
as(g5
S'bayanus'
p21
tp22
(lp23
F0.80030438194635
aF5.226443633534136
as(S'N0'
p24
g4
tp25
(lp26
F0.040454224750422464
aF0.4092482114744611
as(g12
S'kudriavzevii'
p27
tp28
(lp29
F0.4205954691171215
aF6.22663378211339
as(g8
S'paradoxus'
p30
tp31
(lp32
F0.17442995165303576
aF2.4712293799436513
as(g24
S'kluyveri'
p33
tp34
(lp35
F0.0
aF0.0
as(g12
g15
tp36
(lp37
F0.0872109361182692
aF0.7806686686741597
as(g15
S'mikatae'
p38
tp39
(lp40
F0.24706643774288742
aF2.738580973619654
assS'ExpectedDwellTime'
p41
(dp42
g6
F48.57226162669021
sg10
F67.6760170974687
sg13
F69.50020227209536
sg16
F81.22814213089215
sg19
F61.05121294578635
sg22
F65.7030338203431
sg25
F15.132567290686938
sg28
F76.2111095777767
sg31
F90.57760816371442
sg34
F0.0
sg36
F75.86555731138498
sg39
F91.19994144988432
ssS'newicktree'
p43
S'../PairsAlignemt/YeastTree.newick'
p44
sS'll'
p45
cnumpy.core.multiarray
scalar
p46
(cnumpy
dtype
p47
(S'f8'
p48
I0
I1
tp49
Rp50
(I3
S'<'
p51
NNNI-1
I-1
I0
tp52
bS'\xb1HL\x0e\xb0\x92\xa0\xc0'
p53
tp54
Rp55
sS'edge_list'
p56
(lp57
g25
ag34
ag6
ag19
ag13
ag22
ag36
ag28
ag16
ag39
ag10
ag31
asS'edge_to_blen'
p58
(dp59
g6
g46
(g50
S'Fw\xa9m\x1a\xc6\xb2?'
p60
tp61
Rp62
sg10
g46
(g50
S'\x08\\\x0b\xf0T[\xb1?'
p63
tp64
Rp65
sg13
g46
(g50
S'@\xe6U;&\x14\x9e?'
p66
tp67
Rp68
sg16
g46
(g50
S'\xb0$`\x8f\x1d\x82\x82?'
p69
tp70
Rp71
sg19
g46
(g50
S'T\xc4T\xce\xc4\x85\xcf?'
p72
tp73
Rp74
sg22
g46
(g50
S'\xd6a\xb4q\xd5r\xb2?'
p75
tp76
Rp77
sg25
g46
(g50
S'N\xa6I\x93/Z\xa6?'
p78
tp79
Rp80
sg28
g46
(g50
S'\xcd\xc30t\xfd\xf5\xb8?'
p81
tp82
Rp83
sg31
g46
(g50
S'\x9a\x1eK\x11V\xb3\xad?'
p84
tp85
Rp86
sg39
g46
(g50
S'\xfb\xba\x8c\xc1le\xb0?'
p87
tp88
Rp89
sg36
g46
(g50
S'X\xe1"\xf0\xedt\x92?'
p90
tp91
Rp92
sg34
g46
(g50
S'\x08\xce\xe8\x1d\xec\xca\xc3?'
p93
tp94
Rp95
ssS'paralog'
p96
(lp97
S'YNL301C'
p98
aS'YOL120C'
p99
asS'alignment_file'
p100
S'../MafftAlignment/YNL301C_YOL120C/YNL301C_YOL120C_input.fasta'
p101
sS'x_clock'
p102
NsS'x'
p103
cnumpy.core.multiarray
_reconstruct
p104
(cnumpy
ndarray
p105
(I0
tp106
S'b'
p107
tp108
Rp109
(I1
(I20
tp110
g50
I00
S'\xc5\xd1\x03\x15\xc1\x00\xe7\xbf\xdew~N;\xc3\xe1\xbfy#\x0fR\x81\xcf\xeb\xbf4K\x06xZ\x12\xfa?.\x15\x7f\t\xf52\x00\xc0>P9\x12a\xe8\xfd\xbf\xce\x9bP:\xb2\xbe\xfb?\xee\x8f\xab\xe65\x7f\xd1\xbf\x8a\xb1\x97M\x19\r\t\xc0\x87\xa3\xb8\x90\x14\xde\xfd\xbfF\x8d\xbd\x11\xd6\xe6\x04\xc0\x92\x0b[}\xd6k\xf6\xbf\x17\x1a<\xca\xa28\x0c\xc0D\xfc\xba`\xa1\n\x05\xc0\xb1\xbdD$m\x10\x10\xc0\xd7\xb8$\xaex\x9f\x02\xc0k\x87\xf6\xf5Z\xd3\x12\xc0J\x86I\xbf*\xfc\x05\xc0]\x82\x93M\x91\x87\x05\xc0\xc8`\x95\xa5\xfb\xc6\x06\xc0'
p111
tp112
bsS'Model'
p113
S'MG94'
p114
sS'clock'
p115
I00
s.