(dp0
S'Force'
p1
NsS'ExpectedGeneconv'
p2
(dp3
(S'N1'
p4
S'N2'
p5
tp6
(lp7
F3.7653832382809083
aF10.99649066835161
as(S'N5'
p8
S'cerevisiae'
p9
tp10
(lp11
F2.217473330071388
aF2.3172708700538522
as(g5
S'N3'
p12
tp13
(lp14
F0.12983555712156805
aF1.5433784458719941
as(S'N4'
p15
g8
tp16
(lp17
F0.1441418962915123
aF0.484310679962087
as(g4
S'castellii'
p18
tp19
(lp20
F8.609067867821977
aF24.93401469165669
as(g5
S'bayanus'
p21
tp22
(lp23
F0.9795513230767381
aF3.501274438624827
as(S'N0'
p24
g4
tp25
(lp26
F1.8229144262644253e-10
aF5.246455206761056e-10
as(g12
S'kudriavzevii'
p27
tp28
(lp29
F0.24701641687497514
aF2.314290601922416
as(g8
S'paradoxus'
p30
tp31
(lp32
F0.8805597240918935
aF0.4175463884124106
as(g24
S'kluyveri'
p33
tp34
(lp35
F0.0
aF0.0
as(g12
g15
tp36
(lp37
F0.20112695729519442
aF2.316436037687835
as(g15
S'mikatae'
p38
tp39
(lp40
F1.0103657585579526
aF4.512825662329921
assS'ExpectedDwellTime'
p41
(dp42
g6
F20.45959471323655
sg10
F45.704131331745344
sg13
F27.406266138128203
sg16
F41.15923834906272
sg19
F36.036659692856176
sg22
F21.258896775050932
sg25
F0.00021767979186796695
sg28
F40.30631818998816
sg31
F49.93061486440254
sg34
F0.0
sg36
F34.900915198073236
sg39
F41.60806188081484
ssS'newicktree'
p43
S'../PairsAlignemt/YeastTree.newick'
p44
sS'll'
p45
cnumpy.core.multiarray
scalar
p46
(cnumpy
dtype
p47
(S'f8'
p48
I0
I1
tp49
Rp50
(I3
S'<'
p51
NNNI-1
I-1
I0
tp52
bS'\x97\x1e\xfc\xd3;\xae\x93\xc0'
p53
tp54
Rp55
sS'edge_list'
p56
(lp57
g25
ag34
ag6
ag19
ag13
ag22
ag36
ag28
ag16
ag39
ag10
ag31
asS'edge_to_blen'
p58
(dp59
g25
g46
(g50
S'?\xadA\xe1\x01\xf7\xb4>'
p60
tp61
Rp62
sg10
g46
(g50
S'H\xe4\xe1\x0506\xa6?'
p63
tp64
Rp65
sg13
g46
(g50
S'3\x99\x02\x86k\xeb\x9e?'
p66
tp67
Rp68
sg16
g46
(g50
S'\xd1h/Iz\x89\x8c?'
p69
tp70
Rp71
sg19
g46
(g50
S'\x95\x84\x03\x94\x99$\xdb?'
p72
tp73
Rp74
sg22
g46
(g50
S'\xf9#\xee\xf1\xd9\xd2\xa5?'
p75
tp76
Rp77
sg6
g46
(g50
S'\xb68\x9c\xfe\xa2\x89\xca?'
p78
tp79
Rp80
sg28
g46
(g50
S'\xed\x94,\xcc/\x11\xa8?'
p81
tp82
Rp83
sg31
g46
(g50
S'\x04\x88\x19\xde\xf4\x9e\x9d?'
p84
tp85
Rp86
sg39
g46
(g50
S'\x91F\xcd\xc4\xdcV\xae?'
p87
tp88
Rp89
sg36
g46
(g50
S'%\xb8\x1c9\xcf\xf4\x9f?'
p90
tp91
Rp92
sg34
g46
(g50
S'.\xe4\xe2\xcdti\xd6?'
p93
tp94
Rp95
ssS'paralog'
p96
(lp97
S'YLR333C'
p98
aS'YGR027C'
p99
asS'alignment_file'
p100
S'../MafftAlignment/YLR333C_YGR027C/YLR333C_YGR027C_input.fasta'
p101
sS'x_clock'
p102
NsS'x'
p103
cnumpy.core.multiarray
_reconstruct
p104
(cnumpy
ndarray
p105
(I0
tp106
S'b'
p107
tp108
Rp109
(I1
(I20
tp110
g50
I00
S"D\xeb\x87+:\n\xe7\xbf`\x16\xef\xec\xbd\x04\xe1\xbf\xae\x821\xfc\xf4S\xea\xbf'\x10\x9d\x9e\xc2p\xfb?\xe4O\xca\xc5\xda]\xfe\xbf\x01\xbd\xf0\xdfn\xf8\xd3?F\x10cs\x8e\x80\xf9?:\xf5\xc2\xfa\x8b\x82\xe8\xbfn\xca;Ht/+\xc0\x12\xc1\x9d\x92\xe3\xc9\xf0\xbfG\x88\xa3\xb8\xea,\xf9\xbf'\xcei\xb6\xcfr\xeb\xbf@\xddO\x94*\x00\x0c\xc0\xd1\x80#$\x1e>\t\xc0\xbc6\xc9m\xa0\xbc\x0b\xc0\xc6\x89\xe2\xb3\xb6u\x08\xc0\xed\xbdU\x8d\xfa\x17\x11\xc07\xe8\x00?g\x9b\x06\xc0\x8c\x06\xfe\x03\x06\x1a\t\xc0\x98\xb7P\x90\x0bX\x0c\xc0"
p111
tp112
bsS'Model'
p113
S'MG94'
p114
sS'clock'
p115
I00
s.