(dp0
S'Force'
p1
NsS'ExpectedGeneconv'
p2
(dp3
(S'N1'
p4
S'N2'
p5
tp6
F15.708850523236613
s(S'N5'
p7
S'cerevisiae'
p8
tp9
F9.19970268802659
s(g5
S'N3'
p10
tp11
F2.3713581396168606
s(S'N4'
p12
g7
tp13
F3.0312073981387035
s(g4
S'castellii'
p14
tp15
F33.91149798073256
s(g5
S'bayanus'
p16
tp17
F12.22990870943492
s(S'N0'
p18
g4
tp19
F38.42854880742073
s(g10
S'kudriavzevii'
p20
tp21
F18.987621842729276
s(g7
S'paradoxus'
p22
tp23
F5.879154317184977
s(g18
S'kluyveri'
p24
tp25
F0.0
s(g10
g12
tp26
F2.4181790455770027e-05
s(g12
S'mikatae'
p27
tp28
F15.443285701505935
ssS'ExpectedDwellTime'
p29
(dp30
g6
F56.108857849377486
sg9
F50.33994366078947
sg11
F58.32089645333932
sg13
F57.18551638946922
sg15
F47.37855773483331
sg17
F54.624282644760484
sg19
F34.62922509917634
sg21
F55.04385179032923
sg23
F53.70436545918993
sg25
F0.0
sg26
F58.24872145038534
sg28
F57.518512921229636
ssS'newicktree'
p31
S'../PairsAlignemt/YeastTree.newick'
p32
sS'll'
p33
cnumpy.core.multiarray
scalar
p34
(cnumpy
dtype
p35
(S'f8'
p36
I0
I1
tp37
Rp38
(I3
S'<'
p39
NNNI-1
I-1
I0
tp40
bS'\x81^0\x0bp\xcf\x96\xc0'
p41
tp42
Rp43
sS'edge_list'
p44
(lp45
g19
ag25
ag6
ag15
ag11
ag17
ag26
ag21
ag13
ag28
ag9
ag23
asS'edge_to_blen'
p46
(dp47
g6
g34
(g38
S'\xf0\x80\x04\x03\x82\xc3\x94?'
p48
tp49
Rp50
sg9
g34
(g38
S'\xee\xffm\x8b\xf6A\x83?'
p51
tp52
Rp53
sg11
g34
(g38
S'RA\xa7\x16\x8c\xcbf?'
p54
tp55
Rp56
sg13
g34
(g38
S'-\xc4\xd4\xf9\xef\x98i?'
p57
tp58
Rp59
sg21
g34
(g38
S'\xb6\xbc\xd9\x06U\xeb\x96?'
p60
tp61
Rp62
sg17
g34
(g38
S"z'\xa7\xd9\x8eR\x8b?"
p63
tp64
Rp65
sg19
g34
(g38
S"\xbc\x17\xfeOW'\xb4?"
p66
tp67
Rp68
sg15
g34
(g38
S'\xb1\x17\x86\xa8F\xef\xa3?'
p69
tp70
Rp71
sg23
g34
(g38
S'\xf2\x08E \xf2q{?'
p72
tp73
Rp74
sg25
g34
(g38
S'9\x13\xb1\xd6P\xd1\xef='
p75
tp76
Rp77
sg26
g34
(g38
S'"\x89yR\xe6\x8cq>'
p78
tp79
Rp80
sg28
g34
(g38
S'\xd5\x13~\xc8t\xc8\x93?'
p81
tp82
Rp83
ssS'paralog'
p84
(lp85
S'YML026C'
p86
aS'YDR450W'
p87
asS'alignment_file'
p88
S'../MafftAlignment/YML026C_YDR450W/YML026C_YDR450W_input.fasta'
p89
sS'x_clock'
p90
NsS'x'
p91
cnumpy.core.multiarray
_reconstruct
p92
(cnumpy
ndarray
p93
(I0
tp94
S'b'
p95
tp96
Rp97
(I1
(I18
tp98
g38
I00
S'OK\x94a\x1af\xe7\xbfE\xf2\xbb\x1bI\x01\xe1\xbfbv\x8dg\xca>\xe9\xbf\xaeY\x16\xda\xf9\xc0\x01@\xbf9\xe7n\xa7\xdb\x05@\x1a>\x91\xad\xfbc\xdb\xbf3.\x16b\x96U\x04\xc0d \xbc\x89\xb9/6\xc0\x8e\xf7\xba\xc6\xa5/\x0f\xc0k\x156\x99\x87\xf7\t\xc00\x8f3\xa0\x97\x89\x17\xc0\x8e\x17\x04\xb9\x83D\x11\xc0_\xd5\xd9\xfd\x04\x8b0\xc0\x8e\x85\x17\x13]e\x0e\xc0\x00\xa0\x85>\xdd\x12\x17\xc0\xea,G\xc5\xbb\x92\x0f\xc0oc\x99\xef\xb5\xaa\x12\xc0\xd7CA^\xb6\x05\x14\xc0'
p99
tp100
bsS'Model'
p101
S'HKY'
p102
sS'clock'
p103
I00
s.