(dp0
S'Force'
p1
NsS'ExpectedGeneconv'
p2
(dp3
(S'N1'
p4
S'N2'
p5
tp6
(lp7
F2.6237486028633694
aF10.164533137410755
as(S'N5'
p8
S'cerevisiae'
p9
tp10
(lp11
F0.6116864680747572
aF7.682535308802472
as(g5
S'N3'
p12
tp13
(lp14
F1.2037575412899195
aF1.9048974721442038
as(S'N4'
p15
g8
tp16
(lp17
F0.1684142125659692
aF0.9185446706700459
as(g4
S'castellii'
p18
tp19
(lp20
F2.2138128910259365
aF8.234960716444096
as(g5
S'bayanus'
p21
tp22
(lp23
F1.5759110655152084
aF6.440189073261306
as(S'N0'
p24
g4
tp25
(lp26
F0.06617842686459366
aF0.2315403334981133
as(g12
S'kudriavzevii'
p27
tp28
(lp29
F1.0674151505797678
aF4.868864752784097
as(g8
S'paradoxus'
p30
tp31
(lp32
F1.3398128797405366
aF0.6455357866839115
as(g24
S'kluyveri'
p33
tp34
(lp35
F0.0
aF0.0
as(g12
g15
tp36
(lp37
F0.6866710055514601
aF1.321954425134409
as(g15
S'mikatae'
p38
tp39
(lp40
F1.7888123500227988
aF2.4318236291610056
assS'ExpectedDwellTime'
p41
(dp42
g6
F32.85065095301667
sg10
F54.39010586179192
sg13
F48.87969515441452
sg16
F60.08725228697171
sg19
F31.896575887752977
sg22
F37.374342579937924
sg25
F6.574964983814152
sg28
F56.683028479513034
sg31
F60.86522908263322
sg34
F0.0
sg36
F57.71604341901137
sg39
F69.2826827293732
ssS'newicktree'
p43
S'../PairsAlignemt/YeastTree.newick'
p44
sS'll'
p45
cnumpy.core.multiarray
scalar
p46
(cnumpy
dtype
p47
(S'f8'
p48
I0
I1
tp49
Rp50
(I3
S'<'
p51
NNNI-1
I-1
I0
tp52
bS'\x98Z\xa0d\x83T\x95\xc0'
p53
tp54
Rp55
sS'edge_list'
p56
(lp57
g25
ag34
ag6
ag19
ag13
ag22
ag36
ag28
ag16
ag39
ag10
ag31
asS'edge_to_blen'
p58
(dp59
g25
g46
(g50
S'Z\xab\r|g\xcd\x9a?'
p60
tp61
Rp62
sg10
g46
(g50
S's8\xcc\t/2\xad?'
p63
tp64
Rp65
sg13
g46
(g50
S'\xc5\x99\x91z\xc6n\xa6?'
p66
tp67
Rp68
sg16
g46
(g50
S'\xe7=\xa1e\xf4%\x82?'
p69
tp70
Rp71
sg19
g46
(g50
S'~\x1e\xe7I\x0cq\xc3?'
p72
tp73
Rp74
sg22
g46
(g50
S'\x90\xf09\xa1\xd2^\xaf?'
p75
tp76
Rp77
sg6
g46
(g50
S'K\t\x1f\x9a\xb6%\xc5?'
p78
tp79
Rp80
sg28
g46
(g50
S'\xcbw=P**\xad?'
p81
tp82
Rp83
sg31
g46
(g50
S'\xf9\xed\x9f\xa5\xfa\x9b\x94?'
p84
tp85
Rp86
sg34
g46
(g50
S'\xc0\xd7\n\xf7\x8a/\xcb?'
p87
tp88
Rp89
sg36
g46
(g50
S'\x8c#\x81_\xc2(\x99?'
p90
tp91
Rp92
sg39
g46
(g50
S'\xf9p\xd4\xcf\xa6\x03\xac?'
p93
tp94
Rp95
ssS'paralog'
p96
(lp97
S'YBL087C'
p98
aS'YER117W'
p99
asS'alignment_file'
p100
S'../MafftAlignment/YBL087C_YER117W/YBL087C_YER117W_input.fasta'
p101
sS'x_clock'
p102
NsS'x'
p103
cnumpy.core.multiarray
_reconstruct
p104
(cnumpy
ndarray
p105
(I0
tp106
S'b'
p107
tp108
Rp109
(I1
(I20
tp110
g50
I00
S'$\x89\x7f\xab\xd7\xff\xe6\xbfA\xf3\xd5_a%\xe3\xbf\x9f\x00=\xc2\xc1\xe6\xef\xbf\xcc\xa3c`B\x0f\x01@\xaa\x84\xcb\xeb\x8c\r\x07\xc0\xa5\xcd\xfd\xf6"\xa8\xad\xbf\x19K\x07\x9d2\xd9\xf9?\x1e|e\xc5O\xd4\xd6?\xcd\xb22\xab\xd3$\r\xc0\\\x10\xf0P\x17\xca\xf8\xbf\xcc\xae\xca\x1e\xeb\xce\xfc\xbf\x17C\x04\x91b\'\xfe\xbfo\xe6\x8a4\xbe\x05\t\xc0\xfe\x92\x9f*\xf5V\x06\xc0\x9f\x7f\x13\x1ce\xa6\r\xc0\x90\xa4\xa7\xa0D\xec\x06\xc0*2^&x\xe7\x12\xc0a\xc2\xb6\xe1\xb0>\x07\xc0k\x0c\xda\xdb\x11\xea\x06\xc0\xba\xfas6\xef>\x0f\xc0'
p111
tp112
bsS'Model'
p113
S'MG94'
p114
sS'clock'
p115
I00
s.