(dp0
S'Force'
p1
NsS'ExpectedGeneconv'
p2
(dp3
(S'N1'
p4
S'N2'
p5
tp6
(lp7
F4.792102107169388
aF56.993768395099075
as(S'N5'
p8
S'cerevisiae'
p9
tp10
(lp11
F0.7211840721025441
aF11.088190267354705
as(g5
S'N3'
p12
tp13
(lp14
F0.6267457606071861
aF8.66994640995708
as(S'N4'
p15
g8
tp16
(lp17
F0.4201524456956973
aF7.098700979547889
as(g4
S'castellii'
p18
tp19
(lp20
F5.582168537025685
aF63.98741522854171
as(g5
S'bayanus'
p21
tp22
(lp23
F1.5521819206934377
aF19.478045687545045
as(S'N0'
p24
g4
tp25
(lp26
F1.7780677582455005
aF20.377920353261054
as(g12
S'kudriavzevii'
p27
tp28
(lp29
F0.7048085693618487
aF13.113308764095846
as(g8
S'paradoxus'
p30
tp31
(lp32
F0.7156439496562427
aF6.912344788492601
as(g24
S'kluyveri'
p33
tp34
(lp35
F0.0
aF0.0
as(g12
g15
tp36
(lp37
F0.6304145390719622
aF6.8722648725885955
as(g15
S'mikatae'
p38
tp39
(lp40
F1.853499146520608
aF10.827475848304122
assS'ExpectedDwellTime'
p41
(dp42
g6
F808.428549357817
sg10
F985.6019465860343
sg13
F943.0125496750356
sg16
F964.9424233722641
sg19
F781.0764031130415
sg22
F939.3704499452039
sg25
F365.87277433230855
sg28
F960.6583118014498
sg31
F973.4314999857509
sg34
F0.0
sg36
F957.5193481978829
sg39
F957.5968204376022
ssS'newicktree'
p43
S'../PairsAlignemt/YeastTree.newick'
p44
sS'll'
p45
cnumpy.core.multiarray
scalar
p46
(cnumpy
dtype
p47
(S'f8'
p48
I0
I1
tp49
Rp50
(I3
S'<'
p51
NNNI-1
I-1
I0
tp52
bS'\xef\x97\xc6\xfa\n\xe5\xc1\xc0'
p53
tp54
Rp55
sS'edge_list'
p56
(lp57
g25
ag34
ag6
ag19
ag13
ag22
ag36
ag28
ag16
ag39
ag10
ag31
asS'edge_to_blen'
p58
(dp59
g6
g46
(g50
S';\x1a\x14\xde\x90\x16\xd3?'
p60
tp61
Rp62
sg10
g46
(g50
S'\xda\xad\xe1l\\\xb9\xaf?'
p63
tp64
Rp65
sg13
g46
(g50
S'\x81M\r{\xc8\x1b\xa6?'
p66
tp67
Rp68
sg16
g46
(g50
S'\xb5\x186\nI\x1b\xa1?'
p69
tp70
Rp71
sg28
g46
(g50
S'\xa6\x0c\xd6\x8f\x10\xb0\xb0?'
p72
tp73
Rp74
sg22
g46
(g50
S'\xd4\xa9\x05\xd1\x95\xab\xb5?'
p75
tp76
Rp77
sg25
g46
(g50
S'?\x8c\xf5\xd4\xdb\x12\xcf?'
p78
tp79
Rp80
sg19
g46
(g50
S'\xfdA\n\xefC\xfa\xd3?'
p81
tp82
Rp83
sg31
g46
(g50
S'\xec\xd6\x88\xe2\xc04\xa3?'
p84
tp85
Rp86
sg34
g46
(g50
S'\xd0\x9a\xc6}\x0f\xbf\xc0?'
p87
tp88
Rp89
sg36
g46
(g50
S'u\xaco\xb4\xbf,\xa3?'
p90
tp91
Rp92
sg39
g46
(g50
S'X\t\x19C\x12\x03\xb1?'
p93
tp94
Rp95
ssS'paralog'
p96
(lp97
S'YDR438W'
p98
aS'YML018C'
p99
asS'alignment_file'
p100
S'../MafftAlignment/YDR438W_YML018C/YDR438W_YML018C_input.fasta'
p101
sS'x_clock'
p102
NsS'x'
p103
cnumpy.core.multiarray
_reconstruct
p104
(cnumpy
ndarray
p105
(I0
tp106
S'b'
p107
tp108
Rp109
(I1
(I19
tp110
g50
I00
S':<\xe54gk\xe8\xbf\xf2^\x02\xf2\x92\xfd\xe1\xbf\xe1\x00/\x929o\xee\xbf\x90\xd9\xe3-\xe7\x94\xf4?\x0f\xf3\x84\xaa\xfc\x18\n\xc0\xe9\x916\r5\x83\xe8\xbf\xcc\x16\x92Y\xedV\xe0\xbfL\xb3D\x17\x95\xa6\xf6\xbf^KH\xbdSE\x00\xc0J|\xd8ug[\xf3\xbf0G\x7f"\xdb\xa0\xf2\xbf\x13=\xeeF\x8e#\t\xc0\xa6\xf4\xe3B\xff\xc0\x03\xc0p!\xcbP\x1fG\n\xc0\xaec\xaa\x9f\x11\xd8\x05\xc0\x15\xd8\xca*\xde0\x0b\xc04@\xed[\xa8\xb0\x05\xc0\x87\xe8}~\xff?\x06\xc0\xec0\x95\x10\xc9C\n\xc0'
p111
tp112
bsS'Model'
p113
S'HKY'
p114
sS'clock'
p115
I00
s.