(dp0
S'Force'
p1
NsS'ExpectedGeneconv'
p2
(dp3
(S'N1'
p4
S'N2'
p5
tp6
(lp7
F7.286046796064903
aF9.155182320687842
as(S'N5'
p8
S'cerevisiae'
p9
tp10
(lp11
F2.8188847068223897
aF3.1125196535083384
as(g5
S'N3'
p12
tp13
(lp14
F1.1577945102874414
aF1.5469054832596651
as(S'N4'
p15
g8
tp16
(lp17
F0.1367981441001263
aF0.3389836741672297
as(g4
S'castellii'
p18
tp19
(lp20
F4.867980832908281
aF6.044486997917845
as(g5
S'bayanus'
p21
tp22
(lp23
F5.061141846354297
aF2.8599032176488217
as(S'N0'
p24
g4
tp25
(lp26
F7.036462501342141e-06
aF9.048946832455668e-06
as(g12
S'kudriavzevii'
p27
tp28
(lp29
F5.41655262634202
aF4.619365135879118
as(g8
S'paradoxus'
p30
tp31
(lp32
F2.3762883365097647
aF2.9968948506245954
as(g24
S'kluyveri'
p33
tp34
(lp35
F0.0
aF0.0
as(g12
g15
tp36
(lp37
F0.23804127278403647
aF0.19331371223154128
as(g15
S'mikatae'
p38
tp39
(lp40
F3.9081594260901515
aF3.1455095349402993
assS'ExpectedDwellTime'
p41
(dp42
g6
F25.51527379692535
sg10
F51.261021399019036
sg13
F42.22527559105993
sg16
F49.630965869371174
sg19
F25.889909510734572
sg22
F34.73248036158201
sg25
F0.0374164354178862
sg28
F57.02542497304685
sg31
F47.57895211214186
sg34
F0.0
sg36
F48.83448739609432
sg39
F53.81997639160124
ssS'newicktree'
p43
S'../PairsAlignemt/YeastTree.newick'
p44
sS'll'
p45
cnumpy.core.multiarray
scalar
p46
(cnumpy
dtype
p47
(S'f8'
p48
I0
I1
tp49
Rp50
(I3
S'<'
p51
NNNI-1
I-1
I0
tp52
bS'>\xd0\xa5\xf6h\xd2\x92\xc0'
p53
tp54
Rp55
sS'edge_list'
p56
(lp57
g25
ag34
ag6
ag19
ag13
ag22
ag36
ag28
ag16
ag39
ag10
ag31
asS'edge_to_blen'
p58
(dp59
g25
g46
(g50
S'X\xc7\xc7g\x9e*"?'
p60
tp61
Rp62
sg10
g46
(g50
S'\xe8\xce\xc3\xf3\xe9\xaf\xa0?'
p63
tp64
Rp65
sg13
g46
(g50
S'\xc5\xee\xcf4\xba\xc2\xa0?'
p66
tp67
Rp68
sg16
g46
(g50
S'wh1\x01\xd3\x88r?'
p69
tp70
Rp71
sg19
g46
(g50
S'\xc9\xf9-\xfa\xa8\x8e\xc1?'
p72
tp73
Rp74
sg22
g46
(g50
S'\x15\xcf\xb3\x8c\xf4\x0c\xab?'
p75
tp76
Rp77
sg6
g46
(g50
S'\x83\x0c\xae\xc5\x14a\xc5?'
p78
tp79
Rp80
sg28
g46
(g50
S'#+\x11A\tC\xb5?'
p81
tp82
Rp83
sg31
g46
(g50
S'\x08#\x85\x8e&\xa7\xa0?'
p84
tp85
Rp86
sg39
g46
(g50
S'\xe2\xaa\x00*\x97\x9c\xab?'
p87
tp88
Rp89
sg36
g46
(g50
S'\x9fy\x17u\x1c\xdch?'
p90
tp91
Rp92
sg34
g46
(g50
S'\xd2\xef\xe3s&+\xb0?'
p93
tp94
Rp95
ssS'paralog'
p96
(lp97
S'YMR143W'
p98
aS'YDL083C'
p99
asS'alignment_file'
p100
S'../MafftAlignment/YMR143W_YDL083C/YMR143W_YDL083C_input.fasta'
p101
sS'x_clock'
p102
NsS'x'
p103
cnumpy.core.multiarray
_reconstruct
p104
(cnumpy
ndarray
p105
(I0
tp106
S'b'
p107
tp108
Rp109
(I1
(I20
tp110
g50
I00
S'<\x9f\x88\xd2\xea\x15\xe7\xbfQ@^\xb6R\t\xe0\xbf\xa2\xd10\xe7\xd2\x08\xed\xbf\xb4\xa9\xb3E\x9dP\x03@=\x04\xe4\xbbd\xb8\r\xc0\xdf\xc9\xf0\xd8g\xab\xea?X\xa3\xd2[!Y\xf2?A\xd4if"\xe9\xf8\xbf\xca\xad?\xae\x91\xc4!\xc0\x83|\xe5\xa8\xcc\x18\x06\xc0\xef\x9e\x10\xd2>\xa2\xfc\xbf\xed\r\xc0\xa4\xf5\xc8\xff\xbf@=D\xfd\xb4Z\x0b\xc0\n\xef\xb7Ba\x86\x07\xc0\x98\xb87\x07\xce0\x17\xc0\xa0Bb7\xf6\xe7\x03\xc0\xe16\x9bl\xb0\x97\x15\xc0\xb2\xf4\xb4\xe3U\\\x07\xc0\xc8]\xda\xe1\xb4c\x0b\xc0*Sy~\xe9g\x0b\xc0'
p111
tp112
bsS'Model'
p113
S'MG94'
p114
sS'clock'
p115
I00
s.