(dp0
S'Force'
p1
NsS'ExpectedGeneconv'
p2
(dp3
(S'N1'
p4
S'N2'
p5
tp6
F25.022856318069657
s(S'N5'
p7
S'cerevisiae'
p8
tp9
F6.130967495999646
s(g5
S'N3'
p10
tp11
F4.720935080703097
s(S'N4'
p12
g7
tp13
F3.247413167466305
s(g4
S'castellii'
p14
tp15
F38.41903977722211
s(g5
S'bayanus'
p16
tp17
F11.458330136051615
s(S'N0'
p18
g4
tp19
F28.50340128500516
s(g10
S'kudriavzevii'
p20
tp21
F7.219056983715622
s(g7
S'paradoxus'
p22
tp23
F8.019528381101942
s(g18
S'kluyveri'
p24
tp25
F0.0
s(g10
g12
tp26
F7.386890928448755
s(g12
S'mikatae'
p27
tp28
F10.194903176767363
ssS'ExpectedDwellTime'
p29
(dp30
g6
F80.47488975527503
sg9
F84.1149220078916
sg11
F89.90208253099395
sg13
F85.52784773288978
sg15
F76.61255817553413
sg17
F78.44168910704379
sg19
F44.76129401288448
sg21
F101.07281569073521
sg23
F81.42367432962
sg25
F0.0
sg26
F90.77754801910677
sg28
F88.33708940200181
ssS'newicktree'
p31
S'../PairsAlignemt/YeastTree.newick'
p32
sS'll'
p33
cnumpy.core.multiarray
scalar
p34
(cnumpy
dtype
p35
(S'f8'
p36
I0
I1
tp37
Rp38
(I3
S'<'
p39
NNNI-1
I-1
I0
tp40
bS'w#\xec\xbf\xf7\x8d\x9e\xc0'
p41
tp42
Rp43
sS'edge_list'
p44
(lp45
g19
ag25
ag6
ag15
ag11
ag17
ag26
ag21
ag13
ag28
ag9
ag23
asS'edge_to_blen'
p46
(dp47
g19
g34
(g38
S'\xbd\xe4\xb4\x03x\x14\xb0?'
p48
tp49
Rp50
sg9
g34
(g38
S'L\xda\xdb}\xa9\xca~?'
p51
tp52
Rp53
sg11
g34
(g38
S'TC\xd4g\x0f\xa7|?'
p54
tp55
Rp56
sg13
g34
(g38
S'\xcf.\x19\xc0\xb5\xa8c?'
p57
tp58
Rp59
sg15
g34
(g38
S'B>b\x97r\xce\xa8?'
p60
tp61
Rp62
sg17
g34
(g38
S'd\x8e\xbb\xe9Xc\x84?'
p63
tp64
Rp65
sg6
g34
(g38
S'yT\x04\x1a\x96%\xa0?'
p66
tp67
Rp68
sg21
g34
(g38
S'J^;\x0e~\xb0\x86?'
p69
tp70
Rp71
sg23
g34
(g38
S'\xd9\x99\xe7\xcf\r\xf1\x82?'
p72
tp73
Rp74
sg25
g34
(g38
S'\xaa@\x19\xd8\x172\x8b?'
p75
tp76
Rp77
sg26
g34
(g38
S'\xf0\xfaZ\x85@Jz?'
p78
tp79
Rp80
sg28
g34
(g38
S'\x910\x8fY\xa1\xc5\x87?'
p81
tp82
Rp83
ssS'paralog'
p84
(lp85
S'YJL177W'
p86
aS'YKL180W'
p87
asS'alignment_file'
p88
S'../MafftAlignment/YJL177W_YKL180W/YJL177W_YKL180W_input.fasta'
p89
sS'x_clock'
p90
NsS'x'
p91
cnumpy.core.multiarray
_reconstruct
p92
(cnumpy
ndarray
p93
(I0
tp94
S'b'
p95
tp96
Rp97
(I1
(I18
tp98
g38
I00
S'\x8d\xd8\xb9Q\xd7\xc0\xe7\xbfW\xef\xba\x9c\xec!\xdf\xbf\x8d\xef%\x8e\x9c\xf3\xe6\xbf\x9b\xf4\xe7\xd623\x01@*N\xc3\xc3\xab\x82\x02@\x96\xe9"\xa4\xa7\xc7\xd0\xbf1-s\x83\r$\x06\xc0\x9f@UHGI\x11\xc0\xdeKO\xa2\x1e\xa7\x0b\xc0\xbd=S\xe6\xbf7\x08\xc0b\xbf\x12\x8e\x9f\xd9\x13\xc0\x07\xcc\x18\x04Mp\x12\xc0L]\xb7\xd6\xbd1\x14\xc0\xa4\xf8\xa3\x0e\xc9\x02\x12\xc0\x95\xf0\xe7i\'!\x18\xc0\xc5\xce*\xb9\x0e\xd3\x11\xc0\xd2\xc8\xf8+\xe5\x8f\x13\xc0\x95$r\xdc\xa7\xbb\x12\xc0'
p99
tp100
bsS'Model'
p101
S'HKY'
p102
sS'clock'
p103
I00
s.