(dp0
S'Force'
p1
NsS'ExpectedGeneconv'
p2
(dp3
(S'N1'
p4
S'N2'
p5
tp6
F14.271325153169016
s(S'N5'
p7
S'cerevisiae'
p8
tp9
F5.363345611853832
s(g5
S'N3'
p10
tp11
F3.489745962854151
s(S'N4'
p12
g7
tp13
F2.805171162479586
s(g4
S'castellii'
p14
tp15
F20.273591912074654
s(g5
S'bayanus'
p16
tp17
F3.099650540817598
s(S'N0'
p18
g4
tp19
F0.08387446582290665
s(g10
S'kudriavzevii'
p20
tp21
F6.032597745254668
s(g7
S'paradoxus'
p22
tp23
F3.026792138427912
s(g18
S'kluyveri'
p24
tp25
F0.0
s(g10
g12
tp26
F1.33981643553072
s(g12
S'mikatae'
p27
tp28
F7.10701747001182
ssS'ExpectedDwellTime'
p29
(dp30
g6
F77.42524156077043
sg9
F120.14651213971564
sg11
F115.24202436547623
sg13
F120.86103766001597
sg15
F74.89472429888124
sg17
F114.96856013810277
sg19
F7.383622826561381
sg21
F126.75586907826549
sg23
F123.28943551000857
sg25
F0.0
sg26
F120.80211239975326
sg28
F128.1310798841679
ssS'newicktree'
p31
S'../PairsAlignemt/YeastTree.newick'
p32
sS'll'
p33
cnumpy.core.multiarray
scalar
p34
(cnumpy
dtype
p35
(S'f8'
p36
I0
I1
tp37
Rp38
(I3
S'<'
p39
NNNI-1
I-1
I0
tp40
bS'b\xa1\xa2\x17aE\x9d\xc0'
p41
tp42
Rp43
sS'edge_list'
p44
(lp45
g19
ag25
ag6
ag15
ag11
ag17
ag26
ag21
ag13
ag28
ag9
ag23
asS'edge_to_blen'
p46
(dp47
g6
g34
(g38
S's\xce\x138\xab7\xe4?'
p48
tp49
Rp50
sg9
g34
(g38
S'Bk\xb7\xd0\x11\x82\xc3?'
p51
tp52
Rp53
sg11
g34
(g38
S'\xd8C\xeaL\xc9\x02\xbf?'
p54
tp55
Rp56
sg13
g34
(g38
S'1\x9a\xda+\xfdE\xb2?'
p57
tp58
Rp59
sg21
g34
(g38
S'v\xb5w\xf9\x84K\xcc?'
p60
tp61
Rp62
sg17
g34
(g38
S'\xdd9\xfc\x8c\xd7\x1a\xc0?'
p63
tp64
Rp65
sg19
g34
(g38
S'}\xec\xaf^\x1e$\xa3?'
p66
tp67
Rp68
sg15
g34
(g38
S'S\x03\xb1\xc1*r\xe6?'
p69
tp70
Rp71
sg23
g34
(g38
S'\xb1\x03\xeb\xbe9\xb3\xbc?'
p72
tp73
Rp74
sg25
g34
(g38
S'\x8e\xf8\xd6\xe3\xe2\xea\xe0?'
p75
tp76
Rp77
sg26
g34
(g38
S'\x1f\x9b}c<\xf4\x9f?'
p78
tp79
Rp80
sg28
g34
(g38
S'\x9a\x1dn\x1a%&\xc8?'
p81
tp82
Rp83
ssS'paralog'
p84
(lp85
S'YJR048W'
p86
aS'YEL039C'
p87
asS'alignment_file'
p88
S'../MafftAlignment/YJR048W_YEL039C/YJR048W_YEL039C_input.fasta'
p89
sS'x_clock'
p90
NsS'x'
p91
cnumpy.core.multiarray
_reconstruct
p92
(cnumpy
ndarray
p93
(I0
tp94
S'b'
p95
tp96
Rp97
(I1
(I19
tp98
g38
I00
S'\xb7s,\xc0\xac|\xe4\xbf0\xefQ\xb2;6\xe2\xbf\xc9\rC\x00ph\xea\xbf\x7fc\xda\xf8I\x8e\xf0?\xc3\x15\xe6\xd9\xf4\xfd\x05\xc0\xa4\x9c\x96\x00\x86@\xf1\xbfrt\x88n\xa8\x9f\xf5\xbf\x06\x06\x94\xe4\xb9J\n\xc0\x1e\xfa\xc6\x08we\xe4\xbf]H\x10W\\c\xdd\xbf`\xca\xb7:-\xb2\xd6\xbfr6\xcf\xa9\xff\xe2\x00\xc0\xf5\x97.\xaeQ\x95\x00\xc0!A`0\xc5\xbc\x0b\xc0~2\x8f/G&\xf8\xbf\xb1%"r+\x1e\x05\xc0s\x85\xce\x91A\xaf\xfa\xbf\xc2\xdb\x86\x89f\x19\xfe\xbf\x0f\xc6\xe8I\x97\x81\x01\xc0'
p99
tp100
bsS'Model'
p101
S'MG94'
p102
sS'clock'
p103
I00
s.