(dp0
S'Force'
p1
NsS'ExpectedGeneconv'
p2
(dp3
(S'N1'
p4
S'N2'
p5
tp6
(lp7
F63.391299261810936
aF37.046938768626646
as(S'N5'
p8
S'cerevisiae'
p9
tp10
(lp11
F10.43536683098159
aF5.914389929784656
as(g5
S'N3'
p12
tp13
(lp14
F6.472080442285309
aF3.4001097235930318
as(S'N4'
p15
g8
tp16
(lp17
F2.513769668550166
aF2.3727145330598445
as(g4
S'castellii'
p18
tp19
(lp20
F136.32005571473294
aF81.29071840525474
as(g5
S'bayanus'
p21
tp22
(lp23
F10.575693755122563
aF5.985439417252339
as(S'N0'
p24
g4
tp25
(lp26
F17.92526372201323
aF11.00211283793511
as(g12
S'kudriavzevii'
p27
tp28
(lp29
F8.497935308566323
aF5.2910788594979525
as(g8
S'paradoxus'
p30
tp31
(lp32
F2.0252002620108973
aF2.266229040619094
as(g24
S'kluyveri'
p33
tp34
(lp35
F0.0
aF0.0
as(g12
g15
tp36
(lp37
F3.9013546303412303
aF2.426683120848783
as(g15
S'mikatae'
p38
tp39
(lp40
F8.03630051998301
aF7.022520240735112
assS'ExpectedDwellTime'
p41
(dp42
g6
F330.54442415563864
sg10
F374.60697465856725
sg13
F358.81805168992196
sg16
F367.7475921337572
sg19
F344.59676973142996
sg22
F370.21821653361997
sg25
F175.4457099247644
sg28
F368.33591218689514
sg31
F374.73821615048337
sg34
F0.0
sg36
F361.6388795927288
sg39
F378.4633569449719
ssS'newicktree'
p43
S'../PairsAlignemt/YeastTree.newick'
p44
sS'll'
p45
cnumpy.core.multiarray
scalar
p46
(cnumpy
dtype
p47
(S'f8'
p48
I0
I1
tp49
Rp50
(I3
S'<'
p51
NNNI-1
I-1
I0
tp52
bS'\xc5\xdc\xaa\x07\xd0\x8d\xb6\xc0'
p53
tp54
Rp55
sS'edge_list'
p56
(lp57
g25
ag34
ag6
ag19
ag13
ag22
ag36
ag28
ag16
ag39
ag10
ag31
asS'edge_to_blen'
p58
(dp59
g25
g46
(g50
S'S\x0ez\xc2\\\x97\xe1?'
p60
tp61
Rp62
sg10
g46
(g50
S'\xa4S\x04\xf8\x08\xd8\xc9?'
p63
tp64
Rp65
sg13
g46
(g50
S'\xef\xdb\x08\xdd\xb5K\xbf?'
p66
tp67
Rp68
sg16
g46
(g50
S'\x1a\xe4\xc22\x9c\x14\xb5?'
p69
tp70
Rp71
sg19
g46
(g50
S'\xa4\r2B\xa2R\x05@'
p72
tp73
Rp74
sg22
g46
(g50
S'u\xb8A\xd8\xc3\x13\xcf?'
p75
tp76
Rp77
sg6
g46
(g50
S'U\xb1u$L\xf8\xf3?'
p78
tp79
Rp80
sg28
g46
(g50
S'\x9e[\x0c6\x03T\xc9?'
p81
tp82
Rp83
sg31
g46
(g50
S'f\xe7z\\Qw\xb0?'
p84
tp85
Rp86
sg39
g46
(g50
S'\xb7@\xe1\xbaq\x83\xcf?'
p87
tp88
Rp89
sg36
g46
(g50
S'(\r\xc0\xe4\xefS\xb8?'
p90
tp91
Rp92
sg34
g46
(g50
S'\x93Y\xa9\xbbFy\x00@'
p93
tp94
Rp95
ssS'paralog'
p96
(lp97
S'YPL232W'
p98
aS'YMR183C'
p99
asS'alignment_file'
p100
S'../MafftAlignment/YPL232W_YMR183C/YPL232W_YMR183C_input.fasta'
p101
sS'x_clock'
p102
NsS'x'
p103
cnumpy.core.multiarray
_reconstruct
p104
(cnumpy
ndarray
p105
(I0
tp106
S'b'
p107
tp108
Rp109
(I1
(I20
tp110
g50
I00
S'\x8b3F\x99\xfd\xfa\xe3\xbf\xd9\x11k\xd3\xb66\xe1\xbfC\xae\x9e\xcc-\xf8\xe8\xbf\xd6\xfaG\x1b{\xf1\xf1?`\xf2\xb0\x00\x9d\x82\x08\xc0\xf24\xc1\xb4M\x9a\xea\xbfw\xa1dP\xd0\xd3\x03\xc0\xe4\x1a\xc3I\xf0\x1e\xe9\xbf\xf0\x130\xd9\x8c%\xe3\xbf\xc2g\x97\xf7J\x1d\xe7?\x837\x91c\xa2^\xcc?_ D)\xe7^\xef?\xec\xc9:\xa5E\xd0\x00\xc0N}\x0c\xa2\x1d\xa6\xf6\xbf\n\xa6\x18\\\x14\xd4\x02\xc0\x0c*\xac~\xfb\xeb\xf9\xbf@\xa9aF\x81\xf9\x03\xc0\x88\xb6\xf2\x93\x04m\xf6\xbf\xf2\xca\xc3\xa5k\x99\xf9\xbf\xa8\xadd\x89t\xf3\x05\xc0'
p111
tp112
bsS'Model'
p113
S'MG94'
p114
sS'clock'
p115
I00
s.