(dp0
S'Force'
p1
NsS'ExpectedGeneconv'
p2
(dp3
(S'N1'
p4
S'N2'
p5
tp6
(lp7
F5.171240527592796
aF11.339501870554866
as(S'N5'
p8
S'cerevisiae'
p9
tp10
(lp11
F1.5864415193886787
aF12.875256219239814
as(g5
S'N3'
p12
tp13
(lp14
F2.0976846658595956
aF1.8488891924096182
as(S'N4'
p15
g8
tp16
(lp17
F0.8364210876029468
aF3.574027039241628
as(g4
S'castellii'
p18
tp19
(lp20
F10.455646378106346
aF21.642766161220045
as(g5
S'bayanus'
p21
tp22
(lp23
F7.325795394068906
aF15.407824294609757
as(S'N0'
p24
g4
tp25
(lp26
F9.317929757987194
aF20.42568344131124
as(g12
S'kudriavzevii'
p27
tp28
(lp29
F2.992127685663011
aF9.872134276961182
as(g8
S'paradoxus'
p30
tp31
(lp32
F3.3275606232576136
aF1.4343155629288444
as(g24
S'kluyveri'
p33
tp34
(lp35
F0.0
aF0.0
as(g12
g15
tp36
(lp37
F1.5459328082869106
aF2.785437313424607
as(g15
S'mikatae'
p38
tp39
(lp40
F3.6134270194005595
aF4.006212136166295
assS'ExpectedDwellTime'
p41
(dp42
g6
F60.019314058051094
sg10
F55.897245464613405
sg13
F64.92878974695088
sg16
F65.94336491989652
sg19
F49.97770062332392
sg22
F46.102815463762745
sg25
F33.871070777769624
sg28
F62.17935632486002
sg31
F62.19399976539455
sg34
F0.0
sg36
F67.63895511055009
sg39
F73.77724078332238
ssS'newicktree'
p43
S'../PairsAlignemt/YeastTree.newick'
p44
sS'll'
p45
cnumpy.core.multiarray
scalar
p46
(cnumpy
dtype
p47
(S'f8'
p48
I0
I1
tp49
Rp50
(I3
S'<'
p51
NNNI-1
I-1
I0
tp52
bS'\xf7\x01\xb1DA\xee\x96\xc0'
p53
tp54
Rp55
sS'edge_list'
p56
(lp57
g25
ag34
ag6
ag19
ag13
ag22
ag36
ag28
ag16
ag39
ag10
ag31
asS'edge_to_blen'
p58
(dp59
g25
g46
(g50
S'\xca?\xda\xee9&\xb2?'
p60
tp61
Rp62
sg10
g46
(g50
S'#v\x88\x14\xf6~\x8e?'
p63
tp64
Rp65
sg13
g46
(g50
S'}5\x8f\xe9L\xd4x?'
p66
tp67
Rp68
sg16
g46
(g50
S'5V#\x1f\xd9\xffn?'
p69
tp70
Rp71
sg19
g46
(g50
S'\xb4>B\xf2\xab\x05\xa5?'
p72
tp73
Rp74
sg22
g46
(g50
S'&f\x15\xe2\xf1\xfd\x96?'
p75
tp76
Rp77
sg6
g46
(g50
S'\x94\xa7\xa9|\xff\xa7\x97?'
p78
tp79
Rp80
sg28
g46
(g50
S'\xf9H\xe3\x1e\xab\xea\x8d?'
p81
tp82
Rp83
sg31
g46
(g50
S'\xe3D\xc5fnmx?'
p84
tp85
Rp86
sg39
g46
(g50
S'\xbf\xf5\xf2\x88\xb7v\x89?'
p87
tp88
Rp89
sg36
g46
(g50
S'\x11\x02\xb1\t?\x93w?'
p90
tp91
Rp92
sg34
g46
(g50
S'\xab\xaeNe\xc0\xe1\x8a>'
p93
tp94
Rp95
ssS'paralog'
p96
(lp97
S'YBL087C'
p98
aS'YER117W'
p99
asS'alignment_file'
p100
S'../MafftAlignment/YBL087C_YER117W/YBL087C_YER117W_input.fasta'
p101
sS'x_clock'
p102
NsS'x'
p103
cnumpy.core.multiarray
_reconstruct
p104
(cnumpy
ndarray
p105
(I0
tp106
S'b'
p107
tp108
Rp109
(I1
(I19
tp110
g50
I00
S'3d\xc9<\xfc\xdd\xe8\xbf\xc3\xdd7\x9c\x7f&\xe5\xbfe\xb6x\x81/\xae\xec\xbf\x86\x92nUq\xf9\x02@\xa8\x0e\xb1\xb4\xa5f\x01@]H\x943\xe2\xac\x07@\x18`\xe0\x0fz\x17\x9d?\x03\x0f\xb6f\x1f,\x05\xc0<\xcb2\xfc\xd7\xd8.\xc0d\x1c\x9e\xce\x8b$\x0e\xc0\x9e9\x91T\xbf\x8a\t\xc0M:(\x95Gl\x14\xc0T\xd1\x13\x87\xe0^\x0e\xc0\x95\xed0xZ\xa1\x14\xc05Gn\xc3\xa1\xe7\x10\xc0\r\xafN\xbe\xcaN\x16\xc0t?\x1b\n\xa9\x8c\x11\xc0\xab\x10\xebs\xfe\xd3\x10\xc0\xe9\xb2\xf1\xc6\xfc|\x14\xc0'
p111
tp112
bsS'Model'
p113
S'HKY'
p114
sS'clock'
p115
I00
s.