(dp0
S'Force'
p1
NsS'ExpectedGeneconv'
p2
(dp3
(S'N1'
p4
S'N2'
p5
tp6
F60.09694245883793
s(S'N5'
p7
S'cerevisiae'
p8
tp9
F31.64518381180184
s(g5
S'N3'
p10
tp11
F21.004723824818548
s(S'N4'
p12
g7
tp13
F19.092631358105287
s(g4
S'castellii'
p14
tp15
F90.29918836262054
s(g5
S'bayanus'
p16
tp17
F46.57810245830281
s(S'N0'
p18
g4
tp19
F36.0082755482994
s(g10
S'kudriavzevii'
p20
tp21
F40.910689255929334
s(g7
S'paradoxus'
p22
tp23
F21.089475775003397
s(g18
S'kluyveri'
p24
tp25
F0.0
s(g10
g12
tp26
F25.984896274454965
s(g12
S'mikatae'
p27
tp28
F41.452900884046436
ssS'ExpectedDwellTime'
p29
(dp30
g6
F381.215099931859
sg9
F467.7744681311735
sg11
F465.2300409425846
sg13
F476.380869849246
sg15
F345.4333762718929
sg17
F461.05392064506566
sg19
F170.57934030199556
sg21
F481.4724496723604
sg23
F479.2303191551163
sg25
F0.0
sg26
F471.6662598069642
sg28
F477.0725164587051
ssS'newicktree'
p31
S'../PairsAlignemt/YeastTree.newick'
p32
sS'll'
p33
cnumpy.core.multiarray
scalar
p34
(cnumpy
dtype
p35
(S'f8'
p36
I0
I1
tp37
Rp38
(I3
S'<'
p39
NNNI-1
I-1
I0
tp40
bS'\xe9\xf2S/\xfb\xd2\xb9\xc0'
p41
tp42
Rp43
sS'edge_list'
p44
(lp45
g19
ag25
ag6
ag15
ag11
ag17
ag26
ag21
ag13
ag28
ag9
ag23
asS'edge_to_blen'
p46
(dp47
g6
g34
(g38
S'\x1b^\x04l\xe3d\xb9?'
p48
tp49
Rp50
sg9
g34
(g38
S'\x12\xc9\x18K(\x13\xa0?'
p51
tp52
Rp53
sg11
g34
(g38
S'F\x9a\xd7\xe7\xd1~\x9b?'
p54
tp55
Rp56
sg13
g34
(g38
S'\xd3\xc5\x9c\x93]`\x98?'
p57
tp58
Rp59
sg21
g34
(g38
S'\xe0\xb6\xc5\x05]\xd1\xa9?'
p60
tp61
Rp62
sg17
g34
(g38
S'\x05\x86\x10\xafrR\xac?'
p63
tp64
Rp65
sg19
g34
(g38
S'%5\x8en\x87w\xbd?'
p66
tp67
Rp68
sg15
g34
(g38
S'\xe6\xe6\xa3@\xc0\x8f\xbd?'
p69
tp70
Rp71
sg23
g34
(g38
S'y6\x15e{;\x9a?'
p72
tp73
Rp74
sg25
g34
(g38
S'\xb5\x93B\xca\xd6R\xa8?'
p75
tp76
Rp77
sg26
g34
(g38
S'\xc5\x0f^\x87\xa2\xb9\x9f?'
p78
tp79
Rp80
sg28
g34
(g38
S'\x8aTZ\xdcTw\xa8?'
p81
tp82
Rp83
ssS'paralog'
p84
(lp85
S'YHR106W'
p86
aS'YDR353W'
p87
asS'alignment_file'
p88
S'../MafftAlignment/YHR106W_YDR353W/YHR106W_YDR353W_input.fasta'
p89
sS'x_clock'
p90
NsS'x'
p91
cnumpy.core.multiarray
_reconstruct
p92
(cnumpy
ndarray
p93
(I0
tp94
S'b'
p95
tp96
Rp97
(I1
(I18
tp98
g38
I00
S"`\xb9\xe9xF\x04\xe7\xbfM\xb1\xab\xf4yW\xe3\xbf\x92aA<WZ\xe8\xbf\xe74\xcd\x0e\x06\xe9\xf9?l\xeb2\xfcR^\xe3?GPF\x13\xe7\x1d\xd5\xbf\xa2b\xba4\x97K\x01\xc0\xef\xcb!\x8e\x01`\x08\xc0\x94!\xce\xb6;|\x02\xc0\xc5\xb3\xa8o\x06E\x01\xc0\xc6ygm\x8b\xf0\x0c\xc0\xd06\n\xd7O(\x07\xc0`\xaf\xaa\x90~\xcb\x0b\xc0\xcf\x89\xf0H\xe8\xe5\x07\xc0\x9f\x84\x0e\xa2 \xe7\r\xc0\xb9I{\xed\tT\x08\xc0'\xa1\xa2PE\xb0\x0b\xc0%\x9b\x1c\x08\xdaP\r\xc0"
p99
tp100
bsS'Model'
p101
S'HKY'
p102
sS'clock'
p103
I00
s.