(dp0
S'Force'
p1
NsS'ExpectedGeneconv'
p2
(dp3
(S'N1'
p4
S'N2'
p5
tp6
(lp7
F9.274743936422274
aF33.091734486958
as(S'N5'
p8
S'cerevisiae'
p9
tp10
(lp11
F7.298376895850691
aF15.693635986682
as(g5
S'N3'
p12
tp13
(lp14
F2.9301416899862405
aF9.729221770180953
as(S'N4'
p15
g8
tp16
(lp17
F4.014812896473398
aF4.278776341654986
as(g4
S'castellii'
p18
tp19
(lp20
F21.272952294860342
aF61.29928756172622
as(g5
S'bayanus'
p21
tp22
(lp23
F3.749077825745445
aF16.13366030385034
as(S'N0'
p24
g4
tp25
(lp26
F8.340518968745593
aF23.98635250784635
as(g12
S'kudriavzevii'
p27
tp28
(lp29
F5.54852437547145
aF19.55638499975668
as(g8
S'paradoxus'
p30
tp31
(lp32
F3.0233707867039947
aF12.03549743770894
as(g24
S'kluyveri'
p33
tp34
(lp35
F0.0
aF0.0
as(g12
g15
tp36
(lp37
F3.127727723273177
aF6.327432264658077
as(g15
S'mikatae'
p38
tp39
(lp40
F12.521384540643767
aF20.682960984412784
assS'ExpectedDwellTime'
p41
(dp42
g6
F545.3675490664879
sg10
F649.4286372687286
sg13
F638.917173523397
sg16
F654.1315535916937
sg19
F583.1611207316499
sg22
F636.2986262456774
sg25
F261.2881601570837
sg28
F660.4753713388484
sg31
F657.248801222822
sg34
F0.0
sg36
F652.4023184206045
sg39
F641.5759546899641
ssS'newicktree'
p43
S'../PairsAlignemt/YeastTree.newick'
p44
sS'll'
p45
cnumpy.core.multiarray
scalar
p46
(cnumpy
dtype
p47
(S'f8'
p48
I0
I1
tp49
Rp50
(I3
S'<'
p51
NNNI-1
I-1
I0
tp52
bS'\xc5\xac\xa8\x88;\xfa\xbc\xc0'
p53
tp54
Rp55
sS'edge_list'
p56
(lp57
g25
ag34
ag6
ag19
ag13
ag22
ag36
ag28
ag16
ag39
ag10
ag31
asS'edge_to_blen'
p58
(dp59
g6
g46
(g50
S'\xac\xd1\x0e\x07\xc3\x94\xbc?'
p60
tp61
Rp62
sg10
g46
(g50
S'\x02\xc9(w\xa2<\xa4?'
p63
tp64
Rp65
sg13
g46
(g50
S'`\xd2!\x1b\x804\x9d?'
p66
tp67
Rp68
sg16
g46
(g50
S'\xfd\x16\xc8\xae8\x13\x95?'
p69
tp70
Rp71
sg28
g46
(g50
S'+.\xd1\xdd\x02\xfd\xac?'
p72
tp73
Rp74
sg22
g46
(g50
S'\x9f\xf3q\x8b\x96\xcb\xa5?'
p75
tp76
Rp77
sg25
g46
(g50
S'L\x0e\xdeH~\x9b\xc5?'
p78
tp79
Rp80
sg19
g46
(g50
S'\xf2\x08D\x98\\\xb8\xc8?'
p81
tp82
Rp83
sg31
g46
(g50
S'w\x9d\xeah\x15\xd5\x9f?'
p84
tp85
Rp86
sg34
g46
(g50
S'\xa6\xb11\x97\xf4\x11\xab?'
p87
tp88
Rp89
sg36
g46
(g50
S'\x142\\m\xa4i\x95?'
p90
tp91
Rp92
sg39
g46
(g50
S'\x12\xfe+\xe7\xb2\x07\xb0?'
p93
tp94
Rp95
ssS'paralog'
p96
(lp97
S'YGR043C'
p98
aS'YLR354C'
p99
asS'alignment_file'
p100
S'../MafftAlignment/YGR043C_YLR354C/YGR043C_YLR354C_input.fasta'
p101
sS'x_clock'
p102
NsS'x'
p103
cnumpy.core.multiarray
_reconstruct
p104
(cnumpy
ndarray
p105
(I0
tp106
S'b'
p107
tp108
Rp109
(I1
(I19
tp110
g50
I00
S'(\x08\xd2B\x1d,\xe7\xbf=\x80\xd0\xd2z\x0b\xe1\xbf\xffb0\xc4\xf9\x1c\xe9\xbf\x0f)\xa43\x03\xab\xf7?d\xcfb\x82\xb8\x81\xf1\xbf\x07\xfe=\x03<\xe2\xc3?\x1f\xd3k4\xe9\xc1\xf5\xbf \xbf\x81\x0e\xc3v\xfc\xbf#\x85\xda\xd5\xe6\x84\x07\xc0r\xa4\xb9\xa8\x19\x8a\x01\xc0\x9ay\xf5\xf3\x81O\xfa\xbf"\x83g \x00u\x0c\xc0\xeb\xbe\xbc1\xc8@\t\xc0\xd4@\x081\x9e\xf0\x0e\xc0\xd5\x16\x08\x0f\xb1\xf8\x06\xc0\xc0\xfa!\xb5)\x11\x0f\xc0%\xf3.xj*\x06\xc0\xcd\n\x1e\xc0\xb7\xd8\t\xc0\xf2\xeb\xc3\x9c\x95\xc4\x0b\xc0'
p111
tp112
bsS'Model'
p113
S'HKY'
p114
sS'clock'
p115
I00
s.