(dp0
S'Force'
p1
NsS'ExpectedGeneconv'
p2
(dp3
(S'N1'
p4
S'N2'
p5
tp6
(lp7
F11.773434752721602
aF5.279514856123223
as(S'N5'
p8
S'cerevisiae'
p9
tp10
(lp11
F6.463963700627395
aF1.3141772209720146
as(g5
S'N3'
p12
tp13
(lp14
F0.38914120096093424
aF0.4988331201071708
as(S'N4'
p15
g8
tp16
(lp17
F4.989276124954026
aF5.0360252726487875
as(g4
S'castellii'
p18
tp19
(lp20
F32.73284128550604
aF14.76568474086424
as(g5
S'bayanus'
p21
tp22
(lp23
F13.776080476171712
aF5.883999167774003
as(S'N0'
p24
g4
tp25
(lp26
F8.448783403392826
aF3.9958212098714028
as(g12
S'kudriavzevii'
p27
tp28
(lp29
F21.293272050612075
aF7.416152326830862
as(g8
S'paradoxus'
p30
tp31
(lp32
F3.934716234793967
aF0.6574564058259518
as(g24
S'kluyveri'
p33
tp34
(lp35
F0.0
aF0.0
as(g12
g15
tp36
(lp37
F2.7872357783774246
aF3.1097999388403657
as(g15
S'mikatae'
p38
tp39
(lp40
F10.364603590079351
aF6.7805613468622585
assS'ExpectedDwellTime'
p41
(dp42
g6
F58.94133848006544
sg10
F69.55718075897356
sg13
F67.1098388868872
sg16
F62.812761364059355
sg19
F52.92873578699962
sg22
F56.23545936051356
sg25
F29.23089932377625
sg28
F61.08146586399025
sg31
F57.91845661882856
sg34
F0.0
sg36
F66.56862316476673
sg39
F73.43302515506896
ssS'newicktree'
p43
S'../PairsAlignemt/YeastTree.newick'
p44
sS'll'
p45
cnumpy.core.multiarray
scalar
p46
(cnumpy
dtype
p47
(S'f8'
p48
I0
I1
tp49
Rp50
(I3
S'<'
p51
NNNI-1
I-1
I0
tp52
bS'\xd7\x1c\x01\xd5X\x05\xa0\xc0'
p53
tp54
Rp55
sS'edge_list'
p56
(lp57
g25
ag34
ag6
ag19
ag13
ag22
ag36
ag28
ag16
ag39
ag10
ag31
asS'edge_to_blen'
p58
(dp59
g25
g46
(g50
S'\x1b\xc6"q*\xf6\xba?'
p60
tp61
Rp62
sg10
g46
(g50
S'\xab\x80\x91\xf2\xc8\x01\xa2?'
p63
tp64
Rp65
sg13
g46
(g50
S'5\xd2\xa13\x18\xd2e?'
p66
tp67
Rp68
sg16
g46
(g50
S'\xa5Q\xc7/\xab\x84\x9a?'
p69
tp70
Rp71
sg19
g46
(g50
S'G\xe7\x7f\xfe\x01\xeb\xc6?'
p72
tp73
Rp74
sg22
g46
(g50
S'\x03\xff(\x17\x9dC\xa8?'
p75
tp76
Rp77
sg6
g46
(g50
S'\n\xeb\xd1\xb0m\x1b\xb2?'
p78
tp79
Rp80
sg28
g46
(g50
S'\x1f\xa6\xc7\\\xcd\x0b\xb4?'
p81
tp82
Rp83
sg31
g46
(g50
S'J\x80\xbf\xf1}\x13\x8b?'
p84
tp85
Rp86
sg39
g46
(g50
S'\xbe\xae\xdb\xa9i\xd7\xad?'
p87
tp88
Rp89
sg36
g46
(g50
S'\xe1\xde\xb60}\xb9\x90?'
p90
tp91
Rp92
sg34
g46
(g50
S'l\xc3\xeb\x82\xc0\x08\xbe?'
p93
tp94
Rp95
ssS'paralog'
p96
(lp97
S'YMR142C'
p98
aS'YDL082W'
p99
asS'alignment_file'
p100
S'../MafftAlignment/YMR142C_YDL082W/YMR142C_YDL082W_input.fasta'
p101
sS'x_clock'
p102
NsS'x'
p103
cnumpy.core.multiarray
_reconstruct
p104
(cnumpy
ndarray
p105
(I0
tp106
S'b'
p107
tp108
Rp109
(I1
(I20
tp110
g50
I00
S'~\x18\xbb\x94\xf9\x86\xe5\xbf\x8enP\xff\x80\xcd\xde\xbf\xd1\xdd\x87\x8c\xa5\x8d\xe9\xbf+\x1b%H\x17\xb1\xff?\xfeY,\xf6\xa0\x91\xf7\xbf\xa88\xa0\x97s\xef\x00@CG\xb2u\xa5\x8c\xf4?(\xbe\xb5+\x91\x85\xd4\xbf\x06\xdc[\xbf\x90\x01\x02\xc0\xe1o\xbf\xe3\x89$\x01\xc0\x19\xf8{C\xe30\x05\xc0\x81\x04>\x9f\x8f\x85\xfb\xbf1\xf9\xeb\x14T\xb6\x17\xc0\x7f\xfa\xe5\x12\x05e\x08\xc0v\x02\x0b\xe6Wu\x10\xc0s\xc5\x07[\x8c`\x04\xc0^\x161%\xa7:\r\xc0,\xde5\xdfI\xbd\x06\xc0]\x02\xdfv\xd0\xc7\n\xc0\x8b[\xab\x0c\xcaM\x11\xc0'
p111
tp112
bsS'Model'
p113
S'MG94'
p114
sS'clock'
p115
I00
s.