(dp0
S'Force'
p1
NsS'ExpectedGeneconv'
p2
(dp3
(S'N1'
p4
S'N2'
p5
tp6
(lp7
F17.87733532949485
aF8.343232664405972
as(S'N5'
p8
S'cerevisiae'
p9
tp10
(lp11
F2.596412351098943
aF1.5711197467104936
as(g5
S'N3'
p12
tp13
(lp14
F2.3339911703267524
aF2.2050197844216735
as(S'N4'
p15
g8
tp16
(lp17
F1.9258296832763986
aF0.38983152000253907
as(g4
S'castellii'
p18
tp19
(lp20
F24.052441940946757
aF9.450115259269417
as(g5
S'bayanus'
p21
tp22
(lp23
F9.104832897804837
aF5.591645390698346
as(S'N0'
p24
g4
tp25
(lp26
F5.404099068621683
aF1.79142002921279
as(g12
S'kudriavzevii'
p27
tp28
(lp29
F5.650666235667383
aF2.712025113914697
as(g8
S'paradoxus'
p30
tp31
(lp32
F0.6924095611780733
aF0.31995465260260647
as(g24
S'kluyveri'
p33
tp34
(lp35
F0.0
aF0.0
as(g12
g15
tp36
(lp37
F0.5781020250591609
aF1.0055999772098978
as(g15
S'mikatae'
p38
tp39
(lp40
F5.769950192033703
aF1.863480464739049
assS'ExpectedDwellTime'
p41
(dp42
g6
F97.77831329633277
sg10
F132.54315224237916
sg13
F116.8330878190255
sg16
F121.26816781144348
sg19
F95.90120468246438
sg22
F123.3289223370041
sg25
F40.57090348802417
sg28
F129.21562289970217
sg31
F124.9456075481974
sg34
F0.0
sg36
F118.60987882046942
sg39
F129.4183376675607
ssS'newicktree'
p43
S'../PairsAlignemt/YeastTree.newick'
p44
sS'll'
p45
cnumpy.core.multiarray
scalar
p46
(cnumpy
dtype
p47
(S'f8'
p48
I0
I1
tp49
Rp50
(I3
S'<'
p51
NNNI-1
I-1
I0
tp52
bS'\x80\x8e2\x15\x16\x14\xa2\xc0'
p53
tp54
Rp55
sS'edge_list'
p56
(lp57
g25
ag34
ag6
ag19
ag13
ag22
ag36
ag28
ag16
ag39
ag10
ag31
asS'edge_to_blen'
p58
(dp59
g6
g46
(g50
S"'&=6Z\x08\xc8?"
p60
tp61
Rp62
sg10
g46
(g50
S'\xf2\x05\xb2\xc3\xc1\x8c\xa4?'
p63
tp64
Rp65
sg13
g46
(g50
S'\xb9\xbfL\xef\xfeX\x9b?'
p66
tp67
Rp68
sg16
g46
(g50
S'F\xee\xa7\x93\x19\xa9\x94?'
p69
tp70
Rp71
sg19
g46
(g50
S'\x80\x1c/\xee\xcf\xb8\xcb?'
p72
tp73
Rp74
sg22
g46
(g50
S'\x91\x9e\x8e\x94\x81\x83\xb6?'
p75
tp76
Rp77
sg25
g46
(g50
S')GsX\xf9\xc2\xbf?'
p78
tp79
Rp80
sg28
g46
(g50
S'\x9e\xa1B\x8d\x99\x11\xb4?'
p81
tp82
Rp83
sg31
g46
(g50
S'\x02\xa3\xb9~\xa7,\x84?'
p84
tp85
Rp86
sg34
g46
(g50
S'y\x83\xfc?+\x1b\xbd?'
p87
tp88
Rp89
sg36
g46
(g50
S'\x88\xe3\x0b\xc1\x8c5\x7f?'
p90
tp91
Rp92
sg39
g46
(g50
S'\x9dP\xbfu\xaa\xa2\xb1?'
p93
tp94
Rp95
ssS'paralog'
p96
(lp97
S'YNL069C'
p98
aS'YIL133C'
p99
asS'alignment_file'
p100
S'../MafftAlignment/YNL069C_YIL133C/YNL069C_YIL133C_input.fasta'
p101
sS'x_clock'
p102
NsS'x'
p103
cnumpy.core.multiarray
_reconstruct
p104
(cnumpy
ndarray
p105
(I0
tp106
S'b'
p107
tp108
Rp109
(I1
(I20
tp110
g50
I00
S'r\x008\xcfIA\xe7\xbft\x8cy\x0e\xf6\xd1\xe1\xbf~}\xc8\xbaC\xba\xec\xbfsv\xff"\x07\xb3\xfa?k\x8b\xf5)k\x0f\xfd\xbf\xce\x1f\xdc\xba(:\xeb?^;;\x8d\x1as\xe8\xbfz\xe3g\xd9\xd3\xd8\x00\xc0dM\xe4\x87\x02\xb2\x00\xc0\x10\xfd/\x02\xd2d\x01\xc0\x1b(\x9b\x01\x0b\xc3\xfa\xbfH4\xa9\x9e\x16z\xf8\xbf\x0e<[\\\x94\xfb\x0c\xc0FW)<\xccr\x03\xc0\xa0/\x07l\x1a\x82\x13\xc0Uy\'a<^\x04\xc0\xe4\xfe\x11\xfb\xd89\x0f\xc0\x9b\xcb\xd2"\xf3f\x05\xc0\x89\xad\xf2QI\xb9\t\xc0\x89\x95\xe7}\x16{\x12\xc0'
p111
tp112
bsS'Model'
p113
S'MG94'
p114
sS'clock'
p115
I00
s.