(dp0
S'Force'
p1
NsS'ExpectedGeneconv'
p2
(dp3
(S'N1'
p4
S'N2'
p5
tp6
(lp7
F56.278158508954085
aF33.298150141421694
as(S'N5'
p8
S'cerevisiae'
p9
tp10
(lp11
F23.815357748587743
aF9.644119306276842
as(g5
S'N3'
p12
tp13
(lp14
F12.733040760707885
aF8.250690521653846
as(S'N4'
p15
g8
tp16
(lp17
F7.473975959295371
aF3.9913672659407107
as(g4
S'castellii'
p18
tp19
(lp20
F83.82565730805145
aF42.42488620808443
as(g5
S'bayanus'
p21
tp22
(lp23
F23.686238353875694
aF11.839230550836959
as(S'N0'
p24
g4
tp25
(lp26
F24.06281076769959
aF12.963400131245162
as(g12
S'kudriavzevii'
p27
tp28
(lp29
F28.01240435940481
aF14.328172034663634
as(g8
S'paradoxus'
p30
tp31
(lp32
F9.129111883171802
aF5.232670202754315
as(g24
S'kluyveri'
p33
tp34
(lp35
F0.0
aF0.0
as(g12
g15
tp36
(lp37
F9.312392343619212
aF3.2097856989318
as(g15
S'mikatae'
p38
tp39
(lp40
F28.527007365768082
aF15.87346435737423
assS'ExpectedDwellTime'
p41
(dp42
g6
F665.3571243993238
sg10
F832.4850828834242
sg13
F802.5889091153598
sg16
F827.4183529414635
sg19
F639.8078555621388
sg22
F795.9606424525415
sg25
F296.3221339775039
sg28
F837.866224375175
sg31
F832.2569357692503
sg34
F0.0
sg36
F821.4895939346496
sg39
F825.3059972987903
ssS'newicktree'
p43
S'../PairsAlignemt/YeastTree.newick'
p44
sS'll'
p45
cnumpy.core.multiarray
scalar
p46
(cnumpy
dtype
p47
(S'f8'
p48
I0
I1
tp49
Rp50
(I3
S'<'
p51
NNNI-1
I-1
I0
tp52
bS'oEW$\xb3\xb7\xc2\xc0'
p53
tp54
Rp55
sS'edge_list'
p56
(lp57
g25
ag34
ag6
ag19
ag13
ag22
ag36
ag28
ag16
ag39
ag10
ag31
asS'edge_to_blen'
p58
(dp59
g6
g46
(g50
S'kS\x17\x99\x1a\x07\xc8?'
p60
tp61
Rp62
sg10
g46
(g50
S'\xd1\xc4s\xcc\xf5d\xab?'
p63
tp64
Rp65
sg13
g46
(g50
S'$\x16c\xf7\x1c6\xa6?'
p66
tp67
Rp68
sg16
g46
(g50
S"\xb2'\xa2\x01\x8d\xcb\x96?"
p69
tp70
Rp71
sg28
g46
(g50
S'6_\xee\xaav9\xb3?'
p72
tp73
Rp74
sg22
g46
(g50
S'\x12\x11\xfd&\xdb\xab\xaf?'
p75
tp76
Rp77
sg25
g46
(g50
S'\xf9\xa4\n\xa2\xb9\xe8\xc5?'
p78
tp79
Rp80
sg19
g46
(g50
S'\xb7&\x91D\x11\x19\xcd?'
p81
tp82
Rp83
sg31
g46
(g50
S'\x0bq`O\xb5Q\x9e?'
p84
tp85
Rp86
sg34
g46
(g50
S'Y\xba\x01\xec\xed\xc4\xb9?'
p87
tp88
Rp89
sg36
g46
(g50
S'\xbf\xe1\x9d`\x98\x81\x96?'
p90
tp91
Rp92
sg39
g46
(g50
S'\x00\xc5\xf4\xfd\x13x\xb4?'
p93
tp94
Rp95
ssS'paralog'
p96
(lp97
S'YMR243C'
p98
aS'YOR316C'
p99
asS'alignment_file'
p100
S'../MafftAlignment/YMR243C_YOR316C/YMR243C_YOR316C_input.fasta'
p101
sS'x_clock'
p102
NsS'x'
p103
cnumpy.core.multiarray
_reconstruct
p104
(cnumpy
ndarray
p105
(I0
tp106
S'b'
p107
tp108
Rp109
(I1
(I19
tp110
g50
I00
S"\xca[\x0b\x14\x14w\xe8\xbf\xa0\xc8\xe3\x82C\xcb\xe2\xbf\x8d\xfakV\nS\xe9\xbfVyHe\xa8\xbf\xf3?%\x87|\x16\xa5\x9f\xc4\xbf\xf2\x96T\xdc\xc4L\xe3\xbfZD\xf2\x1a\x97\xc4\xf4\xbfnX\x1d\xe4\xf7=\xfc\xbfu5\x95\xca2^\x02\xc0\xca7\x83\xd0\xdf\xc3\xfa\xbfB#\xd6K\xaa\xb3\xf7\xbfw\xb0\x18\xe1\x0c\x1a\t\xc0\x17\xabJ\x0ehC\x06\xc0\x13vF\x98\x9b\x8a\x0e\xc0c\x960NB\xb6\x04\xc0\x15\xf1\xb3\xae|p\x0e\xc0\xff\xcd'|\xc95\x04\xc02\xc9\xc1e\x84l\x07\xc0\xe4\xa6\xfc\x07T(\x0c\xc0"
p111
tp112
bsS'Model'
p113
S'HKY'
p114
sS'clock'
p115
I00
s.