(dp0
S'Force'
p1
NsS'ExpectedGeneconv'
p2
(dp3
(S'N1'
p4
S'N2'
p5
tp6
F9.710204296639617
s(S'N5'
p7
S'cerevisiae'
p8
tp9
F10.207171297252696
s(g5
S'N3'
p10
tp11
F1.2083476262666953e-05
s(S'N4'
p12
g7
tp13
F2.0670972539162342
s(g4
S'castellii'
p14
tp15
F28.97778349802649
s(g5
S'bayanus'
p16
tp17
F10.971761098346496
s(S'N0'
p18
g4
tp19
F3.063238382652584e-10
s(g10
S'kudriavzevii'
p20
tp21
F10.70936076494037
s(g7
S'paradoxus'
p22
tp23
F3.3532543856436945
s(g18
S'kluyveri'
p24
tp25
F0.0
s(g10
g12
tp26
F3.8316246313129205e-07
s(g12
S'mikatae'
p27
tp28
F13.634701883864958
ssS'ExpectedDwellTime'
p29
(dp30
g6
F15.082964244216416
sg9
F22.80757650320364
sg11
F22.694560261209688
sg13
F21.926618075645575
sg15
F26.098696651443113
sg17
F21.02067585684239
sg19
F0.00010306066310874225
sg21
F36.78586276484594
sg23
F18.307940402909075
sg25
F0.0
sg26
F22.694560471216455
sg28
F23.615476715796476
ssS'newicktree'
p31
S'../PairsAlignemt/YeastTree.newick'
p32
sS'll'
p33
cnumpy.core.multiarray
scalar
p34
(cnumpy
dtype
p35
(S'f8'
p36
I0
I1
tp37
Rp38
(I3
S'<'
p39
NNNI-1
I-1
I0
tp40
bS'lU\xaf5\xb8\x89\x93\xc0'
p41
tp42
Rp43
sS'edge_list'
p44
(lp45
g19
ag25
ag6
ag15
ag11
ag17
ag26
ag21
ag13
ag28
ag9
ag23
asS'edge_to_blen'
p46
(dp47
g6
g34
(g38
S'P\xaf\x95\x7fUm\xb7?'
p48
tp49
Rp50
sg9
g34
(g38
S'\xae\xfd\xa7\xc6\xa7/\xac?'
p51
tp52
Rp53
sg11
g34
(g38
S'\xc5b\xfc\xfa\x81\xf0v>'
p54
tp55
Rp56
sg13
g34
(g38
S'0]A\xf5\x0f\xca\x80?'
p57
tp58
Rp59
sg21
g34
(g38
S'\x0f\\|@\xaf\x82\xb2?'
p60
tp61
Rp62
sg17
g34
(g38
S'\xa7\xde\xe0\xb7\xe9\x07\xa8?'
p63
tp64
Rp65
sg19
g34
(g38
S'\xb2\xbc\xeb\xafy\xf4\x9c>'
p66
tp67
Rp68
sg15
g34
(g38
S'=\xf3I\xa4p\xb7\xca?'
p69
tp70
Rp71
sg23
g34
(g38
S'\xd8(\t=\xb0_\x89?'
p72
tp73
Rp74
sg25
g34
(g38
S'{z\xed\x1c\x8d\x1f\xcb?'
p75
tp76
Rp77
sg26
g34
(g38
S'\x9cS\xf0\xd09m%>'
p78
tp79
Rp80
sg28
g34
(g38
S'\xe3&\\\xff\x8d\xa9\xae?'
p81
tp82
Rp83
ssS'paralog'
p84
(lp85
S'YER074W'
p86
aS'YIL069C'
p87
asS'alignment_file'
p88
S'../MafftAlignment/YER074W_YIL069C/YER074W_YIL069C_input.fasta'
p89
sS'x_clock'
p90
NsS'x'
p91
cnumpy.core.multiarray
_reconstruct
p92
(cnumpy
ndarray
p93
(I0
tp94
S'b'
p95
tp96
Rp97
(I1
(I19
tp98
g38
I00
S'L\xa2[je\xe5\xe5\xbfn\x04\x9f\xfb\x16\x88\xe0\xbf@?\xf7%\xa6y\xea\xbft-\xbb\xd7s\x92\x01@\xf3h\x8cm.\x0b\x00\xc0\n\xc7n\x08 \x8a\xff?\x8d\x138\xc7\n\xd1\xe3\xbf5\xdb#L\xeaO-\xc0Qk\x95\x80\x83\xd3\xf8\xbf\x06\x9d\xdb\xceY!\x03\xc0\xe7\xe0Y\xdad\x11\xf9\xbf\x84\x9c\x13\x89wF0\xc0R3\x0es\xccx\x08\xc0-\x8b\x18\x19)\xcf3\xc0i\xc8a\xb4\xc4\x03\x05\xc0\x9e\xbc3~+7\x13\xc0\xed~\x06\xc2\xb6\x85\x06\xc0j{\xce\xc9)2\x07\xc0\x03\xd6\x96\xbfH\x90\x11\xc0'
p99
tp100
bsS'Model'
p101
S'MG94'
p102
sS'clock'
p103
I00
s.