(dp0
S'Force'
p1
NsS'ExpectedGeneconv'
p2
(dp3
(S'N1'
p4
S'N2'
p5
tp6
F40.80844578099804
s(S'N5'
p7
S'cerevisiae'
p8
tp9
F4.569245608395921
s(g5
S'N3'
p10
tp11
F2.8729443069484932
s(S'N4'
p12
g7
tp13
F1.8378568137060616
s(g4
S'castellii'
p14
tp15
F71.04621542994138
s(g5
S'bayanus'
p16
tp17
F6.69613157717072
s(S'N0'
p18
g4
tp19
F0.0
s(g10
S'kudriavzevii'
p20
tp21
F7.842178398593519
s(g7
S'paradoxus'
p22
tp23
F2.8815159116893914
s(g18
S'kluyveri'
p24
tp25
F0.0
s(g10
g12
tp26
F2.646042330311884
s(g12
S'mikatae'
p27
tp28
F7.458312584107669
ssS'ExpectedDwellTime'
p29
(dp30
g6
F435.55695276557776
sg9
F575.357201641504
sg11
F575.6831801172891
sg13
F577.4923743040862
sg15
F497.02608247141524
sg17
F571.8747336836248
sg19
F0.0
sg21
F580.8910138629054
sg23
F588.3607124003
sg25
F0.0
sg26
F577.5079694217535
sg28
F570.6280136575972
ssS'newicktree'
p31
S'../PairsAlignemt/YeastTree.newick'
p32
sS'll'
p33
cnumpy.core.multiarray
scalar
p34
(cnumpy
dtype
p35
(S'f8'
p36
I0
I1
tp37
Rp38
(I3
S'<'
p39
NNNI-1
I-1
I0
tp40
bS';$\x0c\xb4\xeds\xc2\xc0'
p41
tp42
Rp43
sS'edge_list'
p44
(lp45
g19
ag25
ag6
ag15
ag11
ag17
ag26
ag21
ag13
ag28
ag9
ag23
asS'edge_to_blen'
p46
(dp47
g6
g34
(g38
S'\xf7\x1c\x8f\xd8a"\xfd?'
p48
tp49
Rp50
sg9
g34
(g38
S'\x9c} \x9fFo\xca?'
p51
tp52
Rp53
sg11
g34
(g38
S'\xa7H\x1d\xeb/O\xc2?'
p54
tp55
Rp56
sg13
g34
(g38
S'\x82@Sl]\x86\xbb?'
p57
tp58
Rp59
sg21
g34
(g38
S"d'\x05\x94\x00\x9e\xd3?"
p60
tp61
Rp62
sg17
g34
(g38
S't$\xe4\xb46\xfd\xd3?'
p63
tp64
Rp65
sg19
g34
(g38
S'gT@\x077\x0f\x1a:'
p66
tp67
Rp68
sg15
g34
(g38
S'\xf6)\x14\xd7\xd1[\x08@'
p69
tp70
Rp71
sg23
g34
(g38
S"8\x83\xe0')4\xc3?"
p72
tp73
Rp74
sg25
g34
(g38
S'\xf2I\x06\xb30\xd6\x03@'
p75
tp76
Rp77
sg26
g34
(g38
S'C\x1c\xd1s\xec\xb1\xbd?'
p78
tp79
Rp80
sg28
g34
(g38
S'\xfeS\x97l\xb6\xea\xd3?'
p81
tp82
Rp83
ssS'paralog'
p84
(lp85
S'YPR157W'
p86
aS'YGR141W'
p87
asS'alignment_file'
p88
S'../MafftAlignment/YPR157W_YGR141W/YPR157W_YGR141W_input.fasta'
p89
sS'x_clock'
p90
NsS'x'
p91
cnumpy.core.multiarray
_reconstruct
p92
(cnumpy
ndarray
p93
(I0
tp94
S'b'
p95
tp96
Rp97
(I1
(I19
tp98
g38
I00
S'\x050\x8c\x9a\xd4\x10\xe5\xbfO%\xc6r\x18\xa4\xe1\xbfI\xeb\xdf\xba^\xe9\xed\xbf\x0cd\xdcT\xe2\xe5\xed?\xd6\x8b\xf1\x16\xd2I\x05\xc09\x01\xf9\x87\xae\x17\x15\xc0\xc1 \x81\x14xpB\xc0\xed\x0f\x0e;\xc1*P\xc0\xdc\xb0\xc4Z\x15\x0f\xed?\xa3\x8aF)\xb1-\xe3?Bj\t\x19\xad\xd0\xf1?\xd3\x8c\x0c\xa0)\x1d\xff\xbf\x9b\x07G\xd0~\x9e\xf2\xbf\xefYSO\xcc;\x01\xc0\xc2\x01\xca\x84l\xeb\xf2\xbfH\xbfy=8\xd7\x01\xc0qs\xc0\xc5T\xad\xf2\xbf\xc7}_X\xd7<\xf9\xbf\x12\xfa\xca\x8a\xcdY\xfe\xbf'
p99
tp100
bsS'Model'
p101
S'MG94'
p102
sS'clock'
p103
I00
s.