(dp0
S'Force'
p1
NsS'ExpectedGeneconv'
p2
(dp3
(S'N1'
p4
S'N2'
p5
tp6
(lp7
F29.142791244015854
aF46.810866741182615
as(S'N5'
p8
S'cerevisiae'
p9
tp10
(lp11
F16.547048390040413
aF25.219970057823804
as(g5
S'N3'
p12
tp13
(lp14
F7.527426035496367
aF14.174006518743509
as(S'N4'
p15
g8
tp16
(lp17
F4.458349396837955
aF11.727140653228718
as(g4
S'castellii'
p18
tp19
(lp20
F48.14414604323545
aF88.11603558948214
as(g5
S'bayanus'
p21
tp22
(lp23
F7.967176656294145
aF27.55154235113733
as(S'N0'
p24
g4
tp25
(lp26
F2.274523522352342
aF3.81528078016879
as(g12
S'kudriavzevii'
p27
tp28
(lp29
F16.182348134714776
aF22.599480318967395
as(g8
S'paradoxus'
p30
tp31
(lp32
F8.244823791956922
aF17.617874782167622
as(g24
S'kluyveri'
p33
tp34
(lp35
F0.0
aF0.0
as(g12
g15
tp36
(lp37
F6.420822138587565
aF14.670776343314037
as(g15
S'mikatae'
p38
tp39
(lp40
F22.55136505690476
aF31.68801122670389
assS'ExpectedDwellTime'
p41
(dp42
g6
F806.9636836264656
sg10
F1281.0337282038856
sg13
F1218.292705141842
sg16
F1287.6934803861707
sg19
F874.8819768680333
sg22
F1221.955438504858
sg25
F187.09339445431053
sg28
F1282.265028746037
sg31
F1298.6360868822428
sg34
F0.0
sg36
F1264.8661702323382
sg39
F1283.6694310553814
ssS'newicktree'
p43
S'../PairsAlignemt/YeastTree.newick'
p44
sS'll'
p45
cnumpy.core.multiarray
scalar
p46
(cnumpy
dtype
p47
(S'f8'
p48
I0
I1
tp49
Rp50
(I3
S'<'
p51
NNNI-1
I-1
I0
tp52
bS'\xfftJ3\xa9J\xcd\xc0'
p53
tp54
Rp55
sS'edge_list'
p56
(lp57
g25
ag34
ag6
ag19
ag13
ag22
ag36
ag28
ag16
ag39
ag10
ag31
asS'edge_to_blen'
p58
(dp59
g6
g46
(g50
S'\xb1\xddp-\xd1\x87\xc5?'
p60
tp61
Rp62
sg10
g46
(g50
S'-\xeb\x8e\xb2@\x15\xa4?'
p63
tp64
Rp65
sg13
g46
(g50
S'\x94}\xde\x8de\xc7\x9d?'
p66
tp67
Rp68
sg16
g46
(g50
S'\xf8\x13t\xe7J\x83\x93?'
p69
tp70
Rp71
sg28
g46
(g50
S'\x17t\x96\xc8\xc4\x04\xa9?'
p72
tp73
Rp74
sg22
g46
(g50
S'\xc5\x08\x90\xe8U\x15\xa7?'
p75
tp76
Rp77
sg25
g46
(g50
S'\xa9=\xa4H\xc8Y\xa9?'
p78
tp79
Rp80
sg19
g46
(g50
S'2\xe6\x99\xd9\xebc\xcd?'
p81
tp82
Rp83
sg31
g46
(g50
S'{\xeb\xe3\x8a\xbaS\x9e?'
p84
tp85
Rp86
sg34
g46
(g50
S'\x1d\xd2\x1d\x16\xa2\xa5\xb9?'
p87
tp88
Rp89
sg36
g46
(g50
S'\x99\xb5\xad\xa4\x81\xd4\x99?'
p90
tp91
Rp92
sg39
g46
(g50
S'\xed\nD\xd0\xc0\x17\xad?'
p93
tp94
Rp95
ssS'paralog'
p96
(lp97
S'YBR117C'
p98
aS'YPR074C'
p99
asS'alignment_file'
p100
S'../MafftAlignment/YBR117C_YPR074C/YBR117C_YPR074C_input.fasta'
p101
sS'x_clock'
p102
NsS'x'
p103
cnumpy.core.multiarray
_reconstruct
p104
(cnumpy
ndarray
p105
(I0
tp106
S'b'
p107
tp108
Rp109
(I1
(I19
tp110
g50
I00
S'\xc21"\xcf\xc5\\\xe8\xbfy\xf7\xeb\xc8[\xc1\xe2\xbf\x95h\xea\xa9\rm\xe8\xbf\x98g\xc4R\xd3\x1b\xf6?+m(_\xa6\x0b\xea\xbf%\x18\x1d\xc1\xbd\xab\xc2\xbfG\xe7\x8b\xe0;\xb8\xf2\xbf\xd0\xb4\xf2\xe9L\x0b\x08\xc0\xb1\xe4\xc3\xf6\xefg\x02\xc0L,\xa4\x9e[\x85\xfc\xbfJV,\x01\xb6\x8a\xf7\xbf;O5\xf2&M\x0c\xc05\x80\x96c0\xcb\x08\xc0\xf2\x1eI\xc5\x7fp\r\xc0S-lDN&\x08\xc0W)K#\xe5\xae\x0f\xc0\x10\x19,(S\xf1\x06\xc0\xcf\t\xee{X\xe8\t\xc0\xeef\x81\x92\xcb\'\x0c\xc0'
p111
tp112
bsS'Model'
p113
S'HKY'
p114
sS'clock'
p115
I00
s.