(dp0
S'Force'
p1
NsS'ExpectedGeneconv'
p2
(dp3
(S'N1'
p4
S'N2'
p5
tp6
(lp7
F0.005022967581308688
aF4.239670340779205
as(S'N5'
p8
S'cerevisiae'
p9
tp10
(lp11
F0.00035250793723391315
aF0.1066375825869425
as(g5
S'N3'
p12
tp13
(lp14
F0.0003193387772712098
aF1.26776384412267
as(S'N4'
p15
g8
tp16
(lp17
F8.814418973718411e-05
aF0.032977069622910284
as(g4
S'castellii'
p18
tp19
(lp20
F0.007481220510837227
aF10.321227789316776
as(g5
S'bayanus'
p21
tp22
(lp23
F0.0004902141954482135
aF0.27347181981713387
as(S'N0'
p24
g4
tp25
(lp26
F0.00046464255394043923
aF0.15823380922355376
as(g12
S'kudriavzevii'
p27
tp28
(lp29
F0.0005115314659014685
aF0.19299624654296843
as(g8
S'paradoxus'
p30
tp31
(lp32
F0.0002113092072125914
aF0.6417162072295757
as(g24
S'kluyveri'
p33
tp34
(lp35
F0.0
aF0.0
as(g12
g15
tp36
(lp37
F0.00017652206007721388
aF0.28570217476346943
as(g15
S'mikatae'
p38
tp39
(lp40
F0.0005852157382128974
aF0.47594180844780765
assS'ExpectedDwellTime'
p41
(dp42
g6
F176.73243082039812
sg10
F226.16521372440195
sg13
F199.25956099810594
sg16
F217.16223294920442
sg19
F184.0313229275493
sg22
F200.51351185698852
sg25
F78.24559073952443
sg28
F202.92054116997443
sg31
F220.8050064421687
sg34
F0.0
sg36
F205.99921287255162
sg39
F210.96228928877736
ssS'newicktree'
p43
S'../PairsAlignemt/YeastTree.newick'
p44
sS'll'
p45
cnumpy.core.multiarray
scalar
p46
(cnumpy
dtype
p47
(S'f8'
p48
I0
I1
tp49
Rp50
(I3
S'<'
p51
NNNI-1
I-1
I0
tp52
bS'\x0f\xc3\xd6\x91\x08\xc7\xa9\xc0'
p53
tp54
Rp55
sS'edge_list'
p56
(lp57
g25
ag34
ag6
ag19
ag13
ag22
ag36
ag28
ag16
ag39
ag10
ag31
asS'edge_to_blen'
p58
(dp59
g25
g46
(g50
S'\x00\x95\xde\x90\xab\x11\xdd?'
p60
tp61
Rp62
sg10
g46
(g50
S'\xa5\xe4e\xf2tI\xcc?'
p63
tp64
Rp65
sg13
g46
(g50
S'\xfd\xd3\xcf I\xb2\xc9?'
p66
tp67
Rp68
sg16
g46
(g50
S'\xcc\xa6\xbe=\x02k\xba?'
p69
tp70
Rp71
sg19
g46
(g50
S'\x82\xce\x1ao\x13\x0e\x10@'
p72
tp73
Rp74
sg22
g46
(g50
S'\xc21\xd0\xf5\xe6\x08\xd1?'
p75
tp76
Rp77
sg6
g46
(g50
S'\x83\x94\xcfJ\x10j\x04@'
p78
tp79
Rp80
sg28
g46
(g50
S'@\xb9"\xc8\xd0\x06\xd0?'
p81
tp82
Rp83
sg31
g46
(g50
S'|\xa7Q\x95p\xed\xb7?'
p84
tp85
Rp86
sg39
g46
(g50
S'q\xb3\xabS\xc6\xe7\xd0?'
p87
tp88
Rp89
sg36
g46
(g50
S'\x94MD\x1d\x10\xc6\xc1?'
p90
tp91
Rp92
sg34
g46
(g50
S'C\x02\x85\xb5\\@\x14@'
p93
tp94
Rp95
ssS'paralog'
p96
(lp97
S'YIL057C'
p98
aS'YER067W'
p99
asS'alignment_file'
p100
S'../MafftAlignment/YIL057C_YER067W/YIL057C_YER067W_input.fasta'
p101
sS'x_clock'
p102
NsS'x'
p103
cnumpy.core.multiarray
_reconstruct
p104
(cnumpy
ndarray
p105
(I0
tp106
S'b'
p107
tp108
Rp109
(I1
(I20
tp110
g50
I00
S"\x95\xfc\xb7o/H\xe5\xbfy\rp\xaa?E\xe2\xbf\x96,\xef\xdb\xf4\xa1\xeb\xbf\xcfp\xb2\xd3h\x87\xe9?\xc2(\x94/R\x14\x0b\xc0HD\xd6K\xd7R%\xc0\x19\x049f\xb9\x18\xe3\xbf\xf7D\x87\xa0q\x06\xfe?\x9f\x7f\x9235A\xe9\xbf\xd4\x03\x81,m\xf3\xf9?;V\x81\xbf8\xfa\xed?F@\xa7@P<\xf6?P;\xf8\xae\xdb\xb0\xf9\xbf\xe2\x83t\xc2\x92-\xf5\xbfF\x08\xc8\x82\xc7\x96\xff\xbf\xf6U\x0b\xaas'\xf6\xbfC\xe7\xb6\x1dG+\x02\xc0\x92\x12\xb8\xa5\xceL\xf5\xbf\x12\xd6\x05\xd0q'\xf8\xbf\x02ZB\xb5\x10\xf6\x02\xc0"
p111
tp112
bsS'Model'
p113
S'MG94'
p114
sS'clock'
p115
I00
s.