(dp0
S'Force'
p1
NsS'ExpectedGeneconv'
p2
(dp3
(S'N1'
p4
S'N2'
p5
tp6
(lp7
F0.0
aF5.062331714542577
as(S'N5'
p8
S'cerevisiae'
p9
tp10
(lp11
F0.0
aF0.11927587824124505
as(g5
S'N3'
p12
tp13
(lp14
F0.0
aF0.08920291425145431
as(S'N4'
p15
g8
tp16
(lp17
F0.0
aF0.3776589712284073
as(g4
S'castellii'
p18
tp19
(lp20
F0.0
aF5.746410351513515
as(g5
S'bayanus'
p21
tp22
(lp23
F0.0
aF0.30766575713463457
as(S'N0'
p24
g4
tp25
(lp26
F0.0
aF0.007587330913073665
as(g12
S'kudriavzevii'
p27
tp28
(lp29
F0.0
aF0.6847437026230185
as(g8
S'paradoxus'
p30
tp31
(lp32
F0.0
aF0.12168890579898968
as(g24
S'kluyveri'
p33
tp34
(lp35
F0.0
aF0.0
as(g12
g15
tp36
(lp37
F0.0
aF0.041329262995008394
as(g15
S'mikatae'
p38
tp39
(lp40
F0.0
aF1.2057642957979227
assS'ExpectedDwellTime'
p41
(dp42
g6
F359.8764304427679
sg10
F441.99028380018797
sg13
F433.72275386509665
sg16
F435.62332247699686
sg19
F374.8757609584778
sg22
F439.42620996896943
sg25
F64.43379596419385
sg28
F433.93302557346277
sg31
F433.6098722529653
sg34
F0.0
sg36
F434.480168382035
sg39
F437.756398593826
ssS'newicktree'
p43
S'../PairsAlignemt/YeastTree.newick'
p44
sS'll'
p45
cnumpy.core.multiarray
scalar
p46
(cnumpy
dtype
p47
(S'f8'
p48
I0
I1
tp49
Rp50
(I3
S'<'
p51
NNNI-1
I-1
I0
tp52
bS'\xdd\xdd%1\x1c\x9d\xbc\xc0'
p53
tp54
Rp55
sS'edge_list'
p56
(lp57
g25
ag34
ag6
ag19
ag13
ag22
ag36
ag28
ag16
ag39
ag10
ag31
asS'edge_to_blen'
p58
(dp59
g25
g46
(g50
S'%L\x84\x13S1\xc2?'
p60
tp61
Rp62
sg10
g46
(g50
S'\x0b+\xe0\xb1\xe7G\xd1?'
p63
tp64
Rp65
sg13
g46
(g50
S'\x928\x8f\x81K\xb5\xc9?'
p66
tp67
Rp68
sg16
g46
(g50
S"F'\x0e\xfb{{\xc2?"
p69
tp70
Rp71
sg19
g46
(g50
S'n\xa3^\xbeN^\x08@'
p72
tp73
Rp74
sg22
g46
(g50
S'\xd9Mw \xc9\xd9\xd1?'
p75
tp76
Rp77
sg6
g46
(g50
S'\x9a\xecZ\x17\xdd{\x03@'
p78
tp79
Rp80
sg28
g46
(g50
S'T\xe6FBd\xc6\xd4?'
p81
tp82
Rp83
sg31
g46
(g50
S'\x1f-\xaf\xb2\xc6D\xc6?'
p84
tp85
Rp86
sg39
g46
(g50
S'\xd2\xed\x9c\t\xc2$\xda?'
p87
tp88
Rp89
sg36
g46
(g50
S'x\xed\xc4\x1f\xdd3\xc8?'
p90
tp91
Rp92
sg34
g46
(g50
S'\x12\xffl\t\xe5\xf5\x08@'
p93
tp94
Rp95
ssS'paralog'
p96
(lp97
S'YLR284C'
p98
aS'YOR180C'
p99
asS'alignment_file'
p100
S'../MafftAlignment/YLR284C_YOR180C/YLR284C_YOR180C_input.fasta'
p101
sS'x_clock'
p102
NsS'x'
p103
cnumpy.core.multiarray
_reconstruct
p104
(cnumpy
ndarray
p105
(I0
tp106
S'b'
p107
tp108
Rp109
(I1
(I20
tp110
g50
I00
S'\x94\xdd\x94\xa6s\xf9\xe3\xbf\x97\x82+\x16.\x82\xe2\xbf\x08\x18\xda\x0e\xf0\xf2\xee\xbf\xf4\xb1\x1e\xbfR`\xec?\x11V\x8e\x82\xf8\xd4\x02\xc0C\x97g\xf8\xb7\xbeW\xc0x\x0c\xact\xe8$\x17\xc0@DvU\xd5\x7f`@\x98\xea\xbe\x9bW7\xff\xbf\xcc\xe0^z\xa64\xf2?A/\x86;\x0f|\xec?\x90\xd4V]O\xd2\xf1?\x07\xcf \x1d\xfc\xae\xf9\xbf\xfa\xfbZ\xad\xeem\xf4\xbfd\xe71?-\xa6\xfa\xbf\xe0O\xf7\xd6\x8c\x00\xf2\xbf_\x96yf\xa2\xf6\xfe\xbf\x06\xdd@\x95 \xa6\xec\xbfM.N&\xd2\xf2\xf4\xbf\xaa\x0f\xa7<J\xfb\xfb\xbf'
p111
tp112
bsS'Model'
p113
S'MG94'
p114
sS'clock'
p115
I00
s.