(dp0
S'Force'
p1
NsS'ExpectedGeneconv'
p2
(dp3
(S'N1'
p4
S'N2'
p5
tp6
(lp7
F39.70460430853225
aF23.762809288520934
as(S'N5'
p8
S'cerevisiae'
p9
tp10
(lp11
F6.066796578178594
aF5.854952343168135
as(g5
S'N3'
p12
tp13
(lp14
F7.621604275703418
aF4.556748108942162
as(S'N4'
p15
g8
tp16
(lp17
F5.092716661255655
aF2.549744300992373
as(g4
S'castellii'
p18
tp19
(lp20
F56.594072614677756
aF29.158215094101845
as(g5
S'bayanus'
p21
tp22
(lp23
F10.646607931571637
aF7.213728425922011
as(S'N0'
p24
g4
tp25
(lp26
F8.56597315948119
aF4.32737753137828
as(g12
S'kudriavzevii'
p27
tp28
(lp29
F15.261302608853
aF8.429770776246828
as(g8
S'paradoxus'
p30
tp31
(lp32
F4.931465007698569
aF3.216179120561087
as(g24
S'kluyveri'
p33
tp34
(lp35
F0.0
aF0.0
as(g12
g15
tp36
(lp37
F11.613479196883134
aF4.684585946229788
as(g15
S'mikatae'
p38
tp39
(lp40
F15.237451588331089
aF8.47608806639507
assS'ExpectedDwellTime'
p41
(dp42
g6
F535.5650259838114
sg10
F675.8314618473484
sg13
F683.7455963555616
sg16
F671.4918688435498
sg19
F532.6433552454307
sg22
F696.8105467306783
sg25
F190.69044840360604
sg28
F694.2064606020735
sg31
F678.0274482362842
sg34
F0.0
sg36
F676.7523217382269
sg39
F667.243988744974
ssS'newicktree'
p43
S'../PairsAlignemt/YeastTree.newick'
p44
sS'll'
p45
cnumpy.core.multiarray
scalar
p46
(cnumpy
dtype
p47
(S'f8'
p48
I0
I1
tp49
Rp50
(I3
S'<'
p51
NNNI-1
I-1
I0
tp52
bS'\xcbw\x0e\xf4\xf6#\xbd\xc0'
p53
tp54
Rp55
sS'edge_list'
p56
(lp57
g25
ag34
ag6
ag19
ag13
ag22
ag36
ag28
ag16
ag39
ag10
ag31
asS'edge_to_blen'
p58
(dp59
g6
g46
(g50
S'\x12\xd8\xc7\x8e\x88[\xd0?'
p60
tp61
Rp62
sg10
g46
(g50
S'\xfd\x0by\xe1\xbe\xaf\xa5?'
p63
tp64
Rp65
sg13
g46
(g50
S'\xb3\x082)O[\xa6?'
p66
tp67
Rp68
sg16
g46
(g50
S'|\x90\xcc\x0f\x9b\x99\xa0?'
p69
tp70
Rp71
sg28
g46
(g50
S'\x03\x11UK|w\xb2?'
p72
tp73
Rp74
sg22
g46
(g50
S'\x8e\xd3r\x1b\xb4\x02\xb1?'
p75
tp76
Rp77
sg25
g46
(g50
S'\xad\x00\x1e\xae\x84\x9c\xc1?'
p78
tp79
Rp80
sg19
g46
(g50
S'\xf1\x8cJ43"\xd4?'
p81
tp82
Rp83
sg31
g46
(g50
S' \xaeN{:\x05\x9d?'
p84
tp85
Rp86
sg34
g46
(g50
S'\x02N\x1d\x14\x96\xae\xc5?'
p87
tp88
Rp89
sg36
g46
(g50
S'\xb3_\xa2V~C\xa4?'
p90
tp91
Rp92
sg39
g46
(g50
S'\xe6h\x18-\x9a\x9d\xb3?'
p93
tp94
Rp95
ssS'paralog'
p96
(lp97
S'YBR024W'
p98
aS'YBR037C'
p99
asS'alignment_file'
p100
S'../MafftAlignment/YBR024W_YBR037C/YBR024W_YBR037C_input.fasta'
p101
sS'x_clock'
p102
NsS'x'
p103
cnumpy.core.multiarray
_reconstruct
p104
(cnumpy
ndarray
p105
(I0
tp106
S'b'
p107
tp108
Rp109
(I1
(I19
tp110
g50
I00
S'\xb2\x93a\xd2I\t\xe6\xbf\x1e\xf5h\x04\xb5\x18\xe2\xbf&\xb8\x12\xdd\x81\x99\xea\xbf\x97\xb08\xd2O\x15\xf4?\x92\x1c\x15\x81\x8d\xfc\xdd\xbf\x94\x85\xe0nR\x1c\xf1\xbf\xf4>\x8c\\(\x0c\xeb\xbfv\x1a?\x95Y\xbc\xff\xbf\x88\xa6\x9c\xf0\xa5h\xfc\xbf\x93\xe3\x04m\xbc\xd3\xf5\xbf\xcd\xbf8&\xff\x80\xf2\xbf\xbe\x15\x84b\xb2\x0c\t\xc03\xc0L\xa3\xd4\xb0\x05\xc0\x8e\x9c\xaa\x14\x02\xd6\t\xc0\xf3\xbc\xf3;\x9d\x08\x05\xc0k\xc8\x8d\xeamn\x0b\xc0\xc7\x18\xe6\x84\x01\x8d\x04\xc0\xf4\xb2\xe0\xf7\x06K\t\xc0\xaf\xe7h\x96\xfd\x81\x0c\xc0'
p111
tp112
bsS'Model'
p113
S'HKY'
p114
sS'clock'
p115
I00
s.