(dp0
S'Force'
p1
NsS'ExpectedGeneconv'
p2
(dp3
(S'N1'
p4
S'N2'
p5
tp6
(lp7
F0.00010549216301936142
aF0.6214577134602901
as(S'N5'
p8
S'cerevisiae'
p9
tp10
(lp11
F3.756522773058612e-05
aF0.01930244279458561
as(g5
S'N3'
p12
tp13
(lp14
F8.662268918831396e-06
aF0.1010963119290405
as(S'N4'
p15
g8
tp16
(lp17
F7.256600703649176e-07
aF0.004644937405668722
as(g4
S'castellii'
p18
tp19
(lp20
F9.528556198015042e-05
aF0.3531085748932159
as(g5
S'bayanus'
p21
tp22
(lp23
F3.5620756708669616e-05
aF0.14037355738605836
as(S'N0'
p24
g4
tp25
(lp26
F6.771657440154447e-06
aF0.002377432995750994
as(g12
S'kudriavzevii'
p27
tp28
(lp29
F6.429787653685391e-05
aF0.015551046206592613
as(g8
S'paradoxus'
p30
tp31
(lp32
F3.948355741639395e-06
aF0.02122458523478827
as(g24
S'kluyveri'
p33
tp34
(lp35
F0.0
aF0.0
as(g12
g15
tp36
(lp37
F5.657142379090119e-06
aF0.017442835642307124
as(g15
S'mikatae'
p38
tp39
(lp40
F0.0001509428676164666
aF0.06642231078518396
assS'ExpectedDwellTime'
p41
(dp42
g6
F28.68849884468947
sg10
F52.028672647683386
sg13
F40.60834771074577
sg16
F49.53834593770949
sg19
F29.40553779105236
sg22
F41.33828685919879
sg25
F8.391664373187131
sg28
F56.42218329220916
sg31
F49.59550017150317
sg34
F0.0
sg36
F47.510231515797344
sg39
F52.70861088878971
ssS'newicktree'
p43
S'../PairsAlignemt/YeastTree.newick'
p44
sS'll'
p45
cnumpy.core.multiarray
scalar
p46
(cnumpy
dtype
p47
(S'f8'
p48
I0
I1
tp49
Rp50
(I3
S'<'
p51
NNNI-1
I-1
I0
tp52
bS'I\xec\xaa\x8c\xccR\x92\xc0'
p53
tp54
Rp55
sS'edge_list'
p56
(lp57
g25
ag34
ag6
ag19
ag13
ag22
ag36
ag28
ag16
ag39
ag10
ag31
asS'edge_to_blen'
p58
(dp59
g6
g46
(g50
S'\xda\xa1J;f\xd3\xbc?'
p60
tp61
Rp62
sg10
g46
(g50
S'm\x174\xe2\xea\x01\xa5?'
p63
tp64
Rp65
sg13
g46
(g50
S'\x11\xb6\x85\xb9\xad\xd4\xa0?'
p66
tp67
Rp68
sg16
g46
(g50
S'6\x04u\x81>\xf0\x83?'
p69
tp70
Rp71
sg28
g46
(g50
S'HM8\x82@\t\xab?'
p72
tp73
Rp74
sg22
g46
(g50
S'\xef,\x80\x04\x8a\xc7\xb1?'
p75
tp76
Rp77
sg25
g46
(g50
S'\xeer\xa1`\xb8T\xa5?'
p78
tp79
Rp80
sg19
g46
(g50
S'dS\x0fN\x93\xde\xbd?'
p81
tp82
Rp83
sg31
g46
(g50
S'k\x18\xcc\xf9\x03\x9b\xa3?'
p84
tp85
Rp86
sg34
g46
(g50
S'\x91\xf3%\xc5v\xc3\xcd?'
p87
tp88
Rp89
sg36
g46
(g50
S'`\xd0<?X\xe2\x95?'
p90
tp91
Rp92
sg39
g46
(g50
S'J\x03U\xa7\xe3\xc8\xb5?'
p93
tp94
Rp95
ssS'paralog'
p96
(lp97
S'YLR406C'
p98
aS'YDL075W'
p99
asS'alignment_file'
p100
S'../MafftAlignment/YLR406C_YDL075W/YLR406C_YDL075W_input.fasta'
p101
sS'x_clock'
p102
NsS'x'
p103
cnumpy.core.multiarray
_reconstruct
p104
(cnumpy
ndarray
p105
(I0
tp106
S'b'
p107
tp108
Rp109
(I1
(I20
tp110
g50
I00
S'\x1e\x9d\x11\xcd\x1a\xd2\xe4\xbf\xbf>\x89\xa5\x16\xd8\xde\xbf!\xe9\xad\x92\xdf\xec\xed\xbf\xd1|-Z\xdc\x96\xfd?\xdafc\x06\x02\xa1\x03\xc0e\xc3\x85\xff\xcd\xde#\xc0 \x160~k\x17\xf5?\x8d\x81\x9d\x96.\xcc\xa1?\x19+.Y\xe2l\t\xc0\xa3\x7f\xe5y\x06W\xf7\xbf\x92N\xa4l\xa4x\x01\xc0\xe1\xdd\xc9\xc8\xcd/\x01\xc0\xaf\xf3\xf1\x15(R\x0b\xc0[\x92\xb6oJV\x05\xc0(\x1d\x92\xf4\x02\xc4\x0e\xc0\x123\x0c\xb6y\x87\x07\xc0W]/\xd2"\x87\x12\xc0\xe0\xb3\x86\x195\xb6\x03\xc0\xeb\x8d\xf50-\x8c\t\xc0z\xed}h\xa0\x19\n\xc0'
p111
tp112
bsS'Model'
p113
S'MG94'
p114
sS'clock'
p115
I00
s.