(dp0
S'Force'
p1
NsS'ExpectedGeneconv'
p2
(dp3
(S'N1'
p4
S'N2'
p5
tp6
(lp7
F23.35217908044461
aF60.06443904185236
as(S'N5'
p8
S'cerevisiae'
p9
tp10
(lp11
F5.51478720872814
aF15.686348351322914
as(g5
S'N3'
p12
tp13
(lp14
F3.5861535469436916
aF6.4363409825249205
as(S'N4'
p15
g8
tp16
(lp17
F3.883915222484208
aF9.60403800264151
as(g4
S'castellii'
p18
tp19
(lp20
F34.307069741415134
aF65.8556977903925
as(g5
S'bayanus'
p21
tp22
(lp23
F5.069836100932294
aF23.963125864135122
as(S'N0'
p24
g4
tp25
(lp26
F0.9151234317036571
aF2.115540494116423
as(g12
S'kudriavzevii'
p27
tp28
(lp29
F6.85804750809206
aF22.821577063655592
as(g8
S'paradoxus'
p30
tp31
(lp32
F4.995123246089455
aF11.68355250390711
as(g24
S'kluyveri'
p33
tp34
(lp35
F0.0
aF0.0
as(g12
g15
tp36
(lp37
F6.9259867694710096
aF8.573538148087861
as(g15
S'mikatae'
p38
tp39
(lp40
F10.377914707751769
aF18.259090600579338
assS'ExpectedDwellTime'
p41
(dp42
g6
F953.7113186314887
sg10
F1406.3422088308296
sg13
F1402.3080486713206
sg16
F1420.7883315138115
sg19
F914.9683755677012
sg22
F1403.44999403064
sg25
F180.18721733366655
sg28
F1426.5512032387076
sg31
F1418.2856578177182
sg34
F0.0
sg36
F1424.7506447511234
sg39
F1418.8716590635763
ssS'newicktree'
p43
S'../PairsAlignemt/YeastTree.newick'
p44
sS'll'
p45
cnumpy.core.multiarray
scalar
p46
(cnumpy
dtype
p47
(S'f8'
p48
I0
I1
tp49
Rp50
(I3
S'<'
p51
NNNI-1
I-1
I0
tp52
bS'\x1f^\xaf0K~\xca\xc0'
p53
tp54
Rp55
sS'edge_list'
p56
(lp57
g25
ag34
ag6
ag19
ag13
ag22
ag36
ag28
ag16
ag39
ag10
ag31
asS'edge_to_blen'
p58
(dp59
g6
g46
(g50
S'%\x0f,-\xcf\xf3\xd7?'
p60
tp61
Rp62
sg10
g46
(g50
S'\x80\xcbV\xa1\xd25\xa7?'
p63
tp64
Rp65
sg13
g46
(g50
S'\x9d\xb3\xe9\xa1\x171\xa2?'
p66
tp67
Rp68
sg16
g46
(g50
S'3\xe8o\xd2\xe83\x9f?'
p69
tp70
Rp71
sg28
g46
(g50
S'1Z\x03\xc0P\x9a\xb0?'
p72
tp73
Rp74
sg22
g46
(g50
S'\xce\x94\x96\xdb~\x8c\xb3?'
p75
tp76
Rp77
sg25
g46
(g50
S'f\xa3t\xact\xb7\xb0?'
p78
tp79
Rp80
sg19
g46
(g50
S'KTBV\xa8)\xd9?'
p81
tp82
Rp83
sg31
g46
(g50
S'LQ\x83\x00\xf9\xf1\xa3?'
p84
tp85
Rp86
sg34
g46
(g50
S'adU@)\x0e\xcc?'
p87
tp88
Rp89
sg36
g46
(g50
S'\x8eYG\xdf\xf7{\xa2?'
p90
tp91
Rp92
sg39
g46
(g50
S'i1\xf2\xab\xcbz\xb1?'
p93
tp94
Rp95
ssS'paralog'
p96
(lp97
S'YDR518W'
p98
aS'YCL043C'
p99
asS'alignment_file'
p100
S'../MafftAlignment/YDR518W_YCL043C/YDR518W_YCL043C_input.fasta'
p101
sS'x_clock'
p102
NsS'x'
p103
cnumpy.core.multiarray
_reconstruct
p104
(cnumpy
ndarray
p105
(I0
tp106
S'b'
p107
tp108
Rp109
(I1
(I19
tp110
g50
I00
S'$_\xa1U\x1e\xb8\xe7\xbf:q5\xc7\xb06\xe1\xbfN\xb8PyT\\\xe7\xbf\xde\xfe\xb4p\x11\xab\xf4?\x12\x85\xd8\x16d4\x01\xc0R\xcb\xa5\xe4\x84)\xec\xbf^\xb8fZ\xd8\xa2\x00\xc0\xcb\xe6cW\x87\xd4\x05\xc0\x9a\x82\xefG\x1fI\xf8\xbf?i\xe4B9s\xef\xbf\xb49\xeb\xfbc\xdf\xed\xbfK[Gq\xe7\xb2\n\xc0@\xfe\xda\x9e\xfe\x93\x04\xc0\x82\x077\x13=\x92\n\xc0\x92\xb4/\x9d\x85\xe2\x05\xc0\xda\xa8\x0f\x00\x7f\xed\x0b\xc0/U\xc1\xd5\x1dy\x05\xc0_\xe8^\xf4\xf5\xbf\x08\xc0]\xac\x15\xa1r\xf6\t\xc0'
p111
tp112
bsS'Model'
p113
S'HKY'
p114
sS'clock'
p115
I00
s.