(dp0
S'Force'
p1
NsS'ExpectedGeneconv'
p2
(dp3
(S'N1'
p4
S'N2'
p5
tp6
(lp7
F99.66010630015434
aF38.25311837423351
as(S'N5'
p8
S'cerevisiae'
p9
tp10
(lp11
F19.03557087781635
aF13.852560909240799
as(g5
S'N3'
p12
tp13
(lp14
F15.046102599695699
aF7.931611726090456
as(S'N4'
p15
g8
tp16
(lp17
F15.695379866414374
aF6.053065771924005
as(g4
S'castellii'
p18
tp19
(lp20
F158.72062153846272
aF53.971934530445886
as(g5
S'bayanus'
p21
tp22
(lp23
F26.650519411257015
aF18.876978246873147
as(S'N0'
p24
g4
tp25
(lp26
F15.248143761137463
aF5.556184269341575
as(g12
S'kudriavzevii'
p27
tp28
(lp29
F24.959792829126574
aF14.692303276347062
as(g8
S'paradoxus'
p30
tp31
(lp32
F15.474567335758463
aF10.257814139131728
as(g24
S'kluyveri'
p33
tp34
(lp35
F0.0
aF0.0
as(g12
g15
tp36
(lp37
F9.57728329843755
aF8.483172593295814
as(g15
S'mikatae'
p38
tp39
(lp40
F25.986302977803128
aF16.04643174321784
assS'ExpectedDwellTime'
p41
(dp42
g6
F1769.9509218840187
sg10
F2282.7044170819586
sg13
F2233.090039602275
sg16
F2284.4381886732745
sg19
F1895.1548136774275
sg22
F2242.7578729326215
sg25
F604.3074770142965
sg28
F2251.7352373344384
sg31
F2277.1968262464475
sg34
F0.0
sg36
F2267.315015191944
sg39
F2304.6078062831175
ssS'newicktree'
p43
S'../PairsAlignemt/YeastTree.newick'
p44
sS'll'
p45
cnumpy.core.multiarray
scalar
p46
(cnumpy
dtype
p47
(S'f8'
p48
I0
I1
tp49
Rp50
(I3
S'<'
p51
NNNI-1
I-1
I0
tp52
bS'\xdf\\\\\xfe\x06 \xd7\xc0'
p53
tp54
Rp55
sS'edge_list'
p56
(lp57
g25
ag34
ag6
ag19
ag13
ag22
ag36
ag28
ag16
ag39
ag10
ag31
asS'edge_to_blen'
p58
(dp59
g6
g46
(g50
S'!F*L\xc9~\xd5?'
p60
tp61
Rp62
sg10
g46
(g50
S'*e\xe4\xabx\xea\xaa?'
p63
tp64
Rp65
sg13
g46
(g50
S'\x080@\x85\xf4\xba\xa5?'
p66
tp67
Rp68
sg16
g46
(g50
S'\xd7\r8\x8a2\x9e\xa1?'
p69
tp70
Rp71
sg28
g46
(g50
S'\xb2\xe4\xc6\x8aq\xc3\xb0?'
p72
tp73
Rp74
sg22
g46
(g50
S'\x13\xa8\xb2J\x86E\xb3?'
p75
tp76
Rp77
sg25
g46
(g50
S'\x80H\xba\xade]\xc2?'
p78
tp79
Rp80
sg19
g46
(g50
S'%\x97\x98\x13\xbd\x8d\xdd?'
p81
tp82
Rp83
sg31
g46
(g50
S'\x1e\x82\nx\xcd\x01\xa4?'
p84
tp85
Rp86
sg34
g46
(g50
S'Y\xf6\x17k\x92\x94\xd4?'
p87
tp88
Rp89
sg36
g46
(g50
S's\xd0\xe4\x04\xb1\xd3\x9f?'
p90
tp91
Rp92
sg39
g46
(g50
S'\xcf\xa8\xe4\xd7w\xd8\xb4?'
p93
tp94
Rp95
ssS'paralog'
p96
(lp97
S'YIR033W'
p98
aS'YKL020C'
p99
asS'alignment_file'
p100
S'../MafftAlignment/YIR033W_YKL020C/YIR033W_YKL020C_input.fasta'
p101
sS'x_clock'
p102
NsS'x'
p103
cnumpy.core.multiarray
_reconstruct
p104
(cnumpy
ndarray
p105
(I0
tp106
S'b'
p107
tp108
Rp109
(I1
(I19
tp110
g50
I00
S'\x1a\xbdn\xa4\x8bU\xe6\xbf\xdfOc[Np\xe0\xbfx\x85\x1c\xa2S\xc0\xe8\xbf\xdc\x8c\xbdcu#\xf4?+@\xca\x02\x89u\x06\xc0\xb0O\xe1\xdd{4\x05\xc0q\xc4]\xfc#\xe7+\xc0\x05\x8f\xaa\x7f\xc3\x10\xff\xbf$\x8fB\x9a\x19\'\xf2\xbf@U8\x8f\xf1t\xf1\xbf\\\x81\xa6\x7f\xc1\xb9\xe8\xbf-\xc2\x10r\xe5F\t\xc0"o,\x01?\xb1\x04\xc0T\xe8\xd9/\xef\xc4\x0b\xc0y\x14k\xbd\xcc\xce\x05\xc0?\xc5\xbf\x0f\x8b\xf4\n\xc0q\xc4`\xf4t\x10\x04\xc0l\x95\x8d\x8e\x9a\x90\x07\xc0\x84\x8d%\xb4\x1b\xf0\t\xc0'
p111
tp112
bsS'Model'
p113
S'HKY'
p114
sS'clock'
p115
I00
s.