(dp0
S'Force'
p1
NsS'ExpectedGeneconv'
p2
(dp3
(S'N1'
p4
S'N2'
p5
tp6
F15.90176915407867
s(S'N5'
p7
S'cerevisiae'
p8
tp9
F11.60222833434299
s(g5
S'N3'
p10
tp11
F0.000509398644105165
s(S'N4'
p12
g7
tp13
F3.3855877508558936
s(g4
S'castellii'
p14
tp15
F40.90996363285592
s(g5
S'bayanus'
p16
tp17
F13.238397915746859
s(S'N0'
p18
g4
tp19
F11.992107221260833
s(g10
S'kudriavzevii'
p20
tp21
F12.810069231627553
s(g7
S'paradoxus'
p22
tp23
F4.04205008316908
s(g18
S'kluyveri'
p24
tp25
F0.0
s(g10
g12
tp26
F0.36887279236236115
s(g12
S'mikatae'
p27
tp28
F15.947439546298591
ssS'ExpectedDwellTime'
p29
(dp30
g6
F28.063328387877434
sg9
F23.39175817796386
sg11
F27.055066724204803
sg13
F24.73971985948937
sg15
F35.10980943272131
sg17
F22.743134111366412
sg19
F16.656583572408906
sg21
F39.16470495789164
sg23
F19.081011928422814
sg25
F0.0
sg26
F26.845507679582052
sg28
F25.0626813971915
ssS'newicktree'
p31
S'../PairsAlignemt/YeastTree.newick'
p32
sS'll'
p33
cnumpy.core.multiarray
scalar
p34
(cnumpy
dtype
p35
(S'f8'
p36
I0
I1
tp37
Rp38
(I3
S'<'
p39
NNNI-1
I-1
I0
tp40
bS'\x0ec\xfdwxp\x94\xc0'
p41
tp42
Rp43
sS'edge_list'
p44
(lp45
g19
ag25
ag6
ag15
ag11
ag17
ag26
ag21
ag13
ag28
ag9
ag23
asS'edge_to_blen'
p46
(dp47
g6
g34
(g38
S'\xd0\x06\xd8\xaee\x12\x97?'
p48
tp49
Rp50
sg9
g34
(g38
S'\xe4^\x146$\xf7\x92?'
p51
tp52
Rp53
sg11
g34
(g38
S'u\xc5Pu\xc7\xb9\xa5>'
p54
tp55
Rp56
sg13
g34
(g38
S'<E0U\x85\xb1l?'
p57
tp58
Rp59
sg21
g34
(g38
S'cg7\xe8\xcf\xba\x96?'
p60
tp61
Rp62
sg17
g34
(g38
S'@\x84o\x99 \x17\x90?'
p63
tp64
Rp65
sg19
g34
(g38
S'\xea\x151lM\x95\xa0?'
p66
tp67
Rp68
sg15
g34
(g38
S'\x17E\xd0&\xe1\xee\xad?'
p69
tp70
Rp71
sg23
g34
(g38
S"\x9d\xc9'\x06Q;q?"
p72
tp73
Rp74
sg25
g34
(g38
S'0U\xdf!6\xc8\xa5?'
p75
tp76
Rp77
sg26
g34
(g38
S'\xa2\x13\x9e\xeb\xca`9?'
p78
tp79
Rp80
sg28
g34
(g38
S' \x8d\xd7\x87>\x8d\x94?'
p81
tp82
Rp83
ssS'paralog'
p84
(lp85
S'YER074W'
p86
aS'YIL069C'
p87
asS'alignment_file'
p88
S'../MafftAlignment/YER074W_YIL069C/YER074W_YIL069C_input.fasta'
p89
sS'x_clock'
p90
NsS'x'
p91
cnumpy.core.multiarray
_reconstruct
p92
(cnumpy
ndarray
p93
(I0
tp94
S'b'
p95
tp96
Rp97
(I1
(I18
tp98
g38
I00
S'O$\x98\xd8\xea\x18\xe7\xbf\xcf\x9e\x07B2\xd1\xe0\xbf\x0c3\x10\x9e\x034\xe9\xbf\x92\x9c\x1ex\xf9\xcf\x04@\xc2\xf6{\xa2I\x12\t@\x03\x91\xe9h\x1ec\xdf\xbf\xcd\xd4K\x18\x81p\x0b\xc0Sq%\x93\x05B\t\xc0\x99z\xde\xe6\xc5W\x0e\xc00S\x18\xd5\x01\xb7\x06\xc0\x03\xc7\xbe\x11\x18\x80,\xc0\x92\xba\x9cB\xee\x9c\x10\xc06\x1f\xd5\x0f\x06m\x1f\xc0\x8c\xc0x\xb5^v\x0e\xc0\xbcq\nY\xf2\x9d\x16\xc0\x15\xc9\x0b\x80\xa9D\x0f\xc0\x1eW\x0c2-\xe9\x0f\xc0.\xf3d\xccQ\xe2\x15\xc0'
p99
tp100
bsS'Model'
p101
S'HKY'
p102
sS'clock'
p103
I00
s.