(dp0
S'Force'
p1
NsS'ExpectedGeneconv'
p2
(dp3
(S'N1'
p4
S'N2'
p5
tp6
F27.86986664756709
s(S'N5'
p7
S'cerevisiae'
p8
tp9
F12.876329181135112
s(g5
S'N3'
p10
tp11
F7.5437863814649715
s(S'N4'
p12
g7
tp13
F5.191116754583934
s(g4
S'castellii'
p14
tp15
F48.14643346468563
s(g5
S'bayanus'
p16
tp17
F9.60064705069319
s(S'N0'
p18
g4
tp19
F10.425036093066822
s(g10
S'kudriavzevii'
p20
tp21
F15.061363362795188
s(g7
S'paradoxus'
p22
tp23
F9.275156429212158
s(g18
S'kluyveri'
p24
tp25
F0.0
s(g10
g12
tp26
F3.939427770463181
s(g12
S'mikatae'
p27
tp28
F13.969954601063792
ssS'ExpectedDwellTime'
p29
(dp30
g6
F116.00633035063385
sg9
F148.1735538767069
sg11
F146.5613561697865
sg13
F152.10713139684555
sg15
F104.02217248769976
sg17
F143.7490784281507
sg19
F47.288250011241146
sg21
F154.7285430060946
sg23
F150.84614337172835
sg25
F0.0
sg26
F152.28343704489893
sg28
F155.56008417859232
ssS'newicktree'
p31
S'../PairsAlignemt/YeastTree.newick'
p32
sS'll'
p33
cnumpy.core.multiarray
scalar
p34
(cnumpy
dtype
p35
(S'f8'
p36
I0
I1
tp37
Rp38
(I3
S'<'
p39
NNNI-1
I-1
I0
tp40
bS'\xea\xa8%\xfaM\x9d\xa0\xc0'
p41
tp42
Rp43
sS'edge_list'
p44
(lp45
g19
ag25
ag6
ag15
ag11
ag17
ag26
ag21
ag13
ag28
ag9
ag23
asS'edge_to_blen'
p46
(dp47
g19
g34
(g38
S'\x95\xa4c(Br\xb7?'
p48
tp49
Rp50
sg9
g34
(g38
S'^\xc8)\xa5\xeb\xbb\xa1?'
p51
tp52
Rp53
sg11
g34
(g38
S'}S?%\xea\x11\x9a?'
p54
tp55
Rp56
sg13
g34
(g38
S'\xd3\x1bN\x13B\xa5\x8e?'
p57
tp58
Rp59
sg15
g34
(g38
S'Z\xdb\xe8N\xc0\xd4\xc3?'
p60
tp61
Rp62
sg17
g34
(g38
S'((u\x08:/\x9e?'
p63
tp64
Rp65
sg6
g34
(g38
S'\xda\xde-\x97\xe6\x1f\xbd?'
p66
tp67
Rp68
sg21
g34
(g38
S't\xf1\xb0\xf17\xc7\xa7?'
p69
tp70
Rp71
sg23
g34
(g38
S'\xc6o\x1f\xc6\x1b\xfe\x99?'
p72
tp73
Rp74
sg28
g34
(g38
S'\xf3\xbc\x0fd\x84m\xa5?'
p75
tp76
Rp77
sg26
g34
(g38
S'\xa5\xc2\x04*g)\x85?'
p78
tp79
Rp80
sg25
g34
(g38
S'KE\xbe\x8d\x94-\xa9?'
p81
tp82
Rp83
ssS'paralog'
p84
(lp85
S'YJR048W'
p86
aS'YEL039C'
p87
asS'alignment_file'
p88
S'../MafftAlignment/YJR048W_YEL039C/YJR048W_YEL039C_input.fasta'
p89
sS'x_clock'
p90
NsS'x'
p91
cnumpy.core.multiarray
_reconstruct
p92
(cnumpy
ndarray
p93
(I0
tp94
S'b'
p95
tp96
Rp97
(I1
(I18
tp98
g38
I00
S'J\xf3}\x98&#\xe5\xbf\x05f\xa1\x14\xea\xf1\xe0\xbf\xc7l^V\xeb?\xe8\xbfl\xda\xf0\x8c\'\xb9\xf8?\xd7(\x13S\xf9\xca\xea?l\xba\xc4\xa2\xe7-\xe9\xbf\xad\xe4\x02}\xab\x1f\x03\xc0\n\x11\xa8\x11L\x19\x08\xc0\xaf\x1bt+\x85c\x01\xc0\xf5?\x02\x7f$\xd6\xfd\xbf\xc4r\xa1X\x91]\r\xc0\x0f\xe7par1\x0c\xc0O\x8c\xf9\xac)J\x12\xc0\x14\x98\x96"s\x8e\x08\xc0\xe5\xa0\xd9\xa7\xfb\xce\x10\xc0X\xbc\x1a\xf7\x9ac\t\xc0\x9a<\xfa<\x17\xe7\n\xc0z\xdc\n\x96\xa7c\r\xc0'
p99
tp100
bsS'Model'
p101
S'HKY'
p102
sS'clock'
p103
I00
s.