(dp0
S'Force'
p1
NsS'ExpectedGeneconv'
p2
(dp3
(S'N1'
p4
S'N2'
p5
tp6
F27.817201911471564
s(S'N5'
p7
S'cerevisiae'
p8
tp9
F11.841815968766044
s(g5
S'N3'
p10
tp11
F5.566273019655736
s(S'N4'
p12
g7
tp13
F4.469229778819399
s(g4
S'castellii'
p14
tp15
F69.28422552776918
s(g5
S'bayanus'
p16
tp17
F13.909910300936634
s(S'N0'
p18
g4
tp19
F10.323006946030498
s(g10
S'kudriavzevii'
p20
tp21
F14.03692488680825
s(g7
S'paradoxus'
p22
tp23
F8.134840897053023
s(g18
S'kluyveri'
p24
tp25
F0.0
s(g10
g12
tp26
F6.323784341265923
s(g12
S'mikatae'
p27
tp28
F18.697697634485007
ssS'ExpectedDwellTime'
p29
(dp30
g6
F223.11246651860625
sg9
F318.1089919814525
sg11
F277.4696088345404
sg13
F305.9566729342595
sg15
F231.331264999648
sg17
F286.3876322963417
sg19
F90.35146727854712
sg21
F283.27931194839744
sg23
F311.72770288322175
sg25
F0.0
sg26
F287.677448987628
sg28
F292.2137190876947
ssS'newicktree'
p31
S'../PairsAlignemt/YeastTree.newick'
p32
sS'll'
p33
cnumpy.core.multiarray
scalar
p34
(cnumpy
dtype
p35
(S'f8'
p36
I0
I1
tp37
Rp38
(I3
S'<'
p39
NNNI-1
I-1
I0
tp40
bS'b\xbe\x14x|\r\xad\xc0'
p41
tp42
Rp43
sS'edge_list'
p44
(lp45
g19
ag25
ag6
ag15
ag11
ag17
ag26
ag21
ag13
ag28
ag9
ag23
asS'edge_to_blen'
p46
(dp47
g6
g34
(g38
S'\xa5\xed\x8b\xab<a\xc1?'
p48
tp49
Rp50
sg9
g34
(g38
S'1\xae,\x1cB\xc0\xa8?'
p51
tp52
Rp53
sg11
g34
(g38
S'\xaeB\xef\x14\x88\x1e\x96?'
p54
tp55
Rp56
sg13
g34
(g38
S'\xe8a\xff\x1c\r\x11\x97?'
p57
tp58
Rp59
sg21
g34
(g38
S'E\xc9$\x86\xc1\xf2\xaa?'
p60
tp61
Rp62
sg17
g34
(g38
S'\xe4\xf9\x8cvDa\xb0?'
p63
tp64
Rp65
sg19
g34
(g38
S'l\xa9\xc22s\x19\xbe?'
p66
tp67
Rp68
sg15
g34
(g38
S'$\xb4\x8d\x8dJr\xd0?'
p69
tp70
Rp71
sg23
g34
(g38
S'\xe0\x1c\x18\x9cqH\x97?'
p72
tp73
Rp74
sg25
g34
(g38
S'\xa3\x07\xa8\xecb\x0e\xcd?'
p75
tp76
Rp77
sg26
g34
(g38
S'\x87T\xf0l\x96J\x9f?'
p78
tp79
Rp80
sg28
g34
(g38
S'\xc1Q\xc0\xe6\xf5\xb2\xad?'
p81
tp82
Rp83
ssS'paralog'
p84
(lp85
S'YIL057C'
p86
aS'YER067W'
p87
asS'alignment_file'
p88
S'../MafftAlignment/YIL057C_YER067W/YIL057C_YER067W_input.fasta'
p89
sS'x_clock'
p90
NsS'x'
p91
cnumpy.core.multiarray
_reconstruct
p92
(cnumpy
ndarray
p93
(I0
tp94
S'b'
p95
tp96
Rp97
(I1
(I18
tp98
g38
I00
S'\xdb\xb2Uc\xd1a\xe5\xbf\xa8\xc0\x89\xbb\xfe"\xde\xbf\xfdf#b\x94g\xe7\xbf6tP#\xa6\x9d\xf6?g\xfc\x08=\x80\x8b\x9f\xbfj\rdFZ+\xd7\xbf\xa17[\x81\x18 \x01\xc0(0\xd8\xe6\x8a\xb9\xf7\xbf\x17\xc4\xc6x\x90\xf2\xff\xbfg\x85+5\x89\xbd\xf5\xbf\x97q\'} \xae\x0e\xc0\xe6G\xdfJ2\xfe\x05\xc0\r\xf0\x07\xa0\xb0\xe7\x0b\xc0\xb7\xd0D\x92$\x8e\x07\xc0\'%yd=X\x0e\xc0\x80\xbc\xe2\x8c\x15\xc7\x06\xc0q\xba\xaf\xacT<\x08\xc0\xde\xa9[6\x1eE\x0e\xc0'
p99
tp100
bsS'Model'
p101
S'HKY'
p102
sS'clock'
p103
I00
s.