(dp0
S'Force'
p1
NsS'ExpectedGeneconv'
p2
(dp3
(S'N1'
p4
S'N2'
p5
tp6
F36.66268316131226
s(S'N5'
p7
S'cerevisiae'
p8
tp9
F29.197139277517724
s(g5
S'N3'
p10
tp11
F25.542423258985806
s(S'N4'
p12
g7
tp13
F22.752655691489636
s(g4
S'castellii'
p14
tp15
F152.46761768985675
s(g5
S'bayanus'
p16
tp17
F30.134741974046282
s(S'N0'
p18
g4
tp19
F78.30175027790298
s(g10
S'kudriavzevii'
p20
tp21
F55.418469872755466
s(g7
S'paradoxus'
p22
tp23
F25.476155342406894
s(g18
S'kluyveri'
p24
tp25
F0.0
s(g10
g12
tp26
F23.6913623577926
s(g12
S'mikatae'
p27
tp28
F52.83227404745449
ssS'ExpectedDwellTime'
p29
(dp30
g6
F368.23639725384254
sg9
F390.0687059123285
sg11
F391.4082204436097
sg13
F399.54811599513874
sg15
F389.4794094469644
sg17
F392.1430994080916
sg19
F207.1474498562621
sg21
F390.4895884679513
sg23
F404.8327771957228
sg25
F0.0
sg26
F400.9279662370301
sg28
F403.5921296089181
ssS'newicktree'
p31
S'../PairsAlignemt/YeastTree.newick'
p32
sS'll'
p33
cnumpy.core.multiarray
scalar
p34
(cnumpy
dtype
p35
(S'f8'
p36
I0
I1
tp37
Rp38
(I3
S'<'
p39
NNNI-1
I-1
I0
tp40
bS'\xfe]w\xd6\xa2\xf1\xb9\xc0'
p41
tp42
Rp43
sS'edge_list'
p44
(lp45
g19
ag25
ag6
ag15
ag11
ag17
ag26
ag21
ag13
ag28
ag9
ag23
asS'edge_to_blen'
p46
(dp47
g19
g34
(g38
S'^eFbGX\xc0?'
p48
tp49
Rp50
sg9
g34
(g38
S'=\x0f\x14\x91\xc4 \x97?'
p51
tp52
Rp53
sg11
g34
(g38
S'\xf6W\x8be\x8a\xf4\x97?'
p54
tp55
Rp56
sg13
g34
(g38
S'\x8bK\x13\xdd\xd0"\x92?'
p57
tp58
Rp59
sg21
g34
(g38
S'\x1f\x90\xdcX.J\xa5?'
p60
tp61
Rp62
sg17
g34
(g38
S'q\xcd\x9f\xbe\x98=\x9b?'
p63
tp64
Rp65
sg6
g34
(g38
S'\x1e*\x92\xcd\xf8\x94\xa0?'
p66
tp67
Rp68
sg15
g34
(g38
S'\x96\xd6\xb9\xe0\x8e/\xbf?'
p69
tp70
Rp71
sg23
g34
(g38
S'\xcc$@#%L\x96?'
p72
tp73
Rp74
sg28
g34
(g38
S'k\xf7\xaf\xa6\x99\xf2\xa5?'
p75
tp76
Rp77
sg26
g34
(g38
S'\x9b\xaer t\xb2\x92?'
p78
tp79
Rp80
sg25
g34
(g38
S'\tY#\x9d\xaf\xf7\xc5>'
p81
tp82
Rp83
ssS'paralog'
p84
(lp85
S'YDR502C'
p86
aS'YLR180W'
p87
asS'alignment_file'
p88
S'../MafftAlignment/YDR502C_YLR180W/YDR502C_YLR180W_input.fasta'
p89
sS'x_clock'
p90
NsS'x'
p91
cnumpy.core.multiarray
_reconstruct
p92
(cnumpy
ndarray
p93
(I0
tp94
S'b'
p95
tp96
Rp97
(I1
(I18
tp98
g38
I00
S'\x15\xc6\x8d\xbetT\xe9\xbf\xebC\x14N~\xa5\xe3\xbf\xa3r\xa4\xc4\xbet\xe9\xbf\xa1\xfa\x9aB\x1f\x85\xfc?to\xb8W\xdau\xf1?\rg\xf2\xf0\xcb\xd0\xe9\xbf\t\x9d\xee\x99\x06w\x00\xc0\xda\xea\xaa\xd2\xa4\xb4)\xc0\r\xb3\x16\xeb\xa9p\x0b\xc0 /p.{\xd7\x00\xc0n\xc7\xc4\xc8\xd2\n\x0e\xc0<\xd2\xff>\x9c\x03\r\xc0i\xda\xb3\xbf-\x03\x10\xc0PQx3\xd7p\t\xc0>"\x80\xf0`"\x10\xc0\x05\xc6=)\x832\t\xc0K*=\xd3\xcbR\x0e\xc0\x90T\xd4\x19\xb2\x9d\x0e\xc0'
p99
tp100
bsS'Model'
p101
S'HKY'
p102
sS'clock'
p103
I00
s.