(dp0
S'Force'
p1
NsS'ExpectedGeneconv'
p2
(dp3
(S'N1'
p4
S'N2'
p5
tp6
(lp7
F23.295178669105862
aF39.12973954595195
as(S'N5'
p8
S'cerevisiae'
p9
tp10
(lp11
F8.5690964361122
aF13.922873064225039
as(g5
S'N3'
p12
tp13
(lp14
F6.072477247976612
aF8.078542156015478
as(S'N4'
p15
g8
tp16
(lp17
F4.176097502744982
aF6.421470986883424
as(g4
S'castellii'
p18
tp19
(lp20
F32.467706179171785
aF54.77562960087204
as(g5
S'bayanus'
p21
tp22
(lp23
F8.324475175897598
aF11.510058585670182
as(S'N0'
p24
g4
tp25
(lp26
F0.7570030459208176
aF1.2555940042002725
as(g12
S'kudriavzevii'
p27
tp28
(lp29
F9.323050676254567
aF14.61022990807271
as(g8
S'paradoxus'
p30
tp31
(lp32
F5.722844036017944
aF25.275799601036365
as(g24
S'kluyveri'
p33
tp34
(lp35
F0.0
aF0.0
as(g12
g15
tp36
(lp37
F3.6367659482633625
aF5.894060883965064
as(g15
S'mikatae'
p38
tp39
(lp40
F9.01312851379077
aF12.324799721792663
assS'ExpectedDwellTime'
p41
(dp42
g6
F1213.7219400097313
sg10
F1856.4742534068148
sg13
F1802.5588149981413
sg16
F1858.054964719728
sg19
F1346.703729188755
sg22
F1815.2703148477678
sg25
F220.38411307319492
sg28
F1884.9328863069022
sg31
F1918.1573785952708
sg34
F0.0
sg36
F1845.6839183773957
sg39
F1877.437234961048
ssS'newicktree'
p43
S'../PairsAlignemt/YeastTree.newick'
p44
sS'll'
p45
cnumpy.core.multiarray
scalar
p46
(cnumpy
dtype
p47
(S'f8'
p48
I0
I1
tp49
Rp50
(I3
S'<'
p51
NNNI-1
I-1
I0
tp52
bS'\x04\x9c\xf0\t\x88o\xd3\xc0'
p53
tp54
Rp55
sS'edge_list'
p56
(lp57
g25
ag34
ag6
ag19
ag13
ag22
ag36
ag28
ag16
ag39
ag10
ag31
asS'edge_to_blen'
p58
(dp59
g6
g46
(g50
S'\r@\xe4|\x8cG\xd6?'
p60
tp61
Rp62
sg10
g46
(g50
S'\xee\x80\xb9\x88\xd1\xf2\xac?'
p63
tp64
Rp65
sg13
g46
(g50
S"\\s\xbcz\x1b'\xae?"
p66
tp67
Rp68
sg16
g46
(g50
S'w\xa1Q\x868\x06\xa2?'
p69
tp70
Rp71
sg28
g46
(g50
S'\x86\xe2\xeb\xe7\x9d\xe7\xb6?'
p72
tp73
Rp74
sg22
g46
(g50
S'\xde\x88H\x80\xc9\xc8\xb4?'
p75
tp76
Rp77
sg25
g46
(g50
S'#\x95\x12lh\xe2\xae?'
p78
tp79
Rp80
sg19
g46
(g50
S'E\xaf\xb3{[K\xdc?'
p81
tp82
Rp83
sg31
g46
(g50
S'}\xc0H\xb0\xfc\xc3\xb7?'
p84
tp85
Rp86
sg34
g46
(g50
S'\x85\x8e\xaeV\x1b\x9b\xe1?'
p87
tp88
Rp89
sg36
g46
(g50
S'&\xa6\xe40e\xb9\xa1?'
p90
tp91
Rp92
sg39
g46
(g50
S'm\xf0\x99&\xd5\xa7\xb3?'
p93
tp94
Rp95
ssS'paralog'
p96
(lp97
S'YAL056W'
p98
aS'YOR371C'
p99
asS'alignment_file'
p100
S'../MafftAlignment/YAL056W_YOR371C/YAL056W_YOR371C_input.fasta'
p101
sS'x_clock'
p102
NsS'x'
p103
cnumpy.core.multiarray
_reconstruct
p104
(cnumpy
ndarray
p105
(I0
tp106
S'b'
p107
tp108
Rp109
(I1
(I19
tp110
g50
I00
S'}l\xe1|"1\xe5\xbf\xa9{\xd2\xba(\x88\xdf\xbfz\xa8&\xfeA~\xeb\xbf\xb4\xcc\xff1\xfc\xdf\xf1?\xa2\x96\xd6\x03\xcf\xcc\x01\xc0\xd0\x82\x02%\xec\x1f\xfa\xbf\xfc\xdfN\x16\xbf0\xe6\xbf\xceVq\x19\xefv\x06\xc0\xed\x9e\r\xd6\xbd\x1e\xe3\xbf\xda\x90<\xe1*\xe2\xf0\xbf\xb8I\xe0Lz\x1e\xea\xbfG\xb9\x89\xd0\x08\xa8\x06\xc0h\x1a\x0e\xd3{\x16\x04\xc0U<\xd6\xf0:\xe8\n\xc0\xf8\xb8\xf4\xab\x87O\x03\xc0\x9d4\x8e3\xd8\xc5\n\xc0\xcc(\t}\xd6\x88\x04\xc0:\xea\xd0\xa8\x81\xfb\x06\xc0\x03\x93\xb7\xc8\xf8\x03\x03\xc0'
p111
tp112
bsS'Model'
p113
S'HKY'
p114
sS'clock'
p115
I00
s.