(dp0
S'Force'
p1
NsS'ExpectedGeneconv'
p2
(dp3
(S'N1'
p4
S'N2'
p5
tp6
(lp7
F57.161394224564496
aF41.838326466990765
as(S'N5'
p8
S'cerevisiae'
p9
tp10
(lp11
F5.619975765009243
aF3.877820333055793
as(g5
S'N3'
p12
tp13
(lp14
F1.3492947660101715
aF1.3431138341639548
as(S'N4'
p15
g8
tp16
(lp17
F2.248588863780588
aF1.5329230737291177
as(g4
S'castellii'
p18
tp19
(lp20
F71.56410300393985
aF51.853255734345055
as(g5
S'bayanus'
p21
tp22
(lp23
F7.835081265150417
aF3.3356909291078
as(S'N0'
p24
g4
tp25
(lp26
F6.530520538393392
aF5.068437834627152
as(g12
S'kudriavzevii'
p27
tp28
(lp29
F3.949454039583132
aF3.898592063774637
as(g8
S'paradoxus'
p30
tp31
(lp32
F1.1277455870935524
aF0.8654597783608232
as(g24
S'kluyveri'
p33
tp34
(lp35
F0.0
aF0.0
as(g12
g15
tp36
(lp37
F1.435943247734014
aF1.733860214246525
as(g15
S'mikatae'
p38
tp39
(lp40
F5.873663669613705
aF4.283094407569898
assS'ExpectedDwellTime'
p41
(dp42
g6
F407.6146155377201
sg10
F470.90750487189626
sg13
F473.31062676198655
sg16
F477.3680017342815
sg19
F411.7358862498295
sg22
F459.67608269356634
sg25
F176.3217426780316
sg28
F477.2914902214459
sg31
F479.1511522650125
sg34
F0.0
sg36
F478.0529237904997
sg39
F476.42190126178406
ssS'newicktree'
p43
S'../PairsAlignemt/YeastTree.newick'
p44
sS'll'
p45
cnumpy.core.multiarray
scalar
p46
(cnumpy
dtype
p47
(S'f8'
p48
I0
I1
tp49
Rp50
(I3
S'<'
p51
NNNI-1
I-1
I0
tp52
bS'\xbeG\xffA\xf4 \xbc\xc0'
p53
tp54
Rp55
sS'edge_list'
p56
(lp57
g25
ag34
ag6
ag19
ag13
ag22
ag36
ag28
ag16
ag39
ag10
ag31
asS'edge_to_blen'
p58
(dp59
g6
g46
(g50
S'3\x95\x03~)\x8a\x04@'
p60
tp61
Rp62
sg10
g46
(g50
S'j1>\xb6&?\xcd?'
p63
tp64
Rp65
sg13
g46
(g50
S'm\xd5\xd4\xd0>\xfa\xbc?'
p66
tp67
Rp68
sg16
g46
(g50
S'\xc6\x91\x18\x17cS\xc0?'
p69
tp70
Rp71
sg28
g46
(g50
S'\xee\x02V_a\x9a\xd0?'
p72
tp73
Rp74
sg22
g46
(g50
S'\x8d\xdf\x96\x0bF\xa5\xd2?'
p75
tp76
Rp77
sg25
g46
(g50
S'R%\x0f\x13\x96d\xdd?'
p78
tp79
Rp80
sg19
g46
(g50
S'X\xd3\xc8\x17gv\t@'
p81
tp82
Rp83
sg31
g46
(g50
S'=\xf3\xc4\xda\x180\xb2?'
p84
tp85
Rp86
sg34
g46
(g50
S'\xb6\xfa\xb9jF\xde\x03@'
p87
tp88
Rp89
sg36
g46
(g50
S'&\xca[|H\x08\xb6?'
p90
tp91
Rp92
sg39
g46
(g50
S'\xc1=\x05Fg\x1e\xd2?'
p93
tp94
Rp95
ssS'paralog'
p96
(lp97
S'YPL087W'
p98
aS'YBR183W'
p99
asS'alignment_file'
p100
S'../MafftAlignment/YPL087W_YBR183W/YPL087W_YBR183W_input.fasta'
p101
sS'x_clock'
p102
NsS'x'
p103
cnumpy.core.multiarray
_reconstruct
p104
(cnumpy
ndarray
p105
(I0
tp106
S'b'
p107
tp108
Rp109
(I1
(I20
tp110
g50
I00
S'\x01\xf6|\xa2\xecm\xe6\xbf\x11\xbecMA\xb1\xe1\xbf\r]4\xe6.\xf8\xf0\xbf\xb3N<\xb5\x0f\x1f\xf0?\x16\xb0\x03\xf4\x89\xc1\x05\xc0\xb2\xda\xd9\xa9vT\xfa\xbf\xeb_=\x96\x8a\x93\x06\xc0\x06\x16\x7f\xcf\x94x\xe9\xbf\x83\xb9\x97\xaeo\xe6\xe8\xbf\xd5\x8c)\x83\x1d\x1c\xed?\xdf\xfa\xc9\nb,\xee?.\xfb\x91G5\x86\xf2?l\xd6\xc7\xbf\xe3m\x01\xc0F\xa1\xcdY|\xbb\xf3\xbf\x19G\xc8\x01\x0f\x9f\x03\xc0\r\xd6\x996\xb8\x96\xf5\xbf\x95E{\xe5ky\x00\xc0\x0c\xbcM\xca\xe20\xf4\xbff"&\r\xc7\x9e\xf7\xbfe\x9c\x16\xbf\xc6\'\x05\xc0'
p111
tp112
bsS'Model'
p113
S'MG94'
p114
sS'clock'
p115
I00
s.