(dp0
S'Force'
p1
NsS'ExpectedGeneconv'
p2
(dp3
(S'N1'
p4
S'N2'
p5
tp6
(lp7
F38.20969150233499
aF40.51406252758096
as(S'N5'
p8
S'cerevisiae'
p9
tp10
(lp11
F7.759518004083219
aF9.434536234419685
as(g5
S'N3'
p12
tp13
(lp14
F4.180581455283644
aF7.11678185942552
as(S'N4'
p15
g8
tp16
(lp17
F1.5632055464097303
aF3.8163184195109885
as(g4
S'castellii'
p18
tp19
(lp20
F64.67653264499911
aF73.33962620715296
as(g5
S'bayanus'
p21
tp22
(lp23
F4.711138514884646
aF11.134293290486085
as(S'N0'
p24
g4
tp25
(lp26
F1.2198828546618337
aF1.3446113491420195
as(g12
S'kudriavzevii'
p27
tp28
(lp29
F5.672961351849046
aF8.792417589419953
as(g8
S'paradoxus'
p30
tp31
(lp32
F3.3016324979719487
aF5.97422654716316
as(g24
S'kluyveri'
p33
tp34
(lp35
F0.0
aF0.0
as(g12
g15
tp36
(lp37
F4.13162416949088
aF7.153861836597361
as(g15
S'mikatae'
p38
tp39
(lp40
F9.636014412726205
aF12.713636655534362
assS'ExpectedDwellTime'
p41
(dp42
g6
F657.009544023966
sg10
F898.2445814276361
sg13
F859.5143967521825
sg16
F894.2136667479265
sg19
F702.5294123781624
sg22
F860.9893740907673
sg25
F129.97644592424663
sg28
F897.94476306388
sg31
F917.455090899528
sg34
F0.0
sg36
F876.8174201294305
sg39
F890.3135802788819
ssS'newicktree'
p43
S'../PairsAlignemt/YeastTree.newick'
p44
sS'll'
p45
cnumpy.core.multiarray
scalar
p46
(cnumpy
dtype
p47
(S'f8'
p48
I0
I1
tp49
Rp50
(I3
S'<'
p51
NNNI-1
I-1
I0
tp52
bS'a\x9a\x95\x97\xc4\x1f\xca\xc0'
p53
tp54
Rp55
sS'edge_list'
p56
(lp57
g25
ag34
ag6
ag19
ag13
ag22
ag36
ag28
ag16
ag39
ag10
ag31
asS'edge_to_blen'
p58
(dp59
g25
g46
(g50
S'3`\xe5\x0f\xe4C\xbc?'
p60
tp61
Rp62
sg10
g46
(g50
S'\xe7>C\x1eP\xef\xc2?'
p63
tp64
Rp65
sg13
g46
(g50
S'\xec\xee\xecYT\x9b\xbb?'
p66
tp67
Rp68
sg16
g46
(g50
S'\xc1\xa8\x13\xc8\xa0\x99\xb0?'
p69
tp70
Rp71
sg19
g46
(g50
S'q\xb3\xb0^\xa2\xcc\xf3?'
p72
tp73
Rp74
sg22
g46
(g50
S'R\xb3\xf4Zb\x00\xc7?'
p75
tp76
Rp77
sg6
g46
(g50
S'\x9e4T\xfex\xb7\xed?'
p78
tp79
Rp80
sg28
g46
(g50
S'W\\\xe7 \x7f\xbb\xc7?'
p81
tp82
Rp83
sg31
g46
(g50
S'\xe0Akj\xfe\xa2\xbb?'
p84
tp85
Rp86
sg39
g46
(g50
S'\x1d\xe2\xdeF\xe3\xb9\xcc?'
p87
tp88
Rp89
sg36
g46
(g50
S'\xe1\xc9-]\xe8\xbe\xb9?'
p90
tp91
Rp92
sg34
g46
(g50
S'=\xbf\x18u\xd0\xf2\xe1?'
p93
tp94
Rp95
ssS'paralog'
p96
(lp97
S'YBR117C'
p98
aS'YPR074C'
p99
asS'alignment_file'
p100
S'../MafftAlignment/YBR117C_YPR074C/YBR117C_YPR074C_input.fasta'
p101
sS'x_clock'
p102
NsS'x'
p103
cnumpy.core.multiarray
_reconstruct
p104
(cnumpy
ndarray
p105
(I0
tp106
S'b'
p107
tp108
Rp109
(I1
(I20
tp110
g50
I00
S'\xfa\xa3[\xcf\x9bY\xe8\xbf\xc6\x17E\'\x04\xbd\xe1\xbf\xce\x9do\x11\xf4\x89\xe9\xbf\xd9\xb4\xf6\xd0\xcac\xf0?$\xa0\xef^\x1d\xf4\x03\xc0\x8f\x19\x9f\xf5\xb0T\x12\xc0\xa2N[O\xbf\x7f\x11\xc0\xed\xe4\x06\x00\xb8\xa2G\xc0@R]\xca\xdc\xa0\x01\xc0Q\xe5Q\xa2\xdb\x80\xe2\xbf\xb2\xdba\x07p\xf3\xb2\xbf\x89\xa4\xda&\x91E\xcb?A\'\x9c\xad"\xd1\x01\xc0\xae\x0e\x8f\x15\xaav\xfb\xbfa\x08(\x95\x11`\x02\xc0D\xa8\xf5l\x88\xf6\xfa\xbf\xde\xe2"i\xda\xe2\x05\xc0\xc8\xaa\xe0\xb1V\xe8\xf7\xbf\xc8}\x82\xff\x91\x93\xfe\xbf\xda5=i\xea\xce\x01\xc0'
p111
tp112
bsS'Model'
p113
S'MG94'
p114
sS'clock'
p115
I00
s.