(dp0
S'Force'
p1
NsS'ExpectedGeneconv'
p2
(dp3
(S'N1'
p4
S'N2'
p5
tp6
(lp7
F11.542846459266137
aF6.375201763225637
as(S'N5'
p8
S'cerevisiae'
p9
tp10
(lp11
F2.992001293222977
aF3.679738629072714
as(g5
S'N3'
p12
tp13
(lp14
F2.2734231958559223
aF2.1772791485512313
as(S'N4'
p15
g8
tp16
(lp17
F0.5816424127982813
aF2.9180587891520675
as(g4
S'castellii'
p18
tp19
(lp20
F17.311944707901606
aF9.925189004074097
as(g5
S'bayanus'
p21
tp22
(lp23
F2.7371434374204933
aF1.477415649683222
as(S'N0'
p24
g4
tp25
(lp26
F0.06632371723154172
aF0.03692336856468848
as(g12
S'kudriavzevii'
p27
tp28
(lp29
F5.147801780916729
aF2.2825595483350987
as(g8
S'paradoxus'
p30
tp31
(lp32
F2.272444331208211
aF1.4999398798213763
as(g24
S'kluyveri'
p33
tp34
(lp35
F0.0
aF0.0
as(g12
g15
tp36
(lp37
F0.3771663943559688
aF1.2494573728105178
as(g15
S'mikatae'
p38
tp39
(lp40
F4.380833795639328
aF4.71958980112222
assS'ExpectedDwellTime'
p41
(dp42
g6
F77.33787773369444
sg10
F120.24804314068062
sg13
F115.20126601327802
sg16
F121.0230491019082
sg19
F74.74936635472666
sg22
F114.87603159317231
sg25
F6.969231984493348
sg28
F126.67805822844042
sg31
F123.44365900977336
sg34
F0.0
sg36
F120.81243044654394
sg39
F128.2285619109092
ssS'newicktree'
p43
S'../PairsAlignemt/YeastTree.newick'
p44
sS'll'
p45
cnumpy.core.multiarray
scalar
p46
(cnumpy
dtype
p47
(S'f8'
p48
I0
I1
tp49
Rp50
(I3
S'<'
p51
NNNI-1
I-1
I0
tp52
bS'\xde\xd8P\xe2\xc0=\x9d\xc0'
p53
tp54
Rp55
sS'edge_list'
p56
(lp57
g25
ag34
ag6
ag19
ag13
ag22
ag36
ag28
ag16
ag39
ag10
ag31
asS'edge_to_blen'
p58
(dp59
g25
g46
(g50
S'\xe1^\xc4\x19\xf3\x11\xa2?'
p60
tp61
Rp62
sg10
g46
(g50
S'IMm\xfc\xdek\xc3?'
p63
tp64
Rp65
sg13
g46
(g50
S'Bz\xa5\xa5\x97/\xbf?'
p66
tp67
Rp68
sg16
g46
(g50
S'~B\xbb\\m4\xb2?'
p69
tp70
Rp71
sg28
g46
(g50
S'F\x0b\x96\xd2\xcf\xb0\xcc?'
p72
tp73
Rp74
sg22
g46
(g50
S'\x17\xbc8\x1czZ\xc1?'
p75
tp76
Rp77
sg6
g46
(g50
S'\xf1\x00\xd0\r\xdf\x99\xe4?'
p78
tp79
Rp80
sg19
g46
(g50
S'eU\xcelZ\x1f\xe7?'
p81
tp82
Rp83
sg31
g46
(g50
S'ua\x1e\x0e\xee\xad\xbc?'
p84
tp85
Rp86
sg34
g46
(g50
S'\xaf\xc7\xbe\xb7\xa8\x1d\xe1?'
p87
tp88
Rp89
sg36
g46
(g50
S'\xbcF\x0e#\xfa\xa8\x9e?'
p90
tp91
Rp92
sg39
g46
(g50
S'\xffKw\xc2J\xc5\xc8?'
p93
tp94
Rp95
ssS'paralog'
p96
(lp97
S'YJR048W'
p98
aS'YEL039C'
p99
asS'alignment_file'
p100
S'../MafftAlignment/YJR048W_YEL039C/YJR048W_YEL039C_input.fasta'
p101
sS'x_clock'
p102
NsS'x'
p103
cnumpy.core.multiarray
_reconstruct
p104
(cnumpy
ndarray
p105
(I0
tp106
S'b'
p107
tp108
Rp109
(I1
(I20
tp110
g50
I00
S'!\x15\xc3$\xedz\xe4\xbf4\x83\xad\xfb]\x7f\xe2\xbf\x03\xeb\xc9Y\xe8\x1e\xea\xbf\x0ff\x0f\x94\xd2\xa8\xf0?\xab>\xad\xda\x90$\x06\xc0C\xcbKh\xb4\xe5\xe3\xbf\x17\x96\xd1\xb3\x1a\x0c\xfe\xbf\xa6EB=%\x18\x00\xc0\xfb\x94\x936\xa5\xc0\n\xc0\xaf\xd0WA\xfc\x05\xe4\xbf\xd22\xd8\xb9g/\xdc\xbf\xd0/\xec\xe1\xaa\xcb\xd4\xbf\xb8e\x8e\xeex\xd7\x00\xc0\xb2\xaam\xd9\xca\xf8\xff\xbf2\xcc\x0b\x16n\x11\x0c\xc0\x0f\x1a!\x9fe\xed\xf7\xbf\xb0^fd\xdf%\x05\xc0\x90}\xc1\xa6%G\xfa\xbfI\xe6)\xd4\xa5+\xfe\xbf\xff=\x06Q\x11\x83\x01\xc0'
p111
tp112
bsS'Model'
p113
S'MG94'
p114
sS'clock'
p115
I00
s.