(dp0
S'Force'
p1
NsS'ExpectedGeneconv'
p2
(dp3
(S'N1'
p4
S'N2'
p5
tp6
F38.75520490121366
s(S'N5'
p7
S'cerevisiae'
p8
tp9
F22.9479392201998
s(g5
S'N3'
p10
tp11
F11.697672154330034
s(S'N4'
p12
g7
tp13
F9.854895956336307
s(g4
S'castellii'
p14
tp15
F85.4965817315797
s(g5
S'bayanus'
p16
tp17
F17.64662127274255
s(S'N0'
p18
g4
tp19
F25.75113154562851
s(g10
S'kudriavzevii'
p20
tp21
F24.060986316154047
s(g7
S'paradoxus'
p22
tp23
F14.124627888686273
s(g18
S'kluyveri'
p24
tp25
F0.0
s(g10
g12
tp26
F11.478659163981037
s(g12
S'mikatae'
p27
tp28
F37.29646561998948
ssS'ExpectedDwellTime'
p29
(dp30
g6
F523.3220373286674
sg9
F648.7680540160112
sg11
F631.9251995934718
sg13
F651.7549359711144
sg15
F567.6283195440631
sg17
F631.7613869161227
sg19
F235.67080119917227
sg21
F658.1398829076966
sg23
F656.5771282007654
sg25
F0.0
sg26
F648.3871303179823
sg28
F640.1944844568687
ssS'newicktree'
p31
S'../PairsAlignemt/YeastTree.newick'
p32
sS'll'
p33
cnumpy.core.multiarray
scalar
p34
(cnumpy
dtype
p35
(S'f8'
p36
I0
I1
tp37
Rp38
(I3
S'<'
p39
NNNI-1
I-1
I0
tp40
bS'\xff\x87"\xaf\xa8\x07\xbd\xc0'
p41
tp42
Rp43
sS'edge_list'
p44
(lp45
g19
ag25
ag6
ag15
ag11
ag17
ag26
ag21
ag13
ag28
ag9
ag23
asS'edge_to_blen'
p46
(dp47
g6
g34
(g38
S'\x86@+/\xd4\xf8\xbc?'
p48
tp49
Rp50
sg9
g34
(g38
S'\x02\x13\xaa\xb5\xdd\x93\xa4?'
p51
tp52
Rp53
sg11
g34
(g38
S'\xa3\xc7\x0f]8&\x9d?'
p54
tp55
Rp56
sg13
g34
(g38
S'-\x17\xefF\xa1v\x95?'
p57
tp58
Rp59
sg21
g34
(g38
S'\xdd\xb75\xe2\x96V\xad?'
p60
tp61
Rp62
sg17
g34
(g38
S'\xcf\xb2\x0b\x1b\xe9=\xa6?'
p63
tp64
Rp65
sg19
g34
(g38
S'\xf8\x8bk\x0c\x9a\xbc\xc2?'
p66
tp67
Rp68
sg15
g34
(g38
S'\x92\xb2f`\x9c\x17\xc9?'
p69
tp70
Rp71
sg23
g34
(g38
S'r\xa7T\xb2\xf84\xa0?'
p72
tp73
Rp74
sg25
g34
(g38
S'1\xcdN\x1dr\xab\xb0?'
p75
tp76
Rp77
sg26
g34
(g38
S'\xf2Z\x9e\xf1\xbb\xf2\x95?'
p78
tp79
Rp80
sg28
g34
(g38
S'\xe1>o\x85M&\xb0?'
p81
tp82
Rp83
ssS'paralog'
p84
(lp85
S'YGR043C'
p86
aS'YLR354C'
p87
asS'alignment_file'
p88
S'../MafftAlignment/YGR043C_YLR354C/YGR043C_YLR354C_input.fasta'
p89
sS'x_clock'
p90
NsS'x'
p91
cnumpy.core.multiarray
_reconstruct
p92
(cnumpy
ndarray
p93
(I0
tp94
S'b'
p95
tp96
Rp97
(I1
(I18
tp98
g38
I00
S"+\x92\xa3\x88U\x1e\xe7\xbf\xf9\xdf<\\&\xe4\xe0\xbfPh5\xe9\x026\xe9\xbf\x00!\xb6/\x8b\x98\xf7?\xefj}R\xfc2\xda\xbf\xd6\xbc#\xeb\x8d\x08\xf6\xbfZ\xfb\xf8\xaf\xa5\xbe\xfe\xbf\x9f\xc7\xb5\xc9H\xda\x05\xc0\x08Va\xdfGn\x01\xc0<\t'DQ\x12\xfa\xbf~\xe9\xb3{\xeax\x0c\xc0\x83i-i>\x17\t\xc04`\x12i\x07\xbe\x0e\xc0\x03\x95 T\x1e\xe0\x06\xc0m\xa4\x1fv\xc5\xeb\x0e\xc0\xb1pZ\x043\x1b\x06\xc0\n!QL\x85\xb6\t\xc0,\xaf\x9f\xdd\x82\x9f\x0b\xc0"
p99
tp100
bsS'Model'
p101
S'HKY'
p102
sS'clock'
p103
I00
s.