(dp0
S'Force'
p1
NsS'ExpectedGeneconv'
p2
(dp3
(S'N1'
p4
S'N2'
p5
tp6
F67.30224640841543
s(S'N5'
p7
S'cerevisiae'
p8
tp9
F29.24966820269241
s(g5
S'N3'
p10
tp11
F12.083192845695265
s(S'N4'
p12
g7
tp13
F14.517920045608355
s(g4
S'castellii'
p14
tp15
F161.04074219740187
s(g5
S'bayanus'
p16
tp17
F33.4270990230986
s(S'N0'
p18
g4
tp19
F15.095388736390246
s(g10
S'kudriavzevii'
p20
tp21
F36.71826259210416
s(g7
S'paradoxus'
p22
tp23
F17.921068965350656
s(g18
S'kluyveri'
p24
tp25
F0.0
s(g10
g12
tp26
F19.672786313459746
s(g12
S'mikatae'
p27
tp28
F35.176239686881
ssS'ExpectedDwellTime'
p29
(dp30
g6
F640.0217884321453
sg9
F849.995190854359
sg11
F847.5047646414347
sg13
F857.4256317082936
sg15
F757.8638170532496
sg17
F843.186176444446
sg19
F223.74309167387963
sg21
F873.9673754979739
sg23
F867.4059457952657
sg25
F0.0
sg26
F862.2966931360573
sg28
F861.2839452205882
ssS'newicktree'
p31
S'../PairsAlignemt/YeastTree.newick'
p32
sS'll'
p33
cnumpy.core.multiarray
scalar
p34
(cnumpy
dtype
p35
(S'f8'
p36
I0
I1
tp37
Rp38
(I3
S'<'
p39
NNNI-1
I-1
I0
tp40
bS'\xd8Y\xe6M/\x9c\xc4\xc0'
p41
tp42
Rp43
sS'edge_list'
p44
(lp45
g19
ag25
ag6
ag15
ag11
ag17
ag26
ag21
ag13
ag28
ag9
ag23
asS'edge_to_blen'
p46
(dp47
g19
g34
(g38
S'\xc7\xfd\xef4\x0b\xab\xbb?'
p48
tp49
Rp50
sg9
g34
(g38
S'+l\x9c\x9a\xf8\x8e\xa9?'
p51
tp52
Rp53
sg11
g34
(g38
S'\xd7q\x05\xad\xb2>\x9f?'
p54
tp55
Rp56
sg13
g34
(g38
S'V-\xa4|hi\x9a?'
p57
tp58
Rp59
sg15
g34
(g38
S'X\xf5\x0bSp\x94\xd6?'
p60
tp61
Rp62
sg17
g34
(g38
S'>{2\xdezJ\xb1?'
p63
tp64
Rp65
sg6
g34
(g38
S'g\xda\xf0\\D\xa9\xc7?'
p66
tp67
Rp68
sg21
g34
(g38
S'|\xf2\xe3\x13\xf8\x9e\xb0?'
p69
tp70
Rp71
sg23
g34
(g38
S'z\x9bm\xe9*\xb3\xa2?'
p72
tp73
Rp74
sg28
g34
(g38
S'\x95\x10~M\xf1\xca\xb1?'
p75
tp76
Rp77
sg26
g34
(g38
S'\xad\xd4r\x9a\xa0q\x9f?'
p78
tp79
Rp80
sg25
g34
(g38
S'\x92U\xe5\xe2?r\xca?'
p81
tp82
Rp83
ssS'paralog'
p84
(lp85
S'YPR157W'
p86
aS'YGR141W'
p87
asS'alignment_file'
p88
S'../MafftAlignment/YPR157W_YGR141W/YPR157W_YGR141W_input.fasta'
p89
sS'x_clock'
p90
NsS'x'
p91
cnumpy.core.multiarray
_reconstruct
p92
(cnumpy
ndarray
p93
(I0
tp94
S'b'
p95
tp96
Rp97
(I1
(I18
tp98
g38
I00
S'\xb65\xb7\xe7)\xca\xe6\xbfl\x8f\xa4\x9e\x8b\xeb\xe3\xbf\xd4\xb8g\xff\x16\xf8\xe9\xbf\xae\x0b\x996\xc5A\xf3?XL\x16\xc9~1\xe2\xbf\xb7q\xfe\xceZ\xca\xf0\xbf\xc3Oj6\x96\xcc\x01\xc0G\xe5\xd1\xad\n;\xf9\xbf\xe3\x83qi\xd7\x02\xfb\xbf\xa8o\x84aQ\xab\xf0\xbfU\x82\x8c_\xbb\xea\x0b\xc0\xccb\x1e\x81Y\x8f\x05\xc0t\xb4\t\xb4\xbb\xdd\x0b\xc0C\xf9\x0f\xe4G\xe0\x05\xc0}RM\xb6\xe4B\r\xc0\x1dO\x9c\x8a\xc2T\x05\xc0\x1eA\xd9{\x95\xfa\x07\xc0\x92$\xa5\x8b|z\n\xc0'
p99
tp100
bsS'Model'
p101
S'HKY'
p102
sS'clock'
p103
I00
s.