(dp0
S'Force'
p1
NsS'ExpectedGeneconv'
p2
(dp3
(S'N1'
p4
S'N2'
p5
tp6
(lp7
F12.05907128992812
aF26.308503419308373
as(S'N5'
p8
S'cerevisiae'
p9
tp10
(lp11
F16.47986825971437
aF12.500713117171834
as(g5
S'N3'
p12
tp13
(lp14
F12.243146588943361
aF14.482443748206073
as(S'N4'
p15
g8
tp16
(lp17
F10.82367870102027
aF12.290996068038854
as(g4
S'castellii'
p18
tp19
(lp20
F75.25462159109597
aF72.61749506970169
as(g5
S'bayanus'
p21
tp22
(lp23
F12.932083409587516
aF16.502672549939074
as(S'N0'
p24
g4
tp25
(lp26
F32.02555243840751
aF44.452266874486895
as(g12
S'kudriavzevii'
p27
tp28
(lp29
F25.747058056739867
aF29.973245861392417
as(g8
S'paradoxus'
p30
tp31
(lp32
F13.31469130912727
aF12.302355170775687
as(g24
S'kluyveri'
p33
tp34
(lp35
F0.0
aF0.0
as(g12
g15
tp36
(lp37
F14.797200906676725
aF8.938497944108148
as(g15
S'mikatae'
p38
tp39
(lp40
F30.26930031193183
aF21.757420660158758
assS'ExpectedDwellTime'
p41
(dp42
g6
F366.2024100854807
sg10
F389.9882132605344
sg13
F389.4404499668605
sg16
F399.00957823447567
sg19
F389.90848305607125
sg22
F391.0145482804797
sg25
F206.8847209021239
sg28
F389.8776949938789
sg31
F404.73557673671456
sg34
F0.0
sg36
F399.85165515539654
sg39
F403.48887059766537
ssS'newicktree'
p43
S'../PairsAlignemt/YeastTree.newick'
p44
sS'll'
p45
cnumpy.core.multiarray
scalar
p46
(cnumpy
dtype
p47
(S'f8'
p48
I0
I1
tp49
Rp50
(I3
S'<'
p51
NNNI-1
I-1
I0
tp52
bS'\x1c\xcb\xf6\xa9\xd2\xef\xb9\xc0'
p53
tp54
Rp55
sS'edge_list'
p56
(lp57
g25
ag34
ag6
ag19
ag13
ag22
ag36
ag28
ag16
ag39
ag10
ag31
asS'edge_to_blen'
p58
(dp59
g6
g46
(g50
S'\xbb/s\xf9\xf6\x8c\xa1?'
p60
tp61
Rp62
sg10
g46
(g50
S'+yf\x12\xefH\x97?'
p63
tp64
Rp65
sg13
g46
(g50
S'|\x9f\x89\xb1q\xa3\x98?'
p66
tp67
Rp68
sg16
g46
(g50
S'\x82/*+\x9a\x96\x92?'
p69
tp70
Rp71
sg28
g46
(g50
S'\x8f\xee\xef\xd6A`\xa5?'
p72
tp73
Rp74
sg22
g46
(g50
S'\x9bW\x18\x12!r\x9b?'
p75
tp76
Rp77
sg25
g46
(g50
S'tD\x96%\x80k\xc0?'
p78
tp79
Rp80
sg19
g46
(g50
S'\xaa\x96~\x90\x9c;\xbf?'
p81
tp82
Rp83
sg31
g46
(g50
S'\xd5\x07\xc1~\rv\x96?'
p84
tp85
Rp86
sg34
g46
(g50
S'R\x00\x18\xa8,B\xd7>'
p87
tp88
Rp89
sg36
g46
(g50
S'\x9cCj\xeda\x04\x93?'
p90
tp91
Rp92
sg39
g46
(g50
S'\xf1:\x17\x8f\xeb\xeb\xa5?'
p93
tp94
Rp95
ssS'paralog'
p96
(lp97
S'YDR502C'
p98
aS'YLR180W'
p99
asS'alignment_file'
p100
S'../MafftAlignment/YDR502C_YLR180W/YDR502C_YLR180W_input.fasta'
p101
sS'x_clock'
p102
NsS'x'
p103
cnumpy.core.multiarray
_reconstruct
p104
(cnumpy
ndarray
p105
(I0
tp106
S'b'
p107
tp108
Rp109
(I1
(I19
tp110
g50
I00
S"c\xd1t\xbcG_\xe9\xbf\xa9_r\xa0\xde\xe3\xe3\xbf\xe7M\xa9]H?\xe9\xbf\x11\xf3\xf5\xfe\xe1\xb2\xfc? \x05\x9d9\x1c\x9a\xeb?\xba\x13b\xcfhM\xf4?s!\xaa\x0c\xcb!\xf1\xbf\xa4\xe2\xb9\xa4\xa3m\x00\xc0\x1d\xd8\xcf\xbc\x834(\xc0\x81,|\x1cb\xfc\n\xc0P\xea97d\xd4\x00\xc0\x94\x86i\x0f;\xd1\r\xc0N\x97\xfa\x8d=\xf4\x0c\xc0\xaa\xb1\xe8I\x99\xe3\x0f\xc0,\x15\x1b\xd8\x8fh\t\xc0)\xee\n\x91'\t\x10\xc0\x9b\x9c\xdf\xdd\xf24\t\xc0\x97\xea\x01\x1b\xf3D\x0e\xc0\xda\x99t\xfb\xb6\x8e\x0e\xc0"
p111
tp112
bsS'Model'
p113
S'HKY'
p114
sS'clock'
p115
I00
s.