(dp0
S'Force'
p1
NsS'ExpectedGeneconv'
p2
(dp3
(S'N1'
p4
S'N2'
p5
tp6
(lp7
F26.1306341895629
aF32.827369813861175
as(S'N5'
p8
S'cerevisiae'
p9
tp10
(lp11
F11.633496047327867
aF20.12285533718659
as(g5
S'N3'
p12
tp13
(lp14
F7.923768288757199
aF13.037641868510315
as(S'N4'
p15
g8
tp16
(lp17
F6.288299272178183
aF13.32387710216126
as(g4
S'castellii'
p18
tp19
(lp20
F33.23605961627742
aF61.14785308152828
as(g5
S'bayanus'
p21
tp22
(lp23
F19.90853261527886
aF27.361530178562695
as(S'N0'
p24
g4
tp25
(lp26
F15.091939226056397
aF23.014150364603022
as(g12
S'kudriavzevii'
p27
tp28
(lp29
F19.82939508115422
aF21.046804997862278
as(g8
S'paradoxus'
p30
tp31
(lp32
F9.484156891158369
aF11.552646399349294
as(g24
S'kluyveri'
p33
tp34
(lp35
F0.0
aF0.0
as(g12
g15
tp36
(lp37
F11.00447220436423
aF14.94077621015593
as(g15
S'mikatae'
p38
tp39
(lp40
F13.327362799838959
aF28.33632940340831
assS'ExpectedDwellTime'
p41
(dp42
g6
F385.30896968100774
sg10
F467.8998735335896
sg13
F467.30926287355913
sg16
F477.65270619642973
sg19
F347.3629699154214
sg22
F462.33459276986383
sg25
F174.27178722590742
sg28
F482.05415678834163
sg31
F479.4709805649121
sg34
F0.0
sg36
F473.1336081806283
sg39
F477.9566185765337
ssS'newicktree'
p43
S'../PairsAlignemt/YeastTree.newick'
p44
sS'll'
p45
cnumpy.core.multiarray
scalar
p46
(cnumpy
dtype
p47
(S'f8'
p48
I0
I1
tp49
Rp50
(I3
S'<'
p51
NNNI-1
I-1
I0
tp52
bS'\xae\x92\xe7i\x82\xd0\xb9\xc0'
p53
tp54
Rp55
sS'edge_list'
p56
(lp57
g25
ag34
ag6
ag19
ag13
ag22
ag36
ag28
ag16
ag39
ag10
ag31
asS'edge_to_blen'
p58
(dp59
g6
g46
(g50
S'ae-\x07\xbe\xed\xb8?'
p60
tp61
Rp62
sg10
g46
(g50
S'\xcc\xad1\xbd\xfe!\xa0?'
p63
tp64
Rp65
sg13
g46
(g50
S'\x0b~k!x\x18\x9b?'
p66
tp67
Rp68
sg16
g46
(g50
S'A_\xaf#\xcd[\x98?'
p69
tp70
Rp71
sg28
g46
(g50
S'\xea$\xc9\xf6?\xc6\xa9?'
p72
tp73
Rp74
sg22
g46
(g50
S'\xb4\x12\x8e\xe4$?\xac?'
p75
tp76
Rp77
sg25
g46
(g50
S'\x1fd\x83\x91x[\xbe?'
p78
tp79
Rp80
sg19
g46
(g50
S'\xe8[3\xab\x9e*\xbe?'
p81
tp82
Rp83
sg31
g46
(g50
S'X\xacA\xee\xf0\x06\x9a?'
p84
tp85
Rp86
sg34
g46
(g50
S'wts\xb6\xe4\x95\xa6?'
p87
tp88
Rp89
sg36
g46
(g50
S'g\xdc\xe0}n\xd6\x9f?'
p90
tp91
Rp92
sg39
g46
(g50
S'gl\x92u\xc8Q\xa8?'
p93
tp94
Rp95
ssS'paralog'
p96
(lp97
S'YHR106W'
p98
aS'YDR353W'
p99
asS'alignment_file'
p100
S'../MafftAlignment/YHR106W_YDR353W/YHR106W_YDR353W_input.fasta'
p101
sS'x_clock'
p102
NsS'x'
p103
cnumpy.core.multiarray
_reconstruct
p104
(cnumpy
ndarray
p105
(I0
tp106
S'b'
p107
tp108
Rp109
(I1
(I19
tp110
g50
I00
S'k\xc3\xde\xd7\x0b\x05\xe7\xbf?\xe5\xf3\xac]\\\xe3\xbf\xeei\xde\xf6Xd\xe8\xbf\xceM\xe8\xcf\\\xf3\xf9?\x83\xa8<\xf0GC\xd8?#\xc4\xfc\xc4\x83\x10\xea?\x18yI\xbf\x04~\xd4\xbf \xb3\xa2~\x9f\x0e\x01\xc0\xe5\xf1z\x04\xd7\xf7\x08\xc0\x04a\x00\xd5\x1d\xa2\x02\xc0\xfbT\x05\x8d\x89\x1b\x01\xc0FE\x95\x02\x8b\x0e\r\xc0WO\x07\x96\xc5-\x07\xc0\xd3\x12\r\xe5>\xc4\x0b\xc0AiE\x9bZ\xe9\x07\xc06\xe0\xea<\xa0\xe8\r\xc0\xea\x03gyZ`\x08\xc0\x00\xa8]U\xe6\xa8\x0b\xc0\x92$\xf9\x1b\xf0`\r\xc0'
p111
tp112
bsS'Model'
p113
S'HKY'
p114
sS'clock'
p115
I00
s.