(dp0
S'Force'
p1
NsS'ExpectedGeneconv'
p2
(dp3
(S'N1'
p4
S'N2'
p5
tp6
F18.616048509345333
s(S'N5'
p7
S'cerevisiae'
p8
tp9
F6.734589706804016
s(g5
S'N3'
p10
tp11
F1.4671412448693195
s(S'N4'
p12
g7
tp13
F1.203608879330966
s(g4
S'castellii'
p14
tp15
F17.098128712149123
s(g5
S'bayanus'
p16
tp17
F15.055726414921114
s(S'N0'
p18
g4
tp19
F10.12060189182399
s(g10
S'kudriavzevii'
p20
tp21
F8.60712223569683
s(g7
S'paradoxus'
p22
tp23
F8.914856044757423
s(g18
S'kluyveri'
p24
tp25
F0.0
s(g10
g12
tp26
F6.222414126715116
s(g12
S'mikatae'
p27
tp28
F9.355082502787903
ssS'ExpectedDwellTime'
p29
(dp30
g6
F45.11878137459409
sg9
F52.73961286028611
sg11
F53.90805886657975
sg13
F54.10978386140373
sg15
F40.525464542641146
sg17
F41.29904988023531
sg19
F21.68829797605563
sg21
F63.51464066860099
sg23
F49.238723656183375
sg25
F0.0
sg26
F55.670889842798545
sg28
F56.22329244476824
ssS'newicktree'
p31
S'../PairsAlignemt/YeastTree.newick'
p32
sS'll'
p33
cnumpy.core.multiarray
scalar
p34
(cnumpy
dtype
p35
(S'f8'
p36
I0
I1
tp37
Rp38
(I3
S'<'
p39
NNNI-1
I-1
I0
tp40
bS'iFtI\x99\xa5\x94\xc0'
p41
tp42
Rp43
sS'edge_list'
p44
(lp45
g19
ag25
ag6
ag15
ag11
ag17
ag26
ag21
ag13
ag28
ag9
ag23
asS'edge_to_blen'
p46
(dp47
g6
g34
(g38
S'\xb1\xdd8\x01\x0c\x8c\xa0?'
p48
tp49
Rp50
sg9
g34
(g38
S'\xea\x84\xa7\x90"g\x80?'
p51
tp52
Rp53
sg11
g34
(g38
S'7n|\xa9\xf0\x88t?'
p54
tp55
Rp56
sg13
g34
(g38
S'\x10\x08\x08>\x1d\xac\\?'
p57
tp58
Rp59
sg21
g34
(g38
S'\xbe\r\xea\xa1x\n\x8f?'
p60
tp61
Rp62
sg17
g34
(g38
S'\xc0\xe1\xect\x8az\x92?'
p63
tp64
Rp65
sg19
g34
(g38
S'TYt\n\xe5\xd3\xa2?'
p66
tp67
Rp68
sg15
g34
(g38
S'\xe8\x92\xa82\xee&\x9e?'
p69
tp70
Rp71
sg23
g34
(g38
S'\xe9\xc1\xdd\xdf#a\x85?'
p72
tp73
Rp74
sg25
g34
(g38
S'v\x00P\xaa\xa4\xe6\xbc>'
p75
tp76
Rp77
sg26
g34
(g38
S'p\xb4\xf6M\x91\x1c}?'
p78
tp79
Rp80
sg28
g34
(g38
S'\xf8f\xe9\xbe\x9e/\x8e?'
p81
tp82
Rp83
ssS'paralog'
p84
(lp85
S'YMR143W'
p86
aS'YDL083C'
p87
asS'alignment_file'
p88
S'../MafftAlignment/YMR143W_YDL083C/YMR143W_YDL083C_input.fasta'
p89
sS'x_clock'
p90
NsS'x'
p91
cnumpy.core.multiarray
_reconstruct
p92
(cnumpy
ndarray
p93
(I0
tp94
S'b'
p95
tp96
Rp97
(I1
(I18
tp98
g38
I00
S'"\x1e{s\x03h\xe8\xbf\xce\xac\x0b\xed\xabs\xe0\xbf\xed95^\xe1\xc9\xea\xbf+\x8e\xae\rIK\x08@\xe9?\x01\xad\x8f\x80\x04@\xe2\xed\xaf\x91\xdc\x17\xe6\xbf\xe5L\xb8}\x88l\n\xc03bP\xbd\x16\x8b*\xc0\x02\t\x06c\xf9t\x0b\xc0\xdb\x91\xe0\x93\xa53\x0c\xc0\xff\xf6\\\x0b\xbc.\x15\xc0M\\\x01\x006\x0f\x10\xc0\x13E\xd5LY\xc9\x13\xc0\x8a%UQ\xdb\xc1\x10\xc0;\x11\xf7\xbd{d\x19\xc0\x01w\x078t\xde\x10\xc0\xb9e\x1c\xb6\x03O\x13\xc0\x0e\xa8\xa7`\xae?\x12\xc0'
p99
tp100
bsS'Model'
p101
S'HKY'
p102
sS'clock'
p103
I00
s.