(dp0
S'Force'
p1
NsS'ExpectedGeneconv'
p2
(dp3
(S'N1'
p4
S'N2'
p5
tp6
F34.5996733959011
s(S'N5'
p7
S'cerevisiae'
p8
tp9
F10.730215693749669
s(g5
S'N3'
p10
tp11
F7.1371658138619605
s(S'N4'
p12
g7
tp13
F8.475105906482195
s(g4
S'castellii'
p14
tp15
F43.44534874084653
s(g5
S'bayanus'
p16
tp17
F10.34697596045652
s(S'N0'
p18
g4
tp19
F1.101355969926632
s(g10
S'kudriavzevii'
p20
tp21
F14.311615862418796
s(g7
S'paradoxus'
p22
tp23
F7.359198637246303
s(g18
S'kluyveri'
p24
tp25
F0.0
s(g10
g12
tp26
F6.953962372593371
s(g12
S'mikatae'
p27
tp28
F16.936867010772538
ssS'ExpectedDwellTime'
p29
(dp30
g6
F498.39989162571237
sg9
F751.9042153679972
sg11
F733.7503254910388
sg13
F751.2552372728576
sg15
F542.4414310911438
sg17
F746.9089562757989
sg19
F90.21893059540906
sg21
F753.8784034662783
sg23
F749.229010850423
sg25
F0.0
sg26
F749.3479852293325
sg28
F760.4739538500982
ssS'newicktree'
p31
S'../PairsAlignemt/YeastTree.newick'
p32
sS'll'
p33
cnumpy.core.multiarray
scalar
p34
(cnumpy
dtype
p35
(S'f8'
p36
I0
I1
tp37
Rp38
(I3
S'<'
p39
NNNI-1
I-1
I0
tp40
bS'Ok{\xf5\x0cD\xbf\xc0'
p41
tp42
Rp43
sS'edge_list'
p44
(lp45
g19
ag25
ag6
ag15
ag11
ag17
ag26
ag21
ag13
ag28
ag9
ag23
asS'edge_to_blen'
p46
(dp47
g19
g34
(g38
S'\x10\xca\xf5\x02\x83\xdd\xae?'
p48
tp49
Rp50
sg9
g34
(g38
S'\xdc\xb6@\xaaJh\xb2?'
p51
tp52
Rp53
sg11
g34
(g38
S'\x13s\xae\xfd\x12\x9d\xa8?'
p54
tp55
Rp56
sg13
g34
(g38
S'\xfa|\xd9\xc1m\xe0\xa5?'
p57
tp58
Rp59
sg15
g34
(g38
S'\xcc\x83\xdb\n\xeb\xd8\xda?'
p60
tp61
Rp62
sg17
g34
(g38
S'\xb5\xff\xe1C\x01k\xb2?'
p63
tp64
Rp65
sg6
g34
(g38
S'`~\xf2X\x83\xa6\xd6?'
p66
tp67
Rp68
sg21
g34
(g38
S'^l\xa4D\x85\r\xb5?'
p69
tp70
Rp71
sg23
g34
(g38
S'4-\xda\xe9xA\xa9?'
p72
tp73
Rp74
sg28
g34
(g38
S'\xcbm.\xfd\x96\xc9\xb9?'
p75
tp76
Rp77
sg26
g34
(g38
S'8\x88\x8e?\xb4\xff\xa8?'
p78
tp79
Rp80
sg25
g34
(g38
S'K\x13\x11IZ\xa6\xda?'
p81
tp82
Rp83
ssS'paralog'
p84
(lp85
S'YLR284C'
p86
aS'YOR180C'
p87
asS'alignment_file'
p88
S'../MafftAlignment/YLR284C_YOR180C/YLR284C_YOR180C_input.fasta'
p89
sS'x_clock'
p90
NsS'x'
p91
cnumpy.core.multiarray
_reconstruct
p92
(cnumpy
ndarray
p93
(I0
tp94
S'b'
p95
tp96
Rp97
(I1
(I18
tp98
g38
I00
S'Y\x08\xe9Z\x80\x8e\xe5\xbf\x93\xd6\x1d\xd1\xe5\xa8\xe1\xbfVc\x045\x0c\xb6\xec\xbf\'\xb0\xb3&\x84\x11\xf4?X\xb6Y\x11\x95\xa9\xf9\xbf}91\x13\xad8\xd6?\xa0I\x14\xdf3x\x06\xc0\xd0\xc0\x9c\xb0\x04\t\xec\xbfr\xa6\x83\xcd\x87\x9e\xf0\xbf\xd7?nz\x86\xcc\xeb\xbf\xa1\x9b\x94\x0f\xbcG\x08\xc0\xc2`\xe3/\x07\x0e\x05\xc0>"\x7f\x03\xed\'\x08\xc0.\x98:}2\xfc\x03\xc0\xb3\xb0\x83\x8a%9\t\xc0\xc1\xa2\x96\x89\xc0\\\x02\xc0w\'\xa0\xfa4\x0f\x05\xc0S\xffh\x87\xfc\x12\x08\xc0'
p99
tp100
bsS'Model'
p101
S'HKY'
p102
sS'clock'
p103
I00
s.