(dp0
S'Force'
p1
NsS'ExpectedGeneconv'
p2
(dp3
(S'N1'
p4
S'N2'
p5
tp6
F212.09902744997953
s(S'N5'
p7
S'cerevisiae'
p8
tp9
F35.19843013247908
s(g5
S'N3'
p10
tp11
F31.000361836756127
s(S'N4'
p12
g7
tp13
F27.76378892702806
s(g4
S'castellii'
p14
tp15
F331.3808735212068
s(g5
S'bayanus'
p16
tp17
F49.99417506511281
s(S'N0'
p18
g4
tp19
F32.94612527408553
s(g10
S'kudriavzevii'
p20
tp21
F44.77090316963073
s(g7
S'paradoxus'
p22
tp23
F29.22729395104233
s(g18
S'kluyveri'
p24
tp25
F0.0
s(g10
g12
tp26
F19.315700459184306
s(g12
S'mikatae'
p27
tp28
F52.04491460349496
ssS'ExpectedDwellTime'
p29
(dp30
g6
F1771.1354025637406
sg9
F2282.72668509311
sg11
F2233.233309100198
sg13
F2284.532404353128
sg15
F1896.466278842893
sg17
F2242.86141830311
sg19
F606.1145743933854
sg21
F2251.712786894419
sg23
F2277.2697007244155
sg25
F0.0
sg26
F2267.3589017678732
sg28
F2304.639097043382
ssS'newicktree'
p31
S'../PairsAlignemt/YeastTree.newick'
p32
sS'll'
p33
cnumpy.core.multiarray
scalar
p34
(cnumpy
dtype
p35
(S'f8'
p36
I0
I1
tp37
Rp38
(I3
S'<'
p39
NNNI-1
I-1
I0
tp40
bS'F\xd1]\xec) \xd7\xc0'
p41
tp42
Rp43
sS'edge_list'
p44
(lp45
g19
ag25
ag6
ag15
ag11
ag17
ag26
ag21
ag13
ag28
ag9
ag23
asS'edge_to_blen'
p46
(dp47
g19
g34
(g38
S'\x9ed+\xf1wl\xc2?'
p48
tp49
Rp50
sg9
g34
(g38
S'\x81PIr\x89\xe8\xaa?'
p51
tp52
Rp53
sg11
g34
(g38
S'j\xec0\xcdH\xad\xa5?'
p54
tp55
Rp56
sg13
g34
(g38
S'\xce\xe9\xfe\xaa3\x9b\xa1?'
p57
tp58
Rp59
sg15
g34
(g38
S'\x06\xbb\x93\xb5\x99\x87\xdd?'
p60
tp61
Rp62
sg17
g34
(g38
S'\x02b\xfd\x10DK\xb3?'
p63
tp64
Rp65
sg6
g34
(g38
S'\x1c\xc7\x12\xcb#q\xd5?'
p66
tp67
Rp68
sg21
g34
(g38
S'ifLm\xbd\xc1\xb0?'
p69
tp70
Rp71
sg23
g34
(g38
S'\xa7h\xec\xdaG\x02\xa4?'
p72
tp73
Rp74
sg25
g34
(g38
S'\xae\x83\xf3P\x1f\x8e\xd4?'
p75
tp76
Rp77
sg26
g34
(g38
S'\xf5\x07\x16\x80x\xd4\x9f?'
p78
tp79
Rp80
sg28
g34
(g38
S'M\xe8\x81\xc5\x87\xd3\xb4?'
p81
tp82
Rp83
ssS'paralog'
p84
(lp85
S'YIR033W'
p86
aS'YKL020C'
p87
asS'alignment_file'
p88
S'../MafftAlignment/YIR033W_YKL020C/YIR033W_YKL020C_input.fasta'
p89
sS'x_clock'
p90
NsS'x'
p91
cnumpy.core.multiarray
_reconstruct
p92
(cnumpy
ndarray
p93
(I0
tp94
S'b'
p95
tp96
Rp97
(I1
(I18
tp98
g38
I00
S'z\xe3\x0b\xc4OU\xe6\xbfF\x0cF\xe5rl\xe0\xbf\x07\t\x0f\xdeO\xc6\xe8\xbf\xce\xfd\x16M\x1e%\xf4?Vb\x83\x18n\x19\x05\xc0\xa6\x11\x83u\xbf>)\xc0*,Wp\xa7\x03\xff\xbf\x033\xae\x05\x1e,\xf2\xbf7\x08\x02.\x1d\x7f\xf1\xbf\xb5\x03\xc0\xa0g\xc0\xe8\xbf\xd8\xf6\x9cs\xefK\t\xc0\x9b4X:\xdd\xae\x04\xc0H)=\x0c\xbd\xc4\x0b\xc0|2l\xe8\x9c\xcf\x05\xc0\xa3Ojf\xe7\xf5\n\xc05\x860LZ\x12\x04\xc0\xbc^\xf1\xc4-\x91\x07\xc0k\x03\xca\xc4\xea\xef\t\xc0'
p99
tp100
bsS'Model'
p101
S'HKY'
p102
sS'clock'
p103
I00
s.