(dp0
S'Force'
p1
NsS'ExpectedGeneconv'
p2
(dp3
(S'N1'
p4
S'N2'
p5
tp6
(lp7
F7.89061156372265
aF2.3097977771012403
as(S'N5'
p8
S'cerevisiae'
p9
tp10
(lp11
F8.427167541806188
aF2.865071450893554
as(g5
S'N3'
p12
tp13
(lp14
F9.643328248864363e-06
aF4.583744426379283e-06
as(S'N4'
p15
g8
tp16
(lp17
F1.6903773830284352
aF0.2554983024460164
as(g4
S'castellii'
p18
tp19
(lp20
F22.29497008889886
aF7.059547065671312
as(g5
S'bayanus'
p21
tp22
(lp23
F9.212722314714526
aF2.5712402359099817
as(S'N0'
p24
g4
tp25
(lp26
F4.8821458001046454e-08
aF1.448553852236549e-08
as(g12
S'kudriavzevii'
p27
tp28
(lp29
F8.990345318702772
aF2.0207392579686303
as(g8
S'paradoxus'
p30
tp31
(lp32
F3.430658361367973
aF0.5266916767311116
as(g24
S'kluyveri'
p33
tp34
(lp35
F0.0
aF0.0
as(g12
g15
tp36
(lp37
F2.982569539848564e-06
aF2.6907915680196564e-07
as(g15
S'mikatae'
p38
tp39
(lp40
F10.68217586875607
aF4.107673647633025
assS'ExpectedDwellTime'
p41
(dp42
g6
F15.482638345577156
sg10
F23.591792809990768
sg13
F23.81457642967535
sg16
F23.198267730342646
sg19
F26.15329598519341
sg22
F21.609510055124858
sg25
F0.0014846896796107765
sg28
F37.32762175180023
sg31
F19.087367401246436
sg34
F0.0
sg36
F23.81457578254306
sg39
F24.265562321467215
ssS'newicktree'
p43
S'../PairsAlignemt/YeastTree.newick'
p44
sS'll'
p45
cnumpy.core.multiarray
scalar
p46
(cnumpy
dtype
p47
(S'f8'
p48
I0
I1
tp49
Rp50
(I3
S'<'
p51
NNNI-1
I-1
I0
tp52
bS'$\x1f:\x81\x82~\x93\xc0'
p53
tp54
Rp55
sS'edge_list'
p56
(lp57
g25
ag34
ag6
ag19
ag13
ag22
ag36
ag28
ag16
ag39
ag10
ag31
asS'edge_to_blen'
p58
(dp59
g25
g46
(g50
S'\x94\x87\xde\xa1`u\xd9>'
p60
tp61
Rp62
sg10
g46
(g50
S'\xfc\x0fK\xfa\x04\xf5\xac?'
p63
tp64
Rp65
sg13
g46
(g50
S'9^\x12\xc5A\x02}>'
p66
tp67
Rp68
sg16
g46
(g50
S'\x1b\xf3\xe7\x8a\xbd\x9b~?'
p69
tp70
Rp71
sg28
g46
(g50
S'Y\nOG\xe3\xc8\xb1?'
p72
tp73
Rp74
sg22
g46
(g50
S'\x94\n\xbd\x98\x9a\xe4\xa7?'
p75
tp76
Rp77
sg6
g46
(g50
S'f\xc4\xd4\x92\xfc\xd0\xb7?'
p78
tp79
Rp80
sg19
g46
(g50
S'\x89\x89\xd3\x1f\x89\x8d\xca?'
p81
tp82
Rp83
sg31
g46
(g50
S'\\%\xf2j\xe12\x8a?'
p84
tp85
Rp86
sg39
g46
(g50
S'L\x08\x86I \x17\xaf?'
p87
tp88
Rp89
sg36
g46
(g50
S'\xdf\xb0\x08\xb8\x13\x94U>'
p90
tp91
Rp92
sg34
g46
(g50
S'<\x1dJ\x15\xb6\x0e\xcb?'
p93
tp94
Rp95
ssS'paralog'
p96
(lp97
S'YER074W'
p98
aS'YIL069C'
p99
asS'alignment_file'
p100
S'../MafftAlignment/YER074W_YIL069C/YER074W_YIL069C_input.fasta'
p101
sS'x_clock'
p102
NsS'x'
p103
cnumpy.core.multiarray
_reconstruct
p104
(cnumpy
ndarray
p105
(I0
tp106
S'b'
p107
tp108
Rp109
(I1
(I20
tp110
g50
I00
S'\xe5g\xa8xI\xd3\xe5\xbf\x8d\xd8\\ef\x80\xe0\xbf\x95\xbe\xa0M\x8e\x8b\xea\xbf\x00\xf7\x1b\x85\xba\x93\x01@\xdc\x934\xf5\xc3\x0e\x00\xc0\x88\xf0\xf3\xb5\r\x96\x03@\x96\xe4\x04;\xfd\x99\xf1?\x10\x9f\xc99\x97$\xe3\xbf\xe9\x8a\xcf\x83=\x06(\xc0\xb5-\xc4\xaau\xdd\xf8\xbfE\xe2\xf2\xbd\x99\xff\x02\xc0\xa8\x8f\xb5\x1a\x91*\xf9\xbf\xbe\x8a\x17\x9a_\n0\xc0\x00\x1a\x80H\x96\x84\x08\xc0\x17*\x15E\x04\xb91\xc0\x02\xe8G\x1b\xafU\x05\xc0\xc7\xe6>@\x02\x96\x13\xc0P\x1f\xff\xdcRi\x06\xc0.p.\xf9\xe5\xfa\x06\xc0\x13\x12\xe4^\x85o\x11\xc0'
p111
tp112
bsS'Model'
p113
S'MG94'
p114
sS'clock'
p115
I00
s.