(dp0
S'Force'
p1
NsS'ExpectedGeneconv'
p2
(dp3
(S'N1'
p4
S'N2'
p5
tp6
F14.86032647042431
s(S'N5'
p7
S'cerevisiae'
p8
tp9
F3.524188425439993
s(g5
S'N3'
p10
tp11
F3.133361924669537
s(S'N4'
p12
g7
tp13
F2.3499352938517566
s(g4
S'castellii'
p14
tp15
F12.174584431647727
s(g5
S'bayanus'
p16
tp17
F4.500938362330682
s(S'N0'
p18
g4
tp19
F6.079499246974909e-08
s(g10
S'kudriavzevii'
p20
tp21
F4.221628271881442
s(g7
S'paradoxus'
p22
tp23
F5.876228200550508
s(g18
S'kluyveri'
p24
tp25
F0.0
s(g10
g12
tp26
F3.2417425413742342
s(g12
S'mikatae'
p27
tp28
F6.7202588209640854
ssS'ExpectedDwellTime'
p29
(dp30
g6
F43.198042134327515
sg9
F80.19386046448595
sg11
F74.95643328192608
sg13
F78.74913384276239
sg15
F46.90979865724441
sg17
F66.95157515795376
sg19
F0.0038173230978337538
sg21
F93.68153452992783
sg23
F76.67807873011195
sg25
F0.0
sg26
F80.51515197154167
sg28
F82.83666778010857
ssS'newicktree'
p31
S'../PairsAlignemt/YeastTree.newick'
p32
sS'll'
p33
cnumpy.core.multiarray
scalar
p34
(cnumpy
dtype
p35
(S'f8'
p36
I0
I1
tp37
Rp38
(I3
S'<'
p39
NNNI-1
I-1
I0
tp40
bS'\xa65h\xc6\xf2\xb3\x9c\xc0'
p41
tp42
Rp43
sS'edge_list'
p44
(lp45
g19
ag25
ag6
ag15
ag11
ag17
ag26
ag21
ag13
ag28
ag9
ag23
asS'edge_to_blen'
p46
(dp47
g19
g34
(g38
S'\xad\x97\x07&\xdb^\xe6>'
p48
tp49
Rp50
sg9
g34
(g38
S'\x04\x11\xf1\xce\xa0\x1a\x9b?'
p51
tp52
Rp53
sg11
g34
(g38
S'}a\xa6\x8d\xb7\xd7\x9f?'
p54
tp55
Rp56
sg13
g34
(g38
S'T\x91\xcb\x1bKr\x82?'
p57
tp58
Rp59
sg15
g34
(g38
S"\xccq57\xfe'\xc7?"
p60
tp61
Rp62
sg17
g34
(g38
S'\xb5\xffX\x9ch\x99\x9b?'
p63
tp64
Rp65
sg6
g34
(g38
S'w\x92\xe6_\x1b.\xc7?'
p66
tp67
Rp68
sg21
g34
(g38
S'?X\xd6\\\xe0\xd1\xab?'
p69
tp70
Rp71
sg23
g34
(g38
S'\xc1\xf7N\xc8,\x85\xa3?'
p72
tp73
Rp74
sg28
g34
(g38
S'\xe4D\x8b\xcfP\xc4\xa5?'
p75
tp76
Rp77
sg26
g34
(g38
S'8\xe4\xbdtc\x85\x94?'
p78
tp79
Rp80
sg25
g34
(g38
S'\x13y\xe4\xb6J\x84\xcc?'
p81
tp82
Rp83
ssS'paralog'
p84
(lp85
S'YJL177W'
p86
aS'YKL180W'
p87
asS'alignment_file'
p88
S'../MafftAlignment/YJL177W_YKL180W/YJL177W_YKL180W_input.fasta'
p89
sS'x_clock'
p90
NsS'x'
p91
cnumpy.core.multiarray
_reconstruct
p92
(cnumpy
ndarray
p93
(I0
tp94
S'b'
p95
tp96
Rp97
(I1
(I19
tp98
g38
I00
S'\xc8?Zq\xc3\x04\xe7\xbf\xbb\xf2\x89\xee\xcc\x1d\xdd\xbf.\x19\xe5j\x18\xf6\xe9\xbfoT\x99\xe05\x92\xfd?\x91\x0fI\xf8\xb0\xd1\x02\xc0gh\x06\xa9\xe2g\xe2?\x08\x03\x15\xe9\xf5\xf5\xc6\xbf\xd0\xfb\x14\xa4\x8d\xe5&\xc0\x1b9(\xd1L\x06\xf8\xbfSQ#q\xfbV\xfb\xbf\x10\x8ccX4[\xfb\xbf\xc8L^7\xec\xc3\x0b\xc0Ft\xb3\xb1\xd2\xe8\x0c\xc0\xa4\xb4O\xeb\xb8G\x0f\xc0*\x0f\x0cj\xf4L\x07\xc0\x8c*\xd4\xce\xc7\xd6\x12\xc0\xfe\xecX\xfesC\t\xc0\xe7\x8bT\xdb\xe7\r\r\xc0,j\xda\xdc\x8e"\n\xc0'
p99
tp100
bsS'Model'
p101
S'MG94'
p102
sS'clock'
p103
I00
s.