(dp0
S'Force'
p1
NsS'ExpectedGeneconv'
p2
(dp3
(S'N1'
p4
S'N2'
p5
tp6
(lp7
F109.82430218375605
aF107.43234958590665
as(S'N5'
p8
S'cerevisiae'
p9
tp10
(lp11
F13.902011547623461
aF6.693706682898821
as(g5
S'N3'
p12
tp13
(lp14
F12.727994665444161
aF13.12479110841457
as(S'N4'
p15
g8
tp16
(lp17
F6.463810116096005
aF5.386338703765061
as(g4
S'castellii'
p18
tp19
(lp20
F174.44558691946136
aF171.41585465224003
as(g5
S'bayanus'
p21
tp22
(lp23
F22.844492248727857
aF24.738678607005983
as(S'N0'
p24
g4
tp25
(lp26
F3.647522570740682
aF3.5091613101336354
as(g12
S'kudriavzevii'
p27
tp28
(lp29
F18.842130006664014
aF17.84563569835402
as(g8
S'paradoxus'
p30
tp31
(lp32
F9.619009281956453
aF7.759371859665999
as(g24
S'kluyveri'
p33
tp34
(lp35
F0.0
aF0.0
as(g12
g15
tp36
(lp37
F7.811345798755701
aF5.858780363603815
as(g15
S'mikatae'
p38
tp39
(lp40
F22.32568002260002
aF23.01306685001515
assS'ExpectedDwellTime'
p41
(dp42
g6
F651.5818971576127
sg10
F848.8771146895768
sg13
F803.9630019085749
sg16
F837.0140528067128
sg19
F692.1565132644889
sg22
F794.3237372893719
sg25
F153.3876071087935
sg28
F832.3844101605141
sg31
F832.2687405149926
sg34
F0.0
sg36
F827.8846675909721
sg39
F836.7774453988617
ssS'newicktree'
p43
S'../PairsAlignemt/YeastTree.newick'
p44
sS'll'
p45
cnumpy.core.multiarray
scalar
p46
(cnumpy
dtype
p47
(S'f8'
p48
I0
I1
tp49
Rp50
(I3
S'<'
p51
NNNI-1
I-1
I0
tp52
bS'\x9b\xe6\x14\xb1^\xc4\xcb\xc0'
p53
tp54
Rp55
sS'edge_list'
p56
(lp57
g25
ag34
ag6
ag19
ag13
ag22
ag36
ag28
ag16
ag39
ag10
ag31
asS'edge_to_blen'
p58
(dp59
g6
g46
(g50
S'\xa0\xaa\xb1\xc9\x9e\xa8\xf4?'
p60
tp61
Rp62
sg10
g46
(g50
S'\x00\xea\x181\xaf{\xc4?'
p63
tp64
Rp65
sg13
g46
(g50
S'\xcf\xa6\xcf\xfe\xef\x9f\xc4?'
p66
tp67
Rp68
sg16
g46
(g50
S'\x9e\x04\xf1\x0c\xbaO\xb4?'
p69
tp70
Rp71
sg28
g46
(g50
S'\xe2\x86\x81.@*\xd0?'
p72
tp73
Rp74
sg22
g46
(g50
S'\xf4\x85\xb6i~\xc5\xd1?'
p75
tp76
Rp77
sg25
g46
(g50
S'\xc3\x0ej\x8f\xa0\xd6\xc1?'
p78
tp79
Rp80
sg19
g46
(g50
S'-\xd6k\x7f\xbd\xf6\xfe?'
p81
tp82
Rp83
sg31
g46
(g50
S'\x98\x91+\xf2\xb1&\xbd?'
p84
tp85
Rp86
sg39
g46
(g50
S'\xad9/$\x00\xf5\xd1?'
p87
tp88
Rp89
sg36
g46
(g50
S'\xd3p\xe3P\x81\xb9\xb7?'
p90
tp91
Rp92
sg34
g46
(g50
S'\x89\xd4\n\xca\x90`\x00@'
p93
tp94
Rp95
ssS'paralog'
p96
(lp97
S'YPR159W'
p98
aS'YGR143W'
p99
asS'alignment_file'
p100
S'../MafftAlignment/YPR159W_YGR143W/YPR159W_YGR143W_input.fasta'
p101
sS'x_clock'
p102
NsS'x'
p103
cnumpy.core.multiarray
_reconstruct
p104
(cnumpy
ndarray
p105
(I0
tp106
S'b'
p107
tp108
Rp109
(I1
(I20
tp110
g50
I00
S'\x93\x11\x01\x08b\xb2\xe6\xbf\xa4\xbd\xb2\x02d5\xe0\xbf\x1dGa\xd5\xaf\xbe\xed\xbf\x97A\x01\xecE(\xf1?\\nE;r8\x05\xc0\xd7\xed%*\xaf\\\x0c\xc02\x01\xe6\xdb\r\xf2\x0c\xc0\x15\x97\x0e\xda\xb1\x01@\xc0z]q)\xe5\x87\xff\xbf!V\xbd\xc4&\xed\xe6?\xbc\xa5\x08\xba\xdfZ\xd0?\xc8\xd3F\xc0\x9c \xe5?d\xd4\xbb\x83g5\xfd\xbf\xd7v\xb9.)\x80\xf4\xbf\x01\xe8\xf6\xd7\x80\x07\x03\xc0\xf1\x83\xff7:\x04\xf6\xbf\xf4M\x9ff\x9eE\x04\xc0\x97\xb6Z\x82\x9cU\xf4\xbf\x17\n\xae\x15\xa0Q\xfd\xbf\xde\xe99\x9e\xa7a\x01\xc0'
p111
tp112
bsS'Model'
p113
S'MG94'
p114
sS'clock'
p115
I00
s.