(dp0
S'Force'
p1
NsS'ExpectedGeneconv'
p2
(dp3
(S'N1'
p4
S'N2'
p5
tp6
(lp7
F0.0
aF12.619498121619353
as(S'N5'
p8
S'cerevisiae'
p9
tp10
(lp11
F6.04223933802188e-42
aF0.043961724377008196
as(g5
S'N3'
p12
tp13
(lp14
F1.1351658850218782e-27
aF0.3654885024034882
as(S'N4'
p15
g8
tp16
(lp17
F9.333218859487925e-32
aF0.060137957930749164
as(g4
S'castellii'
p18
tp19
(lp20
F0.0
aF12.980413523000356
as(g5
S'bayanus'
p21
tp22
(lp23
F4.391297903607995e-42
aF0.41419814646616654
as(S'N0'
p24
g4
tp25
(lp26
F0.0
aF3.4606273897178164
as(g12
S'kudriavzevii'
p27
tp28
(lp29
F1.1095042142121685e-39
aF0.09697058606241592
as(g8
S'paradoxus'
p30
tp31
(lp32
F2.935548414229309e-36
aF0.02489383087657958
as(g24
S'kluyveri'
p33
tp34
(lp35
F0.0
aF0.0
as(g12
g15
tp36
(lp37
F1.1065147311968216e-30
aF0.04133334365493585
as(g15
S'mikatae'
p38
tp39
(lp40
F3.001619582360713e-43
aF0.0662488853263243
assS'ExpectedDwellTime'
p41
(dp42
g6
F514.6356356849919
sg10
F559.7208627141604
sg13
F540.1629810585805
sg16
F549.4818858760021
sg19
F496.6814460798843
sg22
F540.4919377538967
sg25
F346.17858185269904
sg28
F545.3055149273102
sg31
F556.0841206537386
sg34
F0.0
sg36
F543.723940625296
sg39
F542.7557288929164
ssS'newicktree'
p43
S'../PairsAlignemt/YeastTree.newick'
p44
sS'll'
p45
cnumpy.core.multiarray
scalar
p46
(cnumpy
dtype
p47
(S'f8'
p48
I0
I1
tp49
Rp50
(I3
S'<'
p51
NNNI-1
I-1
I0
tp52
bS'\xa9j\xe81\xbek\xc0\xc0'
p53
tp54
Rp55
sS'edge_list'
p56
(lp57
g25
ag34
ag6
ag19
ag13
ag22
ag36
ag28
ag16
ag39
ag10
ag31
asS'edge_to_blen'
p58
(dp59
g25
g46
(g50
S',\xd8\xd4\x84\xa0\xd1\xf5?'
p60
tp61
Rp62
sg10
g46
(g50
S'\xf5\xfb\x9f\xd2\xc8\x1a\xcd?'
p63
tp64
Rp65
sg13
g46
(g50
S'\xef\xd6\x0b\xbb\xdaB\xc0?'
p66
tp67
Rp68
sg16
g46
(g50
S'\xfb)7\xb1\xe7g\xbe?'
p69
tp70
Rp71
sg28
g46
(g50
S'\xf2\xc3\xe5S\xc5\x80\xcd?'
p72
tp73
Rp74
sg22
g46
(g50
S'\xc2\t\xf8o{\x83\xd7?'
p75
tp76
Rp77
sg6
g46
(g50
S'*8\xd5\xed\xda1\x01@'
p78
tp79
Rp80
sg19
g46
(g50
S'\x9c\x97\xd4\xd3G\x18\xfc?'
p81
tp82
Rp83
sg31
g46
(g50
S'\xe6\x87\x18\xba\x82\xa1\xbf?'
p84
tp85
Rp86
sg39
g46
(g50
S'\xd9\x87\xb0\xe1z\xf4\xcf?'
p87
tp88
Rp89
sg36
g46
(g50
S'\xb7\xb7\x8d\x04;"\xc2?'
p90
tp91
Rp92
sg34
g46
(g50
S'Q\x8b\xa0\xca\x13\xf8\xec?'
p93
tp94
Rp95
ssS'paralog'
p96
(lp97
S'YDR438W'
p98
aS'YML018C'
p99
asS'alignment_file'
p100
S'../MafftAlignment/YDR438W_YML018C/YDR438W_YML018C_input.fasta'
p101
sS'x_clock'
p102
NsS'x'
p103
cnumpy.core.multiarray
_reconstruct
p104
(cnumpy
ndarray
p105
(I0
tp106
S'b'
p107
tp108
Rp109
(I1
(I20
tp110
g50
I00
S'\xb1R\x17s\xfb\xd3\xe6\xbfi\xc9_\xf8"Q\xe3\xbf\xc2\x9ec\xf4\xdfx\xed\xbfh\xb3B\x98\x8a\xaa\xf0?\xf1\xcd\xba\xb5\x00(\x02\xc0\x7f\xd11?TgK\xc0\'\xe8\xeeR \x16\x11\xc0\x1ey\xdf\x19\x9f7C\xc0\x8e\x02\x91\x93\x15\xda\xd3?B}2\x1cXy\xb9\xbf2\xa3j\xd05|\xe8?\xc3b\xd1*\x13\x04\xe2?\xd0\xbf\x93\xf7\x89\x81\x00\xc0\xd8\xa5\x99ZW\x05\xf0\xbf\xfdt6x\xa3D\xff\xbf\xfe=\xbe\x0f\t{\xf7\xbf\xa0\x86\xa5RY\x0b\x01\xc0Ua\xcd\x97\x064\xf6\xbfB\xb4\x8b\xa0\xb8\xb2\xf7\xbf+\x1e3\xb6t\xba\x00\xc0'
p111
tp112
bsS'Model'
p113
S'MG94'
p114
sS'clock'
p115
I00
s.