(dp0
S'Force'
p1
NsS'ExpectedGeneconv'
p2
(dp3
(S'N1'
p4
S'N2'
p5
tp6
F16.20679824227331
s(S'N5'
p7
S'cerevisiae'
p8
tp9
F9.023613711604852
s(g5
S'N3'
p10
tp11
F3.1258735112208926
s(S'N4'
p12
g7
tp13
F3.8161736439715708
s(g4
S'castellii'
p14
tp15
F10.014636617244488
s(g5
S'bayanus'
p16
tp17
F2.986702171659672
s(S'N0'
p18
g4
tp19
F0.13855657922010894
s(g10
S'kudriavzevii'
p20
tp21
F9.010515920423595
s(g7
S'paradoxus'
p22
tp23
F2.301389296187324
s(g18
S'kluyveri'
p24
tp25
F0.0
s(g10
g12
tp26
F3.5287678777924802
s(g12
S'mikatae'
p27
tp28
F5.839518128642207
ssS'ExpectedDwellTime'
p29
(dp30
g6
F53.13539163109176
sg9
F80.82679718947082
sg11
F80.2289868345723
sg13
F83.92267016570715
sg15
F51.5447023295458
sg17
F81.44908553750595
sg19
F6.2401330582405
sg21
F87.94192994505917
sg23
F84.2790700142872
sg25
F0.0
sg26
F82.40041042178444
sg28
F87.71061408588804
ssS'newicktree'
p31
S'../PairsAlignemt/YeastTree.newick'
p32
sS'll'
p33
cnumpy.core.multiarray
scalar
p34
(cnumpy
dtype
p35
(S'f8'
p36
I0
I1
tp37
Rp38
(I3
S'<'
p39
NNNI-1
I-1
I0
tp40
bS'f|]\xa7\r,\x9b\xc0'
p41
tp42
Rp43
sS'edge_list'
p44
(lp45
g19
ag25
ag6
ag15
ag11
ag17
ag26
ag21
ag13
ag28
ag9
ag23
asS'edge_to_blen'
p46
(dp47
g6
g34
(g38
S'\x15]\t\xb6\xf4\xb0\xca?'
p48
tp49
Rp50
sg9
g34
(g38
S'\xb0\xb1u3\xf6\xcc\xad?'
p51
tp52
Rp53
sg11
g34
(g38
S'r\xd3\x05 L\x7f\x99?'
p54
tp55
Rp56
sg13
g34
(g38
S'\xda\x03\xbe\x11\x9b8\x99?'
p57
tp58
Rp59
sg21
g34
(g38
S'\x8dKuc7\xbb\xb5?'
p60
tp61
Rp62
sg17
g34
(g38
S'Rg|\xe3\xae\x87\x9c?'
p63
tp64
Rp65
sg19
g34
(g38
S'`@\xd3\xc4\xe0\xcc\x93?'
p66
tp67
Rp68
sg15
g34
(g38
S'\x8cgL\xad\xdbb\xc6?'
p69
tp70
Rp71
sg23
g34
(g38
S'7\xaa\xf8\x03r6\x96?'
p72
tp73
Rp74
sg25
g34
(g38
S'\xd8&\xf2\xc5\xc0K\xcb?'
p75
tp76
Rp77
sg26
g34
(g38
S'\x9e\xb8\xd5\x9b\x14\x83\xa0?'
p78
tp79
Rp80
sg28
g34
(g38
S'3\xd0m$V(\xad?'
p81
tp82
Rp83
ssS'paralog'
p84
(lp85
S'YDR418W'
p86
aS'YEL054C'
p87
asS'alignment_file'
p88
S'../MafftAlignment/YDR418W_YEL054C/YDR418W_YEL054C_input.fasta'
p89
sS'x_clock'
p90
NsS'x'
p91
cnumpy.core.multiarray
_reconstruct
p92
(cnumpy
ndarray
p93
(I0
tp94
S'b'
p95
tp96
Rp97
(I1
(I19
tp98
g38
I00
S"\xcb_\xdd'\x12\x1b\xe7\xbfm\xcblP6Q\xdf\xbf\xbe837\xf3\x83\xec\xbf\xc5\xe8X\x14\xb2\x03\x01@B\xfa\xe8\x14\xa0\x97\x04\xc05\xfb(\xf3\x12\x12\xd6?\x02\xef\x95B\xfc\x06\xd2\xbf<6\xc95\xf2\x90\x0f\xc0\x87\xabl\x8d\x85\xb9\xf8\xbfu7=lG\x15\xf9\xbf\xdf\x915\xa4\xbb\xe5\xfb\xbft\xc4\x12\xad\x0f\x8b\r\xc0\xdc\rF(\xe5\xa4\x0c\xc0\x11\\6QPy\x0b\xc0\xf8-h\x14<\xbb\x03\xc0\x0b\xf4$\xc4\\\xa1\r\xc0\x00s\x87\x10\xc5\xec\x06\xc0=\x962\x9c\x17\xc0\x06\xc0g\xff\x1c\xff~\xa5\x0e\xc0"
p99
tp100
bsS'Model'
p101
S'MG94'
p102
sS'clock'
p103
I00
s.