(dp0
S'Force'
p1
NsS'ExpectedGeneconv'
p2
(dp3
(S'N1'
p4
S'N2'
p5
tp6
(lp7
F17.52713201518149
aF7.403051517347088
as(S'N5'
p8
S'cerevisiae'
p9
tp10
(lp11
F6.598852270993504
aF1.7765318447509362
as(g5
S'N3'
p12
tp13
(lp14
F3.146290488798026e-05
aF2.940470139898708e-05
as(S'N4'
p15
g8
tp16
(lp17
F5.450017470240056
aF5.422956960001171
as(g4
S'castellii'
p18
tp19
(lp20
F37.259022876096616
aF16.77197705595856
as(g5
S'bayanus'
p21
tp22
(lp23
F16.140282150116942
aF7.067335312396317
as(S'N0'
p24
g4
tp25
(lp26
F31.911375693309516
aF14.689958800157552
as(g12
S'kudriavzevii'
p27
tp28
(lp29
F24.158297534141003
aF8.294979629621581
as(g8
S'paradoxus'
p30
tp31
(lp32
F5.042636140203908
aF0.9207949688939862
as(g24
S'kluyveri'
p33
tp34
(lp35
F0.0
aF0.0
as(g12
g15
tp36
(lp37
F4.0480719959945946
aF4.567199127688488
as(g15
S'mikatae'
p38
tp39
(lp40
F12.972263794275463
aF7.49253935690832
assS'ExpectedDwellTime'
p41
(dp42
g6
F76.68796983595475
sg10
F75.61503223256585
sg13
F79.7863473543464
sg16
F70.68411915245204
sg19
F66.69118098291818
sg22
F63.89401866561786
sg25
F45.56459928558695
sg28
F67.62520619777463
sg31
F64.44643038492144
sg34
F0.0
sg36
F77.03587362919731
sg39
F79.95268729672743
ssS'newicktree'
p43
S'../PairsAlignemt/YeastTree.newick'
p44
sS'll'
p45
cnumpy.core.multiarray
scalar
p46
(cnumpy
dtype
p47
(S'f8'
p48
I0
I1
tp49
Rp50
(I3
S'<'
p51
NNNI-1
I-1
I0
tp52
bS'\x82\xf0\xbc\xe6]\x93\xa0\xc0'
p53
tp54
Rp55
sS'edge_list'
p56
(lp57
g25
ag34
ag6
ag19
ag13
ag22
ag36
ag28
ag16
ag39
ag10
ag31
asS'edge_to_blen'
p58
(dp59
g25
g46
(g50
S'?\xed\xb7\xee/\x00\xb2?'
p60
tp61
Rp62
sg10
g46
(g50
S'\xa5[q\x15t\r\x87?'
p63
tp64
Rp65
sg13
g46
(g50
S"Z\x07\xbd'\x08\x07q>"
p66
tp67
Rp68
sg16
g46
(g50
S'\xb9\tLP\x08\xe2\x80?'
p69
tp70
Rp71
sg19
g46
(g50
S'\xcb\x8b\xb9\x96t\x00\xa8?'
p72
tp73
Rp74
sg22
g46
(g50
S'\xd7\xcbk.&\xa6\x8f?'
p75
tp76
Rp77
sg6
g46
(g50
S'j\xdc\xae\xf5\xbcs\x97?'
p78
tp79
Rp80
sg28
g46
(g50
S'\x00\x08BA\xd5\xa3\x99?'
p81
tp82
Rp83
sg31
g46
(g50
S'\xb8\x07\xaf\x86\xc0\xf0s?'
p84
tp85
Rp86
sg39
g46
(g50
S'\x8a\xf6\xfb]\xdbr\x94?'
p87
tp88
Rp89
sg36
g46
(g50
S'x\xf1\xc6#[\xeez?'
p90
tp91
Rp92
sg34
g46
(g50
S'f\na\x15\x18\x19\xb0='
p93
tp94
Rp95
ssS'paralog'
p96
(lp97
S'YMR142C'
p98
aS'YDL082W'
p99
asS'alignment_file'
p100
S'../MafftAlignment/YMR142C_YDL082W/YMR142C_YDL082W_input.fasta'
p101
sS'x_clock'
p102
NsS'x'
p103
cnumpy.core.multiarray
_reconstruct
p104
(cnumpy
ndarray
p105
(I0
tp106
S'b'
p107
tp108
Rp109
(I1
(I19
tp110
g50
I00
S'*0xb\xb4&\xe6\xbf\xfe2\xc6\x83F@\xe0\xbf\xb7\x02!\x9b\xb5+\xe7\xbf\xf2h\xe4-R\xc2\x01@\xb6\xd3\xf4\x94\xbb\xc1\x08@a\x9b\xb6\xd9Z\x83\x02@\x1bW\xdd\xfa\xaez\xce\xbfY+\xfeu\xf5<\x05\xc0\xba\xf4\x16\x17{\xf28\xc0\xc6\x87\xd0\xc0K6\x0e\xc0|\xb5\x96dH{\x08\xc0\xad\xcf\x83X\xc3\x920\xc0f}\xc7[\xfd\xad\x10\xc0\xd4\x11\x95\xa7\x12\x19\x14\xc0l2@:\xa1\x7f\r\xc0{1>\x96y1\x13\xc0\xb4\x14F\xa4\xf5N\x0f\xc0\xdb\x87\xff\xd5\x86\xf2\x11\xc0|\x87\xcb\x1c\xd1L\x15\xc0'
p111
tp112
bsS'Model'
p113
S'HKY'
p114
sS'clock'
p115
I00
s.