(dp0
S'Force'
p1
NsS'ExpectedGeneconv'
p2
(dp3
(S'N1'
p4
S'N2'
p5
tp6
(lp7
F44.79406644562335
aF79.0633915155543
as(S'N5'
p8
S'cerevisiae'
p9
tp10
(lp11
F4.370184143078686
aF6.762503213464528
as(g5
S'N3'
p12
tp13
(lp14
F1.4488877969230383
aF2.708888444085502
as(S'N4'
p15
g8
tp16
(lp17
F2.713003737444983
aF3.9924828032251383
as(g4
S'castellii'
p18
tp19
(lp20
F84.19237719132303
aF142.7136897643646
as(g5
S'bayanus'
p21
tp22
(lp23
F6.685512145628626
aF17.199989917698208
as(S'N0'
p24
g4
tp25
(lp26
F11.657960789933314
aF18.311975008627837
as(g12
S'kudriavzevii'
p27
tp28
(lp29
F5.448670618782871
aF8.928732355272713
as(g8
S'paradoxus'
p30
tp31
(lp32
F3.6691283601525377
aF4.21894810158568
as(g24
S'kluyveri'
p33
tp34
(lp35
F0.0
aF0.0
as(g12
g15
tp36
(lp37
F3.20093013871321
aF6.2468866336451105
as(g15
S'mikatae'
p38
tp39
(lp40
F6.977957237670743
aF9.160624252602133
assS'ExpectedDwellTime'
p41
(dp42
g6
F1053.389934960739
sg10
F1236.1811410606672
sg13
F1175.2408743169242
sg16
F1212.9306972939903
sg19
F1119.1063582820395
sg22
F1163.5235505242842
sg25
F551.2145978939888
sg28
F1201.3357666685563
sg31
F1227.5653406978022
sg34
F0.0
sg36
F1190.0871383408098
sg39
F1199.9933378497537
ssS'newicktree'
p43
S'../PairsAlignemt/YeastTree.newick'
p44
sS'll'
p45
cnumpy.core.multiarray
scalar
p46
(cnumpy
dtype
p47
(S'f8'
p48
I0
I1
tp49
Rp50
(I3
S'<'
p51
NNNI-1
I-1
I0
tp52
bS"\xb3_V'\xc3d\xd2\xc0"
p53
tp54
Rp55
sS'edge_list'
p56
(lp57
g25
ag34
ag6
ag19
ag13
ag22
ag36
ag28
ag16
ag39
ag10
ag31
asS'edge_to_blen'
p58
(dp59
g6
g46
(g50
S'e\xf8\x86\xa6\xf1\x9a\xf7?'
p60
tp61
Rp62
sg10
g46
(g50
S'"f\xcf\xf8\xb4=\xc7?'
p63
tp64
Rp65
sg13
g46
(g50
S'\x9e/]O\xb6\x07\xae?'
p66
tp67
Rp68
sg16
g46
(g50
S'\xa7\x85\x14\xe4\x0cp\xbb?'
p69
tp70
Rp71
sg19
g46
(g50
S"'\xd4\xab\xfa;\x8c\x06@"
p72
tp73
Rp74
sg22
g46
(g50
S'\xbec\x1a\xa6\x05p\xd1?'
p75
tp76
Rp77
sg25
g46
(g50
S'\xabz\x8a\xb6{@\xe2?'
p78
tp79
Rp80
sg28
g46
(g50
S'V\xb3\x84;\x0f\x0b\xd0?'
p81
tp82
Rp83
sg31
g46
(g50
S'\x80\x98\x1f\x8d#o\xbc?'
p84
tp85
Rp86
sg34
g46
(g50
S'\xd6\xea$\xc3\xcd\x1e\xf5?'
p87
tp88
Rp89
sg36
g46
(g50
S'G\xdd\xf2>E\xfd\xc1?'
p90
tp91
Rp92
sg39
g46
(g50
S'\xff\xfe\xdb\xb1\x84\x11\xcf?'
p93
tp94
Rp95
ssS'paralog'
p96
(lp97
S'YNL049C'
p98
aS'YIL109C'
p99
asS'alignment_file'
p100
S'../MafftAlignment/YNL049C_YIL109C/YNL049C_YIL109C_input.fasta'
p101
sS'x_clock'
p102
NsS'x'
p103
cnumpy.core.multiarray
_reconstruct
p104
(cnumpy
ndarray
p105
(I0
tp106
S'b'
p107
tp108
Rp109
(I1
(I20
tp110
g50
I00
S'W\x1c/\xc7\xeb\xb4\xe6\xbfxI\x8f\x01\xee:\xde\xbf,\xf0V\x8e\x9am\xee\xbf\x05\xd4V\x12e\x12\xf1?\x953\xd51y5\x05\xc0Z\xd5\xaf$\xb19\x04\xc0\x12\x96<\x1c!&\xf3\xbf\xf8\x0eZ\x16\xbc\x0f\xf9\xbfS\xfa\xbcv\x8a\xf7\xe1\xbf\xd7\xa4#\xe1\xf8\xc4\xd1?\x1a.\xfe\xacj\xe3\xd8?XU\x14\xc2A\x94\xf0?\x0eD\xb7\x8ca\xb0\x06\xc0\x11\xb2\x83E\xd8\xcd\xf4\xbf\xcf)\x12Tae\xff\xbf\x87\xb33\x947#\xf6\xbf}?|3\xb7\xdd\x01\xc0\xa9\x16\xf8\xc9E\xa7\xf6\xbf\x0f\xc7s}:L\xfb\xbf\x14\xf3\xcc\x83\xa8\x94\x01\xc0'
p111
tp112
bsS'Model'
p113
S'MG94'
p114
sS'clock'
p115
I00
s.