(dp0
S'Force'
p1
NsS'ExpectedGeneconv'
p2
(dp3
(S'N1'
p4
S'N2'
p5
tp6
F27.01673084133399
s(S'N5'
p7
S'cerevisiae'
p8
tp9
F7.8260900844480945
s(g5
S'N3'
p10
tp11
F3.423085041296069e-05
s(S'N4'
p12
g7
tp13
F10.485965394489831
s(g4
S'castellii'
p14
tp15
F51.418044969873286
s(g5
S'bayanus'
p16
tp17
F20.089618029901434
s(S'N0'
p18
g4
tp19
F48.50959139331619
s(g10
S'kudriavzevii'
p20
tp21
F29.951364025740993
s(g7
S'paradoxus'
p22
tp23
F5.533797369684655
s(g18
S'kluyveri'
p24
tp25
F0.0
s(g10
g12
tp26
F8.600725809695895
s(g12
S'mikatae'
p27
tp28
F18.794623923752496
ssS'ExpectedDwellTime'
p29
(dp30
g6
F71.96836029060593
sg9
F74.72713896304083
sg11
F73.94368820572869
sg13
F67.93316238564373
sg15
F65.19363065497191
sg17
F61.20598590472468
sg19
F45.06575522654332
sg21
F65.04835355215647
sg23
F63.54436846284855
sg25
F0.0
sg26
F72.28193887114548
sg28
F78.49626172340753
ssS'newicktree'
p31
S'../PairsAlignemt/YeastTree.newick'
p32
sS'll'
p33
cnumpy.core.multiarray
scalar
p34
(cnumpy
dtype
p35
(S'f8'
p36
I0
I1
tp37
Rp38
(I3
S'<'
p39
NNNI-1
I-1
I0
tp40
bS'\x1f26\x19\x81\x9a\xa0\xc0'
p41
tp42
Rp43
sS'edge_list'
p44
(lp45
g19
ag25
ag6
ag15
ag11
ag17
ag26
ag21
ag13
ag28
ag9
ag23
asS'edge_to_blen'
p46
(dp47
g19
g34
(g38
S'\x9bY>)\xadu\xb2?'
p48
tp49
Rp50
sg9
g34
(g38
S'\xd4\x16m2\xdc\x13\x87?'
p51
tp52
Rp53
sg11
g34
(g38
S'\xe5\xd4\xe51\xed-e>'
p54
tp55
Rp56
sg13
g34
(g38
S'\x14,\xc2C$*\x81?'
p57
tp58
Rp59
sg15
g34
(g38
S'w@.\xa8\x81\x96\xa7?'
p60
tp61
Rp62
sg17
g34
(g38
S'\xcf\x19\xe6\xa9R\x0e\x8d?'
p63
tp64
Rp65
sg6
g34
(g38
S'\x18}\t\x85\x1a\xd4\x99?'
p66
tp67
Rp68
sg21
g34
(g38
S'\xc7\x81\xf7\x9d\xe0?\x99?'
p69
tp70
Rp71
sg23
g34
(g38
S':\xa3\xf1 \x1bHt?'
p72
tp73
Rp74
sg28
g34
(g38
S'\xf9\xe2e\x0e\xeb\t\x94?'
p75
tp76
Rp77
sg26
g34
(g38
S'\x81&\xf3$\x1bk}?'
p78
tp79
Rp80
sg25
g34
(g38
S'\x91\x91\x93\xd6y\x10\x06>'
p81
tp82
Rp83
ssS'paralog'
p84
(lp85
S'YMR142C'
p86
aS'YDL082W'
p87
asS'alignment_file'
p88
S'../MafftAlignment/YMR142C_YDL082W/YMR142C_YDL082W_input.fasta'
p89
sS'x_clock'
p90
NsS'x'
p91
cnumpy.core.multiarray
_reconstruct
p92
(cnumpy
ndarray
p93
(I0
tp94
S'b'
p95
tp96
Rp97
(I1
(I18
tp98
g38
I00
S'W#\\\x86\x9f)\xe6\xbf\x0cr\x87\x8c\x1e3\xe0\xbf\x9f<\x18\xfe\x1f8\xe7\xbf\xc6\xc7v5\xeb\xe9\x01@+W\xc1u+!\x06@\xf5i\xbe\x99bg\xc6\xbf\xe0\x127\xe8e\t\x05\xc0\xd2\xefSG\x8b*5\xc0I\r\xee\xb5\x9fp\r\xc0Z;\x83\x8c\xe7\x9e\x08\xc0\xa8\x1cugY\x0c1\xc0H\xe7Cv\x86\x05\x11\xc0\xfbs\xa1*\x9d\xbe\x13\xc0\x9e\x15-\xa0\x0e\x9f\r\xc0\xd3\xe4h\t\x88 \x13\xc0&\xa7"^nx\x0f\xc0\xe3dIgj\xf1\x11\xc0\xd2m\x96.q;\x15\xc0'
p99
tp100
bsS'Model'
p101
S'HKY'
p102
sS'clock'
p103
I00
s.