(dp0
S'Force'
p1
NsS'ExpectedGeneconv'
p2
(dp3
(S'N1'
p4
S'N2'
p5
tp6
F213.64148487212069
s(S'N5'
p7
S'cerevisiae'
p8
tp9
F20.19485011927753
s(g5
S'N3'
p10
tp11
F25.403406059927303
s(S'N4'
p12
g7
tp13
F11.644884529669946
s(g4
S'castellii'
p14
tp15
F340.3802793426493
s(g5
S'bayanus'
p16
tp17
F46.920941569684906
s(S'N0'
p18
g4
tp19
F7.12352948944625
s(g10
S'kudriavzevii'
p20
tp21
F36.079969244316715
s(g7
S'paradoxus'
p22
tp23
F17.046446040861532
s(g18
S'kluyveri'
p24
tp25
F0.0
s(g10
g12
tp26
F13.472320817758755
s(g12
S'mikatae'
p27
tp28
F44.61118100776153
ssS'ExpectedDwellTime'
p29
(dp30
g6
F651.8165823077521
sg9
F848.8117376193425
sg11
F803.8559582842425
sg13
F836.8837876238779
sg15
F692.4155773933801
sg17
F794.2922615981767
sg19
F154.22428237220385
sg21
F832.3265950598194
sg23
F832.1929026616667
sg25
F0.0
sg26
F827.7598116267113
sg28
F836.7686184033348
ssS'newicktree'
p31
S'../PairsAlignemt/YeastTree.newick'
p32
sS'll'
p33
cnumpy.core.multiarray
scalar
p34
(cnumpy
dtype
p35
(S'f8'
p36
I0
I1
tp37
Rp38
(I3
S'<'
p39
NNNI-1
I-1
I0
tp40
bS'\xdbak\xf0g\xc4\xcb\xc0'
p41
tp42
Rp43
sS'edge_list'
p44
(lp45
g19
ag25
ag6
ag15
ag11
ag17
ag26
ag21
ag13
ag28
ag9
ag23
asS'edge_to_blen'
p46
(dp47
g19
g34
(g38
S'+s\xad\x85\x9d\xf4\xc1?'
p48
tp49
Rp50
sg9
g34
(g38
S'&\x8eN\x8b*~\xc4?'
p51
tp52
Rp53
sg11
g34
(g38
S'2[\x8c\xe5\xb7\x90\xc4?'
p54
tp55
Rp56
sg13
g34
(g38
S'\xd8H_\x91\x87O\xb4?'
p57
tp58
Rp59
sg15
g34
(g38
S'\x80\x12\xd8u\x0c\xef\xfe?'
p60
tp61
Rp62
sg17
g34
(g38
S'?\x8e\x94\xd2\x04\xc9\xd1?'
p63
tp64
Rp65
sg6
g34
(g38
S'\xd1r\x07\x8a=\xa0\xf4?'
p66
tp67
Rp68
sg21
g34
(g38
S'&\x9a\xa1,\xd0+\xd0?'
p69
tp70
Rp71
sg23
g34
(g38
S'T\x94\xd8\x81f%\xbd?'
p72
tp73
Rp74
sg28
g34
(g38
S'/\xd8\x00c\xeb\xf6\xd1?'
p75
tp76
Rp77
sg26
g34
(g38
S'H\xe7\x93\n\xd1\xbf\xb7?'
p78
tp79
Rp80
sg25
g34
(g38
S'z)K\xbb\xbaY\x00@'
p81
tp82
Rp83
ssS'paralog'
p84
(lp85
S'YPR159W'
p86
aS'YGR143W'
p87
asS'alignment_file'
p88
S'../MafftAlignment/YPR159W_YGR143W/YPR159W_YGR143W_input.fasta'
p89
sS'x_clock'
p90
NsS'x'
p91
cnumpy.core.multiarray
_reconstruct
p92
(cnumpy
ndarray
p93
(I0
tp94
S'b'
p95
tp96
Rp97
(I1
(I19
tp98
g38
I00
S'k=\x95\xaev\xb3\xe6\xbf\x94\x0b\x1e\xff{5\xe0\xbfh\x06=\x1fw\xbe\xed\xbf\x95\x99T:G(\xf1?\xfb\xd1\xd8)\xf06\x05\xc0\xda\x97}\xe5\xa0e\r\xc0\x89\xcc\x10\x01%\x92A\xc0\xeeQ\xd2\xe1\x15m\xff\xbf\x17o\xa6z\xc8\xdf\xe6?\xd5\xbc\xd2\x88\xe4@\xd0?$W\x84\xd5\xa8\x18\xe5?\x8b\xac\xc6W:A\xfd\xbf\x9b\xc3*\n\xfd|\xf4\xbf&\xf3\xd7L`\x05\x03\xc0"Qwb\xae\x02\xf6\xbfFc\xe2H\xb2E\x04\xc0T\xd4\xa4\xe4\xe6S\xf4\xbf\x86\xa8\xc0\xe8\xafO\xfd\xbfW\xa1P\x95\x02b\x01\xc0'
p99
tp100
bsS'Model'
p101
S'MG94'
p102
sS'clock'
p103
I00
s.