(dp0
S'Force'
p1
NsS'ExpectedGeneconv'
p2
(dp3
(S'N1'
p4
S'N2'
p5
tp6
(lp7
F13.591826199678382
aF14.025532963403915
as(S'N5'
p8
S'cerevisiae'
p9
tp10
(lp11
F5.935269013991229
aF5.681482727162622
as(g5
S'N3'
p12
tp13
(lp14
F2.4678867294702185
aF2.8554706831816747
as(S'N4'
p15
g8
tp16
(lp17
F2.1722114919659066
aF2.221705697781082
as(g4
S'castellii'
p18
tp19
(lp20
F37.257752590283225
aF31.15702480546581
as(g5
S'bayanus'
p21
tp22
(lp23
F7.403000926093603
aF6.576203217841362
as(S'N0'
p24
g4
tp25
(lp26
F5.2897545750643316
aF5.013237614678954
as(g12
S'kudriavzevii'
p27
tp28
(lp29
F7.09237146052943
aF6.691652909713683
as(g8
S'paradoxus'
p30
tp31
(lp32
F2.921231907570216
aF4.9231537171526565
as(g24
S'kluyveri'
p33
tp34
(lp35
F0.0
aF0.0
as(g12
g15
tp36
(lp37
F1.8169504461652262
aF4.109792523797385
as(g15
S'mikatae'
p38
tp39
(lp40
F8.631364265570717
aF9.573285199266623
assS'ExpectedDwellTime'
p41
(dp42
g6
F223.24891875662232
sg10
F318.1032309254216
sg13
F277.430203540474
sg16
F305.9487103507555
sg19
F231.47163236280184
sg22
F286.358792530927
sg25
F90.57385489555433
sg28
F283.2683087458354
sg31
F311.71676422358604
sg34
F0.0
sg36
F287.66354451769917
sg39
F292.2138224346199
ssS'newicktree'
p43
S'../PairsAlignemt/YeastTree.newick'
p44
sS'll'
p45
cnumpy.core.multiarray
scalar
p46
(cnumpy
dtype
p47
(S'f8'
p48
I0
I1
tp49
Rp50
(I3
S'<'
p51
NNNI-1
I-1
I0
tp52
bS'\xd2\x1b\x8a\xc9z\r\xad\xc0'
p53
tp54
Rp55
sS'edge_list'
p56
(lp57
g25
ag34
ag6
ag19
ag13
ag22
ag36
ag28
ag16
ag39
ag10
ag31
asS'edge_to_blen'
p58
(dp59
g6
g46
(g50
S'x\x8a\xb8\xad\xd8U\xc1?'
p60
tp61
Rp62
sg10
g46
(g50
S'Gw\xd5\xe5,\xbd\xa8?'
p63
tp64
Rp65
sg13
g46
(g50
S'\xff\xdb\x00\x03O\x12\x96?'
p66
tp67
Rp68
sg16
g46
(g50
S'\x0b\xc7w w\n\x97?'
p69
tp70
Rp71
sg28
g46
(g50
S'\x80$\x97\x17\xa6\xf0\xaa?'
p72
tp73
Rp74
sg22
g46
(g50
S'\x88\xec?\xfe\xd3e\xb0?'
p75
tp76
Rp77
sg25
g46
(g50
S'F\xb3\xd3\xdd^2\xbe?'
p78
tp79
Rp80
sg19
g46
(g50
S'f\xcd\x92R\xbdw\xd0?'
p81
tp82
Rp83
sg31
g46
(g50
S'\x89]\xf3t\xc9L\x97?'
p84
tp85
Rp86
sg34
g46
(g50
S'\xafd\x86HM\x06\xcd?'
p87
tp88
Rp89
sg36
g46
(g50
S'\xae\xd8\x83p%L\x9f?'
p90
tp91
Rp92
sg39
g46
(g50
S'?\x8f\xf2\xd3\xd5\xb2\xad?'
p93
tp94
Rp95
ssS'paralog'
p96
(lp97
S'YIL057C'
p98
aS'YER067W'
p99
asS'alignment_file'
p100
S'../MafftAlignment/YIL057C_YER067W/YIL057C_YER067W_input.fasta'
p101
sS'x_clock'
p102
NsS'x'
p103
cnumpy.core.multiarray
_reconstruct
p104
(cnumpy
ndarray
p105
(I0
tp106
S'b'
p107
tp108
Rp109
(I1
(I19
tp110
g50
I00
S"Y\xe5\x0fA\xbcb\xe5\xbf'A\x8axQ'\xde\xbf\x18\x00\xa6\t$d\xe7\xbf\x7f2\x82n]\x9f\xf6?\xc7\xa7f\x08\x02\x83\x89\xbfq\xb2\xf88~\xc1\xa8\xbf,`\xc3\xab\x8d6\xd8\xbf;\xd4\x8e\x9d{\x19\x01\xc0=\xfc\x1b/\xff\xbd\xf7\xbf\x9db\xa1e\x10\xfd\xff\xbf\x84g`-=\xb8\xf5\xbf\xd7\xcb\xaek\x8d\xb2\x0e\xc0\x03\xd9\xdc`\xf8\xfb\x05\xc0_\xa0Z\x9fJ\xe7\x0b\xc0\xcc\x9c\xfc\xbb\xc4\x8e\x07\xc0v\x07\x9ct\x86Z\x0e\xc0\xd7K\xa30\x1e\xc7\x06\xc0>\x0e=\xd3S=\x08\xc0\x87$\x87R\xa0C\x0e\xc0"
p111
tp112
bsS'Model'
p113
S'HKY'
p114
sS'clock'
p115
I00
s.