(dp0
S'Force'
p1
NsS'ExpectedGeneconv'
p2
(dp3
(S'N1'
p4
S'N2'
p5
tp6
(lp7
F6.83570100704442
aF11.126024166883616
as(S'N5'
p8
S'cerevisiae'
p9
tp10
(lp11
F0.36739603419733075
aF1.700309681495432
as(g5
S'N3'
p12
tp13
(lp14
F2.1789055782193056
aF2.152753174062268
as(S'N4'
p15
g8
tp16
(lp17
F1.1816313464067472
aF1.346222874257603
as(g4
S'castellii'
p18
tp19
(lp20
F4.4015183833323235
aF7.269284592917883
as(g5
S'bayanus'
p21
tp22
(lp23
F1.3810081193408505
aF2.4100528264163943
as(S'N0'
p24
g4
tp25
(lp26
F0.17261134845240717
aF0.26952775963977255
as(g12
S'kudriavzevii'
p27
tp28
(lp29
F5.019204042072271
aF5.446730677423242
as(g8
S'paradoxus'
p30
tp31
(lp32
F1.5812652317593712
aF1.6876715418356698
as(g24
S'kluyveri'
p33
tp34
(lp35
F0.0
aF0.0
as(g12
g15
tp36
(lp37
F1.96053369218434
aF2.5111179768182437
as(g15
S'mikatae'
p38
tp39
(lp40
F6.1620623202622316
aF4.939667852456919
assS'ExpectedDwellTime'
p41
(dp42
g6
F35.74945039398551
sg10
F48.19542099723037
sg13
F45.200489049483664
sg16
F43.515843978811446
sg19
F35.50003544363179
sg22
F47.084371799327855
sg25
F6.86394001796459
sg28
F53.307133910717646
sg31
F44.23409418464989
sg34
F0.0
sg36
F44.069879947404836
sg39
F41.757623330454756
ssS'newicktree'
p43
S'../PairsAlignemt/YeastTree.newick'
p44
sS'll'
p45
cnumpy.core.multiarray
scalar
p46
(cnumpy
dtype
p47
(S'f8'
p48
I0
I1
tp49
Rp50
(I3
S'<'
p51
NNNI-1
I-1
I0
tp52
bS' e\x80\xf6\xcb\xdb\x96\xc0'
p53
tp54
Rp55
sS'edge_list'
p56
(lp57
g25
ag34
ag6
ag19
ag13
ag22
ag36
ag28
ag16
ag39
ag10
ag31
asS'edge_to_blen'
p58
(dp59
g6
g46
(g50
S'i\x93=\x9c\x94\x82\xc2?'
p60
tp61
Rp62
sg10
g46
(g50
S'\xb9T\xd9\x12\x15\x90\x93?'
p63
tp64
Rp65
sg13
g46
(g50
S'\x0cy\xb8\x82(\x8f\x98?'
p66
tp67
Rp68
sg16
g46
(g50
S'\xacxC\xa3z\x16\x92?'
p69
tp70
Rp71
sg28
g46
(g50
S'\xc8\x08\xca\x92u\x88\xb3?'
p72
tp73
Rp74
sg22
g46
(g50
S'\x88%}9\x87\x08\x97?'
p75
tp76
Rp77
sg25
g46
(g50
S' <\xde&8G\x97?'
p78
tp79
Rp80
sg19
g46
(g50
S'\xb3\xbe5\x8f\xab\x97\xbc?'
p81
tp82
Rp83
sg31
g46
(g50
S'\xe9#?KuI\x92?'
p84
tp85
Rp86
sg39
g46
(g50
S'H\xa1\xc2\x12\x1b\xb5\xac?'
p87
tp88
Rp89
sg36
g46
(g50
S'\xb9i\x11\xf2\x0e|\x97?'
p90
tp91
Rp92
sg34
g46
(g50
S'\r\x95P\xe77\xa4\xbf?'
p93
tp94
Rp95
ssS'paralog'
p96
(lp97
S'YBR191W'
p98
aS'YPL079W'
p99
asS'alignment_file'
p100
S'../MafftAlignment/YBR191W_YPL079W/YBR191W_YPL079W_input.fasta'
p101
sS'x_clock'
p102
NsS'x'
p103
cnumpy.core.multiarray
_reconstruct
p104
(cnumpy
ndarray
p105
(I0
tp106
S'b'
p107
tp108
Rp109
(I1
(I20
tp110
g50
I00
S'\x07\xeb\x93\xba\xf2\xbe\xe6\xbf\xf3\x90\x92G\xe5+\xe0\xbf\xadlJ\xe4Q\xb8\xea\xbf\xf88_\xef$\xd9\x00@\xa1\\_\x92N.\x03\xc0\xa8\x95\xcaZ\x9d\x9f\xed?\xed/\xc1\xd9\xddF\xf7?\xc9\x95\x14}\x86o\xf6\xbfY\x00V\xed\x89E\x0e\xc0\xf9w\xb9l\xc5\xb9\x00\xc0I\xb7\x96\xf0~\xf0\xfe\xbf\x0e\xe9WMI\x89\x01\xc0s\xe3T\xfb\xd3\xd7\r\xc0\xa9\xb5]\xaa2[\x0e\xc0\x9d9v\xacu3\x0e\xc0\x7fF\xec\xa4\xa5\x95\x04\xc0z\xed|n\x1a%\x10\xc0\xa9=,\xe3\xa1\x0c\x07\xc0\x92\xda`}\xa8\xa9\x0f\xc0\xd2\x95\xdb"\xe4\x19\x10\xc0'
p111
tp112
bsS'Model'
p113
S'MG94'
p114
sS'clock'
p115
I00
s.