(dp0
S'Force'
p1
NsS'ExpectedGeneconv'
p2
(dp3
(S'N1'
p4
S'N2'
p5
tp6
(lp7
F155.97826393221953
aF168.40861786164922
as(S'N5'
p8
S'cerevisiae'
p9
tp10
(lp11
F77.18494466702477
aF102.86337701245566
as(g5
S'N3'
p12
tp13
(lp14
F38.56086492506639
aF38.87635323677065
as(S'N4'
p15
g8
tp16
(lp17
F46.45015593113584
aF44.007572822644235
as(g4
S'castellii'
p18
tp19
(lp20
F204.01563727788897
aF221.4035365541601
as(g5
S'bayanus'
p21
tp22
(lp23
F132.98626040909187
aF145.02855347987224
as(S'N0'
p24
g4
tp25
(lp26
F261.90240907889904
aF279.67126962776945
as(g12
S'kudriavzevii'
p27
tp28
(lp29
F117.42694384617964
aF111.81471373296017
as(g8
S'paradoxus'
p30
tp31
(lp32
F46.834820275022864
aF53.00821510319744
as(g24
S'kluyveri'
p33
tp34
(lp35
F0.0
aF0.0
as(g12
g15
tp36
(lp37
F46.21841572672924
aF53.794120713642215
as(g15
S'mikatae'
p38
tp39
(lp40
F99.47141655054199
aF120.05623970329356
assS'ExpectedDwellTime'
p41
(dp42
g6
F1114.1911833831327
sg10
F1013.3627496844757
sg13
F1110.2963239037415
sg16
F1091.512684088018
sg19
F1146.5496728150385
sg22
F1006.4522982124463
sg25
F713.8617626195867
sg28
F1080.9315131573983
sg31
F1069.467263127226
sg34
F0.0
sg36
F1110.9769195795684
sg39
F1084.2618300656022
ssS'newicktree'
p43
S'../PairsAlignemt/YeastTree.newick'
p44
sS'll'
p45
cnumpy.core.multiarray
scalar
p46
(cnumpy
dtype
p47
(S'f8'
p48
I0
I1
tp49
Rp50
(I3
S'<'
p51
NNNI-1
I-1
I0
tp52
bS'3\xf3\t\x94\xdf\x14\xd5\xc0'
p53
tp54
Rp55
sS'edge_list'
p56
(lp57
g25
ag34
ag6
ag19
ag13
ag22
ag36
ag28
ag16
ag39
ag10
ag31
asS'edge_to_blen'
p58
(dp59
g25
g46
(g50
S'\xee1\xdag\xf62\xc8?'
p60
tp61
Rp62
sg10
g46
(g50
S'\x82\xb5<\x8e\x15\xd0\xa1?'
p63
tp64
Rp65
sg13
g46
(g50
S'*3ms!\x17\x91?'
p66
tp67
Rp68
sg16
g46
(g50
S'&`\x99D\\\xe8\x92?'
p69
tp70
Rp71
sg19
g46
(g50
S'@5\x12\xea\xa5\x84\xb7?'
p72
tp73
Rp74
sg22
g46
(g50
S'1\x81z\xd2\n\xd1\xaa?'
p75
tp76
Rp77
sg6
g46
(g50
S'\x13\x0e\x91\xa0\xf2\r\xb1?'
p78
tp79
Rp80
sg28
g46
(g50
S'\xc9\xfa\x8e\xa0\xc9\x0f\xa9?'
p81
tp82
Rp83
sg31
g46
(g50
S'#HYh\n\xdf\x97?'
p84
tp85
Rp86
sg39
g46
(g50
S'\x89^\xb5h\x149\xa8?'
p87
tp88
Rp89
sg36
g46
(g50
S'\xc2\xdb\x0c\xc9f\x97\x96?'
p90
tp91
Rp92
sg34
g46
(g50
S'\x87\x0c\x97\xff\xf9s\xb1>'
p93
tp94
Rp95
ssS'paralog'
p96
(lp97
S'YGL062W'
p98
aS'YBR218C'
p99
asS'alignment_file'
p100
S'../MafftAlignment/YGL062W_YBR218C/YGL062W_YBR218C_input.fasta'
p101
sS'x_clock'
p102
NsS'x'
p103
cnumpy.core.multiarray
_reconstruct
p104
(cnumpy
ndarray
p105
(I0
tp106
S'b'
p107
tp108
Rp109
(I1
(I19
tp110
g50
I00
S'\xf9\xa6\xdav\xea-\xe8\xbfI\x84\xb3\x19\x1a\xed\xe3\xbf\x12*0\xda\ts\xe8\xbf2\xec#\xae\xe7\t\xfa?\x1c\x10qD"\x97\xf6?\x98\x00\x19\xfbz\xea\xf7?5\xfaM\x80l\xc9\xdd\xbf\x9d\x07`\xc8\xc5\xa6\xfa\xbfJ\x9b:XR\x8d+\xc03C@\xa0\x8c\xab\x05\xc0\xcflg\xa2g\x19\x03\xc0\x9a\xc1\xebE0_\x10\xc0\xd8-\xb5\x01-\x98\x07\xc0.\x8f\xa9\x08\xdf\x82\x0e\xc0\x9d\xfa^\x0b\xc9"\x08\xc0\x0ch\xbf\xc6k\xef\x0f\xc0\xf7\xeb\x19\xf0~h\x08\xc0&`\x03\xcf\x03\xde\n\xc0i{\xec\x1a\x04\x12\x0e\xc0'
p111
tp112
bsS'Model'
p113
S'HKY'
p114
sS'clock'
p115
I00
s.