(dp0
S'Force'
p1
NsS'ExpectedGeneconv'
p2
(dp3
(S'N1'
p4
S'N2'
p5
tp6
(lp7
F19.28816981518533
aF10.450867300557764
as(S'N5'
p8
S'cerevisiae'
p9
tp10
(lp11
F4.713014450751523
aF2.6221816631468915
as(g5
S'N3'
p12
tp13
(lp14
F3.387254694868323
aF3.179590279942764
as(S'N4'
p15
g8
tp16
(lp17
F3.8621352253160843
aF0.4517750103376489
as(g4
S'castellii'
p18
tp19
(lp20
F28.44672621572191
aF15.641920625901744
as(g5
S'bayanus'
p21
tp22
(lp23
F9.280428833994462
aF8.661216849938592
as(S'N0'
p24
g4
tp25
(lp26
F21.34212122610482
aF10.09735524138977
as(g12
S'kudriavzevii'
p27
tp28
(lp29
F7.996516368533562
aF3.984709374840642
as(g8
S'paradoxus'
p30
tp31
(lp32
F0.6363281306701778
aF0.8821189821247799
as(g24
S'kluyveri'
p33
tp34
(lp35
F0.0
aF0.0
as(g12
g15
tp36
(lp37
F0.8110518482093962
aF1.0795804628064394
as(g15
S'mikatae'
p38
tp39
(lp40
F6.490171381191338
aF1.7453450300008895
assS'ExpectedDwellTime'
p41
(dp42
g6
F134.49195951409752
sg10
F150.23063090097222
sg13
F145.39512944631755
sg16
F144.49500623029502
sg19
F126.39700055099557
sg22
F146.98133408206886
sg25
F72.65886208461293
sg28
F155.1030928317933
sg31
F145.70615897045255
sg34
F0.0
sg36
F144.2246711467612
sg39
F155.24883669275596
ssS'newicktree'
p43
S'../PairsAlignemt/YeastTree.newick'
p44
sS'll'
p45
cnumpy.core.multiarray
scalar
p46
(cnumpy
dtype
p47
(S'f8'
p48
I0
I1
tp49
Rp50
(I3
S'<'
p51
NNNI-1
I-1
I0
tp52
bS'$2\x01\xcb3\x08\xa3\xc0'
p53
tp54
Rp55
sS'edge_list'
p56
(lp57
g25
ag34
ag6
ag19
ag13
ag22
ag36
ag28
ag16
ag39
ag10
ag31
asS'edge_to_blen'
p58
(dp59
g25
g46
(g50
S'\x97\xcb\x85\x0bgL\xb6?'
p60
tp61
Rp62
sg10
g46
(g50
S'\x0bT\x98\x9f\xadj\x87?'
p63
tp64
Rp65
sg13
g46
(g50
S'~\t\xc8:\x06\n\x80?'
p66
tp67
Rp68
sg16
g46
(g50
S'\xcd\xc9Ju\xa4gz?'
p69
tp70
Rp71
sg19
g46
(g50
S'\xbe\xcd\xc6\x80\x80}\xad?'
p72
tp73
Rp74
sg22
g46
(g50
S'\xb6 \x0cM:\x95\x96?'
p75
tp76
Rp77
sg6
g46
(g50
S'N1\x9f\xe6\xd2\xe9\xa6?'
p78
tp79
Rp80
sg28
g46
(g50
S'\xd1}6\xda\xee\xbb\x95?'
p81
tp82
Rp83
sg31
g46
(g50
S')\xb2\xaf\x0b%\xa2d?'
p84
tp85
Rp86
sg39
g46
(g50
S'\xf4Sq\x9f6\xca\x91?'
p87
tp88
Rp89
sg36
g46
(g50
S'\xe371l\xbf\xa1c?'
p90
tp91
Rp92
sg34
g46
(g50
S'\xce\xa3p~\x9fmt>'
p93
tp94
Rp95
ssS'paralog'
p96
(lp97
S'YNL069C'
p98
aS'YIL133C'
p99
asS'alignment_file'
p100
S'../MafftAlignment/YNL069C_YIL133C/YNL069C_YIL133C_input.fasta'
p101
sS'x_clock'
p102
NsS'x'
p103
cnumpy.core.multiarray
_reconstruct
p104
(cnumpy
ndarray
p105
(I0
tp106
S'b'
p107
tp108
Rp109
(I1
(I19
tp110
g50
I00
S'\x06L\xa0\x17\xc3\xe1\xe7\xbf\x07\xee\x1b\xdf\x86s\xe2\xbf\x7f\xf4\xcfm9\xc2\xe9\xbf\xda\xd5C\xfd\xf1\xc0\xff?\xa2\x11\xd1\xdb\x94\xfe\xfd?\xedR_5\xd9\xea\xf2?\xa2~\xb3G\xc6\xe6\xf0\xbf\xf4\x1e\xf3\xf4x\x86\x03\xc0?9o\xf2%d0\xc0\xc3)\xe3\x1eS\xda\x08\xc0>\xf4~\xfd\x88\xd5\x06\xc0\x1b\xa3\x0e\xd9\xf9e\x13\xc0r~\xa2!\xa4\x83\x0e\xc0\x1d/$P\x92"\x18\xc0W\xd7\x06\x0b\x1a\xd2\x0e\xc0\xa0K\x9e\x92G-\x14\xc0\xb7D\xa0\xfd\x1b6\x10\xc0C\xa0\x05#z\xe2\x11\xc0\xab?\xce\x8f\x9e\xef\x17\xc0'
p111
tp112
bsS'Model'
p113
S'HKY'
p114
sS'clock'
p115
I00
s.