(dp0
S'Force'
p1
NsS'ExpectedGeneconv'
p2
(dp3
(S'N1'
p4
S'N2'
p5
tp6
F12.370829850448601
s(S'N5'
p7
S'cerevisiae'
p8
tp9
F11.066728479478474
s(g5
S'N3'
p10
tp11
F5.914442685882957
s(S'N4'
p12
g7
tp13
F1.3057805643542537
s(g4
S'castellii'
p14
tp15
F18.050995048859946
s(g5
S'bayanus'
p16
tp17
F5.997985822322833
s(S'N0'
p18
g4
tp19
F11.697123095622873
s(g10
S'kudriavzevii'
p20
tp21
F5.567743630731929
s(g7
S'paradoxus'
p22
tp23
F2.54919578528759
s(g18
S'kluyveri'
p24
tp25
F0.0
s(g10
g12
tp26
F3.5595332320234863
s(g12
S'mikatae'
p27
tp28
F8.24926452016063
ssS'ExpectedDwellTime'
p29
(dp30
g6
F56.28116067687915
sg9
F59.43908703474394
sg11
F60.34989263413015
sg13
F65.60336459008828
sg15
F59.04585960585941
sg17
F60.67998052586876
sg19
F29.66106352352049
sg21
F62.11365298347361
sg23
F70.66244300351538
sg25
F0.0
sg26
F63.382609869416854
sg28
F65.85268493912787
ssS'newicktree'
p31
S'../PairsAlignemt/YeastTree.newick'
p32
sS'll'
p33
cnumpy.core.multiarray
scalar
p34
(cnumpy
dtype
p35
(S'f8'
p36
I0
I1
tp37
Rp38
(I3
S'<'
p39
NNNI-1
I-1
I0
tp40
bS'B\x83\x81\xd5\x9e\x81\x94\xc0'
p41
tp42
Rp43
sS'edge_list'
p44
(lp45
g19
ag25
ag6
ag15
ag11
ag17
ag26
ag21
ag13
ag28
ag9
ag23
asS'edge_to_blen'
p46
(dp47
g6
g34
(g38
S'%\x8a\x08/.\xdd\x9b?'
p48
tp49
Rp50
sg9
g34
(g38
S'Sa\x82\xd4\xd3d\x90?'
p51
tp52
Rp53
sg11
g34
(g38
S'\xfddi\xe22\xc7\x88?'
p54
tp55
Rp56
sg13
g34
(g38
S'\xc9\xa2T\xf2\x93xi?'
p57
tp58
Rp59
sg21
g34
(g38
S'\xb8\x9e\xe5\xe4,x\x88?'
p60
tp61
Rp62
sg17
g34
(g38
S'\x18\xbc\xb5\xfe\xf7\xec\x88?'
p63
tp64
Rp65
sg19
g34
(g38
S'\xb2L\x1c\xb9R[\xac?'
p66
tp67
Rp68
sg15
g34
(g38
S'\xac\xc5%\x83,\xaf\xa5?'
p69
tp70
Rp71
sg23
g34
(g38
S'\x85\xeb\x17Q\xd5\xe8\x81?'
p72
tp73
Rp74
sg25
g34
(g38
S'C\x17O\xb4xW\xc3>'
p75
tp76
Rp77
sg26
g34
(g38
S'"\xd1@~#\xbb\x81?'
p78
tp79
Rp80
sg28
g34
(g38
S'\xaa\x80\xd1\xa1\xe61\x8f?'
p81
tp82
Rp83
ssS'paralog'
p84
(lp85
S'YER131W'
p86
aS'YGL189C'
p87
asS'alignment_file'
p88
S'../MafftAlignment/YER131W_YGL189C/YER131W_YGL189C_input.fasta'
p89
sS'x_clock'
p90
NsS'x'
p91
cnumpy.core.multiarray
_reconstruct
p92
(cnumpy
ndarray
p93
(I0
tp94
S'b'
p95
tp96
Rp97
(I1
(I18
tp98
g38
I00
S'$\xa6!)\xc5s\xe6\xbfbX\xff\x98.\x14\xdd\xbf\xee\xd5\xa1\xa7\xa8#\xe5\xbf\x16\xb5\xa8\xff^\xea\x01@\xf6\x10M\x17\xbd?\x00@HNH\x88\x95B\xd8?\xcd\x8e\xd0u\xce%\x07\xc0U\xac6\x9e\xd2\xf5)\xc0x\xd4\x8a\xa9E\xd5\x0c\xc0\xee+!\xf7<K\t\xc0\x83\x95\x84\x19\x9c\xa8\x11\xc0:Y@\xd1\x87\xa2\x11\xc0\xd8\x9af\x84I\xff\x12\xc0\xec\xc3Her\xb5\x11\xc0\xa2\xd2$\xf6\xee\x17\x17\xc0W\xa7\x80\xcc\xc9\xbc\x10\xc0\xf3\x1c\xd5n\xcb\x89\x10\xc0=\xbaT\xc2\x07\xf5\x12\xc0'
p99
tp100
bsS'Model'
p101
S'HKY'
p102
sS'clock'
p103
I00
s.