(dp0
S'Force'
p1
NsS'ExpectedGeneconv'
p2
(dp3
(S'N1'
p4
S'N2'
p5
tp6
(lp7
F30.782606497690256
aF31.6626799492869
as(S'N5'
p8
S'cerevisiae'
p9
tp10
(lp11
F12.63301897023366
aF13.877993009848435
as(g5
S'N3'
p12
tp13
(lp14
F5.47946363367438
aF5.083304192155062
as(S'N4'
p15
g8
tp16
(lp17
F5.148351386660383
aF8.643809264433687
as(g4
S'castellii'
p18
tp19
(lp20
F68.41023680755464
aF79.75755156472367
as(g5
S'bayanus'
p21
tp22
(lp23
F13.48264506757853
aF19.18540886385453
as(S'N0'
p24
g4
tp25
(lp26
F6.455513438998469
aF7.047052401547326
as(g12
S'kudriavzevii'
p27
tp28
(lp29
F13.041168903228487
aF20.103205953438167
as(g8
S'paradoxus'
p30
tp31
(lp32
F7.350008587957968
aF10.542418670939155
as(g24
S'kluyveri'
p33
tp34
(lp35
F0.0
aF0.0
as(g12
g15
tp36
(lp37
F6.040476930850846
aF11.726044183148026
as(g15
S'mikatae'
p38
tp39
(lp40
F16.338579185595712
aF15.425533686830214
assS'ExpectedDwellTime'
p41
(dp42
g6
F637.3765358226718
sg10
F850.1539623187795
sg13
F847.3289776984016
sg16
F857.7619214726708
sg19
F755.8368088395933
sg22
F843.0774919083581
sg25
F220.45276461433923
sg28
F873.9443002156463
sg31
F867.5720586735123
sg34
F0.0
sg36
F862.4284280773187
sg39
F861.4960032595119
ssS'newicktree'
p43
S'../PairsAlignemt/YeastTree.newick'
p44
sS'll'
p45
cnumpy.core.multiarray
scalar
p46
(cnumpy
dtype
p47
(S'f8'
p48
I0
I1
tp49
Rp50
(I3
S'<'
p51
NNNI-1
I-1
I0
tp52
bS'R\xa1v\x9d\x01\x9c\xc4\xc0'
p53
tp54
Rp55
sS'edge_list'
p56
(lp57
g25
ag34
ag6
ag19
ag13
ag22
ag36
ag28
ag16
ag39
ag10
ag31
asS'edge_to_blen'
p58
(dp59
g6
g46
(g50
S'\xc2h_/]\x9d\xc7?'
p60
tp61
Rp62
sg10
g46
(g50
S'`2<\x0c\x16\x8e\xa9?'
p63
tp64
Rp65
sg13
g46
(g50
S'\xf0\xe8\x86\x99T\xf7\x9e?'
p66
tp67
Rp68
sg16
g46
(g50
S'\xe9\xaa\x0fO\x8fu\x9a?'
p69
tp70
Rp71
sg28
g46
(g50
S'\xec\xb0M\xca1\x94\xb0?'
p72
tp73
Rp74
sg22
g46
(g50
S'\x11\xddS\xd7\xecb\xb1?'
p75
tp76
Rp77
sg25
g46
(g50
S'\xc3\xd8\x08C\xb7+\xbb?'
p78
tp79
Rp80
sg19
g46
(g50
S'\xefX\x97\x8f\xe4\x98\xd6?'
p81
tp82
Rp83
sg31
g46
(g50
S'\xde\x8e\xc5\x87\xda\xc2\xa2?'
p84
tp85
Rp86
sg34
g46
(g50
S'\xadW(FC\xa8\xca?'
p87
tp88
Rp89
sg36
g46
(g50
S'\xb7\xa6>\xc3\xa2\x8a\x9f?'
p90
tp91
Rp92
sg39
g46
(g50
S'\x1c\xb5m  \xcd\xb1?'
p93
tp94
Rp95
ssS'paralog'
p96
(lp97
S'YPR157W'
p98
aS'YGR141W'
p99
asS'alignment_file'
p100
S'../MafftAlignment/YPR157W_YGR141W/YPR157W_YGR141W_input.fasta'
p101
sS'x_clock'
p102
NsS'x'
p103
cnumpy.core.multiarray
_reconstruct
p104
(cnumpy
ndarray
p105
(I0
tp106
S'b'
p107
tp108
Rp109
(I1
(I19
tp110
g50
I00
S'\xab\xbe\xb1|v\xc8\xe6\xbf[\xf2\x1fc\xdd\xdb\xe3\xbf\x9e=\xfan\xc9\x07\xea\xbf\x05\xa7\xaa\xff\x98?\xf3?zCZ\xc3\xef\xc2\xe5\xbf\xd4X\xc2\xe8H5\xde\xbf\xb6Rn\x15|\x98\xee\xbf\x1d!)\xc9\xbc\xf1\x01\xc0\xe2u*N~\x1a\xf9\xbf\xa0\xaf\xa7\xfa\xe5\n\xfb\xbf!\xfed\xb9)\xa8\xf0\xbf\xa9\x02\xa1D\x16\xfd\x0b\xc0\x00\x08\xbd\x17\x12\x84\x05\xc0H5Baa\xd7\x0b\xc0\x98\xa4C1y\xe5\x05\xc00\xf4\xcbM7?\r\xc0m\x1b\xa6W\xc7S\x05\xc0\xaf\x00\x03g\xdc\xfa\x07\xc0\x10U<n\xc9s\n\xc0'
p111
tp112
bsS'Model'
p113
S'HKY'
p114
sS'clock'
p115
I00
s.