(dp0
S'Force'
p1
NsS'ExpectedGeneconv'
p2
(dp3
(S'N1'
p4
S'N2'
p5
tp6
(lp7
F8.634484635711319
aF15.890711420038674
as(S'N5'
p8
S'cerevisiae'
p9
tp10
(lp11
F3.0766428605027345
aF3.547152453867619
as(g5
S'N3'
p12
tp13
(lp14
F1.2366246103551628
aF3.1252401404196517
as(S'N4'
p15
g8
tp16
(lp17
F0.30938029278516777
aF2.7403775968602946
as(g4
S'castellii'
p18
tp19
(lp20
F13.897822101534388
aF28.05854578978437
as(g5
S'bayanus'
p21
tp22
(lp23
F3.4149914792710305
aF11.010536766155973
as(S'N0'
p24
g4
tp25
(lp26
F13.40683327006336
aF25.59991758204896
as(g12
S'kudriavzevii'
p27
tp28
(lp29
F3.076042101425805
aF4.257186957365351
as(g8
S'paradoxus'
p30
tp31
(lp32
F2.9660401740080484
aF5.527790018875625
as(g24
S'kluyveri'
p33
tp34
(lp35
F0.0
aF0.0
as(g12
g15
tp36
(lp37
F3.9577904101207912
aF4.067585904406463
as(g15
S'mikatae'
p38
tp39
(lp40
F4.215674606504108
aF6.510964083563906
assS'ExpectedDwellTime'
p41
(dp42
g6
F85.18315382382204
sg10
F84.82933762641484
sg13
F93.66796640828495
sg16
F86.77619117520652
sg19
F78.05757141110661
sg22
F80.80186207753215
sg25
F49.440499479600405
sg28
F102.18695443983223
sg31
F82.14225249500235
sg34
F0.0
sg36
F92.37095764937253
sg39
F88.76379211729025
ssS'newicktree'
p43
S'../PairsAlignemt/YeastTree.newick'
p44
sS'll'
p45
cnumpy.core.multiarray
scalar
p46
(cnumpy
dtype
p47
(S'f8'
p48
I0
I1
tp49
Rp50
(I3
S'<'
p51
NNNI-1
I-1
I0
tp52
bS'X\xa10<\x14\x87\x9e\xc0'
p53
tp54
Rp55
sS'edge_list'
p56
(lp57
g25
ag34
ag6
ag19
ag13
ag22
ag36
ag28
ag16
ag39
ag10
ag31
asS'edge_to_blen'
p58
(dp59
g25
g46
(g50
S"\x1eO\xfb\xcb'X\xb3?"
p60
tp61
Rp62
sg10
g46
(g50
S'\x91_"\xda5\xd9~?'
p63
tp64
Rp65
sg13
g46
(g50
S'\x84N<t\xd8\x19w?'
p66
tp67
Rp68
sg16
g46
(g50
S'\x15W\xad\x10\xc3\xeda?'
p69
tp70
Rp71
sg19
g46
(g50
S'\xcb\xc0\xdc\x8f\xd3j\xa9?'
p72
tp73
Rp74
sg22
g46
(g50
S':\x8a\x05\x9c]{\x87?'
p75
tp76
Rp77
sg6
g46
(g50
S'\x82O\x97{\xbeI\x9e?'
p78
tp79
Rp80
sg28
g46
(g50
S'^\xb5r\x14\xa9O\x85?'
p81
tp82
Rp83
sg31
g46
(g50
S'"\x9a\xc4)\x99\xa6\x82?'
p84
tp85
Rp86
sg39
g46
(g50
S'k\xbc\xf3=\xfd\xed\x87?'
p87
tp88
Rp89
sg36
g46
(g50
S'.bu\xad2l{?'
p90
tp91
Rp92
sg34
g46
(g50
S'}\xa4\xe3\x1b2\xb4\xfb>'
p93
tp94
Rp95
ssS'paralog'
p96
(lp97
S'YJL177W'
p98
aS'YKL180W'
p99
asS'alignment_file'
p100
S'../MafftAlignment/YJL177W_YKL180W/YJL177W_YKL180W_input.fasta'
p101
sS'x_clock'
p102
NsS'x'
p103
cnumpy.core.multiarray
_reconstruct
p104
(cnumpy
ndarray
p105
(I0
tp106
S'b'
p107
tp108
Rp109
(I1
(I19
tp110
g50
I00
S"F!\x85\x97\x1a\xb9\xe7\xbf3\xb0\x86\xb8%F\xdf\xbf\xd8\x0ej\xddO\xed\xe6\xbf%\xe6\x8a\x14B\x19\x01@5$.\x0er\xa0\xff?7|\xde\x15O\x11\x05@\xefcM\xfdz\xa0\xd5\xbf\x16}@\xd2\x86\xa9\x04\xc0\xf5\xc1S\x8d.\x15%\xc0\xb9XnEn*\x0c\xc0\x8bx<\xc9\xed\x05\x08\xc0^\x82'T)\xb6\x14\xc0\xf2\x1a\xf1j\xa1\xdf\x11\xc0\xcd0\xb7\xe9\x8c\x06\x14\xc0i\xcdl\xee\xf4B\x12\xc0,\x87\xaa\xda~\x7f\x18\xc0\x04\x8b\xe4\xf6I\xcc\x11\xc0\xd2\x86\xa6\xcd\x01\x8e\x13\xc0\xca\xb5V8\x80\xcb\x12\xc0"
p111
tp112
bsS'Model'
p113
S'HKY'
p114
sS'clock'
p115
I00
s.