(dp0
S'Force'
p1
NsS'ExpectedGeneconv'
p2
(dp3
(S'N1'
p4
S'N2'
p5
tp6
(lp7
F3.2569588337296924
aF15.325004773920167
as(S'N5'
p8
S'cerevisiae'
p9
tp10
(lp11
F0.18191477349068103
aF0.32625928971567864
as(g5
S'N3'
p12
tp13
(lp14
F0.9336160328147097
aF0.6510192607329173
as(S'N4'
p15
g8
tp16
(lp17
F0.20827707977880516
aF0.17120668524819202
as(g4
S'castellii'
p18
tp19
(lp20
F2.663844227877773
aF10.80932076019264
as(g5
S'bayanus'
p21
tp22
(lp23
F1.0529857592825729
aF1.5366914224460213
as(S'N0'
p24
g4
tp25
(lp26
F0.06499525785796946
aF0.23245183521194165
as(g12
S'kudriavzevii'
p27
tp28
(lp29
F0.5817566979259439
aF0.8839896000815541
as(g8
S'paradoxus'
p30
tp31
(lp32
F0.12266075299387968
aF0.2562670186939289
as(g24
S'kluyveri'
p33
tp34
(lp35
F0.0
aF0.0
as(g12
g15
tp36
(lp37
F0.3166114703784563
aF0.3132115095030565
as(g15
S'mikatae'
p38
tp39
(lp40
F0.6763658290318565
aF0.6877924396418642
assS'ExpectedDwellTime'
p41
(dp42
g6
F342.50661814844847
sg10
F421.28310307474396
sg13
F416.56912955264653
sg16
F416.92199581750174
sg19
F341.665549976196
sg22
F420.695791240475
sg25
F74.80980128125255
sg28
F425.1340184840401
sg31
F424.49596865156576
sg34
F0.0
sg36
F415.049255019753
sg39
F410.9359517836488
ssS'newicktree'
p43
S'../PairsAlignemt/YeastTree.newick'
p44
sS'll'
p45
cnumpy.core.multiarray
scalar
p46
(cnumpy
dtype
p47
(S'f8'
p48
I0
I1
tp49
Rp50
(I3
S'<'
p51
NNNI-1
I-1
I0
tp52
bS'\x90k\xd6\xe9\x16Y\xba\xc0'
p53
tp54
Rp55
sS'edge_list'
p56
(lp57
g25
ag34
ag6
ag19
ag13
ag22
ag36
ag28
ag16
ag39
ag10
ag31
asS'edge_to_blen'
p58
(dp59
g25
g46
(g50
S'o\x8a\x17\x87U6\xc5?'
p60
tp61
Rp62
sg10
g46
(g50
S'8\xbe+\x89\xefg\xc4?'
p63
tp64
Rp65
sg13
g46
(g50
S'\xae\xa0U\xa3\x96\x93\xc0?'
p66
tp67
Rp68
sg16
g46
(g50
S'w7\x90\xaa\xcb\xec\xbf?'
p69
tp70
Rp71
sg19
g46
(g50
S'dX\xa9[\xed\xb7\x01@'
p72
tp73
Rp74
sg22
g46
(g50
S'\xc9\xf5\x97\x86<\xd6\xd6?'
p75
tp76
Rp77
sg6
g46
(g50
S'-n\xea\x85\xc1\x0f\x00@'
p78
tp79
Rp80
sg28
g46
(g50
S'\xc4\x00\xed\x1b\xce|\xd2?'
p81
tp82
Rp83
sg31
g46
(g50
S'#\x98\xa6v!2\xb9?'
p84
tp85
Rp86
sg34
g46
(g50
S'\x92\xeeS\x13\xd5\xd6\xf7?'
p87
tp88
Rp89
sg36
g46
(g50
S'\x87\x83\xe1\\\x1d\xd2\xc3?'
p90
tp91
Rp92
sg39
g46
(g50
S'"\xc5\xdb\xf1^\xed\xd3?'
p93
tp94
Rp95
ssS'paralog'
p96
(lp97
S'YBR024W'
p98
aS'YBR037C'
p99
asS'alignment_file'
p100
S'../MafftAlignment/YBR024W_YBR037C/YBR024W_YBR037C_input.fasta'
p101
sS'x_clock'
p102
NsS'x'
p103
cnumpy.core.multiarray
_reconstruct
p104
(cnumpy
ndarray
p105
(I0
tp106
S'b'
p107
tp108
Rp109
(I1
(I20
tp110
g50
I00
S'*\xb8\x84\x84W\xf3\xe4\xbf\xf8\xb1\x91\xb9\x9e\x84\xe1\xbf\xfc3i\xccsR\xee\xbf2\xf6#\x1a\xd0\x04\xec?\xc4\xff\x96\x96Es\x03\xc0\xb5@\xec\x93IV\x1c\xc0\x17\xe93\xabx\\\x0c\xc0\xe9\xa7\xeb\xf8\xef\x1aB@\x075\x91\xc9\\\xc2\xfc\xbf\xe0@\x93\x8c\xfd\x84\xd9?\x9bg\xf7\x90\xb6M\xe6?\xce\xb2\x15\x8f\xffq\xe9?#\x85\xf0P3Z\x00\xc0\xad\xcb\x14\x0e\xf5|\xf0\xbf\xbf\xfc\x9c1E\xd8\xfd\xbfb\xe6\x89:\\\xde\xf3\xbfg\xd0\xfa\xc5\x80\xa7\x00\xc0\xc6q\xba92\xab\xf2\xbf\x16\x0bS\xaa\x14a\xfd\xbf\xd2\x8c\xc4PI\x8c\x02\xc0'
p111
tp112
bsS'Model'
p113
S'MG94'
p114
sS'clock'
p115
I00
s.