(dp0
S'Force'
p1
NsS'ExpectedGeneconv'
p2
(dp3
(S'N1'
p4
S'N2'
p5
tp6
(lp7
F28.104039811653667
aF10.088548244413595
as(S'N5'
p8
S'cerevisiae'
p9
tp10
(lp11
F4.57340849951102
aF0.8819337237263133
as(g5
S'N3'
p12
tp13
(lp14
F1.2509172119731016
aF0.35580458438517654
as(S'N4'
p15
g8
tp16
(lp17
F2.5181831202435907
aF0.4757684779186196
as(g4
S'castellii'
p18
tp19
(lp20
F9.709974894660869
aF3.378373766443303
as(g5
S'bayanus'
p21
tp22
(lp23
F4.418220357759713
aF0.8948457002254593
as(S'N0'
p24
g4
tp25
(lp26
F0.33186729115264285
aF0.12732919693087927
as(g12
S'kudriavzevii'
p27
tp28
(lp29
F3.222434536793229
aF1.160227806917174
as(g8
S'paradoxus'
p30
tp31
(lp32
F2.554706795375278
aF0.6675218285154317
as(g24
S'kluyveri'
p33
tp34
(lp35
F0.0
aF0.0
as(g12
g15
tp36
(lp37
F1.5917583670896196
aF0.35810863264339304
as(g15
S'mikatae'
p38
tp39
(lp40
F6.453801605523202
aF1.5029094219231443
assS'ExpectedDwellTime'
p41
(dp42
g6
F157.48292647336237
sg10
F210.39617228119013
sg13
F212.44167266042052
sg16
F211.1661630705842
sg19
F94.84160667253558
sg22
F220.2827997961042
sg25
F19.15976395209341
sg28
F211.95384429210648
sg31
F213.52904511799582
sg34
F0.0
sg36
F210.85919713072525
sg39
F206.6314019023414
ssS'newicktree'
p43
S'../PairsAlignemt/YeastTree.newick'
p44
sS'll'
p45
cnumpy.core.multiarray
scalar
p46
(cnumpy
dtype
p47
(S'f8'
p48
I0
I1
tp49
Rp50
(I3
S'<'
p51
NNNI-1
I-1
I0
tp52
bS'D\x84~\x93\x86\xb6\xa6\xc0'
p53
tp54
Rp55
sS'edge_list'
p56
(lp57
g25
ag34
ag6
ag19
ag13
ag22
ag36
ag28
ag16
ag39
ag10
ag31
asS'edge_to_blen'
p58
(dp59
g6
g46
(g50
S'\xfa\xb8\x8d2\xf2z\xf4?'
p60
tp61
Rp62
sg10
g46
(g50
S'\x14*\xce\xff\x99\xf7\xc2?'
p63
tp64
Rp65
sg13
g46
(g50
S'\x15"U3+/\xa6?'
p66
tp67
Rp68
sg16
g46
(g50
S'\xd81\x89\xc1\x88\xae\xbd?'
p69
tp70
Rp71
sg28
g46
(g50
S'\x9cs\xa7\x05\xc7\x06\xc9?'
p72
tp73
Rp74
sg22
g46
(g50
S'\xe8\xf5\xb7\xc6\\B\xcd?'
p75
tp76
Rp77
sg25
g46
(g50
S'>\xbd\x14\xfd\xda\xd1\xb2?'
p78
tp79
Rp80
sg19
g46
(g50
S'4\xf2\xd5\xf3b\xf4\xda?'
p81
tp82
Rp83
sg31
g46
(g50
S'\r\x83\xb8o\xaf\xc4\xb9?'
p84
tp85
Rp86
sg39
g46
(g50
S'(Q\xb6\xe8YY\xcd?'
p87
tp88
Rp89
sg36
g46
(g50
S'4\xf5F\xedJC\xa8?'
p90
tp91
Rp92
sg34
g46
(g50
S'V\xf5\xaa\xb7W\x88\xe1?'
p93
tp94
Rp95
ssS'paralog'
p96
(lp97
S'YPL037C'
p98
aS'YDR252W'
p99
asS'alignment_file'
p100
S'../MafftAlignment/YPL037C_YDR252W/YPL037C_YDR252W_input.fasta'
p101
sS'x_clock'
p102
NsS'x'
p103
cnumpy.core.multiarray
_reconstruct
p104
(cnumpy
ndarray
p105
(I0
tp106
S'b'
p107
tp108
Rp109
(I1
(I20
tp110
g50
I00
S"]\xe8\xa1J\xe8\xc4\xe5\xbf\x13t\xdc\xbc\x9a\xc1\xdc\xbf\xec\x08\x1fqIf\xe8\xbf+\xe7=\xc4=\x1c\xf0?r`;\xb3\xc7\\\xfe\xbf\xdc3\xf6\xbb\xdcj\xe3\xbf\xdc\x1d#\xc1\xdc\xfa)\xc0\xdd\xfb\xe8\xc0\x96s\xf4\xbf\xd1\x1c\xa7\x9c\xd5\xe1\x04\xc0\xf4\xab|\xff\xea@\xe3\xbf\xf0\xcb}(\x86\x99\xcf?\xd7\xfd\x19\xad\xd9\xab\xeb\xbf<Z'\x94\x8d\x1c\t\xc0\x00\x81\xaak\x05\x9d\xf7\xbfu\xbc\r* e\x08\xc0\x85\x99\xf4\xb8\x10\x1d\xfa\xbf\x96\xee\xc9\x1f\xb6<\x01\xc0_\x03z%x\x90\xf7\xbf6\xce\xe4\x87\x92\x8c\xfe\xbf\xc6_\xae0F^\x02\xc0"
p111
tp112
bsS'Model'
p113
S'MG94'
p114
sS'clock'
p115
I00
s.