(dp0
S'Force'
p1
NsS'ExpectedGeneconv'
p2
(dp3
(S'N1'
p4
S'N2'
p5
tp6
(lp7
F1.0117384422718447
aF11.48394732944496
as(S'N5'
p8
S'cerevisiae'
p9
tp10
(lp11
F1.3742457246474538
aF29.924702434572552
as(g5
S'N3'
p12
tp13
(lp14
F0.8693397739273052
aF6.3513442730566165
as(S'N4'
p15
g8
tp16
(lp17
F0.04717873137025684
aF3.4059631763331466
as(g4
S'castellii'
p18
tp19
(lp20
F5.745562973330123
aF57.75869974780252
as(g5
S'bayanus'
p21
tp22
(lp23
F2.7566790165207964
aF24.962687401103533
as(S'N0'
p24
g4
tp25
(lp26
F3.2455708558233063
aF35.41383177381831
as(g12
S'kudriavzevii'
p27
tp28
(lp29
F1.9664996370053538
aF24.21495843022147
as(g8
S'paradoxus'
p30
tp31
(lp32
F0.8820299210519187
aF12.306897813265962
as(g24
S'kluyveri'
p33
tp34
(lp35
F0.0
aF0.0
as(g12
g15
tp36
(lp37
F1.1448892944170415
aF6.737134262884659
as(g15
S'mikatae'
p38
tp39
(lp40
F1.2520189540480324
aF14.802496080505103
assS'ExpectedDwellTime'
p41
(dp42
g6
F85.24198702709306
sg10
F73.44990542029286
sg13
F91.37676650468867
sg16
F95.73467319321135
sg19
F83.18602003034401
sg22
F77.6722307927118
sg25
F48.887245353503864
sg28
F88.68965798856144
sg31
F99.77273876564742
sg34
F0.0
sg36
F93.06011675199768
sg39
F99.3756218109847
ssS'newicktree'
p43
S'../PairsAlignemt/YeastTree.newick'
p44
sS'll'
p45
cnumpy.core.multiarray
scalar
p46
(cnumpy
dtype
p47
(S'f8'
p48
I0
I1
tp49
Rp50
(I3
S'<'
p51
NNNI-1
I-1
I0
tp52
bS'\x1dw\x17v;[\xa1\xc0'
p53
tp54
Rp55
sS'edge_list'
p56
(lp57
g25
ag34
ag6
ag19
ag13
ag22
ag36
ag28
ag16
ag39
ag10
ag31
asS'edge_to_blen'
p58
(dp59
g6
g46
(g50
S'W\xc3\x0c\x1f\x94\x9a\x8e?'
p60
tp61
Rp62
sg10
g46
(g50
S'\xe7\xd2qA!Z\x97?'
p63
tp64
Rp65
sg13
g46
(g50
S'n\x1b/\xfc\xa9\xb8\x7f?'
p66
tp67
Rp68
sg16
g46
(g50
S'\xed\xd6>\xbd=\xa6k?'
p69
tp70
Rp71
sg28
g46
(g50
S'\xfc\xa2\xcfZHk\x9a?'
p72
tp73
Rp74
sg22
g46
(g50
S'H\xd5\x9eN\xe2\xc5\x97?'
p75
tp76
Rp77
sg25
g46
(g50
S'\x81\xc5\xe3\xa5S\xbb\xb2?'
p78
tp79
Rp80
sg19
g46
(g50
S'|\x9b?\x8aQ\xea\xb0?'
p81
tp82
Rp83
sg31
g46
(g50
S'>%h\x8f+\xdd\x8e?'
p84
tp85
Rp86
sg34
g46
(g50
S'o\x84i\xf9]l\xc4>'
p87
tp88
Rp89
sg36
g46
(g50
S'\xa1w\x05\xa9\x9c\x87\x81?'
p90
tp91
Rp92
sg39
g46
(g50
S'\xbf\xa5\xe8\xdf\xd0\x13\x92?'
p93
tp94
Rp95
ssS'paralog'
p96
(lp97
S'YNL301C'
p98
aS'YOL120C'
p99
asS'alignment_file'
p100
S'../MafftAlignment/YNL301C_YOL120C/YNL301C_YOL120C_input.fasta'
p101
sS'x_clock'
p102
NsS'x'
p103
cnumpy.core.multiarray
_reconstruct
p104
(cnumpy
ndarray
p105
(I0
tp106
S'b'
p107
tp108
Rp109
(I1
(I19
tp110
g50
I00
S'\x10\r\xf0\xcd\x0f\xb6\xe7\xbfo\x02\xd0i\xc5t\xe2\xbf\xa8\x1bR\xecHK\xe9\xbf\xa7\t\t-;\x87\xff?\xca\x92\xb37\xe4\x05\xe5?\x9b2\x16\xfd\xdds\x08@g\x1e\x8ef/2\xc1\xbf\xad\xf5^\xf9n\xeb\x04\xc0\xc2\xfd\x85p\xf6\xd9)\xc0\xd9\x9dP\xbf`\xd0\x10\xc0)\xb1W\xbeT\xbc\x05\xc0\xbd\xdb\xdc^oq\x13\xc06b\x85\xd6v\x1a\x0e\xc0\x9b\x92;M\xfa\n\x13\xc0\xcb\xa6\xe8aSB\r\xc0>\xf6\xb0\xc8\xe6\xc3\x16\xc0t\x8e\r>\xb1%\x10\xc0\xfa\x80\xba\xd2\x0c?\x0e\xc0\xc0\xfc\xab\x04\xb6\xc7\x10\xc0'
p111
tp112
bsS'Model'
p113
S'HKY'
p114
sS'clock'
p115
I00
s.