(dp0
S'Force'
p1
NsS'ExpectedGeneconv'
p2
(dp3
(S'N1'
p4
S'N2'
p5
tp6
(lp7
F0.0
aF2.6129194464666274
as(S'N5'
p8
S'cerevisiae'
p9
tp10
(lp11
F0.0
aF0.06055913219118271
as(g5
S'N3'
p12
tp13
(lp14
F0.0
aF0.08633688383115119
as(S'N4'
p15
g8
tp16
(lp17
F0.0
aF0.07249365125682435
as(g4
S'castellii'
p18
tp19
(lp20
F0.0
aF6.142988052985056
as(g5
S'bayanus'
p21
tp22
(lp23
F0.0
aF0.914410550115008
as(S'N0'
p24
g4
tp25
(lp26
F0.0
aF0.3563783235025201
as(g12
S'kudriavzevii'
p27
tp28
(lp29
F0.0
aF0.1973723033666741
as(g8
S'paradoxus'
p30
tp31
(lp32
F0.0
aF0.10806609291023861
as(g24
S'kluyveri'
p33
tp34
(lp35
F0.0
aF0.0
as(g12
g15
tp36
(lp37
F0.0
aF0.1441186050643954
as(g15
S'mikatae'
p38
tp39
(lp40
F0.0
aF0.702099188796269
assS'ExpectedDwellTime'
p41
(dp42
g6
F376.67723110671744
sg10
F448.9188941640534
sg13
F440.8330968706893
sg16
F446.28129822013176
sg19
F405.85939345065015
sg22
F448.1772870481465
sg25
F176.0954494614941
sg28
F451.81945028120197
sg31
F453.7371552483175
sg34
F0.0
sg36
F444.2047843296442
sg39
F451.41318993217305
ssS'newicktree'
p43
S'../PairsAlignemt/YeastTree.newick'
p44
sS'll'
p45
cnumpy.core.multiarray
scalar
p46
(cnumpy
dtype
p47
(S'f8'
p48
I0
I1
tp49
Rp50
(I3
S'<'
p51
NNNI-1
I-1
I0
tp52
bS'&\x17u\x1b\x0bi\xba\xc0'
p53
tp54
Rp55
sS'edge_list'
p56
(lp57
g25
ag34
ag6
ag19
ag13
ag22
ag36
ag28
ag16
ag39
ag10
ag31
asS'edge_to_blen'
p58
(dp59
g6
g46
(g50
S"\x0f\xb2('M;\xe2?"
p60
tp61
Rp62
sg10
g46
(g50
S'"\x1f\x0f\xfc.#\xc4?'
p63
tp64
Rp65
sg13
g46
(g50
S'#\xca8\xdf\xa4f\xb8?'
p66
tp67
Rp68
sg16
g46
(g50
S'\x11\x1aR\xcfB\xb4\xb7?'
p69
tp70
Rp71
sg28
g46
(g50
S'\xd8ov3\xbcc\xcd?'
p72
tp73
Rp74
sg22
g46
(g50
S'\xf8\xdaUi\x90s\xc8?'
p75
tp76
Rp77
sg25
g46
(g50
S')p-\xcf\xbb\xc9\xd8?'
p78
tp79
Rp80
sg19
g46
(g50
S'\xc1\x85c\xad\xd2\x11\xef?'
p81
tp82
Rp83
sg31
g46
(g50
S'@\x18\xbe\xb6\xc2\t\xbe?'
p84
tp85
Rp86
sg39
g46
(g50
S'\xcf\xbb\xdasb\\\xcf?'
p87
tp88
Rp89
sg36
g46
(g50
S'w\xf8R\x06\xd3\xcb\xb3?'
p90
tp91
Rp92
sg34
g46
(g50
S'B\xdbjP|\x94\xdd?'
p93
tp94
Rp95
ssS'paralog'
p96
(lp97
S'YGR043C'
p98
aS'YLR354C'
p99
asS'alignment_file'
p100
S'../MafftAlignment/YGR043C_YLR354C/YGR043C_YLR354C_input.fasta'
p101
sS'x_clock'
p102
NsS'x'
p103
cnumpy.core.multiarray
_reconstruct
p104
(cnumpy
ndarray
p105
(I0
tp106
S'b'
p107
tp108
Rp109
(I1
(I20
tp110
g50
I00
S'\x0fM\xd21\xb7r\xe7\xbf\x04\xf3ul\xe0U\xe1\xbf\xf8\x03\xe7\x01D\xd5\xe9\xbfD$\n\x85Y\x1b\xf1?\xb6i9\xcd\xfc\xa7\x01\xc0\n\xcd\xf7\x014\xe8X\xc0\x07\xbb\xe2/\xae\xbd\x12\xc0T\xe2*Z\xe1\xd1V\xc0\xcehK\xecKZ\xee\xbf\x17b\xe5\x1et\xb2\xe8\xbf\x7f[{\x89\xa1\x00\xe2\xbfIh\x16\x88\xa86\x9e\xbf?\xb9\x95\xe8\xef\xcd\x02\xc0T\xd7\xe5\xc3G|\xfa\xbfi\xa3\x93\xb5=z\x04\xc0g\x93\xe2\xf1\xcf\x8a\xf7\xbf\xe8 ?\xbcE\t\x03\xc0DE\xcd\xbc\xe5\x80\xf6\xbf\xed\xff!\x94X\x97\xfd\xbf~\xf8X\x1eE$\x01\xc0'
p111
tp112
bsS'Model'
p113
S'MG94'
p114
sS'clock'
p115
I00
s.