(dp0
S'Force'
p1
NsS'ExpectedGeneconv'
p2
(dp3
(S'N1'
p4
S'N2'
p5
tp6
(lp7
F18.923613629605867
aF23.304963905639255
as(S'N5'
p8
S'cerevisiae'
p9
tp10
(lp11
F5.017665515095633
aF3.569387740910065
as(g5
S'N3'
p12
tp13
(lp14
F3.215911185945786
aF3.405492153339529
as(S'N4'
p15
g8
tp16
(lp17
F0.8553208491256964
aF1.4186855631114252
as(g4
S'castellii'
p18
tp19
(lp20
F26.02100810984768
aF28.779510157027012
as(g5
S'bayanus'
p21
tp22
(lp23
F3.9988452121272116
aF2.935037042898223
as(S'N0'
p24
g4
tp25
(lp26
F3.168368744664357
aF3.7419044585819443
as(g12
S'kudriavzevii'
p27
tp28
(lp29
F5.269144652144856
aF2.791244798584742
as(g8
S'paradoxus'
p30
tp31
(lp32
F1.4891581149293125
aF2.4797722408167155
as(g24
S'kluyveri'
p33
tp34
(lp35
F0.0
aF0.0
as(g12
g15
tp36
(lp37
F1.493718735859316
aF1.2836396055106696
as(g15
S'mikatae'
p38
tp39
(lp40
F7.8216682282838175
aF6.39016452892038
assS'ExpectedDwellTime'
p41
(dp42
g6
F456.0757970141729
sg10
F565.5537821504781
sg13
F530.3044293037585
sg16
F554.2994822208423
sg19
F448.3593658118218
sg22
F524.3789312779579
sg25
F188.49171325927034
sg28
F552.2867409166079
sg31
F560.1936268284347
sg34
F0.0
sg36
F542.7207048288416
sg39
F548.4399719712242
ssS'newicktree'
p43
S'../PairsAlignemt/YeastTree.newick'
p44
sS'll'
p45
cnumpy.core.multiarray
scalar
p46
(cnumpy
dtype
p47
(S'f8'
p48
I0
I1
tp49
Rp50
(I3
S'<'
p51
NNNI-1
I-1
I0
tp52
bS'\n\x92\x94\xcd\xb3\xfb\xc0\xc0'
p53
tp54
Rp55
sS'edge_list'
p56
(lp57
g25
ag34
ag6
ag19
ag13
ag22
ag36
ag28
ag16
ag39
ag10
ag31
asS'edge_to_blen'
p58
(dp59
g6
g46
(g50
S'\xedE\x8a\x17#\xe2\xf1?'
p60
tp61
Rp62
sg10
g46
(g50
S'\xa9A\xcb\x03\x1e\x87\xca?'
p63
tp64
Rp65
sg13
g46
(g50
S'\x1cm\xdc\xf8"\x0f\xc8?'
p66
tp67
Rp68
sg16
g46
(g50
S'*\xe0\xf4\xa4R\r\xb5?'
p69
tp70
Rp71
sg28
g46
(g50
S'P\x8c\xf8\x19\x93\xcd\xd4?'
p72
tp73
Rp74
sg22
g46
(g50
S'\x0c\x81o<\xc4\xc5\xce?'
p75
tp76
Rp77
sg25
g46
(g50
S'H\xc8\xf24%\xc6\xd6?'
p78
tp79
Rp80
sg19
g46
(g50
S'=\x1f=\x8d\xc9\x86\xf3?'
p81
tp82
Rp83
sg31
g46
(g50
S';c\xf8\nc\x7f\xbd?'
p84
tp85
Rp86
sg34
g46
(g50
S'\xa1\x95\x17\x83\xe5\xb5\xf0?'
p87
tp88
Rp89
sg36
g46
(g50
S'\xc3\xdc\x12l\xdac\xb5?'
p90
tp91
Rp92
sg39
g46
(g50
S'\x11\xcd\x92b\xf7%\xd5?'
p93
tp94
Rp95
ssS'paralog'
p96
(lp97
S'YMR243C'
p98
aS'YOR316C'
p99
asS'alignment_file'
p100
S'../MafftAlignment/YMR243C_YOR316C/YMR243C_YOR316C_input.fasta'
p101
sS'x_clock'
p102
NsS'x'
p103
cnumpy.core.multiarray
_reconstruct
p104
(cnumpy
ndarray
p105
(I0
tp106
S'b'
p107
tp108
Rp109
(I1
(I20
tp110
g50
I00
S'\xe2\xbb\xdd>8\xb3\xe7\xbf["\x99\xf9!`\xe2\xbf\x03\xdd\r\x0b\xbbf\xec\xbf\xd2\xacx{\xb1Y\xee?\x1d\xbdM,XA\x02\xc0\x0c9DF-\xef\x16\xc0".\xed\xea\x1d-\x15\xc0\xa9\x8a\x11\x88\xa3\x17V\xc0\xa1\xe5F\x1e?\x88\xf0\xbfQ\xf7*\x12&?\xa6?OW\x84\x01\xee|\xbc?\xa0\xba\x89U\xe0~\xc9?{\xf1\x01`\x87\xbe\xfa\xbf\x18X&\x9ex\xce\xf6\xbf+\x02\xd2\xad\xa6\xdb\x03\xc0\xfd4\xb7\x98\x05\xfb\xf1\xbfm\xfb\xf4\xb9E\xfc\x03\xc0z\xdd\xd8\x9b\x98\xb7\xf1\xbf\xf3\xc5\xa7\xa9o.\xf9\xbff\xd6"[uI\x01\xc0'
p111
tp112
bsS'Model'
p113
S'MG94'
p114
sS'clock'
p115
I00
s.