(dp0
S'Force'
p1
NsS'ExpectedGeneconv'
p2
(dp3
(S'N1'
p4
S'N2'
p5
tp6
(lp7
F32.27342787062578
aF35.72170746103457
as(S'N5'
p8
S'cerevisiae'
p9
tp10
(lp11
F2.053817995207819
aF2.588128906956933
as(g5
S'N3'
p12
tp13
(lp14
F2.709546644998428
aF3.318131720593051
as(S'N4'
p15
g8
tp16
(lp17
F0.9451725564400493
aF1.2877710648200458
as(g4
S'castellii'
p18
tp19
(lp20
F43.66967804623924
aF49.27679853900458
as(g5
S'bayanus'
p21
tp22
(lp23
F4.493312593943194
aF4.082869880296052
as(S'N0'
p24
g4
tp25
(lp26
F2.0258335362736135
aF2.175866222063049
as(g12
S'kudriavzevii'
p27
tp28
(lp29
F3.7708595992933738
aF2.9919901349405587
as(g8
S'paradoxus'
p30
tp31
(lp32
F2.2464776022904984
aF6.078204350032469
as(g24
S'kluyveri'
p33
tp34
(lp35
F0.0
aF0.0
as(g12
g15
tp36
(lp37
F0.7477157933130397
aF1.2634840006029944
as(g15
S'mikatae'
p38
tp39
(lp40
F2.0468621766064325
aF3.4022775934240674
assS'ExpectedDwellTime'
p41
(dp42
g6
F916.7126707617994
sg10
F1074.338167846105
sg13
F1059.1682103367662
sg16
F1075.699926628081
sg19
F942.3379274745731
sg22
F1058.5579851170287
sg25
F290.4761162452997
sg28
F1074.5584181533627
sg31
F1098.1598878113673
sg34
F0.0
sg36
F1068.3534952669677
sg39
F1079.2724691203707
ssS'newicktree'
p43
S'../PairsAlignemt/YeastTree.newick'
p44
sS'll'
p45
cnumpy.core.multiarray
scalar
p46
(cnumpy
dtype
p47
(S'f8'
p48
I0
I1
tp49
Rp50
(I3
S'<'
p51
NNNI-1
I-1
I0
tp52
bS'\xfd\n\x08\\P\x16\xd2\xc0'
p53
tp54
Rp55
sS'edge_list'
p56
(lp57
g25
ag34
ag6
ag19
ag13
ag22
ag36
ag28
ag16
ag39
ag10
ag31
asS'edge_to_blen'
p58
(dp59
g6
g46
(g50
S'\xf6}\xe1K\x0fH\x01@'
p60
tp61
Rp62
sg10
g46
(g50
S'\x8c<\x88\xfb\xa8w\xc8?'
p63
tp64
Rp65
sg13
g46
(g50
S'\x03\xd1sa\x05\xbc\xcc?'
p66
tp67
Rp68
sg16
g46
(g50
S'\xcb\xe8S-\x1e\n\xbf?'
p69
tp70
Rp71
sg19
g46
(g50
S'W\x8d\x9a\xaa\xb2\xb7\x06@'
p72
tp73
Rp74
sg22
g46
(g50
S'\xf9\xae\x14\x0c\xb1\x96\xd5?'
p75
tp76
Rp77
sg25
g46
(g50
S'\xcc\x07q\xcc%\x99\xd2?'
p78
tp79
Rp80
sg28
g46
(g50
S'\x91\xac\x86\xddG\xc9\xd5?'
p81
tp82
Rp83
sg31
g46
(g50
S'l}\x17\x93\x15\x16\xd6?'
p84
tp85
Rp86
sg34
g46
(g50
S'\xe1\xc0\xd5\xde:2\r@'
p87
tp88
Rp89
sg36
g46
(g50
S'\xed.A\xa0\xaa\xc4\xbb?'
p90
tp91
Rp92
sg39
g46
(g50
S'\xf0\xb88L\xd5\x1d\xd2?'
p93
tp94
Rp95
ssS'paralog'
p96
(lp97
S'YAL056W'
p98
aS'YOR371C'
p99
asS'alignment_file'
p100
S'../MafftAlignment/YAL056W_YOR371C/YAL056W_YOR371C_input.fasta'
p101
sS'x_clock'
p102
NsS'x'
p103
cnumpy.core.multiarray
_reconstruct
p104
(cnumpy
ndarray
p105
(I0
tp106
S'b'
p107
tp108
Rp109
(I1
(I20
tp110
g50
I00
S'\xb7u5\x15\x95\x0e\xe4\xbf\x0f\x08K\x95n=\xde\xbf^\x1b\xef\x84\x03h\xef\xbf\x8eU\x10G\x9b:\xed?\xc5\n} W\xe1\x00\xc0\xf1\x90\xb3`o$\x08\xc0i\xdf\xef\x04\xbcf\x05\xc0\xad<\x85\x0b\xcb\xee\x01\xc0\xe5(y\x87\xe7\xc5\xf3\xbf\x86 2\xc1\xab\xb6\xf4?\x004\x1f\x05n\xa5\xe8?\xfa\t\xae\xb8\xfb\xb2\xf0?"\xc1S\x91&\xe7\xf7\xbft\xc8E00c\xf1\xbf\x84\x13E\t1\xc5\x01\xc0"8\xc4\x9a\xdd=\xf1\xbf\x97c\x95\xb3\x1b\xe1\x00\xc0\xbb\x083\xb4c1\xf4\xbf\x04\xa4\x19\xd9\x99y\xfa\xbf\x1fR\xffg\xd8\x05\xf1\xbf'
p111
tp112
bsS'Model'
p113
S'MG94'
p114
sS'clock'
p115
I00
s.