(dp0
S'Force'
p1
NsS'ExpectedGeneconv'
p2
(dp3
(S'N1'
p4
S'N2'
p5
tp6
(lp7
F15.097963468010219
aF31.514681368552594
as(S'N5'
p8
S'cerevisiae'
p9
tp10
(lp11
F12.971818478752551
aF13.715653934332126
as(g5
S'N3'
p12
tp13
(lp14
F6.191676483907636
aF8.04256888493245
as(S'N4'
p15
g8
tp16
(lp17
F3.5584782870187976
aF6.2560361808498435
as(g4
S'castellii'
p18
tp19
(lp20
F37.121856395055474
aF48.768073027891575
as(g5
S'bayanus'
p21
tp22
(lp23
F11.436475796153815
aF20.68928694775449
as(S'N0'
p24
g4
tp25
(lp26
F19.6885547390296
aF41.06125991455006
as(g12
S'kudriavzevii'
p27
tp28
(lp29
F11.531302286818619
aF14.544417253627815
as(g8
S'paradoxus'
p30
tp31
(lp32
F6.694360588260283
aF7.721539874254839
as(g24
S'kluyveri'
p33
tp34
(lp35
F0.0
aF0.0
as(g12
g15
tp36
(lp37
F5.026401307569152
aF9.329293569582333
as(g15
S'mikatae'
p38
tp39
(lp40
F21.341896582666187
aF27.701161934477835
assS'ExpectedDwellTime'
p41
(dp42
g6
F238.33044316271426
sg10
F271.6657144337538
sg13
F274.0031381042493
sg16
F275.68428781368857
sg19
F200.10830865232808
sg22
F272.05031485519373
sg25
F125.8461653883379
sg28
F262.9707937246445
sg31
F275.3613160319298
sg34
F0.0
sg36
F275.21557330217024
sg39
F248.32058910885996
ssS'newicktree'
p43
S'../PairsAlignemt/YeastTree.newick'
p44
sS'll'
p45
cnumpy.core.multiarray
scalar
p46
(cnumpy
dtype
p47
(S'f8'
p48
I0
I1
tp49
Rp50
(I3
S'<'
p51
NNNI-1
I-1
I0
tp52
bS'\x1b\x93\x06\xf9\xc7\xe2\xaf\xc0'
p53
tp54
Rp55
sS'edge_list'
p56
(lp57
g25
ag34
ag6
ag19
ag13
ag22
ag36
ag28
ag16
ag39
ag10
ag31
asS'edge_to_blen'
p58
(dp59
g6
g46
(g50
S'X\xbaye\x8f\x1e\xb0?'
p60
tp61
Rp62
sg10
g46
(g50
S'\x10_\xd4\x85\x8b\x7f\x9d?'
p63
tp64
Rp65
sg13
g46
(g50
S'\xac6\x11m\xd1\x8a\x90?'
p66
tp67
Rp68
sg16
g46
(g50
S'\x15\xeb"\xefj-\x86?'
p69
tp70
Rp71
sg28
g46
(g50
S'y\xfcD\x12S\xbe\x96?'
p72
tp73
Rp74
sg22
g46
(g50
S'u/\xf1\xed\xb2\xcc\xa2?'
p75
tp76
Rp77
sg25
g46
(g50
S'\x9e\xed\x14\x8dp\xa6\xc0?'
p78
tp79
Rp80
sg19
g46
(g50
S'#\xe2\xb9\xd0\xa8`\xb7?'
p81
tp82
Rp83
sg31
g46
(g50
S'2\xd4\xdd\x8dK\xfa\x8d?'
p84
tp85
Rp86
sg34
g46
(g50
S'\x9e\xe2\x96#\xa2\xbc\x97?'
p87
tp88
Rp89
sg36
g46
(g50
S'\xadm\x1c*P1\x8e?'
p90
tp91
Rp92
sg39
g46
(g50
S'\xae\x94?k\xb1\xce\xa5?'
p93
tp94
Rp95
ssS'paralog'
p96
(lp97
S'YDR099W'
p98
aS'YER177W'
p99
asS'alignment_file'
p100
S'../MafftAlignment/YDR099W_YER177W/YDR099W_YER177W_input.fasta'
p101
sS'x_clock'
p102
NsS'x'
p103
cnumpy.core.multiarray
_reconstruct
p104
(cnumpy
ndarray
p105
(I0
tp106
S'b'
p107
tp108
Rp109
(I1
(I19
tp110
g50
I00
S'\x06\x05 \\\x93t\xe9\xbf\xea-\xe6\xcf\xbba\xe1\xbf\xac;\x0e\xf6\xba\x88\xe7\xbf\xc8\x802\xd8\x8c\x0f\x01@\xae\xdf-\x93\xe9\xf6\xea?xP\x11\x99\xdc\xd3\xfa?x\x85\xbc7Y,\xf2\xbf\x0b\xd2%p\x1fQ\x00\xc0\x90\xbd*_\x94\x1d\x0e\xc0\xffqs\xd1\t\x1f\x06\xc0\xfa\xb8\xc6\xfd\xae%\x03\xc0Q+\xa2\x1f\x91\x80\x10\xc0\x8a\xa2\x9e\xcc\x97o\n\xc0\xabO\xc7\xca:\xde\x10\xc0[.3U"u\x0e\xc0\x0b\x1a{`(\x1a\x12\xc0\x9fb\xde\x83\xa4?\t\xc0\xa9\xbc(\xe0\x8b`\x0c\xc0\x16\xb2zn\x8b\xe5\x10\xc0'
p111
tp112
bsS'Model'
p113
S'HKY'
p114
sS'clock'
p115
I00
s.