(dp0
S'Force'
p1
NsS'ExpectedGeneconv'
p2
(dp3
(S'N1'
p4
S'N2'
p5
tp6
F16.587576538439727
s(S'N5'
p7
S'cerevisiae'
p8
tp9
F5.412899015048994
s(g5
S'N3'
p10
tp11
F1.4923635073466934
s(S'N4'
p12
g7
tp13
F1.0084460090297536
s(g4
S'castellii'
p14
tp15
F36.7901408231588
s(g5
S'bayanus'
p16
tp17
F4.761798362381676
s(S'N0'
p18
g4
tp19
F1.7067998817522745e-10
s(g10
S'kudriavzevii'
p20
tp21
F1.965409358539959
s(g7
S'paradoxus'
p22
tp23
F1.7651042692757488
s(g18
S'kluyveri'
p24
tp25
F0.0
s(g10
g12
tp26
F2.696998481998784
s(g12
S'mikatae'
p27
tp28
F4.836769107260029
ssS'ExpectedDwellTime'
p29
(dp30
g6
F19.755398477417568
sg9
F46.05992292113815
sg11
F24.660182748091362
sg13
F40.29387932068747
sg15
F35.51456748002164
sg17
F20.008908269230886
sg19
F0.00010570327165450935
sg21
F38.92696659880834
sg23
F50.293403586657426
sg25
F0.0
sg26
F32.19816698502232
sg28
F40.846014166509384
ssS'newicktree'
p31
S'../PairsAlignemt/YeastTree.newick'
p32
sS'll'
p33
cnumpy.core.multiarray
scalar
p34
(cnumpy
dtype
p35
(S'f8'
p36
I0
I1
tp37
Rp38
(I3
S'<'
p39
NNNI-1
I-1
I0
tp40
bS'p\xb7:c\xdd\xb2\x93\xc0'
p41
tp42
Rp43
sS'edge_list'
p44
(lp45
g19
ag25
ag6
ag15
ag11
ag17
ag26
ag21
ag13
ag28
ag9
ag23
asS'edge_to_blen'
p46
(dp47
g6
g34
(g38
S'\xaa\x05\xb9>XL\xca?'
p48
tp49
Rp50
sg9
g34
(g38
S'9\xcb\xd5Y\xcf3\xa6?'
p51
tp52
Rp53
sg11
g34
(g38
S'\xeb\xe4\xd1J\x84\x86\x9b?'
p54
tp55
Rp56
sg13
g34
(g38
S'\x10<\xb9Z\xa2g\x95?'
p57
tp58
Rp59
sg21
g34
(g38
S'9\x87\xde\x01\xd6v\xa7?'
p60
tp61
Rp62
sg17
g34
(g38
S'\xa7\x98\x05\xdb)\x98\xa6?'
p63
tp64
Rp65
sg19
g34
(g38
S'\xcf\xa4\xd3;\x03>\xa3>'
p66
tp67
Rp68
sg15
g34
(g38
S'\x1f\xb9\x967\xff{\xda?'
p69
tp70
Rp71
sg23
g34
(g38
S'N\x80ze\xb2`\x9e?'
p72
tp73
Rp74
sg25
g34
(g38
S'C\xe7\xa5bQ\xb6\xd6?'
p75
tp76
Rp77
sg26
g34
(g38
S'_\xff\x80hR6\xa0?'
p78
tp79
Rp80
sg28
g34
(g38
S'\x9do\xee(\x81\x16\xab?'
p81
tp82
Rp83
ssS'paralog'
p84
(lp85
S'YLR333C'
p86
aS'YGR027C'
p87
asS'alignment_file'
p88
S'../MafftAlignment/YLR333C_YGR027C/YLR333C_YGR027C_input.fasta'
p89
sS'x_clock'
p90
NsS'x'
p91
cnumpy.core.multiarray
_reconstruct
p92
(cnumpy
ndarray
p93
(I0
tp94
S'b'
p95
tp96
Rp97
(I1
(I19
tp98
g38
I00
S'\xebf\xc5\x95$\x18\xe7\xbf\xe6J\x1d\x1a\xa4\x15\xe1\xbf\xad\xa4AA\xe4 \xea\xbf\xb5\xb9\xbc\xc9\x15Z\xfb?B\xb7{\xfd\xf0!\xfe\xbf\xd9\xbd\xed\xf3q\xb4\xf1?\x90\xc5N\xd3\xda\x7f\xea\xbf\xb8\x927\xa9>\xbe,\xc0&dD\x9ea\x93\xf0\xbf\xe23]\xe0\tR\xf9\xbf)\x97\x0f/\t<\xec\xbfk\xbc\xebpN\xee\x0c\xc0Ty46\t\xf7\x08\xc0\x83\x8c\x9d>\xd8\x9e\x0b\xc0\x11p\x85\x8c\xac\xa9\x08\xc0?90J^\xf1\x0e\xc0\x9cu\xe5\xc8\x8e\x83\x07\xc0pB\x98I\xe1\x1a\t\xc0B\xc4Y\x8e`$\x0c\xc0'
p99
tp100
bsS'Model'
p101
S'MG94'
p102
sS'clock'
p103
I00
s.