(dp0
S'Force'
p1
NsS'ExpectedGeneconv'
p2
(dp3
(S'N1'
p4
S'N2'
p5
tp6
(lp7
F11.669250588486891
aF14.091198214916398
as(S'N5'
p8
S'cerevisiae'
p9
tp10
(lp11
F6.3354547522146625
aF7.627465795514607
as(g5
S'N3'
p12
tp13
(lp14
F1.7448607762016926
aF1.9435375227926437
as(S'N4'
p15
g8
tp16
(lp17
F2.943344986307745
aF2.8770700014225734
as(g4
S'castellii'
p18
tp19
(lp20
F14.231596094261274
aF13.84702724761212
as(g5
S'bayanus'
p21
tp22
(lp23
F4.196666421777442
aF3.551052256448664
as(S'N0'
p24
g4
tp25
(lp26
F9.533993307568958
aF9.755821735663357
as(g12
S'kudriavzevii'
p27
tp28
(lp29
F8.717992298136537
aF6.0431103800920045
as(g8
S'paradoxus'
p30
tp31
(lp32
F2.2710243668432715
aF2.0347815983547557
as(g24
S'kluyveri'
p33
tp34
(lp35
F0.0
aF0.0
as(g12
g15
tp36
(lp37
F2.893392516175992
aF2.517718694059136
as(g15
S'mikatae'
p38
tp39
(lp40
F5.190858568411817
aF5.711391348356431
assS'ExpectedDwellTime'
p41
(dp42
g6
F80.06131754104426
sg10
F85.60495587185726
sg13
F92.10859346285316
sg16
F93.04194240850913
sg19
F75.46118897274475
sg22
F88.59007181100736
sg25
F39.72300884916314
sg28
F95.75385745727215
sg31
F90.35707463573858
sg34
F0.0
sg36
F93.16167413426093
sg39
F93.39720394504822
ssS'newicktree'
p43
S'../PairsAlignemt/YeastTree.newick'
p44
sS'll'
p45
cnumpy.core.multiarray
scalar
p46
(cnumpy
dtype
p47
(S'f8'
p48
I0
I1
tp49
Rp50
(I3
S'<'
p51
NNNI-1
I-1
I0
tp52
bS'r\x81\xc5=\x8f,\x9d\xc0'
p53
tp54
Rp55
sS'edge_list'
p56
(lp57
g25
ag34
ag6
ag19
ag13
ag22
ag36
ag28
ag16
ag39
ag10
ag31
asS'edge_to_blen'
p58
(dp59
g6
g46
(g50
S'q\xc6\x05m\xa4\x9a\xa5?'
p60
tp61
Rp62
sg10
g46
(g50
S'\xc2-\xe8k_\xf1\x8e?'
p63
tp64
Rp65
sg13
g46
(g50
S'\x9f\xc5\xb2\x16d\xc4t?'
p66
tp67
Rp68
sg16
g46
(g50
S'`S\xc5\x04\xb80z?'
p69
tp70
Rp71
sg28
g46
(g50
S'\xf4GnR&.\x96?'
p72
tp73
Rp74
sg22
g46
(g50
S'\xf0\xe4\xa2}k\xf4\x80?'
p75
tp76
Rp77
sg25
g46
(g50
S'\x96\xdekY\x96\xc7\xad?'
p78
tp79
Rp80
sg19
g46
(g50
S'B\xec\x8f\xe7b^\xa7?'
p81
tp82
Rp83
sg31
g46
(g50
S'd\xf3j\xf8L\xe8w?'
p84
tp85
Rp86
sg34
g46
(g50
S'\x14\x0cJ\xeb\xb1f\x97?'
p87
tp88
Rp89
sg36
g46
(g50
S'\xbd\xaf\xbc\xcf\x9f4\x81?'
p90
tp91
Rp92
sg39
g46
(g50
S'Gv\xb3\x08\xb5R\x8d?'
p93
tp94
Rp95
ssS'paralog'
p96
(lp97
S'YDR418W'
p98
aS'YEL054C'
p99
asS'alignment_file'
p100
S'../MafftAlignment/YDR418W_YEL054C/YDR418W_YEL054C_input.fasta'
p101
sS'x_clock'
p102
NsS'x'
p103
cnumpy.core.multiarray
_reconstruct
p104
(cnumpy
ndarray
p105
(I0
tp106
S'b'
p107
tp108
Rp109
(I1
(I19
tp110
g50
I00
S"\x16\xaa\xf1M\x9fX\xe8\xbf\x99UR.\x9aD\xe0\xbf\xcaYJ\x1b\xe2\x1f\xe9\xbf\xed%6\xf8\x9e\xa4\x03@\xf9J\x85\xc2\xe3\xb8\x00@\x17o\x80!\xac\xfa\x00@\xec_\xae\x1b\x8d_\xd4\xbf\xcd/\xb1\x16\x89\xc1\x06\xc0\x8f\x89*\x02\xc0:\x0e\xc0$\xd9\x7f\xb1\xd3R\t\xc0Ay\xaf\xe9\x06\xb2\x08\xc0z\xfa\xa3\x168#\x15\xc0\x85\x9c\xaf\xb3 -\x13\xc06<\x12j\x17\x1e\x13\xc0\xd2\n\xc6i|\xa8\x0e\xc0\xefrP@\xa25\x14\xc0\x98\x98\\s'\xfc\x10\xc0\xb0@S\x98\x18\xc5\x10\xc0\xed\x8b\xa6\xe0\x05\x93\x14\xc0"
p111
tp112
bsS'Model'
p113
S'HKY'
p114
sS'clock'
p115
I00
s.