(dp0
S'Force'
p1
NsS'ExpectedGeneconv'
p2
(dp3
(S'N1'
p4
S'N2'
p5
tp6
(lp7
F2.3438812898445507
aF12.74692869865075
as(S'N5'
p8
S'cerevisiae'
p9
tp10
(lp11
F0.8298931667371524
aF10.920253123256094
as(g5
S'N3'
p12
tp13
(lp14
F1.5709918602488286
aF5.330991211978668
as(S'N4'
p15
g8
tp16
(lp17
F0.03794853596828876
aF1.2421194866885652
as(g4
S'castellii'
p18
tp19
(lp20
F4.0872290088752665
aF13.113227469365725
as(g5
S'bayanus'
p21
tp22
(lp23
F0.6998038795332772
aF5.87834253903102
as(S'N0'
p24
g4
tp25
(lp26
F2.2751030174038553
aF9.964456731907951
as(g12
S'kudriavzevii'
p27
tp28
(lp29
F0.3687142401839149
aF6.294511323671004
as(g8
S'paradoxus'
p30
tp31
(lp32
F1.6811828411947527
aF1.058710452434067
as(g24
S'kluyveri'
p33
tp34
(lp35
F0.0
aF0.0
as(g12
g15
tp36
(lp37
F0.7312326742634933
aF3.0519585530858087
as(g15
S'mikatae'
p38
tp39
(lp40
F2.7739769214468564
aF5.5622923263848625
assS'ExpectedDwellTime'
p41
(dp42
g6
F59.182055099733425
sg10
F60.07407582824661
sg13
F62.64875385753571
sg16
F66.74932025907215
sg19
F61.32802582219108
sg22
F62.02148784910612
sg25
F31.167304488867806
sg28
F63.11475991261145
sg31
F71.31754782372631
sg34
F0.0
sg36
F64.93252632878077
sg39
F66.35676156235053
ssS'newicktree'
p43
S'../PairsAlignemt/YeastTree.newick'
p44
sS'll'
p45
cnumpy.core.multiarray
scalar
p46
(cnumpy
dtype
p47
(S'f8'
p48
I0
I1
tp49
Rp50
(I3
S'<'
p51
NNNI-1
I-1
I0
tp52
bS'[\x8b>B\x7fe\x94\xc0'
p53
tp54
Rp55
sS'edge_list'
p56
(lp57
g25
ag34
ag6
ag19
ag13
ag22
ag36
ag28
ag16
ag39
ag10
ag31
asS'edge_to_blen'
p58
(dp59
g25
g46
(g50
S'^\x14x\xccjd\xad?'
p60
tp61
Rp62
sg10
g46
(g50
S'\xbe\x1e\x116\xa68\x90?'
p63
tp64
Rp65
sg13
g46
(g50
S'\x81\x16\xf0\xeea\n\x8b?'
p66
tp67
Rp68
sg16
g46
(g50
S"\xebX\xb4\x9c'\x19i?"
p69
tp70
Rp71
sg19
g46
(g50
S'\x9e\x94\xdb\xc9\xfd\xbb\xa3?'
p72
tp73
Rp74
sg22
g46
(g50
S'|\xfa\\\xfe\xeb\x04\x88?'
p75
tp76
Rp77
sg6
g46
(g50
S'>\xb0\xf7\xa9\xab\xaa\x9f?'
p78
tp79
Rp80
sg28
g46
(g50
S'\xf9\x18\xe9A\xd8/\x89?'
p81
tp82
Rp83
sg31
g46
(g50
S'\x7f\x16$\xf8q\x8f\x81?'
p84
tp85
Rp86
sg39
g46
(g50
S's\x0b\x1a\xc4\xae\xe1\x8e?'
p87
tp88
Rp89
sg36
g46
(g50
S'$]\xbd\x8d\x88?\x81?'
p90
tp91
Rp92
sg34
g46
(g50
S'W\x7f\x0f#\x8e<\x90>'
p93
tp94
Rp95
ssS'paralog'
p96
(lp97
S'YER131W'
p98
aS'YGL189C'
p99
asS'alignment_file'
p100
S'../MafftAlignment/YER131W_YGL189C/YER131W_YGL189C_input.fasta'
p101
sS'x_clock'
p102
NsS'x'
p103
cnumpy.core.multiarray
_reconstruct
p104
(cnumpy
ndarray
p105
(I0
tp106
S'b'
p107
tp108
Rp109
(I1
(I19
tp110
g50
I00
S'A`\x07\xce9\x87\xe6\xbf\xce\xa6\xb9{\xc1F\xdd\xbfB\xc3\xca\x8af@\xe5\xbf\xa6\x95w\xb5\xc6\xe3\x01@>\x96j.\xdbF\xf1?\xb9$\x02\xf6\xf4t\x04@8\xe9?\xa0<\xbe\xd7?\xd6_9\xf2Y\xdc\x06\xc0F\xb2f\x89\x18x.\xc06ZMxE\xcf\x0b\xc0\xf7\xf6A\x027\x0c\n\xc0\xd36\xa3\xc9"O\x11\xc0\xe8O\x1avv\xc8\x11\xc0P\xda\xbe\xf3\x8e\x1b\x13\xc0%I\xf5\xb3\xda\x97\x11\xc0vn\xdd\x90\x07\'\x17\xc0\x87\xbbWX \xc7\x10\xc0\xf2Vl\x89\xa1\x94\x10\xc0\x9b\x97\'\x1f1\t\x13\xc0'
p111
tp112
bsS'Model'
p113
S'HKY'
p114
sS'clock'
p115
I00
s.