(dp0
S'Force'
p1
NsS'ExpectedGeneconv'
p2
(dp3
(S'N1'
p4
S'N2'
p5
tp6
F21.86799264173089
s(S'N5'
p7
S'cerevisiae'
p8
tp9
F2.3471246964738226
s(g5
S'N3'
p10
tp11
F4.681874962472028
s(S'N4'
p12
g7
tp13
F4.101774087455107
s(g4
S'castellii'
p14
tp15
F20.76592586134745
s(g5
S'bayanus'
p16
tp17
F8.018269744739182
s(S'N0'
p18
g4
tp19
F19.49006669918288
s(g10
S'kudriavzevii'
p20
tp21
F15.167565424105323
s(g7
S'paradoxus'
p22
tp23
F6.2652268860499785
s(g18
S'kluyveri'
p24
tp25
F0.0
s(g10
g12
tp26
F5.459062004981641
s(g12
S'mikatae'
p27
tp28
F17.099440244973234
ssS'ExpectedDwellTime'
p29
(dp30
g6
F56.56972866932317
sg9
F54.40693928563077
sg11
F59.49997404183924
sg13
F53.693396892227945
sg15
F51.71559154372368
sg17
F56.036949907197815
sg19
F29.52899254524484
sg21
F61.4477603541969
sg23
F50.30360843444754
sg25
F0.0
sg26
F56.47423094613125
sg28
F47.806544438181376
ssS'newicktree'
p31
S'../PairsAlignemt/YeastTree.newick'
p32
sS'll'
p33
cnumpy.core.multiarray
scalar
p34
(cnumpy
dtype
p35
(S'f8'
p36
I0
I1
tp37
Rp38
(I3
S'<'
p39
NNNI-1
I-1
I0
tp40
bS'o\x19\x8bK\x066\x98\xc0'
p41
tp42
Rp43
sS'edge_list'
p44
(lp45
g19
ag25
ag6
ag15
ag11
ag17
ag26
ag21
ag13
ag28
ag9
ag23
asS'edge_to_blen'
p46
(dp47
g6
g34
(g38
S'\xd3\x97\x97\x878\xff\x9c?'
p48
tp49
Rp50
sg9
g34
(g38
S'G\x98db\x15\x0bn?'
p51
tp52
Rp53
sg11
g34
(g38
S'\x89\xc4\xd83\xdf\xd1s?'
p54
tp55
Rp56
sg13
g34
(g38
S'\x1f\xbb\xcc\xc8QHt?'
p57
tp58
Rp59
sg21
g34
(g38
S'y\xb2lp<\x8b\x94?'
p60
tp61
Rp62
sg17
g34
(g38
S'\xb0u\xaa\xa7\x81\xf5|?'
p63
tp64
Rp65
sg19
g34
(g38
S'\xa8k\xc1\xfc\x95\x0c\xa8?'
p66
tp67
Rp68
sg15
g34
(g38
S'\xe2\xa1n31[\x9b?'
p69
tp70
Rp71
sg23
g34
(g38
S'\x8c\xdfC\x89\xc3\xd1y?'
p72
tp73
Rp74
sg25
g34
(g38
S'\x84\xc0N\xe9\xb3\x93\x80?'
p75
tp76
Rp77
sg26
g34
(g38
S']\xfcl\x94\x08\x01v?'
p78
tp79
Rp80
sg28
g34
(g38
S'B.\x8c{\x067\x92?'
p81
tp82
Rp83
ssS'paralog'
p84
(lp85
S'YBR191W'
p86
aS'YPL079W'
p87
asS'alignment_file'
p88
S'../MafftAlignment/YBR191W_YPL079W/YBR191W_YPL079W_input.fasta'
p89
sS'x_clock'
p90
NsS'x'
p91
cnumpy.core.multiarray
_reconstruct
p92
(cnumpy
ndarray
p93
(I0
tp94
S'b'
p95
tp96
Rp97
(I1
(I18
tp98
g38
I00
S'\xf0@m\xfe\xaa\xdd\xe7\xbf\xcdm\x8c\x06\x11\xa7\xe0\xbf\xc3\n\xe18\x8a;\xe9\xbf\xda:\x01!\xa6\x96\x03@\xca\x11\xfe\x86\x0e\xa2\x05@n\x81\xed\xd8\x9b\xf1\xdf\xbf#\x13o[>w\x08\xc0\xe3\xe8\xa5\x174D\x13\xc07\x87\x1c\xb9\xa5\x83\x0c\xc0\xd8\x10.\xe8\xef\xfa\x0c\xc0\x9en:\xb7\x07S\x15\xc0rMo\xe3\xba\xce\x13\xc0,$\xfd(\xfa\xe7\x14\xc0\xfc\xc6\x87\xa7qE\x0f\xc0=\xc9"gf;\x15\xc0\xd2\xc9\x10X\xee\x1d\x10\xc0]P?V\xdfn\x16\xc0\x89\x9aBb=D\x14\xc0'
p99
tp100
bsS'Model'
p101
S'HKY'
p102
sS'clock'
p103
I00
s.