(dp0
S'Force'
p1
NsS'ExpectedGeneconv'
p2
(dp3
(S'N1'
p4
S'N2'
p5
tp6
(lp7
F9.124192899046934
aF7.540718759060632
as(S'N5'
p8
S'cerevisiae'
p9
tp10
(lp11
F4.481022647634054
aF4.849277076106929
as(g5
S'N3'
p12
tp13
(lp14
F1.7410652885211135
aF1.463328862516662
as(S'N4'
p15
g8
tp16
(lp17
F2.038401074496377
aF2.1014603484991756
as(g4
S'castellii'
p18
tp19
(lp20
F5.6780815813102405
aF4.624124010122603
as(g5
S'bayanus'
p21
tp22
(lp23
F2.17996234719064
aF1.0022390854007017
as(S'N0'
p24
g4
tp25
(lp26
F0.07301649616465
aF0.06000925444451549
as(g12
S'kudriavzevii'
p27
tp28
(lp29
F5.83689458316528
aF3.7984790497176695
as(g8
S'paradoxus'
p30
tp31
(lp32
F1.2809849252020886
aF1.1659100863005578
as(g24
S'kluyveri'
p33
tp34
(lp35
F0.0
aF0.0
as(g12
g15
tp36
(lp37
F2.2121909875718058
aF1.483975923514054
as(g15
S'mikatae'
p38
tp39
(lp40
F3.4457025956566807
aF2.65898928173389
assS'ExpectedDwellTime'
p41
(dp42
g6
F53.14761936206003
sg10
F80.8615839931909
sg13
F80.77753906522375
sg16
F84.1210365401033
sg19
F51.27181665555114
sg22
F81.68257856139509
sg25
F6.000638863527265
sg28
F88.23843979761723
sg31
F84.2908950542798
sg34
F0.0
sg36
F82.90347876487608
sg39
F87.88063601974301
ssS'newicktree'
p43
S'../PairsAlignemt/YeastTree.newick'
p44
sS'll'
p45
cnumpy.core.multiarray
scalar
p46
(cnumpy
dtype
p47
(S'f8'
p48
I0
I1
tp49
Rp50
(I3
S'<'
p51
NNNI-1
I-1
I0
tp52
bS'\x12U\xdc\xb8\x8a+\x9b\xc0'
p53
tp54
Rp55
sS'edge_list'
p56
(lp57
g25
ag34
ag6
ag19
ag13
ag22
ag36
ag28
ag16
ag39
ag10
ag31
asS'edge_to_blen'
p58
(dp59
g6
g46
(g50
S'\xc2\xad1\xff$\xca\xca?'
p60
tp61
Rp62
sg10
g46
(g50
S'\x8e\xf2\x83O/\xa9\xad?'
p63
tp64
Rp65
sg13
g46
(g50
S'\x99\x99~(\xd2O\x99?'
p66
tp67
Rp68
sg16
g46
(g50
S'\x16\n\x86\\\x05\xb2\x99?'
p69
tp70
Rp71
sg19
g46
(g50
S'\xf6F1zYZ\xc6?'
p72
tp73
Rp74
sg22
g46
(g50
S'\xf4_\xea\x16i/\x9c?'
p75
tp76
Rp77
sg25
g46
(g50
S'-\x8f\x81\x19\x8d\x03\x93?'
p78
tp79
Rp80
sg28
g46
(g50
S'p`\n\x06\xd7\xdc\xb5?'
p81
tp82
Rp83
sg31
g46
(g50
S'\x05\xe8\x80\x1c\xd7d\x96?'
p84
tp85
Rp86
sg34
g46
(g50
S'\x9d\x00\xb8o}h\xcb?'
p87
tp88
Rp89
sg36
g46
(g50
S']\xb1d\x8f\x84E\xa0?'
p90
tp91
Rp92
sg39
g46
(g50
S'\x9e\x1b[\xe1\xcb\x0b\xad?'
p93
tp94
Rp95
ssS'paralog'
p96
(lp97
S'YDR418W'
p98
aS'YEL054C'
p99
asS'alignment_file'
p100
S'../MafftAlignment/YDR418W_YEL054C/YDR418W_YEL054C_input.fasta'
p101
sS'x_clock'
p102
NsS'x'
p103
cnumpy.core.multiarray
_reconstruct
p104
(cnumpy
ndarray
p105
(I0
tp106
S'b'
p107
tp108
Rp109
(I1
(I20
tp110
g50
I00
S"\x8fY^e\x10!\xe7\xbf\xe4%h\x16tF\xdf\xbf#\x1a\x07>M\x96\xec\xbf\xfe\xa7^$X\x01\x01@e\x90\xf1\x08:\x98\x04\xc0\xf5\xc7K\xc9\xe5\r\xdf?\xa7D\xc2\x0e$\x90\xc8?\x82XC\xdb[\x80\xc9\xbf\xff\xe9\xce\xd3\xf2\xe3\x0f\xc0\x00\xa1\xd7&\xb6\xa8\xf8\xbfo\\\x9e\x1e5\x06\xf9\xbfyA\xe3\x9d\xd1\xeb\xfb\xbf+\xec'\x08\x03\x9a\r\xc0sHjT\xcc\xbd\x0c\xc0\x1f\xf8\xf3!\\\x97\x0b\xc0\x12\xbc8\xde\xe4\xae\x03\xc0\xd3\x92\xd2/5{\r\xc0\x9c\n\x1f\x89\x9d\xf4\x06\xc0\xaf\x8d\x95\x1a\xb8\xc9\x06\xc0\te\xb0\xc2\xda\x94\x0e\xc0"
p111
tp112
bsS'Model'
p113
S'MG94'
p114
sS'clock'
p115
I00
s.