(dp0
S'Force'
p1
NsS'ExpectedGeneconv'
p2
(dp3
(S'N1'
p4
S'N2'
p5
tp6
(lp7
F53.81550733861966
aF30.850726275267412
as(S'N5'
p8
S'cerevisiae'
p9
tp10
(lp11
F4.010159983740384
aF5.018663539541848
as(g5
S'N3'
p12
tp13
(lp14
F2.9275226042969615
aF2.620057811916229
as(S'N4'
p15
g8
tp16
(lp17
F1.2248042921684508
aF2.1228147255508643
as(g4
S'castellii'
p18
tp19
(lp20
F90.44989950598261
aF52.793186028480264
as(g5
S'bayanus'
p21
tp22
(lp23
F6.3782511615513995
aF5.99652916149331
as(S'N0'
p24
g4
tp25
(lp26
F0.0
aF0.0
as(g12
S'kudriavzevii'
p27
tp28
(lp29
F6.639418355375592
aF8.229996741492409
as(g8
S'paradoxus'
p30
tp31
(lp32
F2.959341524702251
aF2.1866853044818573
as(g24
S'kluyveri'
p33
tp34
(lp35
F0.0
aF0.0
as(g12
g15
tp36
(lp37
F2.2912283440792423
aF2.8722488293093877
as(g15
S'mikatae'
p38
tp39
(lp40
F7.456969232332209
aF6.943954268569508
assS'ExpectedDwellTime'
p41
(dp42
g6
F434.6105334618804
sg10
F575.0123791639635
sg13
F574.0786874643586
sg16
F576.2907804758627
sg19
F494.41513380957304
sg22
F571.2702488054647
sg25
F0.0
sg28
F580.550934380764
sg31
F587.9065317744908
sg34
F0.0
sg36
F575.8722747525138
sg39
F569.9962808583051
ssS'newicktree'
p43
S'../PairsAlignemt/YeastTree.newick'
p44
sS'll'
p45
cnumpy.core.multiarray
scalar
p46
(cnumpy
dtype
p47
(S'f8'
p48
I0
I1
tp49
Rp50
(I3
S'<'
p51
NNNI-1
I-1
I0
tp52
bS'\xb6#1\r\xe4o\xc2\xc0'
p53
tp54
Rp55
sS'edge_list'
p56
(lp57
g25
ag34
ag6
ag19
ag13
ag22
ag36
ag28
ag16
ag39
ag10
ag31
asS'edge_to_blen'
p58
(dp59
g25
g46
(g50
S'\x17\xf1\x03\xf1\x18\xcbX/'
p60
tp61
Rp62
sg10
g46
(g50
S'\xb9\xa1\xa1\t\x08s\xca?'
p63
tp64
Rp65
sg13
g46
(g50
S'#\x16\n\x00r>\xc2?'
p66
tp67
Rp68
sg16
g46
(g50
S'Q\xf4\xb6/s\x11\xbc?'
p69
tp70
Rp71
sg19
g46
(g50
S',\xfb\xba\xbaS\xc3\x08@'
p72
tp73
Rp74
sg22
g46
(g50
S'd\xc5\x1cYS]\xd4?'
p75
tp76
Rp77
sg6
g46
(g50
S'"6\xd1\x8eQ\xc2\xfd?'
p78
tp79
Rp80
sg28
g46
(g50
S'o$\xd1Nl;\xd4?'
p81
tp82
Rp83
sg31
g46
(g50
S'\xf7\x81W\xe8\xda7\xc3?'
p84
tp85
Rp86
sg39
g46
(g50
S'\x02\xee\n\x97\x0b\x1f\xd4?'
p87
tp88
Rp89
sg36
g46
(g50
S'\x1a\xc5\x8f\x16\x01\xfc\xbc?'
p90
tp91
Rp92
sg34
g46
(g50
S'r\xf3j0C\x0f\x04@'
p93
tp94
Rp95
ssS'paralog'
p96
(lp97
S'YPR157W'
p98
aS'YGR141W'
p99
asS'alignment_file'
p100
S'../MafftAlignment/YPR157W_YGR141W/YPR157W_YGR141W_input.fasta'
p101
sS'x_clock'
p102
NsS'x'
p103
cnumpy.core.multiarray
_reconstruct
p104
(cnumpy
ndarray
p105
(I0
tp106
S'b'
p107
tp108
Rp109
(I1
(I20
tp110
g50
I00
S'\xfa\x14\x93\x9cF\x16\xe5\xbf\xacy\xacd\xd0\xb3\xe1\xbf\x03\xa2\x17\x0f\x96\xcd\xed\xbf\\\x9a\xbbY\x9a\xfc\xed?ek\x82\xfc#i\x05\xc0\xf7\x817\xa2\xdd*\x14\xc0\x08\xf9\x81i>\xe2[\xc0\xf6\xe3\xce\x89j\xb5U\xc0j\xc44\xa0\r\xfef\xc0\xe8\xbf\xf1$\xa3j\xed?y\xf4v\xc4\x80\xdb\xe3?\x18\xa7\xd2^\x1b\x14\xf2?\xe3I)\xac\xd1+\xff\xbf\x97\xa3\xd3\x0cGR\xf2\xbf\x88\xcaVtgm\x01\xc0R\xd9\xefA\x00m\xf2\xbf\xcf\xbc\xa9]0\xaf\x01\xc0\xfb\xf7o&\x81\x83\xf2\xbf\x0f\xa0.\x98\x91:\xf9\xbf\x9bS\x97\xdd\xb9V\xfe\xbf'
p111
tp112
bsS'Model'
p113
S'MG94'
p114
sS'clock'
p115
I00
s.