(dp0
S'Force'
p1
NsS'ExpectedGeneconv'
p2
(dp3
(S'N1'
p4
S'N2'
p5
tp6
(lp7
F7.914727753995469
aF7.631904974327056
as(S'N5'
p8
S'cerevisiae'
p9
tp10
(lp11
F6.107232951710796
aF3.035143886682459
as(g5
S'N3'
p12
tp13
(lp14
F0.8803030095507434
aF1.6094776993284199
as(S'N4'
p15
g8
tp16
(lp17
F1.9175190397265176
aF0.9689488868676386
as(g4
S'castellii'
p18
tp19
(lp20
F15.568884046170545
aF18.398136197651713
as(g5
S'bayanus'
p21
tp22
(lp23
F5.262501775040124
aF6.858017998768804
as(S'N0'
p24
g4
tp25
(lp26
F17.71537533065784
aF20.433172471063827
as(g12
S'kudriavzevii'
p27
tp28
(lp29
F8.159154707890494
aF10.795115351813635
as(g8
S'paradoxus'
p30
tp31
(lp32
F0.6916753227428712
aF5.159595718756391
as(g24
S'kluyveri'
p33
tp34
(lp35
F0.0
aF0.0
as(g12
g15
tp36
(lp37
F8.82822951484812e-06
aF1.5116593473967578e-05
as(g15
S'mikatae'
p38
tp39
(lp40
F8.308323821973392
aF7.151665794016319
assS'ExpectedDwellTime'
p41
(dp42
g6
F55.9521061570187
sg10
F50.393492460594366
sg13
F58.20479571280454
sg16
F57.211948274052766
sg19
F47.260425662991025
sg22
F54.544815889321136
sg25
F34.549236102300604
sg28
F54.946628863336045
sg31
F53.77522426252801
sg34
F0.0
sg36
F58.17591713108205
sg39
F57.506813583382524
ssS'newicktree'
p43
S'../PairsAlignemt/YeastTree.newick'
p44
sS'll'
p45
cnumpy.core.multiarray
scalar
p46
(cnumpy
dtype
p47
(S'f8'
p48
I0
I1
tp49
Rp50
(I3
S'<'
p51
NNNI-1
I-1
I0
tp52
bS'\xa6\x14\xe9\xd2\xfa\xce\x96\xc0'
p53
tp54
Rp55
sS'edge_list'
p56
(lp57
g25
ag34
ag6
ag19
ag13
ag22
ag36
ag28
ag16
ag39
ag10
ag31
asS'edge_to_blen'
p58
(dp59
g6
g46
(g50
S'\x8e\x7f\xd4\x88\x1e\xa8\x94?'
p60
tp61
Rp62
sg10
g46
(g50
S'7-\x11\n\xa7\x10\x83?'
p63
tp64
Rp65
sg13
g46
(g50
S'\xc2\x05xr\xae\x16h?'
p66
tp67
Rp68
sg16
g46
(g50
S'k#\xb0\xf2\x89\xd1h?'
p69
tp70
Rp71
sg28
g46
(g50
S'\x8b\xae\x8d\x01I\xec\x96?'
p72
tp73
Rp74
sg22
g46
(g50
S'\xc7\xa6d\xfa\x93 \x8b?'
p75
tp76
Rp77
sg25
g46
(g50
S'\xa9qh\x0c3\x18\xb4?'
p78
tp79
Rp80
sg19
g46
(g50
S'~}\x947X,\xa4?'
p81
tp82
Rp83
sg31
g46
(g50
S';\xbb{\x99c\xa0{?'
p84
tp85
Rp86
sg34
g46
(g50
S'\xcdjA\xeb\xb4\x11(>'
p87
tp88
Rp89
sg36
g46
(g50
S'j\x18\xb2S\xc0eq>'
p90
tp91
Rp92
sg39
g46
(g50
S's\xaa\xbb\x0cP\xf0\x93?'
p93
tp94
Rp95
ssS'paralog'
p96
(lp97
S'YML026C'
p98
aS'YDR450W'
p99
asS'alignment_file'
p100
S'../MafftAlignment/YML026C_YDR450W/YML026C_YDR450W_input.fasta'
p101
sS'x_clock'
p102
NsS'x'
p103
cnumpy.core.multiarray
_reconstruct
p104
(cnumpy
ndarray
p105
(I0
tp106
S'b'
p107
tp108
Rp109
(I1
(I19
tp110
g50
I00
S"\xb5\xa3\xdc\x02\x88h\xe7\xbfS\x03\x06\x15\x96\x07\xe1\xbf\xae\x88/&'<\xe9\xbfz\xd9\x18\x0f<\xc2\x01@\xdd\x1d\x8dB\x0b6\x05@\xad\x8b\xb4\x16\x9fo\x06@\x05\x999fd\x96\xdd\xbf\x107\xffS\x9b[\x04\xc01\x19\xc7\x8dc\xb13\xc0FP:2::\x0f\xc0\xcc\x18n\xec*\xdf\t\xc0-\xecx*\x13Q\x17\xc0\xe8AD\x9c\xdbK\x11\xc0\x17{\x02\x89B\x8d0\xc0\xc6\xe4\x91\xeb\x07e\x0e\xc0\xaf\x94\xb4\xdf\x812\x17\xc0\x03\xf7\x94\xda\xad\x82\x0f\xc0\x81\xcc\x9a(\x01\xb5\x12\xc0\xb9\xaa\xa7;\xf7\xfe\x13\xc0"
p111
tp112
bsS'Model'
p113
S'HKY'
p114
sS'clock'
p115
I00
s.