(dp0
S'Force'
p1
NsS'ExpectedGeneconv'
p2
(dp3
(S'N1'
p4
S'N2'
p5
tp6
F16.56334615746028
s(S'N5'
p7
S'cerevisiae'
p8
tp9
F6.049444606207701
s(g5
S'N3'
p10
tp11
F2.7580920822256756
s(S'N4'
p12
g7
tp13
F0.5320082386219152
s(g4
S'castellii'
p14
tp15
F11.380579832541304
s(g5
S'bayanus'
p16
tp17
F8.585445131731017
s(S'N0'
p18
g4
tp19
F1.9492167049007794e-10
s(g10
S'kudriavzevii'
p20
tp21
F10.798954953338495
s(g7
S'paradoxus'
p22
tp23
F5.551338742485692
s(g18
S'kluyveri'
p24
tp25
F0.0
s(g10
g12
tp26
F0.0013915534725170444
s(g12
S'mikatae'
p27
tp28
F7.284861373463896
ssS'ExpectedDwellTime'
p29
(dp30
g6
F25.344181731311195
sg9
F51.212561375698854
sg11
F42.24131936103344
sg13
F49.50779862706022
sg15
F26.107342033143905
sg17
F34.75904830908639
sg19
F0.00012890634169051256
sg21
F56.85092998831611
sg23
F47.531406651570514
sg25
F0.0
sg26
F48.777889381319085
sg28
F53.72762627129555
ssS'newicktree'
p31
S'../PairsAlignemt/YeastTree.newick'
p32
sS'll'
p33
cnumpy.core.multiarray
scalar
p34
(cnumpy
dtype
p35
(S'f8'
p36
I0
I1
tp37
Rp38
(I3
S'<'
p39
NNNI-1
I-1
I0
tp40
bS'\x8a\x1a\x95\x1b0\xd3\x92\xc0'
p41
tp42
Rp43
sS'edge_list'
p44
(lp45
g19
ag25
ag6
ag15
ag11
ag17
ag26
ag21
ag13
ag28
ag9
ag23
asS'edge_to_blen'
p46
(dp47
g19
g34
(g38
S'j\xa8l\x12P\x13\xa0>'
p48
tp49
Rp50
sg9
g34
(g38
S'\xeejAw\x11z\xa0?'
p51
tp52
Rp53
sg11
g34
(g38
S'\xa5|\xe6\xf6\x84\x85\xa0?'
p54
tp55
Rp56
sg13
g34
(g38
S'\xeag\x00QUjs?'
p57
tp58
Rp59
sg15
g34
(g38
S'\x01\x1e\x99\xac\xcb\xde\xc1?'
p60
tp61
Rp62
sg17
g34
(g38
S'\x1f\xc2\xd9\xdc\xcc+\xac?'
p63
tp64
Rp65
sg6
g34
(g38
S'\xc4g\xe6\x84h$\xc5?'
p66
tp67
Rp68
sg21
g34
(g38
S'\x1cA\xc0\x044\xd8\xb5?'
p69
tp70
Rp71
sg23
g34
(g38
S':\xe2Gv{\x7f\xa0?'
p72
tp73
Rp74
sg25
g34
(g38
S'\x1a_X\xbey\x15\xb0?'
p75
tp76
Rp77
sg26
g34
(g38
S'\xbeE\xec\xc0\xee\xad\xe3>'
p78
tp79
Rp80
sg28
g34
(g38
S'\x1e(L\xd3\x8d\x95\xab?'
p81
tp82
Rp83
ssS'paralog'
p84
(lp85
S'YMR143W'
p86
aS'YDL083C'
p87
asS'alignment_file'
p88
S'../MafftAlignment/YMR143W_YDL083C/YMR143W_YDL083C_input.fasta'
p89
sS'x_clock'
p90
NsS'x'
p91
cnumpy.core.multiarray
_reconstruct
p92
(cnumpy
ndarray
p93
(I0
tp94
S'b'
p95
tp96
Rp97
(I1
(I19
tp98
g38
I00
S"\xd8TTAQ\x18\xe7\xbf\x91\xf7\xcaM\x11\x07\xe0\xbf\x15\xa6{B[\x08\xed\xbf\xe3\x92\x86Y\x9aS\x03@\\8\xe3\x0e\xb2\xbb\r\xc0\xe0\xb4^:\x0em\xef?\xff\xd8Ib\xaa%\xf9\xbf\x9b\x89+`O\x1a-\xc03@.N\x8d#\x06\xc0\x8f\xe4\xba\xea\xe7\xcf\xfc\xbf\xb0\x99\xb0:\x93\x80\xff\xbf\x9a\xd4:\xe8!x\x0b\xc0*\xda\xe1\xf9A3\x07\xc0\xd9\xd5\x8eA-''\xc0\xfb\x16\xdbe\x97\xb0\x03\xc0\xa6\x88\x02l$h\x15\xc0\x1b7A\x0e`^\x07\xc0\x9dP`O\xaf}\x0b\xc0\x95\xd4c\xcc\x0e{\x0b\xc0"
p99
tp100
bsS'Model'
p101
S'MG94'
p102
sS'clock'
p103
I00
s.