(dp0
S'Force'
p1
NsS'ExpectedGeneconv'
p2
(dp3
(S'N1'
p4
S'N2'
p5
tp6
(lp7
F7.841787001506414
aF10.617635075002578
as(S'N5'
p8
S'cerevisiae'
p9
tp10
(lp11
F3.40860748918327
aF3.2568102998514217
as(g5
S'N3'
p12
tp13
(lp14
F0.6060904886180156
aF0.9467454226110811
as(S'N4'
p15
g8
tp16
(lp17
F0.2069692895375452
aF0.9931919940038892
as(g4
S'castellii'
p18
tp19
(lp20
F8.712245773636774
aF8.172480257822533
as(g5
S'bayanus'
p21
tp22
(lp23
F7.618846920893214
aF7.32580878338394
as(S'N0'
p24
g4
tp25
(lp26
F4.348486716487514
aF5.6980464997712295
as(g12
S'kudriavzevii'
p27
tp28
(lp29
F4.191998466155784
aF4.229149525555582
as(g8
S'paradoxus'
p30
tp31
(lp32
F3.059202876104254
aF6.099101281939646
as(g24
S'kluyveri'
p33
tp34
(lp35
F0.0
aF0.0
as(g12
g15
tp36
(lp37
F3.0500679667601625
aF3.4317866480030172
as(g15
S'mikatae'
p38
tp39
(lp40
F4.675904977798994
aF4.695914464893892
assS'ExpectedDwellTime'
p41
(dp42
g6
F45.21428746441375
sg10
F52.82397153909124
sg13
F54.04441106304615
sg16
F54.32716105572967
sg19
F40.544712007624256
sg22
F41.31596878266682
sg25
F21.7073586393278
sg28
F63.7376655144378
sg31
F49.339668937204564
sg34
F0.0
sg36
F55.90961232624807
sg39
F56.344661844556065
ssS'newicktree'
p43
S'../PairsAlignemt/YeastTree.newick'
p44
sS'll'
p45
cnumpy.core.multiarray
scalar
p46
(cnumpy
dtype
p47
(S'f8'
p48
I0
I1
tp49
Rp50
(I3
S'<'
p51
NNNI-1
I-1
I0
tp52
bS'\xb4\x05<3<\xa4\x94\xc0'
p53
tp54
Rp55
sS'edge_list'
p56
(lp57
g25
ag34
ag6
ag19
ag13
ag22
ag36
ag28
ag16
ag39
ag10
ag31
asS'edge_to_blen'
p58
(dp59
g6
g46
(g50
S's\xf6-+O\x92\xa0?'
p60
tp61
Rp62
sg10
g46
(g50
S'\x8a\x12\xf8\xa7\xa8\x8f\x80?'
p63
tp64
Rp65
sg13
g46
(g50
S'jL7\xff\xdf\xa7u?'
p66
tp67
Rp68
sg16
g46
(g50
S"K'\x1a\x02k\xa5\\?"
p69
tp70
Rp71
sg28
g46
(g50
S'\xe3\x82\xbeu"\xa5\x8e?'
p72
tp73
Rp74
sg22
g46
(g50
S'\x0c- \x98p[\x92?'
p75
tp76
Rp77
sg25
g46
(g50
S'\\M\x11\x1b\x05\xd2\xa2?'
p78
tp79
Rp80
sg19
g46
(g50
S'\xbf\xeb}\xbb{\xbb\x9d?'
p81
tp82
Rp83
sg31
g46
(g50
S'q\xed\xff\x85:\xa6\x85?'
p84
tp85
Rp86
sg34
g46
(g50
S'\x85D\xf5\x9f\x99:\x85>'
p87
tp88
Rp89
sg36
g46
(g50
S'\x1eV\x87=\xb6;~?'
p90
tp91
Rp92
sg39
g46
(g50
S'M\xe2l\x13|&\x8e?'
p93
tp94
Rp95
ssS'paralog'
p96
(lp97
S'YMR143W'
p98
aS'YDL083C'
p99
asS'alignment_file'
p100
S'../MafftAlignment/YMR143W_YDL083C/YMR143W_YDL083C_input.fasta'
p101
sS'x_clock'
p102
NsS'x'
p103
cnumpy.core.multiarray
_reconstruct
p104
(cnumpy
ndarray
p105
(I0
tp106
S'b'
p107
tp108
Rp109
(I1
(I19
tp110
g50
I00
S'\xdcN\xa7brj\xe8\xbf\x9d\x91\x07\xb4i~\xe0\xbfV~F \x15\xb5\xea\xbf\x9b\xc9\xf7\xb7\xbdE\x08@\xfc\xd7\xd0\xcblE\x03@\xd4\x99y\xa7\xb5\x9f\x05@[\xe9\xb4\xa6\x7f!\xe8\xbf\xb4\xd75uTm\n\xc0}\x05Pj\xb8Q/\xc0\xf6\x85\xcc\xe0\xf2q\x0b\xc0\xa6\x89Q\xe9ZP\x0c\xc0\x9b7s\x82P\xf8\x14\xc0Q\xbf/)\xf7\x15\x10\xc0D\xf4\x87\xb9\xa2\xa2\x13\xc0\xcd\xa0D\xc8\xff\xce\x10\xc0\xf6L\xde\xffje\x19\xc0\xa3\x0e\xa4M\xaa\xdf\x10\xc0<\xd9h\x04.E\x13\xc0c\xf3\r\xff\xd52\x12\xc0'
p111
tp112
bsS'Model'
p113
S'HKY'
p114
sS'clock'
p115
I00
s.