(dp0
S'Force'
p1
NsS'ExpectedGeneconv'
p2
(dp3
(S'N1'
p4
S'N2'
p5
tp6
F283.838750445827
s(S'N5'
p7
S'cerevisiae'
p8
tp9
F11.93554251380106
s(g5
S'N3'
p10
tp11
F14.089483786437734
s(S'N4'
p12
g7
tp13
F8.371823425721173
s(g4
S'castellii'
p14
tp15
F317.88604745435305
s(g5
S'bayanus'
p16
tp17
F18.59175019148176
s(S'N0'
p18
g4
tp19
F52.392025783042634
s(g10
S'kudriavzevii'
p20
tp21
F17.309939644546848
s(g7
S'paradoxus'
p22
tp23
F8.245607125667902
s(g18
S'kluyveri'
p24
tp25
F0.0
s(g10
g12
tp26
F6.664326721688641
s(g12
S'mikatae'
p27
tp28
F18.832136404096552
ssS'ExpectedDwellTime'
p29
(dp30
g6
F1205.84320599105
sg9
F1315.5265048473475
sg11
F1302.3095537632882
sg13
F1315.2927443671026
sg15
F1226.6025976107062
sg17
F1303.978458645457
sg19
F628.4566824505873
sg21
F1309.0058499496372
sg23
F1326.0269736427551
sg25
F0.0
sg26
F1307.7266111176286
sg28
F1327.6977121265684
ssS'newicktree'
p31
S'../PairsAlignemt/YeastTree.newick'
p32
sS'll'
p33
cnumpy.core.multiarray
scalar
p34
(cnumpy
dtype
p35
(S'f8'
p36
I0
I1
tp37
Rp38
(I3
S'<'
p39
NNNI-1
I-1
I0
tp40
bS'H.G\x17\x1f5\xd5\xc0'
p41
tp42
Rp43
sS'edge_list'
p44
(lp45
g19
ag25
ag6
ag15
ag11
ag17
ag26
ag21
ag13
ag28
ag9
ag23
asS'edge_to_blen'
p46
(dp47
g6
g34
(g38
S'\x1c\xe7\xfd\x864a\x08@'
p48
tp49
Rp50
sg9
g34
(g38
S'\xb9ZgF\xfb?\xc9?'
p51
tp52
Rp53
sg11
g34
(g38
S'a+9 G\xcf\xc8?'
p54
tp55
Rp56
sg13
g34
(g38
S'\x87\x10\x13\xbd\xaft\xc0?'
p57
tp58
Rp59
sg21
g34
(g38
S'\x94sW\x0fM\xd0\xd0?'
p60
tp61
Rp62
sg17
g34
(g38
S'R\xa9[\xf7\x9ex\xd2?'
p63
tp64
Rp65
sg19
g34
(g38
S'\xcdS\xa3\x0ep2\xe6?'
p66
tp67
Rp68
sg15
g34
(g38
S'\xfeaR\xe6U\xaf\x0b@'
p69
tp70
Rp71
sg23
g34
(g38
S'\x87vcB\x87D\xc2?'
p72
tp73
Rp74
sg25
g34
(g38
S'6 \xd1\xe5C,\x07@'
p75
tp76
Rp77
sg26
g34
(g38
S'\x93#D\x91\x0b:\xbd?'
p78
tp79
Rp80
sg28
g34
(g38
S'\x17\xf5\xf7a8\xc7\xd4?'
p81
tp82
Rp83
ssS'paralog'
p84
(lp85
S'YIR033W'
p86
aS'YKL020C'
p87
asS'alignment_file'
p88
S'../MafftAlignment/YIR033W_YKL020C/YIR033W_YKL020C_input.fasta'
p89
sS'x_clock'
p90
NsS'x'
p91
cnumpy.core.multiarray
_reconstruct
p92
(cnumpy
ndarray
p93
(I0
tp94
S'b'
p95
tp96
Rp97
(I1
(I19
tp98
g38
I00
S"e\x8eUuS<\xe5\xbf\xea\xe4\xe4\xc9;G\xdf\xbfD\x8d\xc74\xb7\xa1\xec\xbf\x17=\xb2\xda\xe8\xe3\xee??\xf3@\xd2C\xe4\x03\xc0Yn\x86~\xc6\xd6\r\xc0\x8c\xa9\x80M\xcad/\xc0\xbd\xd9\x85\x15\xe7h\xd7\xbf\x9c\xc0b\x10E\x04\xf1?\x84dLL6\xd4\xf1?&\x002:\xf6\xdc\xf3?'\xc8\x98\xba\xb3@\xfa\xbf#li\xa8\xfb\xe1\xf3\xbfI\x08`\xf2Y\\\x01\xc0a=2\x91\x15c\xf5\xbf8e\xe2*+i\x00\xc0\x83\xf9\xd1{\xe9\xff\xf1\xbf6vq\xdd\xa7\xf8\xf9\xbf\xe0\xaa\x9d\xd6|&\xff\xbf"
p99
tp100
bsS'Model'
p101
S'MG94'
p102
sS'clock'
p103
I00
s.