(dp0
S'Force'
p1
NsS'ExpectedGeneconv'
p2
(dp3
(S'N1'
p4
S'N2'
p5
tp6
(lp7
F105.47228055630467
aF91.07922110076889
as(S'N5'
p8
S'cerevisiae'
p9
tp10
(lp11
F30.246328490278866
aF17.432419911966697
as(g5
S'N3'
p12
tp13
(lp14
F21.451274200560214
aF18.47955847522953
as(S'N4'
p15
g8
tp16
(lp17
F18.523209513842982
aF11.193191826250954
as(g4
S'castellii'
p18
tp19
(lp20
F185.2519172389803
aF137.29155207828956
as(g5
S'bayanus'
p21
tp22
(lp23
F45.547198694587046
aF45.53523856142961
as(S'N0'
p24
g4
tp25
(lp26
F99.98112219711798
aF76.24468833206826
as(g12
S'kudriavzevii'
p27
tp28
(lp29
F44.25030609733584
aF33.639365646220085
as(g8
S'paradoxus'
p30
tp31
(lp32
F29.823121986276686
aF18.351155004010646
as(g24
S'kluyveri'
p33
tp34
(lp35
F0.0
aF0.0
as(g12
g15
tp36
(lp37
F15.385422466092114
aF11.663236946668357
as(g15
S'mikatae'
p38
tp39
(lp40
F48.09279999847615
aF44.434611513758504
assS'ExpectedDwellTime'
p41
(dp42
g6
F1050.0962697643952
sg10
F1226.8364279503564
sg13
F1180.32886378269
sg16
F1217.8504493859955
sg19
F1053.2197179900652
sg22
F1156.256922592227
sg25
F577.73180837364
sg28
F1198.646608067215
sg31
F1189.276320870767
sg34
F0.0
sg36
F1213.4263414077175
sg39
F1211.3348974326411
ssS'newicktree'
p43
S'../PairsAlignemt/YeastTree.newick'
p44
sS'll'
p45
cnumpy.core.multiarray
scalar
p46
(cnumpy
dtype
p47
(S'f8'
p48
I0
I1
tp49
Rp50
(I3
S'<'
p51
NNNI-1
I-1
I0
tp52
bS'\xd8\xcb\xdc\x00x\xfd\xce\xc0'
p53
tp54
Rp55
sS'edge_list'
p56
(lp57
g25
ag34
ag6
ag19
ag13
ag22
ag36
ag28
ag16
ag39
ag10
ag31
asS'edge_to_blen'
p58
(dp59
g6
g46
(g50
S'W\x96V\x85%r\xc1?'
p60
tp61
Rp62
sg10
g46
(g50
S'\x87$(\xa2\xb9\r\xa2?'
p63
tp64
Rp65
sg13
g46
(g50
S'\xcb\x1eq\xa0\xa3\x15\x9f?'
p66
tp67
Rp68
sg16
g46
(g50
S'-W8I\xd0x\x94?'
p69
tp70
Rp71
sg28
g46
(g50
S'EV\xc5\x17\x07\xd0\xab?'
p72
tp73
Rp74
sg22
g46
(g50
S'\xa9\xa2\xc1\x85\xa7F\xad?'
p75
tp76
Rp77
sg25
g46
(g50
S'\xef\xd4\xe5<+\xc5\xcb?'
p78
tp79
Rp80
sg19
g46
(g50
S'\xc1\x15\xcb\x0elc\xcb?'
p81
tp82
Rp83
sg31
g46
(g50
S'\x7f\x86bkW\t\x9d?'
p84
tp85
Rp86
sg34
g46
(g50
S'HC4&\xba\xd5\xba?'
p87
tp88
Rp89
sg36
g46
(g50
S'GEH\x95\n\xa3\x95?'
p90
tp91
Rp92
sg39
g46
(g50
S'}w\xaa\xc8$\x83\xad?'
p93
tp94
Rp95
ssS'paralog'
p96
(lp97
S'YPR159W'
p98
aS'YGR143W'
p99
asS'alignment_file'
p100
S'../MafftAlignment/YPR159W_YGR143W/YPR159W_YGR143W_input.fasta'
p101
sS'x_clock'
p102
NsS'x'
p103
cnumpy.core.multiarray
_reconstruct
p104
(cnumpy
ndarray
p105
(I0
tp106
S'b'
p107
tp108
Rp109
(I1
(I19
tp110
g50
I00
S"\x1f\xa9\x08\xeaK\xb3\xe7\xbfS\xb5y\xcd:\xf8\xe1\xbfs\x83\x08\x89\xf2\xe8\xe7\xbfkG\xc4\x1c\x7f\xa1\xf4?\xe0\xd3\xbbI\xf0}\xd3?\xaeY<\x83\xcb\xd5\xca?\x80\x05\xe9CX\xd8\xf5\xbf\xf2\xe5\x9ax\xf6r\xf8\xbfw!\xc5\x976\x0b\x02\xc0~'\xa2\xda\x06\xe3\xff\xbflT\x06\xcb\xab\xab\xf8\xbf\xe4\xb4)\x92E\xf5\x0b\xc0E{\x97\xe0w\xe4\x06\xc0)\xf1\x83\xd7H\xdb\x0e\xc0\x1b\x9d\x0f\x87|M\x07\xc09\x83\x7fe\xa1L\x0f\xc0B\xdajV\x01\xd4\x06\xc0\xbdY\x118\x84\xc2\n\xc0{\xf1\x1bh\xdb\x80\x0c\xc0"
p111
tp112
bsS'Model'
p113
S'HKY'
p114
sS'clock'
p115
I00
s.