(dp0
S'Force'
p1
NsS'ExpectedGeneconv'
p2
(dp3
(S'N1'
p4
S'N2'
p5
tp6
F30.15552108222905
s(S'N5'
p7
S'cerevisiae'
p8
tp9
F7.219118953012726
s(g5
S'N3'
p10
tp11
F6.720690539846727
s(S'N4'
p12
g7
tp13
F4.121689441902297
s(g4
S'castellii'
p14
tp15
F44.58553339542093
s(g5
S'bayanus'
p16
tp17
F18.32491745566701
s(S'N0'
p18
g4
tp19
F32.192812675887495
s(g10
S'kudriavzevii'
p20
tp21
F12.249354409841539
s(g7
S'paradoxus'
p22
tp23
F1.686399220796007
s(g18
S'kluyveri'
p24
tp25
F0.0
s(g10
g12
tp26
F1.9959343887400847
s(g12
S'mikatae'
p27
tp28
F8.25358289447856
ssS'ExpectedDwellTime'
p29
(dp30
g6
F133.88203052053245
sg9
F150.39739842154478
sg11
F144.90717277153016
sg13
F144.42934753783803
sg15
F125.6174489746908
sg17
F146.6907300685812
sg19
F72.40877752454831
sg21
F154.62581430182675
sg23
F145.84949447045165
sg25
F0.0
sg26
F143.55726136827238
sg28
F155.09477933694538
ssS'newicktree'
p31
S'../PairsAlignemt/YeastTree.newick'
p32
sS'll'
p33
cnumpy.core.multiarray
scalar
p34
(cnumpy
dtype
p35
(S'f8'
p36
I0
I1
tp37
Rp38
(I3
S'<'
p39
NNNI-1
I-1
I0
tp40
bS'M\x0f\xd6L\x07\r\xa3\xc0'
p41
tp42
Rp43
sS'edge_list'
p44
(lp45
g19
ag25
ag6
ag15
ag11
ag17
ag26
ag21
ag13
ag28
ag9
ag23
asS'edge_to_blen'
p46
(dp47
g19
g34
(g38
S'2\xee;\xa1\x84@\xb6?'
p48
tp49
Rp50
sg9
g34
(g38
S'\xdcA\x86j\xb1C\x87?'
p51
tp52
Rp53
sg11
g34
(g38
S't.K\xa71\x00\x7f?'
p54
tp55
Rp56
sg13
g34
(g38
S'\x9bxIsnUz?'
p57
tp58
Rp59
sg15
g34
(g38
S'\xd5\x8bA\xc9\xf2\x01\xad?'
p60
tp61
Rp62
sg17
g34
(g38
S'\xa8\xac\xba4\x0f\x19\x96?'
p63
tp64
Rp65
sg6
g34
(g38
S'\\\x1c[L\xc2\x90\xa6?'
p66
tp67
Rp68
sg21
g34
(g38
S'\xca\xb7\xae\xc2\x86$\x96?'
p69
tp70
Rp71
sg23
g34
(g38
S'2\x9eI{s\xaee?'
p72
tp73
Rp74
sg25
g34
(g38
S'\xa0\xe8\x85\xd8\xaaF\x9c>'
p75
tp76
Rp77
sg26
g34
(g38
S'\x0f\xdc\x9f\xafJ\xb1b?'
p78
tp79
Rp80
sg28
g34
(g38
S'\xcf\x0btPc\xc0\x91?'
p81
tp82
Rp83
ssS'paralog'
p84
(lp85
S'YNL069C'
p86
aS'YIL133C'
p87
asS'alignment_file'
p88
S'../MafftAlignment/YNL069C_YIL133C/YNL069C_YIL133C_input.fasta'
p89
sS'x_clock'
p90
NsS'x'
p91
cnumpy.core.multiarray
_reconstruct
p92
(cnumpy
ndarray
p93
(I0
tp94
S'b'
p95
tp96
Rp97
(I1
(I18
tp98
g38
I00
S"\xecZ\xc7\x94a\xe0\xe7\xbf\x8b\x16\xef\x93]G\xe2\xbf=\xf4\t\xa8\xd0\xfc\xe9\xbf\xf3\x93:3\xaf\xc7\xff?\n+1\xc2\xbeU\xf9?\x84\xbf\xcc\xec\x18\xb1\xe8\xbf(\x13\xbb\x9e\xbd\x8a\x03\xc0\xedC\xabH\x10\\-\xc0\xe94T\xcd\xa8\xf9\x08\xc0\xe0\xc7\xe4]T\xf7\x06\xc0\x15'\t\xf2\xf6\x88\x13\xc0\xf1\xf4\x85e\x1b\xb0\x0e\xc0_\xcb\x7f\x83\xc6T\x18\xc0e\xe9\xfc\xb9\xf5\xab\x0e\xc0a\r\xc1\xc2\n0\x14\xc0\x11\xd1\x1c)R8\x10\xc0#\x90S\x81(\xe9\x11\xc0(\x9a[\x1d\xe2\xbc\x17\xc0"
p99
tp100
bsS'Model'
p101
S'HKY'
p102
sS'clock'
p103
I00
s.