(dp0
S'Force'
p1
NsS'ExpectedGeneconv'
p2
(dp3
(S'N1'
p4
S'N2'
p5
tp6
(lp7
F48.8722130601748
aF35.315915936185725
as(S'N5'
p8
S'cerevisiae'
p9
tp10
(lp11
F18.983240531502158
aF10.394711622823435
as(g5
S'N3'
p12
tp13
(lp14
F6.812221382353634
aF3.6173793807788073
as(S'N4'
p15
g8
tp16
(lp17
F6.154001341432386
aF6.269738020179558
as(g4
S'castellii'
p18
tp19
(lp20
F71.87360764847107
aF54.48000281179348
as(g5
S'bayanus'
p21
tp22
(lp23
F23.22113355425243
aF17.277651195877276
as(S'N0'
p24
g4
tp25
(lp26
F26.390295151262645
aF19.26722822744007
as(g12
S'kudriavzevii'
p27
tp28
(lp29
F15.826088692400331
aF10.88497831846538
as(g8
S'paradoxus'
p30
tp31
(lp32
F6.812248135983021
aF5.834186119828533
as(g24
S'kluyveri'
p33
tp34
(lp35
F0.0
aF0.0
as(g12
g15
tp36
(lp37
F8.508761567335556
aF5.186011150402486
as(g15
S'mikatae'
p38
tp39
(lp40
F13.64362446418289
aF15.13044581182818
assS'ExpectedDwellTime'
p41
(dp42
g6
F449.5524613858489
sg10
F515.7377366644819
sg13
F511.92765391200845
sg16
F518.3618061462925
sg19
F467.7297985934338
sg22
F508.5610236131357
sg25
F220.9336885034366
sg28
F521.9543953142202
sg31
F512.0958838271666
sg34
F0.0
sg36
F517.3726299790013
sg39
F534.2593170034316
ssS'newicktree'
p43
S'../PairsAlignemt/YeastTree.newick'
p44
sS'll'
p45
cnumpy.core.multiarray
scalar
p46
(cnumpy
dtype
p47
(S'f8'
p48
I0
I1
tp49
Rp50
(I3
S'<'
p51
NNNI-1
I-1
I0
tp52
bS"\xe3\x05\xd7'\xfb\xc0\xb9\xc0"
p53
tp54
Rp55
sS'edge_list'
p56
(lp57
g25
ag34
ag6
ag19
ag13
ag22
ag36
ag28
ag16
ag39
ag10
ag31
asS'edge_to_blen'
p58
(dp59
g6
g46
(g50
S'*cU\t\xa5j\xc3?'
p60
tp61
Rp62
sg10
g46
(g50
S'r\xb2\xe7R\xa1o\xa7?'
p63
tp64
Rp65
sg13
g46
(g50
S'9}\xac\x19^w\x93?'
p66
tp67
Rp68
sg16
g46
(g50
S'\xc1\x96\x0b\xd2\x82o\x93?'
p69
tp70
Rp71
sg28
g46
(g50
S'mN\x97\xe4\xd4\xa9\xa7?'
p72
tp73
Rp74
sg22
g46
(g50
S'\x83\xa8\xaa;\x15U\xb0?'
p75
tp76
Rp77
sg25
g46
(g50
S'\xf3\\\xfd{\xb1\x04\xc6?'
p78
tp79
Rp80
sg19
g46
(g50
S'\xfd\x9b-\x11\xd7t\xcc?'
p81
tp82
Rp83
sg31
g46
(g50
S'm\x9d\xc7\xcf\x99\xf9\x92?'
p84
tp85
Rp86
sg34
g46
(g50
S'\xbe\xaaZ\x8cq\xca\xb9?'
p87
tp88
Rp89
sg36
g46
(g50
S'\xcb\r_\xf2"\xcd\x95?'
p90
tp91
Rp92
sg39
g46
(g50
S'\xb3n\xc6\x13\xabE\xab?'
p93
tp94
Rp95
ssS'paralog'
p96
(lp97
S'YPL232W'
p98
aS'YMR183C'
p99
asS'alignment_file'
p100
S'../MafftAlignment/YPL232W_YMR183C/YPL232W_YMR183C_input.fasta'
p101
sS'x_clock'
p102
NsS'x'
p103
cnumpy.core.multiarray
_reconstruct
p104
(cnumpy
ndarray
p105
(I0
tp106
S'b'
p107
tp108
Rp109
(I1
(I19
tp110
g50
I00
S'\xc1\xfb\x94\xad\x02D\xe4\xbf9\x8cBf\x9c\xbc\xdf\xbfD\xf8-|"L\xe8\xbf2\xe5\xa0\xec\xd9r\xf8?\x90r\xe7\x10\xae\xdf\xd4?|S+\xbd2\x88\x98?r\xe6\xf1t\xee\x96\xcf\xbfS\xda\x8d\x1c\x98)\xfc\xbf\x7f\xc5\x12\xbd|\\\x02\xc0\xac\x18\xd4\x80\xa8,\xfe\xbf\xb0f\xee\x93\xfa\x0e\xf8\xbf\xe3\xbe\xb2=\xca\xb3\x0f\xc0\n|\xb9\xf2\'\x04\x06\xc0\xbfd\x96v\xc7\xcb\x0e\xc0\xcf\xbd\xfaV\\\x98\x08\xc0Z\xad\x89v\x05\xb7\x0f\xc00\x13Z\x02\xadu\x07\xc0\xd8X\xa1\xdc!\xac\x08\xc0\xe6\xe2$\xaf#\xe8\x0f\xc0'
p111
tp112
bsS'Model'
p113
S'HKY'
p114
sS'clock'
p115
I00
s.