(dp0
S'Force'
p1
NsS'ExpectedGeneconv'
p2
(dp3
(S'N1'
p4
S'N2'
p5
tp6
(lp7
F36.343808456191816
aF26.87941570059009
as(S'N5'
p8
S'cerevisiae'
p9
tp10
(lp11
F13.882763547827532
aF10.630888441469622
as(g5
S'N3'
p12
tp13
(lp14
F5.253594747268003
aF3.6456076115578435
as(S'N4'
p15
g8
tp16
(lp17
F6.582709221162909
aF4.8053054995207
as(g4
S'castellii'
p18
tp19
(lp20
F65.46497272009614
aF44.10848516744421
as(g5
S'bayanus'
p21
tp22
(lp23
F14.501011649111625
aF7.256432323314892
as(S'N0'
p24
g4
tp25
(lp26
F7.55934091759244
aF5.23748471489854
as(g12
S'kudriavzevii'
p27
tp28
(lp29
F10.873733088067906
aF10.642223609946928
as(g8
S'paradoxus'
p30
tp31
(lp32
F4.313983990147431
aF3.235884546351746
as(g24
S'kluyveri'
p33
tp34
(lp35
F0.0
aF0.0
as(g12
g15
tp36
(lp37
F5.456144653211323
aF3.407056589183569
as(g15
S'mikatae'
p38
tp39
(lp40
F16.102516679863168
aF10.251761815696545
assS'ExpectedDwellTime'
p41
(dp42
g6
F581.8133758679487
sg10
F776.1385839519703
sg13
F768.7736436985833
sg16
F788.2418403599014
sg19
F598.1647572688611
sg22
F750.5649231506325
sg25
F202.20132416293723
sg28
F787.7648127758057
sg31
F782.9113334282147
sg34
F0.0
sg36
F788.5184888657284
sg39
F783.9572647084009
ssS'newicktree'
p43
S'../PairsAlignemt/YeastTree.newick'
p44
sS'll'
p45
cnumpy.core.multiarray
scalar
p46
(cnumpy
dtype
p47
(S'f8'
p48
I0
I1
tp49
Rp50
(I3
S'<'
p51
NNNI-1
I-1
I0
tp52
bS'\xa1\xbcP\xc6sp\xbf\xc0'
p53
tp54
Rp55
sS'edge_list'
p56
(lp57
g25
ag34
ag6
ag19
ag13
ag22
ag36
ag28
ag16
ag39
ag10
ag31
asS'edge_to_blen'
p58
(dp59
g6
g46
(g50
S'p\xac7$`5\xd0?'
p60
tp61
Rp62
sg10
g46
(g50
S'\x9e\xe6\xf9B\xd1\xc5\xac?'
p63
tp64
Rp65
sg13
g46
(g50
S'U~Q\xf8\x1f\xa7\xa2?'
p66
tp67
Rp68
sg16
g46
(g50
S'\xbc&\xddS\xb5\x1a\x9f?'
p69
tp70
Rp71
sg28
g46
(g50
S'\xf5\xe9\xe5\x0f\xc6\xd6\xae?'
p72
tp73
Rp74
sg22
g46
(g50
S'\xbd\x00\x9f\x8f\xc2\xb6\xac?'
p75
tp76
Rp77
sg25
g46
(g50
S'0\xcd\xf9\x15\x17\xca\xc0?'
p78
tp79
Rp80
sg19
g46
(g50
S'\xf0\xbf\xd8P\xfb{\xd6?'
p81
tp82
Rp83
sg31
g46
(g50
S'}<\x0e\xa1)\x9d\x96?'
p84
tp85
Rp86
sg34
g46
(g50
S'\xb0\xf0\xcf\x00\xe2\x87\xcd?'
p87
tp88
Rp89
sg36
g46
(g50
S'I\xce{\x0c\x81\x99\x99?'
p90
tp91
Rp92
sg39
g46
(g50
S'p\xc8\x92\xa9sJ\xb1?'
p93
tp94
Rp95
ssS'paralog'
p96
(lp97
S'YPL087W'
p98
aS'YBR183W'
p99
asS'alignment_file'
p100
S'../MafftAlignment/YPL087W_YBR183W/YPL087W_YBR183W_input.fasta'
p101
sS'x_clock'
p102
NsS'x'
p103
cnumpy.core.multiarray
_reconstruct
p104
(cnumpy
ndarray
p105
(I0
tp106
S'b'
p107
tp108
Rp109
(I1
(I19
tp110
g50
I00
S"\xbb\x16\xd8CH$\xe8\xbf\xffM\x80\xe2\xa5\xf4\xe2\xbf\xf9\xd7\xc4\xae_T\xf0\xbf\xaeU\x1bY\xac\xe1\xf3?\xf9`\x0e'\xde\xb0\xe2\xbf\xeeG\xe0\x83u0\xed\xbf'Ot\xfb\x97\x9c\xde\xbf\x81+\xf6\x97\x10@\x00\xc0\xe3\x12R$.w\xf7\xbf\xcd\x91E\x1e;\xf9\xf5\xbfh\x13\xbcR\xaf\xbc\xf0\xbf\x16\xa0*\x1f\xa5\x7f\n\xc0(\xd9\xcb\xe2+\x0c\x07\xc0joO\xe7\xda\x82\r\xc0GnB'\xf3y\x06\xc0\xd5\xb9\x88\xb2\xf7\xf3\x0b\xc0\xe7\xdf\x92\xd6\\\x8f\x05\xc01\xb6\x14\x06\xfb\x07\x07\xc0\xb5\x89\xd8\x06\xd5\x80\x0e\xc0"
p111
tp112
bsS'Model'
p113
S'HKY'
p114
sS'clock'
p115
I00
s.