(dp0
S'Force'
p1
NsS'ExpectedGeneconv'
p2
(dp3
(S'N1'
p4
S'N2'
p5
tp6
(lp7
F11.967031920071106
aF12.521041381665405
as(S'N5'
p8
S'cerevisiae'
p9
tp10
(lp11
F2.199682935105586
aF4.0375334881120235
as(g5
S'N3'
p12
tp13
(lp14
F3.175931882167369
aF4.447860430024732
as(S'N4'
p15
g8
tp16
(lp17
F4.680496943055684
aF12.944148554253745
as(g4
S'castellii'
p18
tp19
(lp20
F23.661454007278792
aF29.566363109994153
as(g5
S'bayanus'
p21
tp22
(lp23
F15.9794839626155
aF15.457737084856614
as(S'N0'
p24
g4
tp25
(lp26
F21.417000746384645
aF30.178525174218215
as(g12
S'kudriavzevii'
p27
tp28
(lp29
F6.566239584531932
aF12.796805893032168
as(g8
S'paradoxus'
p30
tp31
(lp32
F4.225461471987895
aF2.040950123453752
as(g24
S'kluyveri'
p33
tp34
(lp35
F0.0
aF0.0
as(g12
g15
tp36
(lp37
F2.411289252139387
aF7.095300745415544
as(g15
S'mikatae'
p38
tp39
(lp40
F2.0819823955344954
aF7.2733039839320925
assS'ExpectedDwellTime'
p41
(dp42
g6
F79.42543167187056
sg10
F28.064410753305335
sg13
F77.05256924825196
sg16
F47.73713378179912
sg19
F78.93651250719572
sg22
F66.57422825592064
sg25
F48.8960526470956
sg28
F86.90942551367577
sg31
F34.41892580195841
sg34
F0.0
sg36
F69.50295906205369
sg39
F63.58920510136949
ssS'newicktree'
p43
S'../PairsAlignemt/YeastTree.newick'
p44
sS'll'
p45
cnumpy.core.multiarray
scalar
p46
(cnumpy
dtype
p47
(S'f8'
p48
I0
I1
tp49
Rp50
(I3
S'<'
p51
NNNI-1
I-1
I0
tp52
bS'\x1cR1F\xec\x85\xa0\xc0'
p53
tp54
Rp55
sS'edge_list'
p56
(lp57
g25
ag34
ag6
ag19
ag13
ag22
ag36
ag28
ag16
ag39
ag10
ag31
asS'edge_to_blen'
p58
(dp59
g6
g46
(g50
S'\xd1F\xe2\xea\x11\x87\x94?'
p60
tp61
Rp62
sg10
g46
(g50
S'\x88\x8fff\x16\xc7r?'
p63
tp64
Rp65
sg13
g46
(g50
S'\xf8\x92\x98;\xcfzy?'
p66
tp67
Rp68
sg16
g46
(g50
S'\xb97\xd8\x04\xedC\x87?'
p69
tp70
Rp71
sg28
g46
(g50
S'\xba/\x16O\xe8\xe3\x96?'
p72
tp73
Rp74
sg22
g46
(g50
S'\x1e\xfd\x07\n\xdc\xa6\x98?'
p75
tp76
Rp77
sg25
g46
(g50
S'd\xa9i\xf1\xaat\xb3?'
p78
tp79
Rp80
sg19
g46
(g50
S'\x9b1kr"\x87\xa6?'
p81
tp82
Rp83
sg31
g46
(g50
S'\x14F@h\x86.\x80?'
p84
tp85
Rp86
sg34
g46
(g50
S'\x88\n\xdf\xf1D\x1c\x9c>'
p87
tp88
Rp89
sg36
g46
(g50
S'\xaa\xa8\x03\xee~*x?'
p90
tp91
Rp92
sg39
g46
(g50
S'\xb1\xa2m%_\x94\x82?'
p93
tp94
Rp95
ssS'paralog'
p96
(lp97
S'YER102W'
p98
aS'YBL072C'
p99
asS'alignment_file'
p100
S'../MafftAlignment/YER102W_YBL072C/YER102W_YBL072C_input.fasta'
p101
sS'x_clock'
p102
NsS'x'
p103
cnumpy.core.multiarray
_reconstruct
p104
(cnumpy
ndarray
p105
(I0
tp106
S'b'
p107
tp108
Rp109
(I1
(I19
tp110
g50
I00
S'\xc77\xad\xc9\xe7\n\xe7\xbf\xd3A\r\xba\x1cW\xe2\xbf\x8be\x08\xab\x9dE\xe8\xbf\xf9\xb9\x8d\xdcwT\x01@K\x13FD2\xa4\x04@&\xcd\xcc\xd6\x90t\x07@\x19V\xea\\\xdb\xab\xd3\xbf\x94G\xe4\xdc\xc4\x9d\x04\xc0\x870@@\x12_-\xc0\xa4m$"\x11G\x0f\xc0AEk\x06\x13\xfd\x08\xc0\xb7\xdf\x06\xe3\xccQ\x14\xc0l \xa2=\x1f\xd0\r\xc0\x939c\xd6\x01\x88\x14\xc0\x0f\xe3X\xf1\xf4g\x0e\xc0\xb5\n\xebA\x1e\xe9\x11\xc0\xaf\xd2\x06\xd9j\xcf\x12\xc0\xea\xea:\xdaV\x8a\x15\xc01\x8a\xb1\xcd\xe9\\\x13\xc0'
p111
tp112
bsS'Model'
p113
S'HKY'
p114
sS'clock'
p115
I00
s.