(dp0
S'Force'
p1
NsS'ExpectedGeneconv'
p2
(dp3
(S'N1'
p4
S'N2'
p5
tp6
F19.21400915754836
s(S'N5'
p7
S'cerevisiae'
p8
tp9
F4.0330333591310605
s(g5
S'N3'
p10
tp11
F7.067077719757337
s(S'N4'
p12
g7
tp13
F12.808393353160733
s(g4
S'castellii'
p14
tp15
F44.23700628491586
s(g5
S'bayanus'
p16
tp17
F21.256989404137673
s(S'N0'
p18
g4
tp19
F3.665792331737367
s(g10
S'kudriavzevii'
p20
tp21
F14.585996678434674
s(g7
S'paradoxus'
p22
tp23
F5.535773298176173
s(g18
S'kluyveri'
p24
tp25
F0.0
s(g10
g12
tp26
F6.597635740525289
s(g12
S'mikatae'
p27
tp28
F6.602976847651927
ssS'ExpectedDwellTime'
p29
(dp30
g6
F47.93730626433631
sg9
F26.100047150392957
sg11
F57.244670306566135
sg13
F39.915604631633364
sg15
F55.53498533350578
sg17
F55.834977892246116
sg19
F18.387985446659478
sg21
F75.06065627172468
sg23
F32.682594413898656
sg25
F0.0
sg26
F54.81803409252397
sg28
F56.97586621905649
ssS'newicktree'
p31
S'../PairsAlignemt/YeastTree.newick'
p32
sS'll'
p33
cnumpy.core.multiarray
scalar
p34
(cnumpy
dtype
p35
(S'f8'
p36
I0
I1
tp37
Rp38
(I3
S'<'
p39
NNNI-1
I-1
I0
tp40
bS'}#nZ^\x13\xa0\xc0'
p41
tp42
Rp43
sS'edge_list'
p44
(lp45
g19
ag25
ag6
ag15
ag11
ag17
ag26
ag21
ag13
ag28
ag9
ag23
asS'edge_to_blen'
p46
(dp47
g6
g34
(g38
S'@,<6\xe4\xe7\xb7?'
p48
tp49
Rp50
sg9
g34
(g38
S'Yq\xe4\xd7\x0e\t\x86?'
p51
tp52
Rp53
sg11
g34
(g38
S' \xd8S\x95\x96m\x9b?'
p54
tp55
Rp56
sg13
g34
(g38
S'\xd0!=\x16\xd5\xdb\x9e?'
p57
tp58
Rp59
sg21
g34
(g38
S'\xcak\xf5\x9b\xad7\xb5?'
p60
tp61
Rp62
sg17
g34
(g38
S'\xdb\xe09\x02\\#\xb2?'
p63
tp64
Rp65
sg19
g34
(g38
S'\x81\xeb\xa4B\xe8n\xac?'
p66
tp67
Rp68
sg15
g34
(g38
S'\xfb <\xf8\xf0\xb4\xca?'
p69
tp70
Rp71
sg23
g34
(g38
S'\xa5\xbd7\x92w6\x9c?'
p72
tp73
Rp74
sg25
g34
(g38
S']\xfcgD\x81\x9c\xc6?'
p75
tp76
Rp77
sg26
g34
(g38
S'\xe4Ye\xd4p\xe8\x92?'
p78
tp79
Rp80
sg28
g34
(g38
S'\xe9~u[\x9b\xf0\x9e?'
p81
tp82
Rp83
ssS'paralog'
p84
(lp85
S'YER102W'
p86
aS'YBL072C'
p87
asS'alignment_file'
p88
S'../MafftAlignment/YER102W_YBL072C/YER102W_YBL072C_input.fasta'
p89
sS'x_clock'
p90
NsS'x'
p91
cnumpy.core.multiarray
_reconstruct
p92
(cnumpy
ndarray
p93
(I0
tp94
S'b'
p95
tp96
Rp97
(I1
(I19
tp98
g38
I00
S'#\x84\x0b\xe1\xa8Z\xe6\xbf\xaf"P\xcb\x9d+\xe1\xbf7#1\xb9y\xf4\xea\xbf\xcf$\xb8\xc6\xf6|\xff?\x1c\xb0\xc7\xa1<\xf0\xfa\xbf\xf2\xaf_\xbb\x18T\xf9?#U\x003\xe19\xde\xbf\xa2\x97\x1b\xf2I \x07\xc06\xf9\xe9\xaf\xbc\xbc\xfb\xbf\'/\xa2\xd0\xeb\xf7\x02\xc0\xd4^g\x02\xe4\x12\xf9\xbf\xf7\xfa\x89\x82\x90\xf5\x0c\xc0\x07\\\x87\x01c-\x05\xc0\n?\x9b\x13c\xef\x0f\xc0s\x0e@d=\xec\x03\xc0\xa3\x00\x98\x104\x04\x0c\xc0\xefiW"\xd3\xfe\x0b\xc0\xbd\xa1\x0e\x9e\xbc \x12\xc0&\x81\x87\xd5\xcb\xbb\x0c\xc0'
p99
tp100
bsS'Model'
p101
S'MG94'
p102
sS'clock'
p103
I00
s.