(dp0
S'Force'
p1
NsS'ExpectedGeneconv'
p2
(dp3
(S'N1'
p4
S'N2'
p5
tp6
F15.393697706689947
s(S'N5'
p7
S'cerevisiae'
p8
tp9
F13.63198631041016
s(g5
S'N3'
p10
tp11
F3.7923125328012506
s(S'N4'
p12
g7
tp13
F3.980596221856275
s(g4
S'castellii'
p14
tp15
F33.930075596865336
s(g5
S'bayanus'
p16
tp17
F22.85411299542611
s(S'N0'
p18
g4
tp19
F28.30855776646878
s(g10
S'kudriavzevii'
p20
tp21
F11.898819136778169
s(g7
S'paradoxus'
p22
tp23
F4.834996143626372
s(g18
S'kluyveri'
p24
tp25
F0.0
s(g10
g12
tp26
F4.438247179539681
s(g12
S'mikatae'
p27
tp28
F7.710058664662881
ssS'ExpectedDwellTime'
p29
(dp30
g6
F60.4967819222668
sg9
F55.348950084493374
sg11
F64.0385694409746
sg13
F64.87239265566963
sg15
F50.34793507764289
sg17
F45.905099039339404
sg19
F33.959975565353034
sg21
F61.46653264633354
sg23
F61.53689966234328
sg25
F0.0
sg26
F66.47145718560986
sg28
F73.22038692489733
ssS'newicktree'
p31
S'../PairsAlignemt/YeastTree.newick'
p32
sS'll'
p33
cnumpy.core.multiarray
scalar
p34
(cnumpy
dtype
p35
(S'f8'
p36
I0
I1
tp37
Rp38
(I3
S'<'
p39
NNNI-1
I-1
I0
tp40
bS'\xbd\x9c\x87\xfe\xbc\xf4\x96\xc0'
p41
tp42
Rp43
sS'edge_list'
p44
(lp45
g19
ag25
ag6
ag15
ag11
ag17
ag26
ag21
ag13
ag28
ag9
ag23
asS'edge_to_blen'
p46
(dp47
g19
g34
(g38
S'\x9c\xcc*\x99\x94\xb5\xb1?'
p48
tp49
Rp50
sg9
g34
(g38
S'\x88\xe9\x02\xcf\n\xab\x8d?'
p51
tp52
Rp53
sg11
g34
(g38
S'\x04ax\x80z\xf4v?'
p54
tp55
Rp56
sg13
g34
(g38
S'^y\xead\xe3~j?'
p57
tp58
Rp59
sg15
g34
(g38
S'?*\x9a\x8c\xc5\x1a\xa6?'
p60
tp61
Rp62
sg17
g34
(g38
S'\xaa(Z\x12\xfdu\x97?'
p63
tp64
Rp65
sg6
g34
(g38
S'1\x1b\x98\x14\xa1\xc6\x95?'
p66
tp67
Rp68
sg21
g34
(g38
S'\xdbs\x9aq-\xc7\x8c?'
p69
tp70
Rp71
sg23
g34
(g38
S'\xa2U&\xf3\xe8)z?'
p72
tp73
Rp74
sg28
g34
(g38
S'\xd3\xcf\xaeenI\x8a?'
p75
tp76
Rp77
sg26
g34
(g38
S'\x07\xd3\xb5u\x02\x11y?'
p78
tp79
Rp80
sg25
g34
(g38
S'\xd4MOd\xbe\x8c\xa9>'
p81
tp82
Rp83
ssS'paralog'
p84
(lp85
S'YBL087C'
p86
aS'YER117W'
p87
asS'alignment_file'
p88
S'../MafftAlignment/YBL087C_YER117W/YBL087C_YER117W_input.fasta'
p89
sS'x_clock'
p90
NsS'x'
p91
cnumpy.core.multiarray
_reconstruct
p92
(cnumpy
ndarray
p93
(I0
tp94
S'b'
p95
tp96
Rp97
(I1
(I18
tp98
g38
I00
S'\xbd\xbb\xbe\xb3\xf5\xc1\xe8\xbf\x0eJ\xe5\x92]r\xe5\xbf\xd5o\x82]\xb77\xec\xbf\x8d\x86\xaa\xa5(\x1c\x03@\x1aA\xb6\x0fG\x04\x05@Z\x01\xd9711\xd2\xbf\x85\xdd\x1c,c^\x05\xc0\x96\x0c\xa7\xfe\x14-,\xc0\xb7\xc2/\x1c+\xce\x0e\xc0j\xdb\xe9\xfa\xeb#\t\xc0\x7f\xa3\xfd\xf4\xa6\xbc\x14\xc0\x16\xdd&D\x875\x0e\xc0\xc4\nm\xb8\x8bb\x14\xc0D:b\xdc]\x0f\x11\xc0\xe7y\xa4\x00\x8c\xef\x16\xc0\x99\xf6\xaeo\x15l\x11\xc0s\x11%\xaf,\xf0\x10\xc0\x8b\xe13\x9a\xac6\x14\xc0'
p99
tp100
bsS'Model'
p101
S'HKY'
p102
sS'clock'
p103
I00
s.