(dp0
S'Force'
p1
NsS'ExpectedGeneconv'
p2
(dp3
(S'N1'
p4
S'N2'
p5
tp6
F95.0326223607722
s(S'N5'
p7
S'cerevisiae'
p8
tp9
F34.766416649413074
s(g5
S'N3'
p10
tp11
F24.075553280422913
s(S'N4'
p12
g7
tp13
F11.910264690533102
s(g4
S'castellii'
p14
tp15
F132.2432304711009
s(g5
S'bayanus'
p16
tp17
F33.27472938784276
s(S'N0'
p18
g4
tp19
F38.080755555565
s(g10
S'kudriavzevii'
p20
tp21
F39.44490040245993
s(g7
S'paradoxus'
p22
tp23
F15.693405728647337
s(g18
S'kluyveri'
p24
tp25
F0.0
s(g10
g12
tp26
F13.085564844616638
s(g12
S'mikatae'
p27
tp28
F48.578007521082206
ssS'ExpectedDwellTime'
p29
(dp30
g6
F661.5738339535044
sg9
F832.0402409192595
sg11
F799.7271374285133
sg13
F826.2442357145153
sg15
F637.3571366475886
sg17
F794.6116252420583
sg19
F292.3038145696817
sg21
F836.788058420997
sg23
F831.7041889060736
sg25
F0.0
sg26
F819.567295401973
sg28
F824.7879926716122
ssS'newicktree'
p31
S'../PairsAlignemt/YeastTree.newick'
p32
sS'll'
p33
cnumpy.core.multiarray
scalar
p34
(cnumpy
dtype
p35
(S'f8'
p36
I0
I1
tp37
Rp38
(I3
S'<'
p39
NNNI-1
I-1
I0
tp40
bS'\xdd"\\~\xd5\xb8\xc2\xc0'
p41
tp42
Rp43
sS'edge_list'
p44
(lp45
g19
ag25
ag6
ag15
ag11
ag17
ag26
ag21
ag13
ag28
ag9
ag23
asS'edge_to_blen'
p46
(dp47
g19
g34
(g38
S'TEc\xcb\xe4\x83\xc5?'
p48
tp49
Rp50
sg9
g34
(g38
S')\xbf\x84\x88\xd8C\xab?'
p51
tp52
Rp53
sg11
g34
(g38
S'\xf9\x11t}\xd0\xf9\xa6?'
p54
tp55
Rp56
sg13
g34
(g38
S'\xb8\xa2\xcel\xd9\xa7\x96?'
p57
tp58
Rp59
sg15
g34
(g38
S'\xbd\xab\x1eA\xf3\xf3\xcc?'
p60
tp61
Rp62
sg17
g34
(g38
S'\x9c\x916F!\xfc\xae?'
p63
tp64
Rp65
sg6
g34
(g38
S't\xc7\x10]\xe7<\xc8?'
p66
tp67
Rp68
sg21
g34
(g38
S'\x12w*\xe3\xb3R\xb3?'
p69
tp70
Rp71
sg23
g34
(g38
S'\xf6\xba\xf8\xa7\x10\xeb\x9e?'
p72
tp73
Rp74
sg28
g34
(g38
S'"N\xe2\x8c\xf7\x99\xb4?'
p75
tp76
Rp77
sg26
g34
(g38
S'\x8f\xc3nFv\xaf\x96?'
p78
tp79
Rp80
sg25
g34
(g38
S'[\xab\x1bE\xc0f\xba?'
p81
tp82
Rp83
ssS'paralog'
p84
(lp85
S'YMR243C'
p86
aS'YOR316C'
p87
asS'alignment_file'
p88
S'../MafftAlignment/YMR243C_YOR316C/YMR243C_YOR316C_input.fasta'
p89
sS'x_clock'
p90
NsS'x'
p91
cnumpy.core.multiarray
_reconstruct
p92
(cnumpy
ndarray
p93
(I0
tp94
S'b'
p95
tp96
Rp97
(I1
(I18
tp98
g38
I00
S'\xdf-\x91\xcb\xc7u\xe8\xbf\n\xd2$\xd0\x17\xde\xe2\xbfUX\x93\xfbD?\xe9\xbfs\xdc\x1es \xcb\xf3?3x\x9f?o\x95\xd8\xbfk\xda7\x1a\xde\x80\xf6\xbf\x19B\xf2EF\x88\xfc\xbf\xa8\xef\x0bJ\x91,\x02\xc0\xc5t;s4\xa0\xfa\xbf"\x84\x814 \xc8\xf7\xbfv\xba:\xd3\xbf\xd4\x08\xc0\xab\x89\xe90Hp\x06\xc0B\xe6\x15a^z\x0e\xc0\xaa\x8a\x89m\xc8\xab\x04\xc0\'Yq\x17\x0e}\x0e\xc0-S>\xb3\x95(\x04\xc0\xbe\xfc\x04\xe25v\x07\xc0Ua)\x17B\x00\x0c\xc0'
p99
tp100
bsS'Model'
p101
S'HKY'
p102
sS'clock'
p103
I00
s.