(dp0
S'Force'
p1
NsS'ExpectedGeneconv'
p2
(dp3
(S'N1'
p4
S'N2'
p5
tp6
F324.76356062460815
s(S'N5'
p7
S'cerevisiae'
p8
tp9
F181.7751014926311
s(g5
S'N3'
p10
tp11
F78.86121054637083
s(S'N4'
p12
g7
tp13
F91.13594836282267
s(g4
S'castellii'
p14
tp15
F431.50948727679406
s(g5
S'bayanus'
p16
tp17
F276.0022316882468
s(S'N0'
p18
g4
tp19
F545.6498625164021
s(g10
S'kudriavzevii'
p20
tp21
F230.7401502736494
s(g7
S'paradoxus'
p22
tp23
F101.19484472698528
s(g18
S'kluyveri'
p24
tp25
F0.0
s(g10
g12
tp26
F101.13741645182637
s(g12
S'mikatae'
p27
tp28
F222.24274088758887
ssS'ExpectedDwellTime'
p29
(dp30
g6
F1114.35607933189
sg9
F1013.2722278719041
sg11
F1110.3819504374394
sg13
F1091.3451286961401
sg15
F1146.6210470099436
sg17
F1006.5024495230416
sg19
F713.8358281310784
sg21
F1081.0255410533218
sg23
F1069.4170731055196
sg25
F0.0
sg26
F1111.0220630409476
sg28
F1084.150461683243
ssS'newicktree'
p31
S'../PairsAlignemt/YeastTree.newick'
p32
sS'll'
p33
cnumpy.core.multiarray
scalar
p34
(cnumpy
dtype
p35
(S'f8'
p36
I0
I1
tp37
Rp38
(I3
S'<'
p39
NNNI-1
I-1
I0
tp40
bS'\xeay:\xa0\xfb\x14\xd5\xc0'
p41
tp42
Rp43
sS'edge_list'
p44
(lp45
g19
ag25
ag6
ag15
ag11
ag17
ag26
ag21
ag13
ag28
ag9
ag23
asS'edge_to_blen'
p46
(dp47
g19
g34
(g38
S'\xe0} \x97\xb00\xc8?'
p48
tp49
Rp50
sg9
g34
(g38
S'\x16t1\x8e\xa3\xcd\xa1?'
p51
tp52
Rp53
sg11
g34
(g38
S'\xf7\xfe|\x87\xd25\x91?'
p54
tp55
Rp56
sg13
g34
(g38
S'\x7fW\x1f\x1a\x1b\xe5\x92?'
p57
tp58
Rp59
sg15
g34
(g38
S'\xd7\xf1D\x9f\x7f\x8b\xb7?'
p60
tp61
Rp62
sg17
g34
(g38
S'\x89\x06\x13\xa1y\xbd\xaa?'
p63
tp64
Rp65
sg6
g34
(g38
S'\t\xba\xc3u\xaf\x0b\xb1?'
p66
tp67
Rp68
sg21
g34
(g38
S'\xac\x87\x0c\x18A\x0e\xa9?'
p69
tp70
Rp71
sg23
g34
(g38
S'D\x05&\x93%\xe7\x97?'
p72
tp73
Rp74
sg28
g34
(g38
S'ci\xddY\xda9\xa8?'
p75
tp76
Rp77
sg26
g34
(g38
S'|\xf7Dqc\x9c\x96?'
p78
tp79
Rp80
sg25
g34
(g38
S'\xe0?\xdd[\xa8\xd3\x84>'
p81
tp82
Rp83
ssS'paralog'
p84
(lp85
S'YGL062W'
p86
aS'YBR218C'
p87
asS'alignment_file'
p88
S'../MafftAlignment/YGL062W_YBR218C/YGL062W_YBR218C_input.fasta'
p89
sS'x_clock'
p90
NsS'x'
p91
cnumpy.core.multiarray
_reconstruct
p92
(cnumpy
ndarray
p93
(I0
tp94
S'b'
p95
tp96
Rp97
(I1
(I18
tp98
g38
I00
S"\xf8G\x9b+\x9e-\xe8\xbfP\xd7\xe8Q:\xf0\xe3\xbf\xa0\xc3\n\x86\xfbn\xe8\xbf1'\x14\xa7\xb4\x08\xfa?i\xc2<\xbf\xc8C\xf7?\xa2\xac\xab\xc8\xfbR\xde\xbf-\x05\x12\x8aF\xa8\xfa\xbf-\xa1\xb4\x00\x83[/\xc0\xd8E\xfd_\x9c\xac\x05\xc0\xbb%qm\x13\x17\x03\xc0\x07\xbf-\xbe\x07X\x10\xc0\x86gs\x7f\x05\x9e\x07\xc0\xe9n\x90$\x1b\x81\x0e\xc0\xff;f\\F#\x08\xc0\xed\xee7j\xcc\xf0\x0f\xc02<\x92\x91=h\x08\xc0\x17\x0b\xa2\x07\x1d\xdf\n\xc0\x94b\xe5\x1cM\x0f\x0e\xc0"
p99
tp100
bsS'Model'
p101
S'HKY'
p102
sS'clock'
p103
I00
s.