(dp0
S'Force'
p1
NsS'ExpectedGeneconv'
p2
(dp3
(S'N1'
p4
S'N2'
p5
tp6
(lp7
F16.591298875505217
aF10.788543056416525
as(S'N5'
p8
S'cerevisiae'
p9
tp10
(lp11
F7.432947608556407
aF4.740396392527361
as(g5
S'N3'
p12
tp13
(lp14
F4.360427289588652
aF2.6684361779001726
as(S'N4'
p15
g8
tp16
(lp17
F0.8209145932078444
aF3.4310347921343958
as(g4
S'castellii'
p18
tp19
(lp20
F27.64603341295459
aF18.332056602144057
as(g5
S'bayanus'
p21
tp22
(lp23
F6.250875707979735
aF3.2747692280475
as(S'N0'
p24
g4
tp25
(lp26
F5.9646787004035104
aF3.5300521782871996
as(g12
S'kudriavzevii'
p27
tp28
(lp29
F11.477923908261698
aF3.195901304865413
as(g8
S'paradoxus'
p30
tp31
(lp32
F5.5323913672845215
aF3.755879255334211
as(g24
S'kluyveri'
p33
tp34
(lp35
F0.0
aF0.0
as(g12
g15
tp36
(lp37
F0.9989825287774726
aF2.3405287054703097
as(g15
S'mikatae'
p38
tp39
(lp40
F7.705196117117767
aF5.607097927577461
assS'ExpectedDwellTime'
p41
(dp42
g6
F114.86546361973429
sg10
F148.28436207328207
sg13
F146.59297168932486
sg16
F152.3747934176859
sg19
F103.18520959429894
sg22
F143.6353036576055
sg25
F45.83952864825272
sg28
F154.88581828838738
sg31
F150.9919768552203
sg34
F0.0
sg36
F152.57914619199838
sg39
F155.66626284185784
ssS'newicktree'
p43
S'../PairsAlignemt/YeastTree.newick'
p44
sS'll'
p45
cnumpy.core.multiarray
scalar
p46
(cnumpy
dtype
p47
(S'f8'
p48
I0
I1
tp49
Rp50
(I3
S'<'
p51
NNNI-1
I-1
I0
tp52
bS'|D(\x8b]\x9b\xa0\xc0'
p53
tp54
Rp55
sS'edge_list'
p56
(lp57
g25
ag34
ag6
ag19
ag13
ag22
ag36
ag28
ag16
ag39
ag10
ag31
asS'edge_to_blen'
p58
(dp59
g6
g46
(g50
S'\x00\xf7\xday\xb9\xa0\xbd?'
p60
tp61
Rp62
sg10
g46
(g50
S'\xb7C\xa4\x84\xdf\x91\xa1?'
p63
tp64
Rp65
sg13
g46
(g50
S'\x81\x08\xfc\x94\x95R\x9a?'
p66
tp67
Rp68
sg16
g46
(g50
S'@\xbe\xd7\xdd\xb6j\x8e?'
p69
tp70
Rp71
sg28
g46
(g50
S'\xa5r\xbe\xcf\xc0\xdc\xa7?'
p72
tp73
Rp74
sg22
g46
(g50
S'o\xfd\xa7<Y\xcf\x9e?'
p75
tp76
Rp77
sg25
g46
(g50
S'\x17ae\xce\xdb\x98\xb6?'
p78
tp79
Rp80
sg19
g46
(g50
S'\x16\\MW\x9c\x19\xc4?'
p81
tp82
Rp83
sg31
g46
(g50
S'\xcc\xd3w\xf4\xee\xf7\x99?'
p84
tp85
Rp86
sg34
g46
(g50
S'\x83\xe0\xf2\xeb\x9a\x08\xab?'
p87
tp88
Rp89
sg36
g46
(g50
S'\x1b\xa3dGs\xcd\x84?'
p90
tp91
Rp92
sg39
g46
(g50
S'@\xa7\xe8\xf0Z\xcc\xa5?'
p93
tp94
Rp95
ssS'paralog'
p96
(lp97
S'YJR048W'
p98
aS'YEL039C'
p99
asS'alignment_file'
p100
S'../MafftAlignment/YJR048W_YEL039C/YJR048W_YEL039C_input.fasta'
p101
sS'x_clock'
p102
NsS'x'
p103
cnumpy.core.multiarray
_reconstruct
p104
(cnumpy
ndarray
p105
(I0
tp106
S'b'
p107
tp108
Rp109
(I1
(I19
tp110
g50
I00
S'\xe5\xf9.h>+\xe5\xbf\\W\xc3\r\xb2\x11\xe1\xbf\x0eS\xbf?\xd5\x1b\xe8\xbf\xe7\xd8\x07\x8c\x83\xcb\xf8?\xe2(\x1d)J\x81\xf0?\x1f\xf8\x8c[2\xbb\xe2?\xea\xcc\\:\xe81\xee\xbf\xa3\xf4\xa0u9k\x03\xc0\xc4\xa9\xec\xb5\xaa\x87\x07\xc0\x19I\xfc\xd6o@\x01\xc0\x8b\xaf\xf7\x85\xf5\x9e\xfd\xbf\xcbR\xd4~\xd1I\r\xc0\xed\x04B;q\x07\x0c\xc0\x1d\xd4\xfac\xb1[\x12\xc0\xd8c\xf7\xa47\x87\x08\xc0\xaa\x8a,1\xa7\xd6\x10\xc0\xd2\x8a\x8d\x1c\x80@\t\xc07OT\xa9%\xfa\n\xc0;\x95)[\x8ee\r\xc0'
p111
tp112
bsS'Model'
p113
S'HKY'
p114
sS'clock'
p115
I00
s.