(dp0
S'Force'
p1
NsS'ExpectedGeneconv'
p2
(dp3
(S'N1'
p4
S'N2'
p5
tp6
F15.992339261549823
s(S'N5'
p7
S'cerevisiae'
p8
tp9
F3.924880125080764
s(g5
S'N3'
p10
tp11
F1.7911884456059897
s(S'N4'
p12
g7
tp13
F1.4345859928948537
s(g4
S'castellii'
p14
tp15
F11.303519741209227
s(g5
S'bayanus'
p16
tp17
F10.005209359703747
s(S'N0'
p18
g4
tp19
F8.025994371612416
s(g10
S'kudriavzevii'
p20
tp21
F4.3176984066521245
s(g7
S'paradoxus'
p22
tp23
F5.587248786452959
s(g18
S'kluyveri'
p24
tp25
F0.0
s(g10
g12
tp26
F1.5742193749876865
s(g12
S'mikatae'
p27
tp28
F10.405930795493827
ssS'ExpectedDwellTime'
p29
(dp30
g6
F44.03581463566547
sg9
F56.88523358813555
sg11
F47.670232854164176
sg13
F54.517802297400436
sg15
F42.71273905554796
sg17
F46.93100837434691
sg19
F22.638658040633935
sg21
F60.21054711015165
sg23
F54.63451272121229
sg25
F0.0
sg26
F53.25184037691477
sg28
F58.181664128235504
ssS'newicktree'
p31
S'../PairsAlignemt/YeastTree.newick'
p32
sS'll'
p33
cnumpy.core.multiarray
scalar
p34
(cnumpy
dtype
p35
(S'f8'
p36
I0
I1
tp37
Rp38
(I3
S'<'
p39
NNNI-1
I-1
I0
tp40
bS'\x89\xfd*\xa4_\xd1\x93\xc0'
p41
tp42
Rp43
sS'edge_list'
p44
(lp45
g19
ag25
ag6
ag15
ag11
ag17
ag26
ag21
ag13
ag28
ag9
ag23
asS'edge_to_blen'
p46
(dp47
g6
g34
(g38
S'5_\xf2\xcc\x91\x97\xa2?'
p48
tp49
Rp50
sg9
g34
(g38
S"\x9a\xb0\r0\x83'\x85?"
p51
tp52
Rp53
sg11
g34
(g38
S'bg\xb9t\xadP{?'
p54
tp55
Rp56
sg13
g34
(g38
S'gkR\x18\xff\x07`?'
p57
tp58
Rp59
sg21
g34
(g38
S't\xfeR\xf6\xd3\x7f\x90?'
p60
tp61
Rp62
sg17
g34
(g38
S'z\xbc\xf6\x841\x80\x99?'
p63
tp64
Rp65
sg19
g34
(g38
S'Q3~\xd1\xc5=\xa6?'
p66
tp67
Rp68
sg15
g34
(g38
S'\xa9$\xa9\x893\xdd\x9a?'
p69
tp70
Rp71
sg23
g34
(g38
S'3w\xfe(\x03+\x88?'
p72
tp73
Rp74
sg25
g34
(g38
S'\x02\xbd\x0bY\xcaj\xa7?'
p75
tp76
Rp77
sg26
g34
(g38
S'\xaaZ\xf2q\xab\xbdt?'
p78
tp79
Rp80
sg28
g34
(g38
S'Rm\xb5\xdaf\x87\x97?'
p81
tp82
Rp83
ssS'paralog'
p84
(lp85
S'YLR406C'
p86
aS'YDL075W'
p87
asS'alignment_file'
p88
S'../MafftAlignment/YLR406C_YDL075W/YLR406C_YDL075W_input.fasta'
p89
sS'x_clock'
p90
NsS'x'
p91
cnumpy.core.multiarray
_reconstruct
p92
(cnumpy
ndarray
p93
(I0
tp94
S'b'
p95
tp96
Rp97
(I1
(I18
tp98
g38
I00
S"Z\xf9BB\x03.\xe6\xbf}6\x110\x8f\x1c\xe0\xbf\x1bu\x10#\xdf\x83\xec\xbf\x0b\xa6\xc8>\xfe\xb3\x02@'\x9aL\xf7\x9b\xbd\x00@\xca\xad\xbd\xcd\xc2\xb1\xd4? um\x1aK\x17\t\xc0Rd_\xf6\xc8\xad\x08\xc0\xdcE\xcb\xd1S\x86\n\xc0\xd2\xdf~\xfb\x1d \r\xc0\x85e$\x95\x92\n\x14\xc0\xc8\x02\xd8\xb4\xc7\x8a\r\xc0k\x80\xe8\xb6\x83$\x15\xc0\xa9\x99>Q:\x83\x10\xc0\x05f}\x18\x0c\xf2\x18\xc0\x9f\xfe\x95d\x99/\x0e\xc0C\xf7O,\x85J\x12\xc0\x15~\xac\x93#\xc2\x11\xc0"
p99
tp100
bsS'Model'
p101
S'HKY'
p102
sS'clock'
p103
I00
s.