(dp0
S'Force'
p1
NsS'ExpectedGeneconv'
p2
(dp3
(S'N1'
p4
S'N2'
p5
tp6
(lp7
F1.319250055697406
aF4.936498808493792
as(S'N5'
p8
S'cerevisiae'
p9
tp10
(lp11
F0.40623523363528136
aF4.583177639532046
as(g5
S'N3'
p12
tp13
(lp14
F0.24812377422493412
aF0.4813058804225119
as(S'N4'
p15
g8
tp16
(lp17
F0.02686359799566944
aF0.3763042928168251
as(g4
S'castellii'
p18
tp19
(lp20
F2.044495466998274
aF5.224103313656534
as(g5
S'bayanus'
p21
tp22
(lp23
F1.1149969653401417
aF3.5787575877214315
as(S'N0'
p24
g4
tp25
(lp26
F0.16361721249494413
aF0.4800170026854855
as(g12
S'kudriavzevii'
p27
tp28
(lp29
F0.23416863111168004
aF1.7555332435288975
as(g8
S'paradoxus'
p30
tp31
(lp32
F1.0326388352932832
aF0.4327644688522184
as(g24
S'kluyveri'
p33
tp34
(lp35
F0.0
aF0.0
as(g12
g15
tp36
(lp37
F0.3159517599881981
aF1.2604663577345028
as(g15
S'mikatae'
p38
tp39
(lp40
F1.1127125344453164
aF2.438770028477071
assS'ExpectedDwellTime'
p41
(dp42
g6
F41.2788960830788
sg10
F57.80335388933484
sg13
F53.528584282723024
sg16
F61.3844293334
sg19
F48.946407708533634
sg22
F54.35494907635377
sg25
F13.100572804168214
sg28
F57.980214365078105
sg31
F66.89455229432646
sg34
F0.0
sg36
F57.77101819575643
sg39
F62.80399047993216
ssS'newicktree'
p43
S'../PairsAlignemt/YeastTree.newick'
p44
sS'll'
p45
cnumpy.core.multiarray
scalar
p46
(cnumpy
dtype
p47
(S'f8'
p48
I0
I1
tp49
Rp50
(I3
S'<'
p51
NNNI-1
I-1
I0
tp52
bS'\x02\x81\xcf\xaf\x87\xc1\x92\xc0'
p53
tp54
Rp55
sS'edge_list'
p56
(lp57
g25
ag34
ag6
ag19
ag13
ag22
ag36
ag28
ag16
ag39
ag10
ag31
asS'edge_to_blen'
p58
(dp59
g6
g46
(g50
S'\xcc\x87\xc3\\k\xc9\xc1?'
p60
tp61
Rp62
sg10
g46
(g50
S'\xc6\\\xa3.\x1f\xc1\xaa?'
p63
tp64
Rp65
sg13
g46
(g50
S'K\xea\x8e\xe9\x97\xb6\x92?'
p66
tp67
Rp68
sg16
g46
(g50
S'\xa0\xce\xb2\xa4Z\xa9\x82?'
p69
tp70
Rp71
sg19
g46
(g50
S'\xa0\x9a\x84\xe8\x0e\x87\xc7?'
p72
tp73
Rp74
sg22
g46
(g50
S'\xbaqy\x11\xe8\xac\xb2?'
p75
tp76
Rp77
sg25
g46
(g50
S'\xe2>g\xa6\xc9:\xaf?'
p78
tp79
Rp80
sg28
g46
(g50
S';\xb1\xeb\xb9\xaa]\xa7?'
p81
tp82
Rp83
sg31
g46
(g50
S'imJ\x18-s\xa2?'
p84
tp85
Rp86
sg34
g46
(g50
S'\x15\x02j\xdd@j\xb7?'
p87
tp88
Rp89
sg36
g46
(g50
S'\xfe\x127_\xd4\xa7\xa1?'
p90
tp91
Rp92
sg39
g46
(g50
S'\xcd!\xdd7\x04>\xaf?'
p93
tp94
Rp95
ssS'paralog'
p96
(lp97
S'YER131W'
p98
aS'YGL189C'
p99
asS'alignment_file'
p100
S'../MafftAlignment/YER131W_YGL189C/YER131W_YGL189C_input.fasta'
p101
sS'x_clock'
p102
NsS'x'
p103
cnumpy.core.multiarray
_reconstruct
p104
(cnumpy
ndarray
p105
(I0
tp106
S'b'
p107
tp108
Rp109
(I1
(I20
tp110
g50
I00
S'\xab\xf7%\xe8\xafq\xe5\xbfX!\x87\xc4\x06\xd5\xdb\xbf\xf0\xfe\x00\x0e\xfcJ\xe7\xbf\xc4?@\xb1\xc3\xfa\xfd?C\xb6\xd6\xd8\x02K\x07\xc0\xd2\x03\xe8d\xbe\xb4\xe7\xbfC5\x99X\xfb>\xec?d\xdfE\xd4-v\xef?\xd1\xcd\xc1\xfd*`\x06\xc0)\x90\x0c/g"\x03\xc05\xa7mK\xc2\x93\xff\xbf\xcb\xca\x1d\x19\n\x1a\xfb\xbf\xe8j\x8f\x1eK\x02\x10\xc0\xb0\xaeZ\xf5\x99\xf1\x04\xc0\x0cc\xb2\x90,\xf0\n\xc0K\xd1\xc8\xf7E\xb2\x08\xc0\x87\x7f\xe8\xf5\xe8\xca\x12\xc0\xe2\xbahKW_\x06\xc0\xcd\xa3\x9cF\xee\x9c\x07\xc0\xc1\xd0\x9a\x1e\x0c\x96\n\xc0'
p111
tp112
bsS'Model'
p113
S'MG94'
p114
sS'clock'
p115
I00
s.