(dp0
S'Force'
p1
NsS'ExpectedGeneconv'
p2
(dp3
(S'N1'
p4
S'N2'
p5
tp6
F21.832678149132494
s(S'N5'
p7
S'cerevisiae'
p8
tp9
F3.820567088146018
s(g5
S'N3'
p10
tp11
F4.278519076008775
s(S'N4'
p12
g7
tp13
F2.20130056497122
s(g4
S'castellii'
p14
tp15
F27.69215964893594
s(g5
S'bayanus'
p16
tp17
F12.699474754021491
s(S'N0'
p18
g4
tp19
F5.5337888817928
s(g10
S'kudriavzevii'
p20
tp21
F7.686214824099044
s(g7
S'paradoxus'
p22
tp23
F1.091518625282054
s(g18
S'kluyveri'
p24
tp25
F0.0
s(g10
g12
tp26
F1.1601301803266617
s(g12
S'mikatae'
p27
tp28
F6.353662104061498
ssS'ExpectedDwellTime'
p29
(dp30
g6
F98.45014767732201
sg9
F133.10690795031618
sg11
F117.83076128683946
sg13
F121.9347661340623
sg15
F96.07298040033318
sg17
F123.45754767378529
sg19
F40.778719253132806
sg21
F129.19511558930824
sg23
F125.43943766606307
sg25
F0.0
sg26
F118.86678928440546
sg28
F129.7906995244883
ssS'newicktree'
p31
S'../PairsAlignemt/YeastTree.newick'
p32
sS'll'
p33
cnumpy.core.multiarray
scalar
p34
(cnumpy
dtype
p35
(S'f8'
p36
I0
I1
tp37
Rp38
(I3
S'<'
p39
NNNI-1
I-1
I0
tp40
bS'\xa6\xf6b\xbc\xcb\x1f\xa2\xc0'
p41
tp42
Rp43
sS'edge_list'
p44
(lp45
g19
ag25
ag6
ag15
ag11
ag17
ag26
ag21
ag13
ag28
ag9
ag23
asS'edge_to_blen'
p46
(dp47
g6
g34
(g38
S'\x87b\x94 \xe8!\xc7?'
p48
tp49
Rp50
sg9
g34
(g38
S'-G\xb6?\x92c\xa4?'
p51
tp52
Rp53
sg11
g34
(g38
S'O\xc5J\t\x11\xb4\x99?'
p54
tp55
Rp56
sg13
g34
(g38
S'\x05g\x91U\x855\x95?'
p57
tp58
Rp59
sg15
g34
(g38
S'=F\xbfW\x12\xcf\xc9?'
p60
tp61
Rp62
sg17
g34
(g38
S'{\xaa\xac\x8c\x8a\xa1\xb4?'
p63
tp64
Rp65
sg19
g34
(g38
S'S\xde\xc95\xcbV\xbf?'
p66
tp67
Rp68
sg21
g34
(g38
S'\x90L\xd3\xac\xccO\xb4?'
p69
tp70
Rp71
sg23
g34
(g38
S'`we\xfe\xac\n\x85?'
p72
tp73
Rp74
sg25
g34
(g38
S"\xea\xcf'r\xea\x93\xbd?"
p75
tp76
Rp77
sg26
g34
(g38
S'K\xdb\x86K\xd1\x06{?'
p78
tp79
Rp80
sg28
g34
(g38
S'\xad\x10\xcf\x92\x01 \xb1?'
p81
tp82
Rp83
ssS'paralog'
p84
(lp85
S'YNL069C'
p86
aS'YIL133C'
p87
asS'alignment_file'
p88
S'../MafftAlignment/YNL069C_YIL133C/YNL069C_YIL133C_input.fasta'
p89
sS'x_clock'
p90
NsS'x'
p91
cnumpy.core.multiarray
_reconstruct
p92
(cnumpy
ndarray
p93
(I0
tp94
S'b'
p95
tp96
Rp97
(I1
(I19
tp98
g38
I00
S'\xcd\x11\x93MI8\xe7\xbf4\x9aM\x1bP\x85\xe1\xbf\x91\xcd\xff\xfa\xaa;\xed\xbfj\x10\xa6\xc0\x9d\xea\xfa?o\xc3t\xc1>8\xfc\xbf\xc1\xa3p\x9f\xdc\xc6\xd5?\xfe\xc1V\x97N4\xf0\xbf\x06\xeb\xfb\xd8p\xcd\x00\xc0G\x8e\xe9\xfa\xe5C\x01\xc0\xaax5yi_\xfb\xbfv\xab\xd57\xf9\x9e\xf9\xbfsB\xda+\x92z\r\xc0F\x04\x89H\xa5%\x04\xc0\xfd\xd6&3r\x15\x14\xc0JX\xb9\x10\x97E\x04\xc0N\xff/*/\x04\x0f\xc0\xc8\xbdX\x8b\x18\xa3\x05\xc0\x81Ad\tb\xc9\t\xc0\xaa\xaa\x8a\xc6\xfcO\x12\xc0'
p99
tp100
bsS'Model'
p101
S'MG94'
p102
sS'clock'
p103
I00
s.