(dp0
S'Force'
p1
NsS'ExpectedGeneconv'
p2
(dp3
(S'N1'
p4
S'N2'
p5
tp6
F84.22244261686609
s(S'N5'
p7
S'cerevisiae'
p8
tp9
F29.334856540071254
s(g5
S'N3'
p10
tp11
F9.899928414072056
s(S'N4'
p12
g7
tp13
F12.546708381378203
s(g4
S'castellii'
p14
tp15
F126.59787791857228
s(g5
S'bayanus'
p16
tp17
F41.13516763318066
s(S'N0'
p18
g4
tp19
F45.16244448607691
s(g10
S'kudriavzevii'
p20
tp21
F26.645164158939053
s(g7
S'paradoxus'
p22
tp23
F12.991153964673355
s(g18
S'kluyveri'
p24
tp25
F0.0
s(g10
g12
tp26
F13.471992538605496
s(g12
S'mikatae'
p27
tp28
F29.470667062302823
ssS'ExpectedDwellTime'
p29
(dp30
g6
F449.3174243191409
sg9
F515.8122876968583
sg11
F512.3990078949081
sg13
F518.7076130964011
sg15
F466.80287618345204
sg17
F508.7316271381624
sg19
F219.96958376526385
sg21
F522.1664866018017
sg23
F512.1555719074576
sg25
F0.0
sg26
F517.8990057918604
sg28
F534.5315283242649
ssS'newicktree'
p31
S'../PairsAlignemt/YeastTree.newick'
p32
sS'll'
p33
cnumpy.core.multiarray
scalar
p34
(cnumpy
dtype
p35
(S'f8'
p36
I0
I1
tp37
Rp38
(I3
S'<'
p39
NNNI-1
I-1
I0
tp40
bS'VH\xfb \xb4\xc1\xb9\xc0'
p41
tp42
Rp43
sS'edge_list'
p44
(lp45
g19
ag25
ag6
ag15
ag11
ag17
ag26
ag21
ag13
ag28
ag9
ag23
asS'edge_to_blen'
p46
(dp47
g6
g34
(g38
S'E\xc7\xf4\xc7\x04v\xc3?'
p48
tp49
Rp50
sg9
g34
(g38
S"\x00'or\x83h\xa7?"
p51
tp52
Rp53
sg11
g34
(g38
S'\x7f\xee\xae\xac\x02\xca\x92?'
p54
tp55
Rp56
sg13
g34
(g38
S'\xb8x\xa9YJY\x93?'
p57
tp58
Rp59
sg21
g34
(g38
S'\xa4\xd9\x8c(\x87\xa8\xa7?'
p60
tp61
Rp62
sg17
g34
(g38
S'G8>\x9fL\x8a\xb0?'
p63
tp64
Rp65
sg19
g34
(g38
S'9E\xfb\xb8>\xde\xc5?'
p66
tp67
Rp68
sg15
g34
(g38
S'&\xb8\xae?\xd4Q\xcc?'
p69
tp70
Rp71
sg23
g34
(g38
S'\x8d)\x01xt\r\x93?'
p72
tp73
Rp74
sg25
g34
(g38
S'\xdaRU\xc0|#\xba?'
p75
tp76
Rp77
sg26
g34
(g38
S'|\xde;I\xa9\x9c\x95?'
p78
tp79
Rp80
sg28
g34
(g38
S'\xd3\x92\x94\xf9\x12Z\xab?'
p81
tp82
Rp83
ssS'paralog'
p84
(lp85
S'YPL232W'
p86
aS'YMR183C'
p87
asS'alignment_file'
p88
S'../MafftAlignment/YPL232W_YMR183C/YPL232W_YMR183C_input.fasta'
p89
sS'x_clock'
p90
NsS'x'
p91
cnumpy.core.multiarray
_reconstruct
p92
(cnumpy
ndarray
p93
(I0
tp94
S'b'
p95
tp96
Rp97
(I1
(I18
tp98
g38
I00
S'?\xda\x8fSOE\xe4\xbfhn$\xcb-\x85\xdf\xbf\x9a\x8b\xe03\xd6l\xe8\xbf~\x99\x96\xa4\xb6s\xf8?#\x02P\xcfO\xc0\xc7?\x9c\xf0\x83\xa9NN\xc1\xbf>FJ\x07\xa1E\xfc\xbfku\x0b1\rA\x02\xc0\x17\x1b(\xdbK#\xfe\xbf\xda\x16Q1\xb6"\xf8\xbf\xa6=\xbe\x82M\xfc\x0f\xc0+]x\xfa@\xea\x05\xc0z\x8aj\x15\xa5\xdd\x0e\xc0!u\xdb-\xcd\x98\x08\xc0\x85\xc8-,0\xc0\x0f\xc0\xed\xc15\xde\xb2o\x07\xc0j\x9a\xf8"\x90\xae\x08\xc0 J\x86*\xc9\xdf\x0f\xc0'
p99
tp100
bsS'Model'
p101
S'HKY'
p102
sS'clock'
p103
I00
s.