(dp0
S'Force'
p1
NsS'ExpectedGeneconv'
p2
(dp3
(S'N1'
p4
S'N2'
p5
tp6
F48.13551545749858
s(S'N5'
p7
S'cerevisiae'
p8
tp9
F3.029065603339905
s(g5
S'N3'
p10
tp11
F3.673168694272774
s(S'N4'
p12
g7
tp13
F1.9552059253963878
s(g4
S'castellii'
p14
tp15
F47.66474347070025
s(g5
S'bayanus'
p16
tp17
F7.637300671381473
s(S'N0'
p18
g4
tp19
F1.021442093238256
s(g10
S'kudriavzevii'
p20
tp21
F6.73396999756197
s(g7
S'paradoxus'
p22
tp23
F1.5263190531596458
s(g18
S'kluyveri'
p24
tp25
F0.0
s(g10
g12
tp26
F3.4254871693425115
s(g12
S'mikatae'
p27
tp28
F6.851607400620011
ssS'ExpectedDwellTime'
p29
(dp30
g6
F345.95606986215404
sg9
F421.08543168657536
sg11
F416.7330256002972
sg13
F416.4310884650297
sg15
F348.37881240797134
sg17
F420.44016827362185
sg19
F72.95974030425921
sg21
F425.4954703236863
sg23
F424.0017250444971
sg25
F0.0
sg26
F415.269937642164
sg28
F411.26590040299476
ssS'newicktree'
p31
S'../PairsAlignemt/YeastTree.newick'
p32
sS'll'
p33
cnumpy.core.multiarray
scalar
p34
(cnumpy
dtype
p35
(S'f8'
p36
I0
I1
tp37
Rp38
(I3
S'<'
p39
NNNI-1
I-1
I0
tp40
bS'\xa74\xcc\xb5Zh\xba\xc0'
p41
tp42
Rp43
sS'edge_list'
p44
(lp45
g19
ag25
ag6
ag15
ag11
ag17
ag26
ag21
ag13
ag28
ag9
ag23
asS'edge_to_blen'
p46
(dp47
g19
g34
(g38
S'\xa5\r\xa5\x08\x91d\xc4?'
p48
tp49
Rp50
sg9
g34
(g38
S'\x88R\xd6\x97\xec\xea\xc4?'
p51
tp52
Rp53
sg11
g34
(g38
S'\x00\xb3B\xcc\x8fy\xc1?'
p54
tp55
Rp56
sg13
g34
(g38
S'1\xe3!\x95<g\xbf?'
p57
tp58
Rp59
sg15
g34
(g38
S'FK\xdd\xd6\xd6\r\x02@'
p60
tp61
Rp62
sg17
g34
(g38
S'.\x8f\xedMQ?\xd5?'
p63
tp64
Rp65
sg6
g34
(g38
S'\xe7\xab[\x1c=\xf4\xfe?'
p66
tp67
Rp68
sg21
g34
(g38
S'I\x9a\x8f\xc7\x8a\xd8\xd2?'
p69
tp70
Rp71
sg23
g34
(g38
S'"\xb0AcF9\xb9?'
p72
tp73
Rp74
sg25
g34
(g38
S'\x0bQ\x8e3@\xda\xf7?'
p75
tp76
Rp77
sg26
g34
(g38
S'\xde#\xc9\xf5i\xd0\xc2?'
p78
tp79
Rp80
sg28
g34
(g38
S'p\x85\xd0\xa2=<\xd4?'
p81
tp82
Rp83
ssS'paralog'
p84
(lp85
S'YBR024W'
p86
aS'YBR037C'
p87
asS'alignment_file'
p88
S'../MafftAlignment/YBR024W_YBR037C/YBR024W_YBR037C_input.fasta'
p89
sS'x_clock'
p90
NsS'x'
p91
cnumpy.core.multiarray
_reconstruct
p92
(cnumpy
ndarray
p93
(I0
tp94
S'b'
p95
tp96
Rp97
(I1
(I19
tp98
g38
I00
S'UR\x9f\xf6k\xfc\xe4\xbf\x8a\xdcJY\xf0*\xe2\xbf\xa9 \xe6B\xff \xed\xbf\xb4L\x86\xdd\\\xdb\xeb?2\xdc\xd2ckN\x03\xc0\xfb\xc4\x10O\xb4\x14\x02\xc0\x8f\rT\t%\xf9\xee?e\xa4&(\xb9c\xfd\xbf\x95\x98tM*\x8e\xd9?\xf0fn\xd4\x06\x1e\xe5?\xdd\xb4\xe1\xdd\xb4\x0b\xea?`g\xbaX;\xdc\xff\xbfi\xff9\x0bv\xa4\xf1\xbf\xf0J\x92\x82\xc3\xad\xfe\xbf\xf4:\x12\xec\xb9\x8f\xf3\xbfo>\xd4h?\xc9\x00\xc0kk\xbb\xbaZl\xf2\xbf\x97\x18\t1\xa4\xfb\xfc\xbfdU\x03\xee\x04\x8a\x02\xc0'
p99
tp100
bsS'Model'
p101
S'MG94'
p102
sS'clock'
p103
I00
s.