(dp0
S'Force'
p1
NsS'ExpectedGeneconv'
p2
(dp3
(S'N1'
p4
S'N2'
p5
tp6
F14.267572634572067
s(S'N5'
p7
S'cerevisiae'
p8
tp9
F6.982783234828818
s(g5
S'N3'
p10
tp11
F2.6252162828226964
s(S'N4'
p12
g7
tp13
F3.4366251385512463
s(g4
S'castellii'
p14
tp15
F33.17061530370847
s(g5
S'bayanus'
p16
tp17
F3.4544069152350794
s(S'N0'
p18
g4
tp19
F5.373345854726496
s(g10
S'kudriavzevii'
p20
tp21
F5.688014200975419
s(g7
S'paradoxus'
p22
tp23
F2.820315223113122
s(g18
S'kluyveri'
p24
tp25
F0.0
s(g10
g12
tp26
F3.1646197334997432
s(g12
S'mikatae'
p27
tp28
F7.731990775565207
ssS'ExpectedDwellTime'
p29
(dp30
g6
F372.31124195563444
sg9
F448.1647419559665
sg11
F438.01813027999606
sg13
F443.8856917377145
sg15
F404.3291929535512
sg17
F446.98908178476745
sg19
F168.79781570479568
sg21
F450.9182274524851
sg23
F452.89425439366704
sg25
F0.0
sg26
F441.8757371360308
sg28
F450.8142454897167
ssS'newicktree'
p31
S'../PairsAlignemt/YeastTree.newick'
p32
sS'll'
p33
cnumpy.core.multiarray
scalar
p34
(cnumpy
dtype
p35
(S'f8'
p36
I0
I1
tp37
Rp38
(I3
S'<'
p39
NNNI-1
I-1
I0
tp40
bS'K3\xb0H\xa5v\xba\xc0'
p41
tp42
Rp43
sS'edge_list'
p44
(lp45
g19
ag25
ag6
ag15
ag11
ag17
ag26
ag21
ag13
ag28
ag9
ag23
asS'edge_to_blen'
p46
(dp47
g6
g34
(g38
S'\x07\x9fw\xf2\x85\n\xe2?'
p48
tp49
Rp50
sg9
g34
(g38
S'?\x08\x0b\xc0\x0eG\xc4?'
p51
tp52
Rp53
sg11
g34
(g38
S'\xd9vB\x80\xa1\x03\xb8?'
p54
tp55
Rp56
sg13
g34
(g38
S'\x8b\x1a#{_0\xb7?'
p57
tp58
Rp59
sg21
g34
(g38
S'T\x97\x00\x06\xd8d\xcd?'
p60
tp61
Rp62
sg17
g34
(g38
S'E3:l\xdc\xe1\xc8?'
p63
tp64
Rp65
sg19
g34
(g38
S'|\xf5\xe4x\x11,\xd7?'
p66
tp67
Rp68
sg15
g34
(g38
S'-\xb2\x0c\xc5\xb3&\xef?'
p69
tp70
Rp71
sg23
g34
(g38
S'\xba\xfcMNHY\xbe?'
p72
tp73
Rp74
sg25
g34
(g38
S'\x0e\x8e\x1fz\x08\x8e\xdd?'
p75
tp76
Rp77
sg26
g34
(g38
S'd\x99|\x98XQ\xb4?'
p78
tp79
Rp80
sg28
g34
(g38
S'\xc8\xd8\x97$\x07e\xcf?'
p81
tp82
Rp83
ssS'paralog'
p84
(lp85
S'YGR043C'
p86
aS'YLR354C'
p87
asS'alignment_file'
p88
S'../MafftAlignment/YGR043C_YLR354C/YGR043C_YLR354C_input.fasta'
p89
sS'x_clock'
p90
NsS'x'
p91
cnumpy.core.multiarray
_reconstruct
p92
(cnumpy
ndarray
p93
(I0
tp94
S'b'
p95
tp96
Rp97
(I1
(I19
tp98
g38
I00
S'\xd0\xc5Tzyh\xe7\xbf\xdb\xad\x8ew\xb31\xe1\xbfY\xed\x8b\xc9 \x11\xea\xbf\x93\x9b\xa6\x9e;\x1e\xf1?Ql_\x8f\x8f\xa2\x01\xc0\xdbx\xb2\x02;\x08\x17\xc0]\xd5i\xe5\xb9\xebV\xc0\xac=W?BA\xf0\xbf\xce\x92\xbe\xdbo\xb9\xe8\xbfio\xc1I\xb2V\xe2\xbf\xe62\xb4\x83j\x87\x9b\xbf\x8e;d\xc3\xa8\xee\x02\xc0\xd4\xc4\x9f.\xbc4\xfa\xbf\n>\x95&\xfbD\x04\xc0t;\xbbp5\x8a\xf7\xbfZ\xe2\xc0LF6\x03\xc0\xad\xd9\xe1s}|\xf6\xbfay\xfb\xfa\xf0z\xfd\xbf=O\n)3\x0f\x01\xc0'
p99
tp100
bsS'Model'
p101
S'MG94'
p102
sS'clock'
p103
I00
s.