(dp0
S'Force'
p1
NsS'ExpectedGeneconv'
p2
(dp3
(S'N1'
p4
S'N2'
p5
tp6
F53.87566849298066
s(S'N5'
p7
S'cerevisiae'
p8
tp9
F9.01052702752875
s(g5
S'N3'
p10
tp11
F8.28886494192647
s(S'N4'
p12
g7
tp13
F6.220061203190115
s(g4
S'castellii'
p14
tp15
F67.38523327605623
s(g5
S'bayanus'
p16
tp17
F16.293432807643132
s(S'N0'
p18
g4
tp19
F17.621135956314514
s(g10
S'kudriavzevii'
p20
tp21
F10.162917646721429
s(g7
S'paradoxus'
p22
tp23
F7.68997157815077
s(g18
S'kluyveri'
p24
tp25
F0.0
s(g10
g12
tp26
F6.802567989309747
s(g12
S'mikatae'
p27
tp28
F14.512057357025787
ssS'ExpectedDwellTime'
p29
(dp30
g6
F788.3891568585143
sg9
F985.4828535514522
sg11
F936.7177222461767
sg13
F964.4931203128292
sg15
F766.540487799797
sg17
F934.9277959670432
sg19
F339.97643972920514
sg21
F958.7741771679495
sg23
F973.4283917653006
sg25
F0.0
sg26
F955.0185645775597
sg28
F957.1649991001105
ssS'newicktree'
p31
S'../PairsAlignemt/YeastTree.newick'
p32
sS'll'
p33
cnumpy.core.multiarray
scalar
p34
(cnumpy
dtype
p35
(S'f8'
p36
I0
I1
tp37
Rp38
(I3
S'<'
p39
NNNI-1
I-1
I0
tp40
bS' \xcb\xf1\x9b?\xe9\xc1\xc0'
p41
tp42
Rp43
sS'edge_list'
p44
(lp45
g19
ag25
ag6
ag15
ag11
ag17
ag26
ag21
ag13
ag28
ag9
ag23
asS'edge_to_blen'
p46
(dp47
g19
g34
(g38
S'\xb3\x08\xb3\x00\xde\x1e\xcc?'
p48
tp49
Rp50
sg9
g34
(g38
S':\xf2}\xb5F\x01\xb0?'
p51
tp52
Rp53
sg11
g34
(g38
S'C\xdchU\xd0\x9a\xa6?'
p54
tp55
Rp56
sg13
g34
(g38
S'*\xe0]\x11\xf8\x8c\xa1?'
p57
tp58
Rp59
sg15
g34
(g38
S'\x93\x97e\xf9\x0f*\xd4?'
p60
tp61
Rp62
sg17
g34
(g38
S'x\xf9tz\xb9\xd3\xb5?'
p63
tp64
Rp65
sg6
g34
(g38
S'\xb0D\x8dw:\x0b\xd3?'
p66
tp67
Rp68
sg21
g34
(g38
S'%\x98\x81*\n\xb0\xb0?'
p69
tp70
Rp71
sg23
g34
(g38
S'\x9f*\xcb[\xda~\xa3?'
p72
tp73
Rp74
sg25
g34
(g38
S'\xaa\xc4Y\x946\xcd\xc2?'
p75
tp76
Rp77
sg26
g34
(g38
S'\xcc\xa5\x18\x0e\xc9]\xa3?'
p78
tp79
Rp80
sg28
g34
(g38
S'\x9b\xa10\x0e\xa5\x15\xb1?'
p81
tp82
Rp83
ssS'paralog'
p84
(lp85
S'YDR438W'
p86
aS'YML018C'
p87
asS'alignment_file'
p88
S'../MafftAlignment/YDR438W_YML018C/YDR438W_YML018C_input.fasta'
p89
sS'x_clock'
p90
NsS'x'
p91
cnumpy.core.multiarray
_reconstruct
p92
(cnumpy
ndarray
p93
(I0
tp94
S'b'
p95
tp96
Rp97
(I1
(I18
tp98
g38
I00
S'b\xda\x8f\xa9\xe3W\xe8\xbf\xc8\xe51\xa5\xf1@\xe2\xbf\xda\xe9\xfe?\x92\x03\xee\xbf\x1cB\x17D\xc1\x8e\xf4?\x9c\xf8\xcf\xab_\x02\xf9\xbf;\xde\xa3\xa83B\xf2\xbf\x87l\xea\x12\x9b?\xf8\xbf\xb6\x85J\x90|\xb0\xfe\xbf\xc7\xe5y \xebd\xf3\xbfT&#\xd6\xc0z\xf2\xbf\xdd\x8d\xb2\t\x19\xf6\x08\xc01\xf0\xf3t;\xb2\x03\xc0\x8fX\xb1\xdd\xc32\n\xc0;\xda\x97\xb0\x14\xd8\x05\xc0"u\xe4\x9ca\xfc\n\xc0bCH$\xf1\xa7\x05\xc0\x1e\xb3\xbe\xaa\x9f-\x06\xc0\xde\xd9U\x90&%\n\xc0'
p99
tp100
bsS'Model'
p101
S'HKY'
p102
sS'clock'
p103
I00
s.