(dp0
S'Force'
p1
NsS'ExpectedGeneconv'
p2
(dp3
(S'N1'
p4
S'N2'
p5
tp6
(lp7
F7.467600150823487
aF27.215019931424397
as(S'N5'
p8
S'cerevisiae'
p9
tp10
(lp11
F2.652924726453408
aF3.695744511754068
as(g5
S'N3'
p12
tp13
(lp14
F0.1365737505998496
aF2.4635716664291674
as(S'N4'
p15
g8
tp16
(lp17
F0.2750709529988282
aF0.7952554196757308
as(g4
S'castellii'
p18
tp19
(lp20
F11.847445695437443
aF45.774042287312405
as(g5
S'bayanus'
p21
tp22
(lp23
F1.7975207179361756
aF9.609835876506354
as(S'N0'
p24
g4
tp25
(lp26
F4.157300333545772
aF16.218869770003742
as(g12
S'kudriavzevii'
p27
tp28
(lp29
F0.34201023375484246
aF4.737016006605433
as(g8
S'paradoxus'
p30
tp31
(lp32
F1.3773110606312615
aF0.7767694408329304
as(g24
S'kluyveri'
p33
tp34
(lp35
F0.0
aF0.0
as(g12
g15
tp36
(lp37
F0.2941730913666381
aF4.495064628628854
as(g15
S'mikatae'
p38
tp39
(lp40
F1.160901167408882
aF7.1201769454721155
assS'ExpectedDwellTime'
p41
(dp42
g6
F41.32070045208906
sg10
F47.699690754588765
sg13
F35.83927674957226
sg16
F43.82732818483841
sg19
F50.41348636085587
sg22
F27.085099887833575
sg25
F27.15463431257663
sg28
F43.41945688097432
sg31
F51.92340412567831
sg34
F0.0
sg36
F39.67248056850035
sg39
F44.0071276075022
ssS'newicktree'
p43
S'../PairsAlignemt/YeastTree.newick'
p44
sS'll'
p45
cnumpy.core.multiarray
scalar
p46
(cnumpy
dtype
p47
(S'f8'
p48
I0
I1
tp49
Rp50
(I3
S'<'
p51
NNNI-1
I-1
I0
tp52
bS'\xd9\xd1\xd9\x8c-\xc6\x94\xc0'
p53
tp54
Rp55
sS'edge_list'
p56
(lp57
g25
ag34
ag6
ag19
ag13
ag22
ag36
ag28
ag16
ag39
ag10
ag31
asS'edge_to_blen'
p58
(dp59
g6
g46
(g50
S'U\xcaw\xd7\xe1\x0f\xb0?'
p60
tp61
Rp62
sg10
g46
(g50
S'\xae\xbenaT\x9a\x8b?'
p63
tp64
Rp65
sg13
g46
(g50
S'\xaa6\xd4\xf4\x86\xc8~?'
p66
tp67
Rp68
sg16
g46
(g50
S'\xd3E\xb9\xb3\xf6\xcfp?'
p69
tp70
Rp71
sg28
g46
(g50
S'\xf3vD\x01\x95\xfe\x8d?'
p72
tp73
Rp74
sg22
g46
(g50
S'\xfcKM-\x99\xfe\x93?'
p75
tp76
Rp77
sg25
g46
(g50
S'\xd7\x96z=\xfa\xb8\xb1?'
p78
tp79
Rp80
sg19
g46
(g50
S'a\x15wo\x82\xf6\xbb?'
p81
tp82
Rp83
sg31
g46
(g50
S'\x06#0p\xb4\r\x82?'
p84
tp85
Rp86
sg34
g46
(g50
S'\x192N\xb0\xc5|\xa4?'
p87
tp88
Rp89
sg36
g46
(g50
S'\r\x02\x89-O\x13\x86?'
p90
tp91
Rp92
sg39
g46
(g50
S'\xf65\x02#\x8f\xe3\x92?'
p93
tp94
Rp95
ssS'paralog'
p96
(lp97
S'YLR333C'
p98
aS'YGR027C'
p99
asS'alignment_file'
p100
S'../MafftAlignment/YLR333C_YGR027C/YLR333C_YGR027C_input.fasta'
p101
sS'x_clock'
p102
NsS'x'
p103
cnumpy.core.multiarray
_reconstruct
p104
(cnumpy
ndarray
p105
(I0
tp106
S'b'
p107
tp108
Rp109
(I1
(I19
tp110
g50
I00
S'\x1c\x17\xe5;O\x9d\xe7\xbf\x89.\xad\x84E\xa2\xe0\xbf`\x806\xe3"\xe5\xe8\xbf\x08X\x10wWc\x00@\x9b\x84`U\xd5\x06\xf8?(\xbcZ\xb2p\xf2\x06@K\n\x01\xd1 \xeb\xd1\xbf\x1e<\xa4w\xda\\\x05\xc0(H\xcc\xc7\x84\xbf\t\xc0\x8f\x83\x9e\x01V&\x06\xc0?\xb5h\xc6\xe1\xb6\x01\xc0#\x94\xe2-,\x90\x13\xc0\x04"\x80\x8e\xf4|\x0f\xc0\xa1\x15\x08\xaa\xe0\x1e\x12\xc0\xcd r\t\xf9\xe4\x10\xc0\x01\xe8,/\x8c\xfb\x15\xc0\xdd\xaaF\x17t\xf1\x0f\xc0\xd9\xf7\xa6\x8d\x0f:\x11\xc0\x8d\'s\x02\xd4\xec\x12\xc0'
p111
tp112
bsS'Model'
p113
S'HKY'
p114
sS'clock'
p115
I00
s.