(dp0
S'Force'
p1
NsS'ExpectedGeneconv'
p2
(dp3
(S'N1'
p4
S'N2'
p5
tp6
(lp7
F28.482176954236458
aF6.942610698132198
as(S'N5'
p8
S'cerevisiae'
p9
tp10
(lp11
F7.965108053582388
aF2.0579693523099314
as(g5
S'N3'
p12
tp13
(lp14
F6.232497020409333
aF1.3132183287902441
as(S'N4'
p15
g8
tp16
(lp17
F7.919829643762655
aF1.461942835310488
as(g4
S'castellii'
p18
tp19
(lp20
F36.703503642461946
aF8.802941535393858
as(g5
S'bayanus'
p21
tp22
(lp23
F6.776543171868938
aF2.750177388524659
as(S'N0'
p24
g4
tp25
(lp26
F0.8960936823696996
aF0.20552082776727315
as(g12
S'kudriavzevii'
p27
tp28
(lp29
F10.93402338538128
aF2.3703974830576247
as(g8
S'paradoxus'
p30
tp31
(lp32
F5.291886427328794
aF1.873850777532336
as(g24
S'kluyveri'
p33
tp34
(lp35
F0.0
aF0.0
as(g12
g15
tp36
(lp37
F6.577106813852863
aF1.0442339281234687
as(g15
S'mikatae'
p38
tp39
(lp40
F11.171649272207052
aF4.586895146831818
assS'ExpectedDwellTime'
p41
(dp42
g6
F497.38991881173877
sg10
F752.4389977077808
sg13
F734.8052287606337
sg16
F752.1508522812953
sg19
F543.2847471385192
sg22
F747.0047060633678
sg25
F87.79050733502515
sg28
F754.8520382005123
sg31
F749.8032175567588
sg34
F0.0
sg36
F750.4822517101336
sg39
F760.931255010618
ssS'newicktree'
p43
S'../PairsAlignemt/YeastTree.newick'
p44
sS'll'
p45
cnumpy.core.multiarray
scalar
p46
(cnumpy
dtype
p47
(S'f8'
p48
I0
I1
tp49
Rp50
(I3
S'<'
p51
NNNI-1
I-1
I0
tp52
bS':\xb8+\xa0\xbaB\xbf\xc0'
p53
tp54
Rp55
sS'edge_list'
p56
(lp57
g25
ag34
ag6
ag19
ag13
ag22
ag36
ag28
ag16
ag39
ag10
ag31
asS'edge_to_blen'
p58
(dp59
g6
g46
(g50
S'xR\xec\xb8\xed\xe2\xd6?'
p60
tp61
Rp62
sg10
g46
(g50
S'\x05-\x1a\xda\xc9U\xb2?'
p63
tp64
Rp65
sg13
g46
(g50
S'\xd5C7%\xfb\x9b\xa9?'
p66
tp67
Rp68
sg16
g46
(g50
S'\xe9\xf6\xbb\xfam\xf8\xa5?'
p69
tp70
Rp71
sg28
g46
(g50
S'\x87\xe8_\xa5\xe7\x05\xb5?'
p72
tp73
Rp74
sg22
g46
(g50
S'\x9c\xa5\xae"5\xf3\xb1?'
p75
tp76
Rp77
sg25
g46
(g50
S'\xd4\x84\xfb\x85\xe6\xff\xad?'
p78
tp79
Rp80
sg19
g46
(g50
S'X\xd1W!Ab\xdb?'
p81
tp82
Rp83
sg31
g46
(g50
S'.n\xa2\xed\xcfp\xa9?'
p84
tp85
Rp86
sg34
g46
(g50
S'\x99#O\xf8\x90\xca\xda?'
p87
tp88
Rp89
sg36
g46
(g50
S'\xf5\x07\x02-\x0e\x1a\xa9?'
p90
tp91
Rp92
sg39
g46
(g50
S'\xb9\xaa$\xc2L\xe3\xb9?'
p93
tp94
Rp95
ssS'paralog'
p96
(lp97
S'YLR284C'
p98
aS'YOR180C'
p99
asS'alignment_file'
p100
S'../MafftAlignment/YLR284C_YOR180C/YLR284C_YOR180C_input.fasta'
p101
sS'x_clock'
p102
NsS'x'
p103
cnumpy.core.multiarray
_reconstruct
p104
(cnumpy
ndarray
p105
(I0
tp106
S'b'
p107
tp108
Rp109
(I1
(I19
tp110
g50
I00
S'SO\xfe2y\x94\xe5\xbf\xa4v5\xae\x1a=\xe2\xbf\n\xcd\x92]\xf2\xfb\xeb\xbf@\xe8\xe1\xafD\x08\xf4?\xe7{]u\xf1n\xf2\xbf\x85\xc5!\x96\x9d9\x04\xc0\xc5XT\xdaj\r\xf3\xbfZs\xde\x8fv\xb2\x06\xc0\xb7\xdc-F\xa6\xdd\xeb\xbf\x90\xf9\x9f\x10\x13t\xf0\xbf\xff\xe5C\xe1q*\xeb\xbf\xbd\xcd\xad\x08\x84\xf6\x07\xc0\x83o\x81H\xbcB\x05\xc0\x8c\x81=\xa6\x82\x1f\x08\xc0\xff\x06\xf2\xdc\x17\xff\x03\xc0N\x83\xea{c0\t\xc0\x1c\xac\xeb\xa6\xcaT\x02\xc0\xd4\xdeE\xb0C\x17\x05\xc0m^x\xb3\x0b\x04\x08\xc0'
p111
tp112
bsS'Model'
p113
S'HKY'
p114
sS'clock'
p115
I00
s.