(dp0
S'Force'
p1
NsS'ExpectedGeneconv'
p2
(dp3
(S'N1'
p4
S'N2'
p5
tp6
F199.9679164947168
s(S'N5'
p7
S'cerevisiae'
p8
tp9
F19.573045344787698
s(g5
S'N3'
p10
tp11
F7.563695863114378
s(S'N4'
p12
g7
tp13
F11.237252485209698
s(g4
S'castellii'
p14
tp15
F374.115546791497
s(g5
S'bayanus'
p16
tp17
F33.01144072048993
s(S'N0'
p18
g4
tp19
F49.39498653868245
s(g10
S'kudriavzevii'
p20
tp21
F23.424370247762038
s(g7
S'paradoxus'
p22
tp23
F12.887973667801116
s(g18
S'kluyveri'
p24
tp25
F0.0
s(g10
g12
tp26
F15.460436161474943
s(g12
S'mikatae'
p27
tp28
F26.763989971158477
ssS'ExpectedDwellTime'
p29
(dp30
g6
F1050.5857596242863
sg9
F1236.1964804685351
sg11
F1172.3210870196444
sg13
F1212.5590886476339
sg15
F1120.2919253891844
sg17
F1161.7899908448912
sg19
F540.4279656215904
sg21
F1201.0145160938582
sg23
F1227.6094563889424
sg25
F0.0
sg26
F1189.0943330723642
sg28
F1200.0461975188907
ssS'newicktree'
p31
S'../PairsAlignemt/YeastTree.newick'
p32
sS'll'
p33
cnumpy.core.multiarray
scalar
p34
(cnumpy
dtype
p35
(S'f8'
p36
I0
I1
tp37
Rp38
(I3
S'<'
p39
NNNI-1
I-1
I0
tp40
bS'\x8c~"\xfa\xacf\xd2\xc0'
p41
tp42
Rp43
sS'edge_list'
p44
(lp45
g19
ag25
ag6
ag15
ag11
ag17
ag26
ag21
ag13
ag28
ag9
ag23
asS'edge_to_blen'
p46
(dp47
g6
g34
(g38
S'\xb5![\xe2t\xad\xf7?'
p48
tp49
Rp50
sg9
g34
(g38
S'\xe5,\xdeq\x91]\xc7?'
p51
tp52
Rp53
sg11
g34
(g38
S"\x04\xd3\x83\x83']\xb1?"
p54
tp55
Rp56
sg13
g34
(g38
S'\xe4\xc1\xcdj\xc9\x85\xbb?'
p57
tp58
Rp59
sg21
g34
(g38
S'\xdf}[\x9a\xe3\x0b\xd0?'
p60
tp61
Rp62
sg17
g34
(g38
S'\xd2\xa7b\x90o\xe4\xd0?'
p63
tp64
Rp65
sg19
g34
(g38
S'sK\x17\x1c\x88\x92\xe1?'
p66
tp67
Rp68
sg15
g34
(g38
S'\xd6z\x86\xd8\xdf\xf0\x06@'
p69
tp70
Rp71
sg23
g34
(g38
S'\xeaS\xd3\xf3\xf5s\xbc?'
p72
tp73
Rp74
sg25
g34
(g38
S']\xe8\t"O\xbe\xf5?'
p75
tp76
Rp77
sg26
g34
(g38
S'h\x1e\x91\x91)\x15\xc2?'
p78
tp79
Rp80
sg28
g34
(g38
S'\x93x\x14\xdd\xed \xcf?'
p81
tp82
Rp83
ssS'paralog'
p84
(lp85
S'YNL049C'
p86
aS'YIL109C'
p87
asS'alignment_file'
p88
S'../MafftAlignment/YNL049C_YIL109C/YNL049C_YIL109C_input.fasta'
p89
sS'x_clock'
p90
NsS'x'
p91
cnumpy.core.multiarray
_reconstruct
p92
(cnumpy
ndarray
p93
(I0
tp94
S'b'
p95
tp96
Rp97
(I1
(I19
tp98
g38
I00
S'\x03\\\x83\x88%\xbd\xe6\xbf\xbc=w\xf3\xd7\x9a\xde\xbf\x8a\xd65\xa5\x80\x16\xee\xbf\xdc\xe6\x12\x977\x06\xf1?\x83\xc0\xc4x\xbcB\x05\xc0T\x11P\x18yM\xfd\xbf\xbc\xd3\x80\xdc|\x94\x01\xc0?\x14\xa1\xa0W.\xe3\xbf\x9a\xf9\x9fjR\xa1\xd3?\xad{\xb2U\x88\x15\xd9?\x11\xff\xc4Y\x0e\xdb\xf0?$\xc0\x87K\xba\x86\x05\xc0O\xfb\x07\xf2\xf7O\xf5\xbf1\xbf\xefo/P\xff\xbf\xc5\xbe<\xcdc"\xf6\xbf~\x8d`Bc\xd7\x01\xc0j<\x06\x06X\x9f\xf6\xbf\x05\x96l@Z6\xfb\xbf\xc0?!TM\x93\x01\xc0'
p99
tp100
bsS'Model'
p101
S'MG94'
p102
sS'clock'
p103
I00
s.