(dp0
S'Force'
p1
NsS'ExpectedGeneconv'
p2
(dp3
(S'N1'
p4
S'N2'
p5
tp6
F189.90845342979043
s(S'N5'
p7
S'cerevisiae'
p8
tp9
F120.88231430057786
s(g5
S'N3'
p10
tp11
F87.9294392401299
s(S'N4'
p12
g7
tp13
F59.670209518677495
s(g4
S'castellii'
p14
tp15
F603.5850824076401
s(g5
S'bayanus'
p16
tp17
F119.72091868984113
s(S'N0'
p18
g4
tp19
F17.39412188637789
s(g10
S'kudriavzevii'
p20
tp21
F137.78855467931254
s(g7
S'paradoxus'
p22
tp23
F64.05132086755454
s(g18
S'kluyveri'
p24
tp25
F0.0
s(g10
g12
tp26
F87.19341970935974
s(g12
S'mikatae'
p27
tp28
F161.37100922200244
ssS'ExpectedDwellTime'
p29
(dp30
g6
F602.5149263672696
sg9
F850.2831500882493
sg11
F780.3050961947372
sg13
F867.8285434016526
sg15
F792.0952834125317
sg17
F774.4626844604521
sg19
F188.1958826729419
sg21
F876.7864018998686
sg23
F903.5978898868291
sg25
F0.0
sg26
F838.2042446341097
sg28
F898.1482132875386
ssS'newicktree'
p31
S'../PairsAlignemt/YeastTree.newick'
p32
sS'll'
p33
cnumpy.core.multiarray
scalar
p34
(cnumpy
dtype
p35
(S'f8'
p36
I0
I1
tp37
Rp38
(I3
S'<'
p39
NNNI-1
I-1
I0
tp40
bS'G\x88C\xcd4b\xd2\xc0'
p41
tp42
Rp43
sS'edge_list'
p44
(lp45
g19
ag25
ag6
ag15
ag11
ag17
ag26
ag21
ag13
ag28
ag9
ag23
asS'edge_to_blen'
p46
(dp47
g19
g34
(g38
S'=\xb4\xf8\xb3t\x1d\xb9?'
p48
tp49
Rp50
sg9
g34
(g38
S'\xa9H\x87\t\xde\x02\xc2?'
p51
tp52
Rp53
sg11
g34
(g38
S'\xfcH\xf4\xdaoU\xbf?'
p54
tp55
Rp56
sg13
g34
(g38
S'\xfe\xa00\x89\xb2\xaf\xb3?'
p57
tp58
Rp59
sg15
g34
(g38
S'CCM\xa7\x97\xdf\xeb?'
p60
tp61
Rp62
sg17
g34
(g38
S'4\xbe]\x83 \x04\xc6?'
p63
tp64
Rp65
sg6
g34
(g38
S'\xa7\x01v\xb1\x0e\xb5\xd4?'
p66
tp67
Rp68
sg21
g34
(g38
S'\x8cr\xe5W\xfe\xad\xc9?'
p69
tp70
Rp71
sg23
g34
(g38
S'\xbe-\xb3N\x8e\x1b\xb8?'
p72
tp73
Rp74
sg28
g34
(g38
S'd\x1f\xc5\xfb\x067\xcb?'
p75
tp76
Rp77
sg26
g34
(g38
S'\x15\xd0\x83?\xc3\xc6\xbc?'
p78
tp79
Rp80
sg25
g34
(g38
S'\x02 \xa2b)\xff\xeb?'
p81
tp82
Rp83
ssS'paralog'
p84
(lp85
S'YGL062W'
p86
aS'YBR218C'
p87
asS'alignment_file'
p88
S'../MafftAlignment/YGL062W_YBR218C/YGL062W_YBR218C_input.fasta'
p89
sS'x_clock'
p90
NsS'x'
p91
cnumpy.core.multiarray
_reconstruct
p92
(cnumpy
ndarray
p93
(I0
tp94
S'b'
p95
tp96
Rp97
(I1
(I19
tp98
g38
I00
S'7\x84\x02A,~\xe7\xbfa`\xa6D\xa9=\xe2\xbf\x91\x0e\x00L\xaa1\xeb\xbf\x9b\xa4\x85]+\x15\xf4?\xa3]xq?\xa0\x08\xc0u\xa486\xed\x9b\xa7\xbf\x9bQ\x12S}<\xf7\xbf\xbc&\xd8\x88\xdc\x92\x02\xc0\xd3\xb6`\xa9c\x1b\xc1\xbf\x01\xc4\xe9\x0b\xec\r\xf2\xbf\x7f\xf4o\xa8\n\xac\xc1\xbf\xfc%y\x86\xc9\xcd\x00\xc0j)ov\x01*\xfc\xbf \x9e3\xff&|\x01\xc0\x98T\xfa\x11\x88\xb3\xf9\xbfE\x87\xab\xa9\xa3\x85\x04\xc0\x183\x98B\xb0\xc5\xf8\xbf\xe9\xbdG\xc1g`\xff\xbf"\x8c\xb5S\xb4\xe6\x02\xc0'
p99
tp100
bsS'Model'
p101
S'MG94'
p102
sS'clock'
p103
I00
s.