(dp0
S'Force'
p1
NsS'ExpectedGeneconv'
p2
(dp3
(S'N1'
p4
S'N2'
p5
tp6
(lp7
F5.300372430541648
aF9.069255289507602
as(S'N5'
p8
S'cerevisiae'
p9
tp10
(lp11
F1.4809059098981787
aF3.5687575606974797
as(g5
S'N3'
p12
tp13
(lp14
F1.5640388517968957
aF2.022376169660696
as(S'N4'
p15
g8
tp16
(lp17
F0.7686060387611744
aF1.5724916724038305
as(g4
S'castellii'
p18
tp19
(lp20
F5.129807998698429
aF9.77582622638841
as(g5
S'bayanus'
p21
tp22
(lp23
F2.371499834943873
aF3.6313606678890897
as(S'N0'
p24
g4
tp25
(lp26
F0.20471046881680854
aF0.2958303462228298
as(g12
S'kudriavzevii'
p27
tp28
(lp29
F2.260617939231482
aF2.199526939007209
as(g8
S'paradoxus'
p30
tp31
(lp32
F1.4389661689740056
aF1.3527431944129777
as(g24
S'kluyveri'
p33
tp34
(lp35
F0.0
aF0.0
as(g12
g15
tp36
(lp37
F1.6690097391854224
aF2.1685868404301325
as(g15
S'mikatae'
p38
tp39
(lp40
F2.0016882464094654
aF4.471421283961451
assS'ExpectedDwellTime'
p41
(dp42
g6
F263.4865014808738
sg10
F378.1040518262615
sg13
F352.74707183088077
sg16
F376.66574774679583
sg19
F252.9771696603309
sg22
F364.5179687235599
sg25
F59.948504059683785
sg28
F379.71292220796414
sg31
F390.5958192983806
sg34
F0.0
sg36
F363.555986204037
sg39
F383.9123215044191
ssS'newicktree'
p43
S'../PairsAlignemt/YeastTree.newick'
p44
sS'll'
p45
cnumpy.core.multiarray
scalar
p46
(cnumpy
dtype
p47
(S'f8'
p48
I0
I1
tp49
Rp50
(I3
S'<'
p51
NNNI-1
I-1
I0
tp52
bS'\xa9W&"\x7f\xa0\xb6\xc0'
p53
tp54
Rp55
sS'edge_list'
p56
(lp57
g25
ag34
ag6
ag19
ag13
ag22
ag36
ag28
ag16
ag39
ag10
ag31
asS'edge_to_blen'
p58
(dp59
g6
g46
(g50
S'7J\x82\xb8\xabk\xe3?'
p60
tp61
Rp62
sg10
g46
(g50
S'\xb7\xcd\naC\xb8\xc0?'
p63
tp64
Rp65
sg13
g46
(g50
S'\xbf\t\x03\x97\xfe\xc9\xc0?'
p66
tp67
Rp68
sg16
g46
(g50
S'\x0f\xfb\x92\xe6\x96\x96\xbb?'
p69
tp70
Rp71
sg28
g46
(g50
S'\x7fU\xfe\xb4;\xd7\xcc?'
p72
tp73
Rp74
sg22
g46
(g50
S'\xa5\xfay\xbd\x86\x01\xd0?'
p75
tp76
Rp77
sg25
g46
(g50
S'\xcd\xca\x15\xe58\xf2\xba?'
p78
tp79
Rp80
sg19
g46
(g50
S'XE\x9e\x08\xed\xf0\xe1?'
p81
tp82
Rp83
sg31
g46
(g50
S'\x03\\\x10\xd7\xe2\xe6\xbc?'
p84
tp85
Rp86
sg39
g46
(g50
S'\x9cHQC\xcf\x9d\xcd?'
p87
tp88
Rp89
sg36
g46
(g50
S'\xae\x1cr\x86\x88"\xc2?'
p90
tp91
Rp92
sg34
g46
(g50
S'\x82\xd7)]t\x92\xe1?'
p93
tp94
Rp95
ssS'paralog'
p96
(lp97
S'YHR106W'
p98
aS'YDR353W'
p99
asS'alignment_file'
p100
S'../MafftAlignment/YHR106W_YDR353W/YHR106W_YDR353W_input.fasta'
p101
sS'x_clock'
p102
NsS'x'
p103
cnumpy.core.multiarray
_reconstruct
p104
(cnumpy
ndarray
p105
(I0
tp106
S'b'
p107
tp108
Rp109
(I1
(I20
tp110
g50
I00
S'\x99\x01\xbb\xe9\xf6\xf9\xe5\xbf\xfd\xf5\xddtT\xf1\xe1\xbf\xce~\x91\xa5r\x7f\xeb\xbf\x10\x9f)\xa8y\xd5\xf4?s\x115\x0f(l\x06\xc0\x00\xa1\xef\xe2}\xd7\x04\xc0\xa3 ,\x0ef\x81\xf3\xbf\xe4\xe7\x92^qx\xe3\xbff\reb\xbc\x02\x02\xc0\xf4/\xed\x95{.\xe3\xbf)\x92_E4\xf6\xdf\xbf\xf1!\x8e\xb29\x84\xe2\xbf\xbd\x04\rD\x1c@\x00\xc0\xd0>"T\xbc,\xf6\xbfC)\x99\x15_D\xff\xbfZ\x05;\xb7\x06\xd8\xf7\xbfX\xecSo\x82\xd2\x01\xc03\x01\x11=Qk\xf7\xbf\xe9\x00\xfb\xad\x93H\x00\xc0\xb2\xce\x8a\xc3=s\x01\xc0'
p111
tp112
bsS'Model'
p113
S'MG94'
p114
sS'clock'
p115
I00
s.