(dp0
S'Force'
p1
NsS'ExpectedGeneconv'
p2
(dp3
(S'N1'
p4
S'N2'
p5
tp6
F94.78107424816191
s(S'N5'
p7
S'cerevisiae'
p8
tp9
F19.232451855638583
s(g5
S'N3'
p10
tp11
F10.710061451042947
s(S'N4'
p12
g7
tp13
F13.351443403689045
s(g4
S'castellii'
p14
tp15
F126.26544271388606
s(g5
S'bayanus'
p16
tp17
F24.09536027169763
s(S'N0'
p18
g4
tp19
F4.046154793028153
s(g10
S'kudriavzevii'
p20
tp21
F27.260464145124985
s(g7
S'paradoxus'
p22
tp23
F16.41226783694852
s(g18
S'kluyveri'
p24
tp25
F0.0
s(g10
g12
tp26
F18.768862798210833
s(g12
S'mikatae'
p27
tp28
F28.603912830684262
ssS'ExpectedDwellTime'
p29
(dp30
g6
F957.5011714595292
sg9
F1405.9713677458337
sg11
F1400.9282250426347
sg13
F1419.295654489381
sg15
F917.9648019993517
sg17
F1403.575250837249
sg19
F188.33580209523248
sg21
F1425.1376643550766
sg23
F1417.8592523166321
sg25
F0.0
sg26
F1422.1947140460848
sg28
F1417.3862856433364
ssS'newicktree'
p31
S'../PairsAlignemt/YeastTree.newick'
p32
sS'll'
p33
cnumpy.core.multiarray
scalar
p34
(cnumpy
dtype
p35
(S'f8'
p36
I0
I1
tp37
Rp38
(I3
S'<'
p39
NNNI-1
I-1
I0
tp40
bS'\x92\x11\xe0N\r\x83\xca\xc0'
p41
tp42
Rp43
sS'edge_list'
p44
(lp45
g19
ag25
ag6
ag15
ag11
ag17
ag26
ag21
ag13
ag28
ag9
ag23
asS'edge_to_blen'
p46
(dp47
g19
g34
(g38
S'\xa4\x01\xd5S/}\xb1?'
p48
tp49
Rp50
sg9
g34
(g38
S'N ~F\xc1\x0b\xa7?'
p51
tp52
Rp53
sg11
g34
(g38
S'\xdcc{,S\x18\xa1?'
p54
tp55
Rp56
sg13
g34
(g38
S'\t9g\xb4A\x06\x9f?'
p57
tp58
Rp59
sg15
g34
(g38
S'OB\xdd&\xff\xa2\xd8?'
p60
tp61
Rp62
sg17
g34
(g38
S'\xfd\xaa\xb4o\xc6\xce\xb3?'
p63
tp64
Rp65
sg6
g34
(g38
S'X\x7f\x11qLj\xd7?'
p66
tp67
Rp68
sg21
g34
(g38
S'\xa5\xf7\xb3\xa5\xe4s\xb0?'
p69
tp70
Rp71
sg23
g34
(g38
S'\xe4\x92\xb3]\x97\xf5\xa3?'
p72
tp73
Rp74
sg28
g34
(g38
S';\xc7\x10\xc60k\xb1?'
p75
tp76
Rp77
sg26
g34
(g38
S'\xbb\x16\xc2FkZ\xa2?'
p78
tp79
Rp80
sg25
g34
(g38
S'\x10T\r\xf1z=\xcc?'
p81
tp82
Rp83
ssS'paralog'
p84
(lp85
S'YDR518W'
p86
aS'YCL043C'
p87
asS'alignment_file'
p88
S'../MafftAlignment/YDR518W_YCL043C/YDR518W_YCL043C_input.fasta'
p89
sS'x_clock'
p90
NsS'x'
p91
cnumpy.core.multiarray
_reconstruct
p92
(cnumpy
ndarray
p93
(I0
tp94
S'b'
p95
tp96
Rp97
(I1
(I18
tp98
g38
I00
S'\xceW<\xcb?\xa4\xe7\xbf\x90\x1b"\xfau\xe8\xe0\xbf\xadM\xd0\x02\xf1\xb6\xe7\xbf\xcb;Z6\xab\x9f\xf4?\\(N\x8e9v\xf4\xbf\xf0\xa7\x0b1\xfe\xba\xf2\xbf\x19Yl\xf8\x05x\x05\xc0\xa4\x1e\xa6z9.\xf8\xbf\x082\x00v\x83\x16\xf0\xbf\xaa\xba\xdf\x06u\x8c\xee\xbf\xb6F3\xb5@2\x0b\xc0\xca\xf2\xc4\x85\x0cy\x04\xc0s2qw\xcf\xa0\n\xc0\xfc\x07\xa5\xa8\x1e\xf5\x05\xc0\xa3\x7f\xb8\x06<\xf9\x0b\xc0r\x05\xbfdE\x80\x05\xc09N\xa8\x16\x83\xce\x08\xc0\xd85\x7f2\xff\xf4\t\xc0'
p99
tp100
bsS'Model'
p101
S'HKY'
p102
sS'clock'
p103
I00
s.