(dp0
S'Force'
p1
NsS'ExpectedGeneconv'
p2
(dp3
(S'N1'
p4
S'N2'
p5
tp6
F37.65198315472367
s(S'N5'
p7
S'cerevisiae'
p8
tp9
F30.207775068348187
s(g5
S'N3'
p10
tp11
F24.314323173371008
s(S'N4'
p12
g7
tp13
F23.087321241412333
s(g4
S'castellii'
p14
tp15
F145.3258786194252
s(g5
S'bayanus'
p16
tp17
F36.85231346988602
s(S'N0'
p18
g4
tp19
F83.17544022275102
s(g10
S'kudriavzevii'
p20
tp21
F57.992127849997466
s(g7
S'paradoxus'
p22
tp23
F25.022069526173052
s(g18
S'kluyveri'
p24
tp25
F0.0
s(g10
g12
tp26
F23.344255314256333
s(g12
S'mikatae'
p27
tp28
F51.60188730931868
ssS'ExpectedDwellTime'
p29
(dp30
g6
F377.1061315405644
sg9
F390.35714674661585
sg11
F398.12808521493673
sg13
F400.7134329327578
sg15
F392.6153309802687
sg17
F395.7559791544998
sg19
F213.57869680527645
sg21
F392.64485003286984
sg23
F405.04360211286496
sg25
F0.0
sg26
F404.2097639851919
sg28
F403.9964404112341
ssS'newicktree'
p31
S'../PairsAlignemt/YeastTree.newick'
p32
sS'll'
p33
cnumpy.core.multiarray
scalar
p34
(cnumpy
dtype
p35
(S'f8'
p36
I0
I1
tp37
Rp38
(I3
S'<'
p39
NNNI-1
I-1
I0
tp40
bS'\x087{ \x94\xfe\xb9\xc0'
p41
tp42
Rp43
sS'edge_list'
p44
(lp45
g19
ag25
ag6
ag15
ag11
ag17
ag26
ag21
ag13
ag28
ag9
ag23
asS'edge_to_blen'
p46
(dp47
g19
g34
(g38
S'\xbd\x8bC\x1f\xe3\xf1\xc0?'
p48
tp49
Rp50
sg9
g34
(g38
S'\xd6\x86\xc9)\xd9G\x97?'
p51
tp52
Rp53
sg11
g34
(g38
S'>ARr\xbb\x1a\x96?'
p54
tp55
Rp56
sg13
g34
(g38
S'+\x14\x97\x8b\x103\x92?'
p57
tp58
Rp59
sg15
g34
(g38
S'\xb0"\xbc\xe5C\xe8\xbd?'
p60
tp61
Rp62
sg17
g34
(g38
S')T\xdb\xcb<\x1a\x9e?'
p63
tp64
Rp65
sg6
g34
(g38
S'\x00lP\x87\x89h\xa0?'
p66
tp67
Rp68
sg21
g34
(g38
S'=\xbe\x94\x9cwL\xa5?'
p69
tp70
Rp71
sg23
g34
(g38
S'\xd5/\xfc\xec\xac\xa6\x95?'
p72
tp73
Rp74
sg28
g34
(g38
S'\xd9\n(\x95Wy\xa5?'
p75
tp76
Rp77
sg26
g34
(g38
S']\x9fZE\xfd8\x92?'
p78
tp79
Rp80
sg25
g34
(g38
S'\xf90\xc1\x1ej\x06\xc6>'
p81
tp82
Rp83
ssS'paralog'
p84
(lp85
S'YDR502C'
p86
aS'YLR180W'
p87
asS'alignment_file'
p88
S'../MafftAlignment/YDR502C_YLR180W/YDR502C_YLR180W_input.fasta'
p89
sS'x_clock'
p90
NsS'x'
p91
cnumpy.core.multiarray
_reconstruct
p92
(cnumpy
ndarray
p93
(I0
tp94
S'b'
p95
tp96
Rp97
(I1
(I17
tp98
g38
I00
S'\x7f\xec\xc1F:G\xe9\xbf\x83\xf4\xe1H\x92\xec\xe2\xbf`\x8b\x8a\x9e\x11\x95\xea\xbf"\xc3\\Kb\x84\xfc?\xa5\xff\xe3(\xa1O\xf2?\xd0\x92\xffl0-\x00\xc0\xb1;\xda\xfdM\xb3)\xc0h\xd2e\xe16\x86\x0b\xc0\xceNu\xd25-\x01\xc0\xc4t\xadb\x80\xaf\x0e\xc0\xe1V\x93l\x047\x0c\xc0f|y\xf4\x7f\x1d\x10\xc0%\x84\xe9R\xfbo\t\xc0\x04\xfac\x19\xcd\x1e\x10\xc0\xb5\xd6L\xfd1_\t\xc0NVi\x98RE\x0e\xc0?J|\xf8\xf0\xd9\x0e\xc0'
p99
tp100
bsS'Model'
p101
S'HKY'
p102
sS'clock'
p103
I00
s.