(dp0
S'Force'
p1
NsS'ExpectedGeneconv'
p2
(dp3
(S'N1'
p4
S'N2'
p5
tp6
F24.8476070880525
s(S'N5'
p7
S'cerevisiae'
p8
tp9
F6.137092245172402
s(g5
S'N3'
p10
tp11
F7.691458205425238
s(S'N4'
p12
g7
tp13
F17.332158012084253
s(g4
S'castellii'
p14
tp15
F51.82117091396219
s(g5
S'bayanus'
p16
tp17
F30.81811961127901
s(S'N0'
p18
g4
tp19
F52.08817952212628
s(g10
S'kudriavzevii'
p20
tp21
F19.327621333795815
s(g7
S'paradoxus'
p22
tp23
F6.255853769232325
s(g18
S'kluyveri'
p24
tp25
F0.0
s(g10
g12
tp26
F8.871566815752743
s(g12
S'mikatae'
p27
tp28
F9.04717293602556
ssS'ExpectedDwellTime'
p29
(dp30
g6
F78.98395006702827
sg9
F27.98962582945884
sg11
F75.49228484305952
sg13
F47.28872797597584
sg15
F79.3383310659457
sg17
F66.07083197371733
sg19
F49.191157832218565
sg21
F85.94607642276051
sg23
F34.322807183755316
sg25
F0.0
sg26
F68.20236127729373
sg28
F63.07915335645473
ssS'newicktree'
p31
S'../PairsAlignemt/YeastTree.newick'
p32
sS'll'
p33
cnumpy.core.multiarray
scalar
p34
(cnumpy
dtype
p35
(S'f8'
p36
I0
I1
tp37
Rp38
(I3
S'<'
p39
NNNI-1
I-1
I0
tp40
bS'\xb6**z\xbe\x89\xa0\xc0'
p41
tp42
Rp43
sS'edge_list'
p44
(lp45
g19
ag25
ag6
ag15
ag11
ag17
ag26
ag21
ag13
ag28
ag9
ag23
asS'edge_to_blen'
p46
(dp47
g19
g34
(g38
S'\x9bG\x9e\x14l\x96\xb3?'
p48
tp49
Rp50
sg9
g34
(g38
S'\x1f\x93\x8b1\xe5_r?'
p51
tp52
Rp53
sg11
g34
(g38
S'\x07\x0fc\x19\x8c\x9cy?'
p54
tp55
Rp56
sg13
g34
(g38
S',Ku\xef\x96\x18\x87?'
p57
tp58
Rp59
sg21
g34
(g38
S'\xd2\xc0>0\xedh\x97?'
p60
tp61
Rp62
sg17
g34
(g38
S'\xf3`\xc4\x94\x94v\x98?'
p63
tp64
Rp65
sg6
g34
(g38
S'RK\xde@s\x89\x94?'
p66
tp67
Rp68
sg15
g34
(g38
S'\xd8M\xb4\x8c\xcd\xc9\xa5?'
p69
tp70
Rp71
sg23
g34
(g38
S'\xc9-\x1a\x99\xf6\x13\x80?'
p72
tp73
Rp74
sg28
g34
(g38
S'C\xc8\xc0\xfd\xe8\x8d\x82?'
p75
tp76
Rp77
sg26
g34
(g38
S'}H\xd9\x8f\x8b\xf6v?'
p78
tp79
Rp80
sg25
g34
(g38
S'\xfch\x07\n\xbf\xbd\xa5>'
p81
tp82
Rp83
ssS'paralog'
p84
(lp85
S'YER102W'
p86
aS'YBL072C'
p87
asS'alignment_file'
p88
S'../MafftAlignment/YER102W_YBL072C/YER102W_YBL072C_input.fasta'
p89
sS'x_clock'
p90
NsS'x'
p91
cnumpy.core.multiarray
_reconstruct
p92
(cnumpy
ndarray
p93
(I0
tp94
S'b'
p95
tp96
Rp97
(I1
(I17
tp98
g38
I00
S'\xbaddC\xc5\x05\xe7\xbf\x18uj\xb3_\x05\xe2\xbf\xe0j\x07\xac\x89\xa0\xe8\xbf\xff\xb5\x82x\xa9P\x01@\xdc\x9b\x81\xc2\xe30\x06@.\xbbc\xb3\xef\x8f\x04\xc0\x81Z\x87\x9c\xba\x7f,\xc0\xc7\xd3\xa9\xb7#F\x0f\xc0 \xbdP\xf6oA\t\xc0E\r)\x80\x84L\x14\xc0\xa8\xa2q\x8d\xd9\xdf\r\xc0i\xa3H\xc8J\xbc\x14\xc0P{\xa9\xbf\xfc9\x0e\xc0\xf3_\xce\xa1\x98\xf0\x11\xc0m\xc2\x916\xcf\xd0\x12\xc0\x88"3~\x8f\xa0\x15\xc0\tZP\x13\x80c\x13\xc0'
p99
tp100
bsS'Model'
p101
S'HKY'
p102
sS'clock'
p103
I00
s.