(dp0
S'Force'
p1
NsS'ExpectedGeneconv'
p2
(dp3
(S'N1'
p4
S'N2'
p5
tp6
F92.5807760653911
s(S'N5'
p7
S'cerevisiae'
p8
tp9
F19.514663526740424
s(g5
S'N3'
p10
tp11
F8.812983852345212
s(S'N4'
p12
g7
tp13
F12.448101131569054
s(g4
S'castellii'
p14
tp15
F103.32976603302151
s(g5
S'bayanus'
p16
tp17
F30.336878436054402
s(S'N0'
p18
g4
tp19
F2.972156582371332
s(g10
S'kudriavzevii'
p20
tp21
F28.289768526517648
s(g7
S'paradoxus'
p22
tp23
F15.940986111713052
s(g18
S'kluyveri'
p24
tp25
F0.0
s(g10
g12
tp26
F15.852939424877112
s(g12
S'mikatae'
p27
tp28
F26.455359676894457
ssS'ExpectedDwellTime'
p29
(dp30
g6
F949.1669291093019
sg9
F1405.5336886856749
sg11
F1402.056030034733
sg13
F1418.4383305871836
sg15
F898.5702298411082
sg17
F1405.467694243613
sg19
F170.85215639442032
sg21
F1424.844146836452
sg23
F1417.3767202374502
sg25
F0.0
sg26
F1421.3909088728158
sg28
F1416.982536485796
ssS'newicktree'
p31
S'../PairsAlignemt/YeastTree.newick'
p32
sS'll'
p33
cnumpy.core.multiarray
scalar
p34
(cnumpy
dtype
p35
(S'f8'
p36
I0
I1
tp37
Rp38
(I3
S'<'
p39
NNNI-1
I-1
I0
tp40
bS'\xbcIUt\xe6\x84\xca\xc0'
p41
tp42
Rp43
sS'edge_list'
p44
(lp45
g19
ag25
ag6
ag15
ag11
ag17
ag26
ag21
ag13
ag28
ag9
ag23
asS'edge_to_blen'
p46
(dp47
g19
g34
(g38
S'\xad\x06\x10\x92zl\xaf?'
p48
tp49
Rp50
sg9
g34
(g38
S'E`\x01rc$\xa7?'
p51
tp52
Rp53
sg11
g34
(g38
S'6a\xa6\xb1\xcb`\x9e?'
p54
tp55
Rp56
sg13
g34
(g38
S'\x148\x01\xee\xd9\xd2\x9e?'
p57
tp58
Rp59
sg15
g34
(g38
S's\x89.\xca\xaa\xe4\xd7?'
p60
tp61
Rp62
sg17
g34
(g38
S'\xd08v\xa9\x8b\xec\xb4?'
p63
tp64
Rp65
sg6
g34
(g38
S'\x17{C\x02z\xe8\xd7?'
p66
tp67
Rp68
sg21
g34
(g38
S'\x94\xea=bA\xa4\xb0?'
p69
tp70
Rp71
sg23
g34
(g38
S'"#\xbf\x88\x92\x19\xa4?'
p72
tp73
Rp74
sg25
g34
(g38
S'Xi\x93D#\xf8\xcd?'
p75
tp76
Rp77
sg26
g34
(g38
S'yj}\xf1\x02|\xa2?'
p78
tp79
Rp80
sg28
g34
(g38
S'\xd3;\x90\x08\x87\x7f\xb1?'
p81
tp82
Rp83
ssS'paralog'
p84
(lp85
S'YDR518W'
p86
aS'YCL043C'
p87
asS'alignment_file'
p88
S'../MafftAlignment/YDR518W_YCL043C/YDR518W_YCL043C_input.fasta'
p89
sS'x_clock'
p90
NsS'x'
p91
cnumpy.core.multiarray
_reconstruct
p92
(cnumpy
ndarray
p93
(I0
tp94
S'b'
p95
tp96
Rp97
(I1
(I17
tp98
g38
I00
S'\xc4\x04\xdf\xdcc\x9e\xe7\xbf\xce-\xff\xc1Mk\xe0\xbf\xd4/]\x12\xdbw\xe8\xbf\x193\xe1D\xa2\xac\xf4?_\x9f\x00\x17\x9a1\xf4\xbfZ\x8d\xd0ezS\x06\xc0_\x1e\x1d\x8c\xce:\xf7\xbf-\xc5\xe7\xc2`\x82\xef\xbf\xf4n\x15uz\x87\xef\xbf\xf8#\xdb\xe4Y$\x0c\xc0=N\x00 \xc4\x08\x04\xc0_L\x92H8\x92\n\xc0\xd0\xa6$\xec\xbc\xdd\x05\xc0\x822\x82s\x88\x06\x0c\xc0\x05\x0f\xed\xb7\xf3v\x05\xc0\xa2\xa3\xd9\x90\xfa\xc5\x08\xc0jA\xb3)\xa0\xe6\t\xc0'
p99
tp100
bsS'Model'
p101
S'HKY'
p102
sS'clock'
p103
I00
s.