(dp0
S'Force'
p1
NsS'ExpectedGeneconv'
p2
(dp3
(S'N1'
p4
S'N2'
p5
tp6
F59.90196890156366
s(S'N5'
p7
S'cerevisiae'
p8
tp9
F21.423739301992963
s(g5
S'N3'
p10
tp11
F14.063575231458431
s(S'N4'
p12
g7
tp13
F10.16054391376345
s(g4
S'castellii'
p14
tp15
F82.95730227027634
s(g5
S'bayanus'
p16
tp17
F19.828262721389876
s(S'N0'
p18
g4
tp19
F1.7471455999334693
s(g10
S'kudriavzevii'
p20
tp21
F23.037648848790436
s(g7
S'paradoxus'
p22
tp23
F27.339314385934205
s(g18
S'kluyveri'
p24
tp25
F0.0
s(g10
g12
tp26
F9.198857864355961
s(g12
S'mikatae'
p27
tp28
F21.281629183707178
ssS'ExpectedDwellTime'
p29
(dp30
g6
F1203.780490313182
sg9
F1855.6150451831465
sg11
F1799.941036641353
sg13
F1856.267228757588
sg15
F1337.687199768283
sg17
F1814.129057630875
sg19
F209.75302816697427
sg21
F1883.703170694683
sg23
F1917.4380000357369
sg25
F0.0
sg26
F1843.511447658886
sg28
F1876.6069970837389
ssS'newicktree'
p31
S'../PairsAlignemt/YeastTree.newick'
p32
sS'll'
p33
cnumpy.core.multiarray
scalar
p34
(cnumpy
dtype
p35
(S'f8'
p36
I0
I1
tp37
Rp38
(I3
S'<'
p39
NNNI-1
I-1
I0
tp40
bS'\xc9\xbc\xe8\x172p\xd3\xc0'
p41
tp42
Rp43
sS'edge_list'
p44
(lp45
g19
ag25
ag6
ag15
ag11
ag17
ag26
ag21
ag13
ag28
ag9
ag23
asS'edge_to_blen'
p46
(dp47
g19
g34
(g38
S'\xb9\xd2)\x9a\xe6M\xad?'
p48
tp49
Rp50
sg9
g34
(g38
S'e\xfb(G\xdc\x10\xad?'
p51
tp52
Rp53
sg11
g34
(g38
S'7\x96\xfb\x9d\xf7\x0f\xae?'
p54
tp55
Rp56
sg13
g34
(g38
S'\xcf\x1f\x0cN\xd6\xff\xa1?'
p57
tp58
Rp59
sg15
g34
(g38
S'\xc8\xd4*Bo0\xdc?'
p60
tp61
Rp62
sg17
g34
(g38
S'@\x1b~8\xf9\xf0\xb4?'
p63
tp64
Rp65
sg6
g34
(g38
S':9\xee\xb4\xb9J\xd6?'
p66
tp67
Rp68
sg21
g34
(g38
S'T\x00g\x80O\xf7\xb6?'
p69
tp70
Rp71
sg23
g34
(g38
S'S\xd7\x9f \xb7\xd9\xb7?'
p72
tp73
Rp74
sg25
g34
(g38
S'A?\xc1)\\\xb3\xe1?'
p75
tp76
Rp77
sg26
g34
(g38
S'fp\xd5\x9c3\xcc\xa1?'
p78
tp79
Rp80
sg28
g34
(g38
S'\x9e\xafMOV\xbd\xb3?'
p81
tp82
Rp83
ssS'paralog'
p84
(lp85
S'YAL056W'
p86
aS'YOR371C'
p87
asS'alignment_file'
p88
S'../MafftAlignment/YAL056W_YOR371C/YAL056W_YOR371C_input.fasta'
p89
sS'x_clock'
p90
NsS'x'
p91
cnumpy.core.multiarray
_reconstruct
p92
(cnumpy
ndarray
p93
(I0
tp94
S'b'
p95
tp96
Rp97
(I1
(I17
tp98
g38
I00
S'\xb3\xdb5G=3\xe5\xbf\xb9\x99\xb3$\xa1,\xdf\xbf\x0bl\xb0\nh\xbf\xeb\xbf\xc0L9\x99\x97\xe5\xf1?}\xe47_\xf2\xdb\xfe\xbf\xf1uR3}\xe2\x06\xc0\xc7\x8e\xbc\x17\xc7\xf2\xe2\xbf%5\x9e\x07\xe3\xdf\xf0\xbf:3\x02\xb4\xfb<\xea\xbf\xbc\x15V\xde.\xae\x06\xc0\xb2\x02^\xe7\x12\x07\x04\xc0g>\x9cd\xc2\xdf\n\xc06d\x84O\x0eJ\x03\xc0\xf4\x83W\x0b\xae\xc8\n\xc0!/a\x9d\x1a\x80\x04\xc0\x155\xfa\x988\xf3\x06\xc0I\xa4\x19\xaf\xab\xfc\x02\xc0'
p99
tp100
bsS'Model'
p101
S'HKY'
p102
sS'clock'
p103
I00
s.