(dp0
S'Force'
p1
NsS'ExpectedGeneconv'
p2
(dp3
(S'N1'
p4
S'N2'
p5
tp6
F28.862073829410928
s(S'N5'
p7
S'cerevisiae'
p8
tp9
F11.814473602954378
s(g5
S'N3'
p10
tp11
F5.345838774401477
s(S'N4'
p12
g7
tp13
F4.326077261895428
s(g4
S'castellii'
p14
tp15
F68.68709480387167
s(g5
S'bayanus'
p16
tp17
F14.711125147146424
s(S'N0'
p18
g4
tp19
F11.073261384281999
s(g10
S'kudriavzevii'
p20
tp21
F14.129388437915921
s(g7
S'paradoxus'
p22
tp23
F8.246498702609314
s(g18
S'kluyveri'
p24
tp25
F0.0
s(g10
g12
tp26
F6.255389961708187
s(g12
S'mikatae'
p27
tp28
F18.75726529458421
ssS'ExpectedDwellTime'
p29
(dp30
g6
F225.02973652479776
sg9
F318.2104635849983
sg11
F278.2251068002613
sg13
F306.32852246935977
sg15
F232.03328833248483
sg17
F286.8177582880318
sg19
F92.50776384065034
sg21
F283.5471385264577
sg23
F311.8407908284822
sg25
F0.0
sg26
F288.26472237036705
sg28
F292.41453953237925
ssS'newicktree'
p31
S'../PairsAlignemt/YeastTree.newick'
p32
sS'll'
p33
cnumpy.core.multiarray
scalar
p34
(cnumpy
dtype
p35
(S'f8'
p36
I0
I1
tp37
Rp38
(I3
S'<'
p39
NNNI-1
I-1
I0
tp40
bS'r\x05Z\xeby\x0e\xad\xc0'
p41
tp42
Rp43
sS'edge_list'
p44
(lp45
g19
ag25
ag6
ag15
ag11
ag17
ag26
ag21
ag13
ag28
ag9
ag23
asS'edge_to_blen'
p46
(dp47
g19
g34
(g38
S'\xca\xa1&\xc6&\x11\xbf?'
p48
tp49
Rp50
sg9
g34
(g38
S'\xcb&\xb7d\xfa\xa6\xa8?'
p51
tp52
Rp53
sg11
g34
(g38
S'\xeaB5\xf0*c\x95?'
p54
tp55
Rp56
sg13
g34
(g38
S'\xe2\xf8\xd3n2\xbf\x96?'
p57
tp58
Rp59
sg15
g34
(g38
S'\x1a\x94\xb3\x00\xb2@\xd0?'
p60
tp61
Rp62
sg17
g34
(g38
S'\xf3\x894S\xa4\x9c\xb0?'
p63
tp64
Rp65
sg6
g34
(g38
S't\x1dU\xca\xa7\x80\xc1?'
p66
tp67
Rp68
sg21
g34
(g38
S'\x92\xccx\x0b\x17\xd3\xaa?'
p69
tp70
Rp71
sg23
g34
(g38
S'\xe77K\xcb\x96F\x97?'
p72
tp73
Rp74
sg28
g34
(g38
S'\xc3\xf8u\x02\x0e\xaa\xad?'
p75
tp76
Rp77
sg26
g34
(g38
S'\xeb\xf1\x1f\xda\\H\x9f?'
p78
tp79
Rp80
sg25
g34
(g38
S'\x93\x8bq/\x1a\x91\xcc?'
p81
tp82
Rp83
ssS'paralog'
p84
(lp85
S'YIL057C'
p86
aS'YER067W'
p87
asS'alignment_file'
p88
S'../MafftAlignment/YIL057C_YER067W/YIL057C_YER067W_input.fasta'
p89
sS'x_clock'
p90
NsS'x'
p91
cnumpy.core.multiarray
_reconstruct
p92
(cnumpy
ndarray
p93
(I0
tp94
S'b'
p95
tp96
Rp97
(I1
(I17
tp98
g38
I00
S"\xf6\x1c<\xbf\x16Y\xe5\xbf\x14\xab\x85\xa1\xab\xa8\xdd\xbf\xd7\xda\xc9X\xed\xc6\xe7\xbf\xd1\x1a\xbe\xe0'\xaf\xf6?\xea\x9e\x06\xa3q0\x8f\xbf\xdfr\x08\xd4K\xdf\x00\xc0N!\xcdg\x1e\xff\xf7\xbfQ\t \xf0\xbd\xd5\xff\xbf\xd8\x12\xb3m\x12\xee\xf5\xbf\xf6\xd9#\xd0\t\xf3\x0e\xc0\xa4\r}\xb7f\xe1\x05\xc0\xb3\xfepCB\xe8\x0b\xc0\xcdHo\xa4\x90\x97\x07\xc0\xb3\xa6x\xc5\xd3t\x0e\xc0\xe3\x00\xba\n|\xc9\x06\xc0Q\x9c+\xa4\x84D\x08\xc0!\r:b\xc1E\x0e\xc0"
p99
tp100
bsS'Model'
p101
S'HKY'
p102
sS'clock'
p103
I00
s.