(dp0
S'Force'
p1
NsS'ExpectedGeneconv'
p2
(dp3
(S'N1'
p4
S'N2'
p5
tp6
F92.43190116803565
s(S'N5'
p7
S'cerevisiae'
p8
tp9
F34.28423901931228
s(g5
S'N3'
p10
tp11
F21.260484465159617
s(S'N4'
p12
g7
tp13
F15.801060951506118
s(g4
S'castellii'
p14
tp15
F119.38681322463415
s(g5
S'bayanus'
p16
tp17
F30.136842768609437
s(S'N0'
p18
g4
tp19
F19.026266850334476
s(g10
S'kudriavzevii'
p20
tp21
F43.03153598376094
s(g7
S'paradoxus'
p22
tp23
F18.584317459580202
s(g18
S'kluyveri'
p24
tp25
F0.0
s(g10
g12
tp26
F18.377593845887432
s(g12
S'mikatae'
p27
tp28
F44.00681236887903
ssS'ExpectedDwellTime'
p29
(dp30
g6
F2271.682020802452
sg9
F3037.4087062618864
sg11
F2855.500744179108
sg13
F2981.8895287090054
sg15
F2329.595602524862
sg17
F2910.997780749052
sg19
F845.072347837814
sg21
F2978.889056216118
sg23
F3044.959584412076
sg25
F0.0
sg26
F2935.084115874143
sg28
F3013.3389994517574
ssS'newicktree'
p31
S'../PairsAlignemt/YeastTree.newick'
p32
sS'll'
p33
cnumpy.core.multiarray
scalar
p34
(cnumpy
dtype
p35
(S'f8'
p36
I0
I1
tp37
Rp38
(I3
S'<'
p39
NNNI-1
I-1
I0
tp40
bS'\x15\xe1\x1c|u>\xdd\xc0'
p41
tp42
Rp43
sS'edge_list'
p44
(lp45
g19
ag25
ag6
ag15
ag11
ag17
ag26
ag21
ag13
ag28
ag9
ag23
asS'edge_to_blen'
p46
(dp47
g19
g34
(g38
S'\x12\x87\x00?s\x08\xc7?'
p48
tp49
Rp50
sg9
g34
(g38
S'\xf9>\t\xfa\xaa-\xb7?'
p51
tp52
Rp53
sg11
g34
(g38
S'6\x8b\xfaB\xb3\xa2\xaf?'
p54
tp55
Rp56
sg13
g34
(g38
S"\xb9'-*-p\xa4?"
p57
tp58
Rp59
sg15
g34
(g38
S'B\xa4\x1f\xff\xd6\xd9\xd8?'
p60
tp61
Rp62
sg17
g34
(g38
S'\xc5\x0f\xaf\x0b`"\xb9?'
p63
tp64
Rp65
sg6
g34
(g38
S'\x99\xa5\x93M\x89]\xd4?'
p66
tp67
Rp68
sg21
g34
(g38
S'\\H/<\xd0\xff\xbd?'
p69
tp70
Rp71
sg23
g34
(g38
S'\xb7\x8b\x12\x1e\x0f\xf7\xac?'
p72
tp73
Rp74
sg25
g34
(g38
S'\x8a\xc7Do\x13\xea\xd1?'
p75
tp76
Rp77
sg26
g34
(g38
S'\x07\x9d\njI\xca\xa9?'
p78
tp79
Rp80
sg28
g34
(g38
S'\x95M\xa9T?\x93\xbe?'
p81
tp82
Rp83
ssS'paralog'
p84
(lp85
S'YGL133W'
p86
aS'YPL216W'
p87
asS'alignment_file'
p88
S'../MafftAlignment/YGL133W_YPL216W/YGL133W_YPL216W_input.fasta'
p89
sS'x_clock'
p90
NsS'x'
p91
cnumpy.core.multiarray
_reconstruct
p92
(cnumpy
ndarray
p93
(I0
tp94
S'b'
p95
tp96
Rp97
(I1
(I17
tp98
g38
I00
S'\xe2\xd9A\x894&\xe4\xbf.\x9eT\xed\xa7\xab\xdc\xbf\xb7\xf7uQ{\x0b\xed\xbf\xc8 \x16\xd3O\x08\xf4?\xa3\x00@\xeb\xff\xaa\x00\xc0\x8e&\x0c\xb7\x0eq\xfb\xbfq\xc0xb[_\xf4\xbf\x0cO\xe2\xa8\x1cR\xf2\xbf\xdc\x96\xa4\xda\x87E\xee\xbf!\xc9\xbdq\xb8E\x06\xc0\x92Sg\x8bK\x91\x02\xc0\x8er\xd3\xef\x19\xe8\x07\xc0\x1a\xf2\xb2\xc1\xeb&\x01\xc0\xff\x97\x89kq\xc4\t\xc0\xfe\xdf\x8a\x14\xfa\xff\x00\xc0?\x018C57\x03\xc0\xd5b\xc5\xbdU\xfa\x06\xc0'
p99
tp100
bsS'Model'
p101
S'HKY'
p102
sS'clock'
p103
I00
s.