(dp0
S'Force'
p1
NsS'ExpectedGeneconv'
p2
(dp3
(S'N1'
p4
S'N2'
p5
tp6
F28.388068060683086
s(S'N5'
p7
S'cerevisiae'
p8
tp9
F12.681096289286176
s(g5
S'N3'
p10
tp11
F6.298614405888813
s(S'N4'
p12
g7
tp13
F4.87104834897331
s(g4
S'castellii'
p14
tp15
F41.57304741754637
s(g5
S'bayanus'
p16
tp17
F10.670751828598746
s(S'N0'
p18
g4
tp19
F7.743076234615726
s(g10
S'kudriavzevii'
p20
tp21
F15.42536482007548
s(g7
S'paradoxus'
p22
tp23
F9.188916857054148
s(g18
S'kluyveri'
p24
tp25
F0.0
s(g10
g12
tp26
F3.5511060777913714
s(g12
S'mikatae'
p27
tp28
F13.351170077500987
ssS'ExpectedDwellTime'
p29
(dp30
g6
F112.41516579633908
sg9
F148.12050939958564
sg11
F146.30027389991574
sg13
F151.7731387291157
sg15
F100.65213851281275
sg17
F143.3607728325932
sg19
F42.24402598223773
sg21
F154.65003078016397
sg23
F150.78408883291505
sg25
F0.0
sg26
F151.86832411937067
sg28
F155.28011806183733
ssS'newicktree'
p31
S'../PairsAlignemt/YeastTree.newick'
p32
sS'll'
p33
cnumpy.core.multiarray
scalar
p34
(cnumpy
dtype
p35
(S'f8'
p36
I0
I1
tp37
Rp38
(I3
S'<'
p39
NNNI-1
I-1
I0
tp40
bS'\x9fw\xc7\x1a\x96\xa3\xa0\xc0'
p41
tp42
Rp43
sS'edge_list'
p44
(lp45
g19
ag25
ag6
ag15
ag11
ag17
ag26
ag21
ag13
ag28
ag9
ag23
asS'edge_to_blen'
p46
(dp47
g19
g34
(g38
S'\x85m}\x84\xefE\xb4?'
p48
tp49
Rp50
sg9
g34
(g38
S'\x9d\xebm\xbdB\x11\xa2?'
p51
tp52
Rp53
sg11
g34
(g38
S'\x15J\xce\x19\xaf\x99\x97?'
p54
tp55
Rp56
sg13
g34
(g38
S'w\x01\x84z\xd6I\x8f?'
p57
tp58
Rp59
sg15
g34
(g38
S'?J\xe9\xe9\xcf\xc3\xc2?'
p60
tp61
Rp62
sg17
g34
(g38
S'\x8b\x05\x97&#\xb2\xa0?'
p63
tp64
Rp65
sg6
g34
(g38
S'\xb8/\x82\x86\x17\x04\xbf?'
p66
tp67
Rp68
sg21
g34
(g38
S'\xfe\xff\x90\xe2\xe4\xb5\xa8?'
p69
tp70
Rp71
sg23
g34
(g38
S'\x97DG\xba\xab\xad\x99?'
p72
tp73
Rp74
sg25
g34
(g38
S'\xa3\x0c8\x7f\xf6y\xaf?'
p75
tp76
Rp77
sg26
g34
(g38
S'/\x92\\\xc72\xf2\x83?'
p78
tp79
Rp80
sg28
g34
(g38
S'Z\xa8\xa3x\xd8`\xa5?'
p81
tp82
Rp83
ssS'paralog'
p84
(lp85
S'YJR048W'
p86
aS'YEL039C'
p87
asS'alignment_file'
p88
S'../MafftAlignment/YJR048W_YEL039C/YJR048W_YEL039C_input.fasta'
p89
sS'x_clock'
p90
NsS'x'
p91
cnumpy.core.multiarray
_reconstruct
p92
(cnumpy
ndarray
p93
(I0
tp94
S'b'
p95
tp96
Rp97
(I1
(I17
tp98
g38
I00
S'|\xa7Zp\xa0\x19\xe5\xbf0\xfaO\x7f!H\xe0\xbf\x7fG\x82\x0bgF\xe9\xbf\x9f\x86B\xeeU\xc8\xf8?\x086\xc1\'\x0f\xcf\xea?v\xf1`\x92zI\x04\xc0~\t\x88S\x0cP\x06\xc0Ps\xf6r\xa9\xe2\x00\xc0PL\xe0\x9d~\xb8\xfe\xbf|\xaaI|d)\x0e\xc0lT\xd2\x12\xa4b\x0b\xc0CC\x0ez\xbe\x86\x12\xc0\xf0\x92\'\xf3\xae?\x08\xc0\x9e2\x969\xb9\xb9\x10\xc0\x0b+\x1cyWh\t\xc0\xa1\r"L\xf3\xc0\n\xc0\xd7\xeb"\x05\x90|\r\xc0'
p99
tp100
bsS'Model'
p101
S'HKY'
p102
sS'clock'
p103
I00
s.