(dp0
S'Force'
p1
NsS'ExpectedGeneconv'
p2
(dp3
(S'N1'
p4
S'N2'
p5
tp6
F64.4342582989969
s(S'N5'
p7
S'cerevisiae'
p8
tp9
F13.62882988953942
s(g5
S'N3'
p10
tp11
F12.587598775037911
s(S'N4'
p12
g7
tp13
F8.328831958140414
s(g4
S'castellii'
p14
tp15
F79.56289210403497
s(g5
S'bayanus'
p16
tp17
F18.762305088571633
s(S'N0'
p18
g4
tp19
F11.211286113686564
s(g10
S'kudriavzevii'
p20
tp21
F24.22709016031577
s(g7
S'paradoxus'
p22
tp23
F8.236272413030624
s(g18
S'kluyveri'
p24
tp25
F0.0
s(g10
g12
tp26
F17.233098815369473
s(g12
S'mikatae'
p27
tp28
F25.371227670382922
ssS'ExpectedDwellTime'
p29
(dp30
g6
F530.3275232820843
sg9
F675.8575587155658
sg11
F682.8539630477363
sg13
F671.3340346366867
sg15
F525.2954712371113
sg17
F696.4126091378624
sg19
F182.27602307168297
sg21
F693.7642829309764
sg23
F678.2056068033093
sg25
F0.0
sg26
F675.9574624118989
sg28
F666.9513317964588
ssS'newicktree'
p31
S'../PairsAlignemt/YeastTree.newick'
p32
sS'll'
p33
cnumpy.core.multiarray
scalar
p34
(cnumpy
dtype
p35
(S'f8'
p36
I0
I1
tp37
Rp38
(I3
S'<'
p39
NNNI-1
I-1
I0
tp40
bS'\xad_\x87\xd1>%\xbd\xc0'
p41
tp42
Rp43
sS'edge_list'
p44
(lp45
g19
ag25
ag6
ag15
ag11
ag17
ag26
ag21
ag13
ag28
ag9
ag23
asS'edge_to_blen'
p46
(dp47
g19
g34
(g38
S'%j\x9b\xbf\x13\xa3\xc0?'
p48
tp49
Rp50
sg9
g34
(g38
S'Rj}\n\x80\xbd\xa5?'
p51
tp52
Rp53
sg11
g34
(g38
S'\x9d\xec\xd4uhs\xa5?'
p54
tp55
Rp56
sg13
g34
(g38
S'Ik\xe0\x03F\xa0\xa0?'
p57
tp58
Rp59
sg15
g34
(g38
S'\xce\xc3h\xe1\x13w\xd3?'
p60
tp61
Rp62
sg17
g34
(g38
S'6z\x95(z\x96\xb1?'
p63
tp64
Rp65
sg6
g34
(g38
S'ybC\xbf\xed\xba\xd0?'
p66
tp67
Rp68
sg21
g34
(g38
S'`2\xd8\xf9\x14i\xb2?'
p69
tp70
Rp71
sg23
g34
(g38
S'\x1b\x9ai\x9aE\x0e\x9d?'
p72
tp73
Rp74
sg25
g34
(g38
S'[Gd\x9a\xa9D\xc6?'
p75
tp76
Rp77
sg26
g34
(g38
S'o\x9a\xf3\x01t\x81\xa4?'
p78
tp79
Rp80
sg28
g34
(g38
S'\xda)\xe0L|\xac\xb3?'
p81
tp82
Rp83
ssS'paralog'
p84
(lp85
S'YBR024W'
p86
aS'YBR037C'
p87
asS'alignment_file'
p88
S'../MafftAlignment/YBR024W_YBR037C/YBR024W_YBR037C_input.fasta'
p89
sS'x_clock'
p90
NsS'x'
p91
cnumpy.core.multiarray
_reconstruct
p92
(cnumpy
ndarray
p93
(I0
tp94
S'b'
p95
tp96
Rp97
(I1
(I17
tp98
g38
I00
S'\xee\xfc\xa2\x1d\xf5\x04\xe6\xbf\xdd\xd0\x99|z\x8c\xe1\xbfg\xa5\xcex\x8eO\xeb\xbf\x03]Xf#\x1e\xf4?\xf0<\xfc\xd9\x89\xcb\xe7\xbfN\xbbA2\xbdR\x00\xc0\xfcJK$_\xfb\xfb\xbf\xe1do\x12yw\xf5\xbf\xbf\xb6\xdc~K\x0b\xf3\xbf\xe5\xe3\n<ha\t\xc0\xa9\xaf[\x85|l\x05\xc0w\xd2\x8f\x10\xb1\xbd\t\xc0\x13\x0cx\x0f\xdd\x0e\x05\xc0\xac\xc4\x11\xef7k\x0b\xc0\xc6\x9du\xe7\xf1\x86\x04\xc0\xff\xec\xb4\xa4\xf5E\t\xc0(\xb5Z\xc5\x7f\x7f\x0c\xc0'
p99
tp100
bsS'Model'
p101
S'HKY'
p102
sS'clock'
p103
I00
s.