(dp0
S'Force'
p1
NsS'ExpectedGeneconv'
p2
(dp3
(S'N1'
p4
S'N2'
p5
tp6
F157.66884056105934
s(S'N5'
p7
S'cerevisiae'
p8
tp9
F52.50534917965525
s(g5
S'N3'
p10
tp11
F24.419928464985766
s(S'N4'
p12
g7
tp13
F27.20334178698781
s(g4
S'castellii'
p14
tp15
F285.908746654502
s(g5
S'bayanus'
p16
tp17
F63.0257812732801
s(S'N0'
p18
g4
tp19
F49.65300060321587
s(g10
S'kudriavzevii'
p20
tp21
F62.70962621312795
s(g7
S'paradoxus'
p22
tp23
F38.601640567423196
s(g18
S'kluyveri'
p24
tp25
F0.0
s(g10
g12
tp26
F36.61419389925659
s(g12
S'mikatae'
p27
tp28
F67.76477009288008
ssS'ExpectedDwellTime'
p29
(dp30
g6
F1409.0209187817816
sg9
F1836.863491931082
sg11
F1725.3463283702044
sg13
F1809.91398488636
sg15
F1574.002170441857
sg17
F1727.413074610024
sg19
F576.5148290739261
sg21
F1785.579184095462
sg23
F1825.7089141078386
sg25
F0.0
sg26
F1766.926463015788
sg28
F1793.4176774646098
ssS'newicktree'
p31
S'../PairsAlignemt/YeastTree.newick'
p32
sS'll'
p33
cnumpy.core.multiarray
scalar
p34
(cnumpy
dtype
p35
(S'f8'
p36
I0
I1
tp37
Rp38
(I3
S'<'
p39
NNNI-1
I-1
I0
tp40
bS'PLTn~{\xd4\xc0'
p41
tp42
Rp43
sS'edge_list'
p44
(lp45
g19
ag25
ag6
ag15
ag11
ag17
ag26
ag21
ag13
ag28
ag9
ag23
asS'edge_to_blen'
p46
(dp47
g19
g34
(g38
S'\x86\x01t\x88\x9b\xff\xc1?'
p48
tp49
Rp50
sg9
g34
(g38
S'\xb85\x06\x8d\x90\x1e\xa8?'
p51
tp52
Rp53
sg11
g34
(g38
S'D\xf8\x9c\x80um\x9a?'
p54
tp55
Rp56
sg13
g34
(g38
S'4s\xacs\xa9\xc7\x9b?'
p57
tp58
Rp59
sg15
g34
(g38
S'6|\x06@\xf8\xfc\xd2?'
p60
tp61
Rp62
sg17
g34
(g38
S'\xdd"\x97@\xfc:\xad?'
p63
tp64
Rp65
sg6
g34
(g38
S'4\xe2\x00\xff\x7f\xaa\xc6?'
p66
tp67
Rp68
sg21
g34
(g38
S'\xfe\xef\xd5\x9d\x9a\xfa\xaf?'
p69
tp70
Rp71
sg23
g34
(g38
S"'\x19\xaa\xf0\x99\x01\xa0?"
p72
tp73
Rp74
sg25
g34
(g38
S'\xf6&\x9a\x05\xf6y\xc2?'
p75
tp76
Rp77
sg26
g34
(g38
S'Vv \xe1\xd2\xca\xa2?'
p78
tp79
Rp80
sg28
g34
(g38
S'\xd7(9L\xf0]\xaf?'
p81
tp82
Rp83
ssS'paralog'
p84
(lp85
S'YNL049C'
p86
aS'YIL109C'
p87
asS'alignment_file'
p88
S'../MafftAlignment/YNL049C_YIL109C/YNL049C_YIL109C_input.fasta'
p89
sS'x_clock'
p90
NsS'x'
p91
cnumpy.core.multiarray
_reconstruct
p92
(cnumpy
ndarray
p93
(I0
tp94
S'b'
p95
tp96
Rp97
(I1
(I17
tp98
g38
I00
S'\xf3\xc2*\xda\x1d@\xe7\xbf\x84@P.\xdc\xc7\xde\xbf\xfb\xdbgD\x1d2\xeb\xbf-\xf1\x1c\xa7\xde\xda\xf4?\xa5m\xdch\xa4\xa1\xdf\xbf\xb6\xaa_VMc\xff\xbf\x12\xfd\xc6\t\xf4\xf7\xfe\xbf\x1f"\x18\x93\xd8\xb2\xfb\xbf\x01\xb2[h\xeap\xf3\xbf\xb0/\xe8\xb2\xaaA\r\xc0"[\xb6\xd1\xa8\xe7\x06\xc0\x03=\xb9\x1edp\n\xc0\x8e\x00\xa6t\x9c/\x06\xc0\xc3\x18\xb1\xa8u\xdb\x0c\xc0Skg\xe3.W\x06\xc0K\xd2m\x89Eq\x08\xc09\xd8\xa4\xd0\x06\xb9\x0b\xc0'
p99
tp100
bsS'Model'
p101
S'HKY'
p102
sS'clock'
p103
I00
s.