(dp0
S'Force'
p1
NsS'ExpectedGeneconv'
p2
(dp3
(S'N1'
p4
S'N2'
p5
tp6
F326.34294951319305
s(S'N5'
p7
S'cerevisiae'
p8
tp9
F177.7910893516096
s(g5
S'N3'
p10
tp11
F72.23124427515346
s(S'N4'
p12
g7
tp13
F90.37573050263751
s(g4
S'castellii'
p14
tp15
F406.8188975923666
s(g5
S'bayanus'
p16
tp17
F289.6576987534603
s(S'N0'
p18
g4
tp19
F548.8304797595968
s(g10
S'kudriavzevii'
p20
tp21
F234.24924733495905
s(g7
S'paradoxus'
p22
tp23
F100.19498146538402
s(g18
S'kluyveri'
p24
tp25
F0.0
s(g10
g12
tp26
F97.39615471170082
s(g12
S'mikatae'
p27
tp28
F215.60375735857153
ssS'ExpectedDwellTime'
p29
(dp30
g6
F1111.5691275022293
sg9
F1009.9650802129954
sg11
F1108.6075164772162
sg13
F1084.1446197380728
sg15
F1144.5807305507349
sg17
F1005.5576715075871
sg19
F714.9527137451591
sg21
F1079.005534476497
sg23
F1065.8822450775115
sg25
F0.0
sg26
F1105.8246198937948
sg28
F1080.283522363115
ssS'newicktree'
p31
S'../PairsAlignemt/YeastTree.newick'
p32
sS'll'
p33
cnumpy.core.multiarray
scalar
p34
(cnumpy
dtype
p35
(S'f8'
p36
I0
I1
tp37
Rp38
(I3
S'<'
p39
NNNI-1
I-1
I0
tp40
bS'\xe7o\xe7;]\x1a\xd5\xc0'
p41
tp42
Rp43
sS'edge_list'
p44
(lp45
g19
ag25
ag6
ag15
ag11
ag17
ag26
ag21
ag13
ag28
ag9
ag23
asS'edge_to_blen'
p46
(dp47
g19
g34
(g38
S'sbY\x14\xeaU\xc8?'
p48
tp49
Rp50
sg9
g34
(g38
S'\xedo\xe8F\x90\x9a\xa1?'
p51
tp52
Rp53
sg11
g34
(g38
S'\xedy)\x81D\xa6\x8f?'
p54
tp55
Rp56
sg13
g34
(g38
S'2"\x9d\xeb\xe5\xe2\x92?'
p57
tp58
Rp59
sg15
g34
(g38
S'\t\xd6=\xd2\\\x86\xb6?'
p60
tp61
Rp62
sg17
g34
(g38
S'6\xec\xa4\xb4\x17\xfb\xab?'
p63
tp64
Rp65
sg6
g34
(g38
S'T\xf7\xd5\xc8\xdc\x1f\xb1?'
p66
tp67
Rp68
sg21
g34
(g38
S'\xcc7e\x08pl\xa9?'
p69
tp70
Rp71
sg23
g34
(g38
S'C\x86\x89b\\%\x98?'
p72
tp73
Rp74
sg28
g34
(g38
S'\xc7\xe5\xec6.\xeb\xa7?'
p75
tp76
Rp77
sg26
g34
(g38
S'\xb0\x85\xc7X\x02\xd0\x95?'
p78
tp79
Rp80
sg25
g34
(g38
S'{p\xb7\xdb\xc5\xc6\xc0>'
p81
tp82
Rp83
ssS'paralog'
p84
(lp85
S'YGL062W'
p86
aS'YBR218C'
p87
asS'alignment_file'
p88
S'../MafftAlignment/YGL062W_YBR218C/YGL062W_YBR218C_input.fasta'
p89
sS'x_clock'
p90
NsS'x'
p91
cnumpy.core.multiarray
_reconstruct
p92
(cnumpy
ndarray
p93
(I0
tp94
S'b'
p95
tp96
Rp97
(I1
(I17
tp98
g38
I00
S'k2\xd940*\xe8\xbfV.\xe6\xd9\xfa>\xe3\xbf\xa9Eq\x8d*X\xe9\xbf\xbd\xde\x14\x18\xfe\t\xfa?\x94\xf98\xc8\xecv\xf7?\x95/y]\xba\x8f\xfa\xbfEq\x81X\xac>*\xc0\x98\xb4\x0c\xbb)\xa3\x05\xc0\x89\x12\xf4u\xc8q\x03\xc0\xc0\xd5\xae\x86\xf9\xad\x10\xc0\x04F\x8a\xf7"A\x07\xc0\xddJg\xad\xb9\xca\x0e\xc0\xff\xd6{\xfak\x05\x08\xc0\x0f\xed\x8d\xc3\xbb\xf1\x0f\xc0\x91t\xcf\xddb\x82\x08\xc0jq\xc5\xa51\xf6\n\xc0\xe3h\x7f\x87\x95\xfa\r\xc0'
p99
tp100
bsS'Model'
p101
S'HKY'
p102
sS'clock'
p103
I00
s.