(dp0
S'Force'
p1
NsS'ExpectedGeneconv'
p2
(dp3
(S'N1'
p4
S'N2'
p5
tp6
F84.68192830023379
s(S'N5'
p7
S'cerevisiae'
p8
tp9
F29.074760167610776
s(g5
S'N3'
p10
tp11
F9.648751776076068
s(S'N4'
p12
g7
tp13
F12.387920365060879
s(g4
S'castellii'
p14
tp15
F123.4296564621616
s(g5
S'bayanus'
p16
tp17
F41.71517908285077
s(S'N0'
p18
g4
tp19
F43.40646917326614
s(g10
S'kudriavzevii'
p20
tp21
F26.783251056619815
s(g7
S'paradoxus'
p22
tp23
F12.910005475070948
s(g18
S'kluyveri'
p24
tp25
F0.0
s(g10
g12
tp26
F13.405170690855261
s(g12
S'mikatae'
p27
tp28
F29.225240440577522
ssS'ExpectedDwellTime'
p29
(dp30
g6
F447.8800321450602
sg9
F515.8042536928265
sg11
F512.4913014893625
sg13
F518.6286151770198
sg15
F465.27635184234936
sg17
F508.7615374237858
sg19
F217.34277385805282
sg21
F522.259290520936
sg23
F512.1351958305422
sg25
F0.0
sg26
F517.9098910529344
sg28
F534.4945785396644
ssS'newicktree'
p31
S'../PairsAlignemt/YeastTree.newick'
p32
sS'll'
p33
cnumpy.core.multiarray
scalar
p34
(cnumpy
dtype
p35
(S'f8'
p36
I0
I1
tp37
Rp38
(I3
S'<'
p39
NNNI-1
I-1
I0
tp40
bS'\xa3\xb8KR\xe1\xc1\xb9\xc0'
p41
tp42
Rp43
sS'edge_list'
p44
(lp45
g19
ag25
ag6
ag15
ag11
ag17
ag26
ag21
ag13
ag28
ag9
ag23
asS'edge_to_blen'
p46
(dp47
g19
g34
(g38
S'e\xac9\xc7!|\xc5?'
p48
tp49
Rp50
sg9
g34
(g38
S'\na\x06\x9asr\xa7?'
p51
tp52
Rp53
sg11
g34
(g38
S',:[\xa1\x84\x8b\x92?'
p54
tp55
Rp56
sg13
g34
(g38
S'`\x8b\xba"\xdfH\x93?'
p57
tp58
Rp59
sg15
g34
(g38
S'\xcbp\xc6Jq\x1f\xcc?'
p60
tp61
Rp62
sg17
g34
(g38
S'<P\xb8\x15\r\xad\xb0?'
p63
tp64
Rp65
sg6
g34
(g38
S'\x88\xbd\x02\xf0"\xae\xc3?'
p66
tp67
Rp68
sg21
g34
(g38
S'S\xbe\xf0\x88\xbb\xb7\xa7?'
p69
tp70
Rp71
sg23
g34
(g38
S'\x0eM00_\x0e\x93?'
p72
tp73
Rp74
sg25
g34
(g38
S'\r\xa4\xe5\xa6|\xb6\xba?'
p75
tp76
Rp77
sg26
g34
(g38
S'G\xb7\x10Pk\xa5\x95?'
p78
tp79
Rp80
sg28
g34
(g38
S'\x0c\xde\x99\xf5\x1cl\xab?'
p81
tp82
Rp83
ssS'paralog'
p84
(lp85
S'YPL232W'
p86
aS'YMR183C'
p87
asS'alignment_file'
p88
S'../MafftAlignment/YPL232W_YMR183C/YPL232W_YMR183C_input.fasta'
p89
sS'x_clock'
p90
NsS'x'
p91
cnumpy.core.multiarray
_reconstruct
p92
(cnumpy
ndarray
p93
(I0
tp94
S'b'
p95
tp96
Rp97
(I1
(I17
tp98
g38
I00
S'\xec\xb9]L\x9bC\xe4\xbfz\xd5Og\xab@\xdf\xbf<(T2\xc2\x9d\xe8\xbf\xa5\xbb\xd3\xf4\xaay\xf8?\xba\x15\x8b\xf9\x1f\xec\xc6?\xfe\x15\xd4\xfa\x0c\x8e\xfc\xbf\x99\x16\xa5=\x8c\x14\x02\xc0p\xfey\xa6j\xf5\xfd\xbf\xdaz\xd4EG?\xf8\xbf\xaf\xed\xf3\xe2\x8a\x0b\x10\xc0I\xeeb\x98\x83\xd9\x05\xc0\xf7\xdf\xab\xd1g\xda\x0e\xc0~\x01\x87\xa1\xaa\x93\x08\xc0Z\xc9T\xee\xfc\xc6\x0f\xc0\xcb\xe9.\xeamj\x07\xc0+Q\xfa]+\xab\x08\xc0\xae\xacf\x9ef\xdf\x0f\xc0'
p99
tp100
bsS'Model'
p101
S'HKY'
p102
sS'clock'
p103
I00
s.