(dp0
S'Force'
p1
NsS'ExpectedGeneconv'
p2
(dp3
(S'N1'
p4
S'N2'
p5
tp6
F205.7695236014222
s(S'N5'
p7
S'cerevisiae'
p8
tp9
F37.85799058198346
s(g5
S'N3'
p10
tp11
F29.556697067027923
s(S'N4'
p12
g7
tp13
F23.41085858513422
s(g4
S'castellii'
p14
tp15
F295.04627593303627
s(g5
S'bayanus'
p16
tp17
F60.63054952321788
s(S'N0'
p18
g4
tp19
F34.89399228983792
s(g10
S'kudriavzevii'
p20
tp21
F48.17018881442858
s(g7
S'paradoxus'
p22
tp23
F30.053711654451426
s(g18
S'kluyveri'
p24
tp25
F0.0
s(g10
g12
tp26
F19.719553626639584
s(g12
S'mikatae'
p27
tp28
F54.07587079766221
ssS'ExpectedDwellTime'
p29
(dp30
g6
F1797.8270513096982
sg9
F2281.230433755354
sg11
F2229.0063660588194
sg13
F2280.4299841355096
sg15
F1909.0476990558934
sg17
F2242.016702198616
sg19
F651.546081448378
sg21
F2247.802176945855
sg23
F2275.2377345583627
sg25
F0.0
sg26
F2261.285171668721
sg28
F2302.175454896213
ssS'newicktree'
p31
S'../PairsAlignemt/YeastTree.newick'
p32
sS'll'
p33
cnumpy.core.multiarray
scalar
p34
(cnumpy
dtype
p35
(S'f8'
p36
I0
I1
tp37
Rp38
(I3
S'<'
p39
NNNI-1
I-1
I0
tp40
bS"K i\xc9\x0e'\xd7\xc0"
p41
tp42
Rp43
sS'edge_list'
p44
(lp45
g19
ag25
ag6
ag15
ag11
ag17
ag26
ag21
ag13
ag28
ag9
ag23
asS'edge_to_blen'
p46
(dp47
g19
g34
(g38
S'_\x80XW\xa8!\xc4?'
p48
tp49
Rp50
sg9
g34
(g38
S'\xad\xdb\r2T\x8d\xaa?'
p51
tp52
Rp53
sg11
g34
(g38
S'%\x83 V\xa9\x14\xa4?'
p54
tp55
Rp56
sg13
g34
(g38
S'\x80\xa1\xbd\x1c\r;\xa1?'
p57
tp58
Rp59
sg15
g34
(g38
S'\xe0\xb0\xf9\x8fk\xff\xdb?'
p60
tp61
Rp62
sg17
g34
(g38
S'\xe4\x9b\x91U\x16\xc5\xb3?'
p63
tp64
Rp65
sg6
g34
(g38
S'\x9ed!\xc5\xbb\xf9\xd4?'
p66
tp67
Rp68
sg21
g34
(g38
S'\xc0}[\x01\x18\x9b\xb0?'
p69
tp70
Rp71
sg23
g34
(g38
S'\xefR\x87\x05\xf8\xe3\xa3?'
p72
tp73
Rp74
sg25
g34
(g38
S'~\xd9\xaa$\n\xbf\xd3?'
p75
tp76
Rp77
sg26
g34
(g38
S'%\xacw\x0cZ\x0f\x9f?'
p78
tp79
Rp80
sg28
g34
(g38
S'\xce\x93\xe6m\x93\xac\xb4?'
p81
tp82
Rp83
ssS'paralog'
p84
(lp85
S'YIR033W'
p86
aS'YKL020C'
p87
asS'alignment_file'
p88
S'../MafftAlignment/YIR033W_YKL020C/YIR033W_YKL020C_input.fasta'
p89
sS'x_clock'
p90
NsS'x'
p91
cnumpy.core.multiarray
_reconstruct
p92
(cnumpy
ndarray
p93
(I0
tp94
S'b'
p95
tp96
Rp97
(I1
(I17
tp98
g38
I00
S'*\x1d\x92O\x989\xe6\xbfx\x9f\xbb\xe0\xd1}\xdd\xbf\x91cz\x81\xcaX\xeb\xbf\x824\xfavX\x8c\xf4?\x8d;\xce\xae\x9fG\xf1\xbf\x930\xa6\x01\x8f\x98\xfd\xbf\x86\x90\xd5\x06\x91\xd0\xf2\xbf\x85L\xcd\xcf2\xd9\xf1\xbf5c\xdfE\xd0t\xea\xbf\xd9\x84\x1e\xc8\x94\xe8\t\xc0\xc1\x8d\xd9&\xf7|\x04\xc0\x15\xf1\xe9\xfa\xe3\xf6\x0b\xc0\xb9\x06\xc2\x9c%\xe2\x05\xc0I\xda(\xe1\x10"\x0b\xc07\x14\xeb\x08_!\x04\xc0T\xe8A\xffy\xac\x07\xc0OMQ\x89\x12\xfc\t\xc0'
p99
tp100
bsS'Model'
p101
S'HKY'
p102
sS'clock'
p103
I00
s.