(dp0
S'Force'
p1
NsS'ExpectedGeneconv'
p2
(dp3
(S'N1'
p4
S'N2'
p5
tp6
F40.36857867060025
s(S'N5'
p7
S'cerevisiae'
p8
tp9
F23.07076590346968
s(g5
S'N3'
p10
tp11
F11.607549188679446
s(S'N4'
p12
g7
tp13
F9.166995433517457
s(g4
S'castellii'
p14
tp15
F77.6957571680926
s(g5
S'bayanus'
p16
tp17
F20.520107572243493
s(S'N0'
p18
g4
tp19
F25.481364927719998
s(g10
S'kudriavzevii'
p20
tp21
F25.18645190757495
s(g7
S'paradoxus'
p22
tp23
F15.143721387850853
s(g18
S'kluyveri'
p24
tp25
F0.0
s(g10
g12
tp26
F9.994636189023533
s(g12
S'mikatae'
p27
tp28
F35.6963090880828
ssS'ExpectedDwellTime'
p29
(dp30
g6
F527.6561349272662
sg9
F649.2676690327563
sg11
F634.6697917697568
sg13
F652.7950002112806
sg15
F568.4574851624185
sg17
F634.0201015859792
sg19
F238.19355015906183
sg21
F658.2762539469937
sg23
F657.0812787718418
sg25
F0.0
sg26
F649.4844849288405
sg28
F640.549658979621
ssS'newicktree'
p31
S'../PairsAlignemt/YeastTree.newick'
p32
sS'll'
p33
cnumpy.core.multiarray
scalar
p34
(cnumpy
dtype
p35
(S'f8'
p36
I0
I1
tp37
Rp38
(I3
S'<'
p39
NNNI-1
I-1
I0
tp40
bS'A\xe4\x061-\x11\xbd\xc0'
p41
tp42
Rp43
sS'edge_list'
p44
(lp45
g19
ag25
ag6
ag15
ag11
ag17
ag26
ag21
ag13
ag28
ag9
ag23
asS'edge_to_blen'
p46
(dp47
g19
g34
(g38
S'\x8b\x12\x8a\xede\xe9\xc2?'
p48
tp49
Rp50
sg9
g34
(g38
S'1WSa\x1b|\xa4?'
p51
tp52
Rp53
sg11
g34
(g38
S'n\xcbC\xf3`W\x9c?'
p54
tp55
Rp56
sg13
g34
(g38
S'\x0b\x99\xd88"-\x95?'
p57
tp58
Rp59
sg15
g34
(g38
S'(\x1f\xc2}\xfbQ\xc8?'
p60
tp61
Rp62
sg17
g34
(g38
S'\x8c\xdd|F9\xe5\xa6?'
p63
tp64
Rp65
sg6
g34
(g38
S'^\xc7\x86\x13\xce\x8e\xbd?'
p66
tp67
Rp68
sg21
g34
(g38
S'\x94\x8c}\xc3\x0c8\xad?'
p69
tp70
Rp71
sg23
g34
(g38
S'\xbf\x97\xa7\x83(\x19\xa0?'
p72
tp73
Rp74
sg28
g34
(g38
S'\x14|;\xf4K+\xb0?'
p75
tp76
Rp77
sg26
g34
(g38
S'm\xd1t\xd6\x9f\xeb\x95?'
p78
tp79
Rp80
sg25
g34
(g38
S'\xa5\xd0\x80\xc3\xc3\x17\xb1?'
p81
tp82
Rp83
ssS'paralog'
p84
(lp85
S'YGR043C'
p86
aS'YLR354C'
p87
asS'alignment_file'
p88
S'../MafftAlignment/YGR043C_YLR354C/YGR043C_YLR354C_input.fasta'
p89
sS'x_clock'
p90
NsS'x'
p91
cnumpy.core.multiarray
_reconstruct
p92
(cnumpy
ndarray
p93
(I0
tp94
S'b'
p95
tp96
Rp97
(I1
(I17
tp98
g38
I00
S'\xca\xadZ\x05\xb6\x12\xe7\xbf\x84\xadP$\x9b0\xe0\xbf\xd9\xe1\x08\xe0>p\xea\xbf\xba\xf6~%g\xc6\xf7?\x95jO\xd0\x13\x0e\xd4\xbf\x12J\xcfF\x92\x98\xfe\xbf\xf9\xfc8\x13\xf3\xa6\x05\xc0\xd0\xcc}\xfaGE\x01\xc0\x92\x9d\xea`P\x92\xfa\xbfAW\xe9)|\xb2\x0c\xc0\xc9\xe9{p\xee\xdb\x08\xc0^\xe2\xfb?\x9f\xc0\x0e\xc0Q2[\x88v\xe8\x06\xc0\x8d\x95\xf7\xacY\x07\x0f\xc0-\xcc\xd9\x1a\xba\x18\x06\xc0\x14\xbc\x95I\xc7\xbf\t\xc0\xe1\xb7SVI\xad\x0b\xc0'
p99
tp100
bsS'Model'
p101
S'HKY'
p102
sS'clock'
p103
I00
s.