(dp0
S'Force'
p1
NsS'ExpectedGeneconv'
p2
(dp3
(S'N1'
p4
S'N2'
p5
tp6
F12.602295793433749
s(S'N5'
p7
S'cerevisiae'
p8
tp9
F10.98075363106932
s(g5
S'N3'
p10
tp11
F6.267016952623257
s(S'N4'
p12
g7
tp13
F1.3821473238243753
s(g4
S'castellii'
p14
tp15
F17.670170041923395
s(g5
S'bayanus'
p16
tp17
F5.580495814463533
s(S'N0'
p18
g4
tp19
F11.927554765454403
s(g10
S'kudriavzevii'
p20
tp21
F5.723706608113772
s(g7
S'paradoxus'
p22
tp23
F2.5305049422788715
s(g18
S'kluyveri'
p24
tp25
F0.0
s(g10
g12
tp26
F3.607336029375875
s(g12
S'mikatae'
p27
tp28
F8.26009706828801
ssS'ExpectedDwellTime'
p29
(dp30
g6
F56.35229892209466
sg9
F59.386018604450946
sg11
F60.46849931520512
sg13
F65.58394969449432
sg15
F59.15529610947274
sg17
F60.69215086069354
sg19
F29.830341176781896
sg21
F62.237414781346565
sg23
F70.60408103398154
sg25
F0.0
sg26
F63.568252989995884
sg28
F65.84803640511217
ssS'newicktree'
p31
S'../PairsAlignemt/YeastTree.newick'
p32
sS'll'
p33
cnumpy.core.multiarray
scalar
p34
(cnumpy
dtype
p35
(S'f8'
p36
I0
I1
tp37
Rp38
(I3
S'<'
p39
NNNI-1
I-1
I0
tp40
bS'\xcb\xfa\xb7\x15:\x84\x94\xc0'
p41
tp42
Rp43
sS'edge_list'
p44
(lp45
g19
ag25
ag6
ag15
ag11
ag17
ag26
ag21
ag13
ag28
ag9
ag23
asS'edge_to_blen'
p46
(dp47
g19
g34
(g38
S'\x99DI\x1c\x88\x97\xac?'
p48
tp49
Rp50
sg9
g34
(g38
S'\x96\xf7vm[L\x90?'
p51
tp52
Rp53
sg11
g34
(g38
S'\xdb\xce\xfaj\xae.\x8a?'
p54
tp55
Rp56
sg13
g34
(g38
S';\x06\x91A\xbc\x04j?'
p57
tp58
Rp59
sg21
g34
(g38
S'C\x08\x93T\x0f\x96\x88?'
p60
tp61
Rp62
sg17
g34
(g38
S'\x0bI2\x02\xc4a\x87?'
p63
tp64
Rp65
sg6
g34
(g38
S'\xbb\x97D\xf4\xbc3\x9c?'
p66
tp67
Rp68
sg15
g34
(g38
S'\xa9\x18D\x95;B\xa5?'
p69
tp70
Rp71
sg23
g34
(g38
S'\x98\x1d\xa6\x13\x85\x03\x82?'
p72
tp73
Rp74
sg28
g34
(g38
S'\xeb\xf0\xd5%\x17\x06\x8f?'
p75
tp76
Rp77
sg26
g34
(g38
S'\x92\x08\xa3\x88\xc4\xb2\x81?'
p78
tp79
Rp80
sg25
g34
(g38
S'|\x13\xb8.2\xfd\x93>'
p81
tp82
Rp83
ssS'paralog'
p84
(lp85
S'YER131W'
p86
aS'YGL189C'
p87
asS'alignment_file'
p88
S'../MafftAlignment/YER131W_YGL189C/YER131W_YGL189C_input.fasta'
p89
sS'x_clock'
p90
NsS'x'
p91
cnumpy.core.multiarray
_reconstruct
p92
(cnumpy
ndarray
p93
(I0
tp94
S'b'
p95
tp96
Rp97
(I1
(I17
tp98
g38
I00
S"BH;\xe2\xa1t\xe6\xbf\xac\xd9n\xc2tt\xdd\xbf\x9bj\xf1\xb9\xf2\xe2\xe4\xbf\xce\xe4n\xaa\xab\xe3\x01@{\xe1\x02\x0e\xe2Y\x00@\xdf\xa38\xf8\xe3\x14\x07\xc06\x10\xa3\x0c\xa4\r.\xc04\x0b\x9a\xf8\x91\xbc\x0c\xc0\x96`c[\xd4s\t\xc0\xa84P\x8d)p\x11\xc0\x7f\xa3\x08+\x00\xe4\x11\xc0\x9a\x9c\xb1f-\x01\x13\xc0\xa6@!\xc2\x92\xb0\x11\xc0)\xa2\x9a\xf9'\x02\x17\xc0\xd8\xf5\xe3\xdfk\xc2\x10\xc0\x93\xd6\xc4a\xc8\x8f\x10\xc0\x94V\xb2W\x16\xef\x12\xc0"
p99
tp100
bsS'Model'
p101
S'HKY'
p102
sS'clock'
p103
I00
s.