(dp0
S'Force'
p1
NsS'ExpectedGeneconv'
p2
(dp3
(S'N1'
p4
S'N2'
p5
tp6
F29.869596909339204
s(S'N5'
p7
S'cerevisiae'
p8
tp9
F7.227454868135519
s(g5
S'N3'
p10
tp11
F6.364924313671996
s(S'N4'
p12
g7
tp13
F4.606114119967484
s(g4
S'castellii'
p14
tp15
F44.66177156927489
s(g5
S'bayanus'
p16
tp17
F18.356968726748484
s(S'N0'
p18
g4
tp19
F33.46238449699919
s(g10
S'kudriavzevii'
p20
tp21
F12.88718127676313
s(g7
S'paradoxus'
p22
tp23
F1.7287240278135534
s(g18
S'kluyveri'
p24
tp25
F0.0
s(g10
g12
tp26
F2.007730556180707
s(g12
S'mikatae'
p27
tp28
F8.001971799725354
ssS'ExpectedDwellTime'
p29
(dp30
g6
F134.86217741795872
sg9
F150.3284848438309
sg11
F146.05851139024116
sg13
F144.6141026413894
sg15
F125.81926605154999
sg17
F147.01771111910728
sg19
F73.65692178507449
sg21
F155.1737128868084
sg23
F145.77337518479007
sg25
F0.0
sg26
F144.40288873226262
sg28
F155.37795853437981
ssS'newicktree'
p31
S'../PairsAlignemt/YeastTree.newick'
p32
sS'll'
p33
cnumpy.core.multiarray
scalar
p34
(cnumpy
dtype
p35
(S'f8'
p36
I0
I1
tp37
Rp38
(I3
S'<'
p39
NNNI-1
I-1
I0
tp40
bS'<e1\xf7\xd8\x15\xa3\xc0'
p41
tp42
Rp43
sS'edge_list'
p44
(lp45
g19
ag25
ag6
ag15
ag11
ag17
ag26
ag21
ag13
ag28
ag9
ag23
asS'edge_to_blen'
p46
(dp47
g19
g34
(g38
S'\xd4\xb8\x82^\xd6\xcd\xb6?'
p48
tp49
Rp50
sg9
g34
(g38
S'\xd3\x0b|\x16{\x1d\x87?'
p51
tp52
Rp53
sg11
g34
(g38
S'B\xec\xfd\xeb\xdd\xe1|?'
p54
tp55
Rp56
sg13
g34
(g38
S'\x94\x1aU\xfa\x00\xf5z?'
p57
tp58
Rp59
sg21
g34
(g38
S'\xb8\x15o\xac\xfcS\x96?'
p60
tp61
Rp62
sg17
g34
(g38
S'Y6\xf2e!\xc1\x95?'
p63
tp64
Rp65
sg6
g34
(g38
S'\xb8\xb5\xfb8yh\xa6?'
p66
tp67
Rp68
sg15
g34
(g38
S'\x95*f\xaa\xb6\xd0\xac?'
p69
tp70
Rp71
sg23
g34
(g38
S'\xbcY\x13M(\x16f?'
p72
tp73
Rp74
sg28
g34
(g38
S'\x83wH\xf1L\\\x91?'
p75
tp76
Rp77
sg26
g34
(g38
S'\x1a\xb4r\x87^\xb0a?'
p78
tp79
Rp80
sg25
g34
(g38
S' \xd0\xad\x97\xab\xf9\xdc>'
p81
tp82
Rp83
ssS'paralog'
p84
(lp85
S'YNL069C'
p86
aS'YIL133C'
p87
asS'alignment_file'
p88
S'../MafftAlignment/YNL069C_YIL133C/YNL069C_YIL133C_input.fasta'
p89
sS'x_clock'
p90
NsS'x'
p91
cnumpy.core.multiarray
_reconstruct
p92
(cnumpy
ndarray
p93
(I0
tp94
S'b'
p95
tp96
Rp97
(I1
(I17
tp98
g38
I00
S'N\x00\xf7aW\xe6\xe7\xbfr\x0bu\xc4L\xce\xe1\xbfUhl(2\xc1\xea\xbf\xf9\xd2\xc6pF\xdb\xff?\xd0\xd2\xdas/\x1e\xfa?\xd7qM\xca\x8dX\x03\xc0\x9cck\xb8\xfd\xc3\'\xc0\xf67\x02\xd8\xfd\x07\t\xc0|T"\x07\xf4\x04\x07\xc0(\xcd\x9dEr\xd1\x13\xc0\x08o\x8d\x840\xd0\x0e\xc0\xd6rO\xf5H\x8d\x18\xc0$N\x01R\xe2\x9a\x0e\xc0b3\xcb\x01\x16\x18\x14\xc0\xc4/\x8b@ O\x10\xc0\xc9\x84\x99\xdc\xbf\xef\x11\xc0H\x9d\xe1T\xed\xa9\x17\xc0'
p99
tp100
bsS'Model'
p101
S'HKY'
p102
sS'clock'
p103
I00
s.