(dp0
S'Force'
p1
NsS'ExpectedGeneconv'
p2
(dp3
(S'N1'
p4
S'N2'
p5
tp6
F52.68833169852462
s(S'N5'
p7
S'cerevisiae'
p8
tp9
F9.666465301037833
s(g5
S'N3'
p10
tp11
F7.023536704968634
s(S'N4'
p12
g7
tp13
F6.227389372321865
s(g4
S'castellii'
p14
tp15
F55.91725215192817
s(g5
S'bayanus'
p16
tp17
F18.060030060729865
s(S'N0'
p18
g4
tp19
F14.547279455809504
s(g10
S'kudriavzevii'
p20
tp21
F10.43451352091422
s(g7
S'paradoxus'
p22
tp23
F7.159944938977198
s(g18
S'kluyveri'
p24
tp25
F0.0
s(g10
g12
tp26
F6.137909207417506
s(g12
S'mikatae'
p27
tp28
F12.752664709315443
ssS'ExpectedDwellTime'
p29
(dp30
g6
F782.3010046000081
sg9
F985.3879480120398
sg11
F936.7592830539282
sg13
F964.3340397000228
sg15
F757.8807755129019
sg17
F935.2140640736839
sg19
F328.44737399022364
sg21
F958.8076524842286
sg23
F973.2497057066255
sg25
F0.0
sg26
F954.9895939251148
sg28
F957.138746219489
ssS'newicktree'
p31
S'../PairsAlignemt/YeastTree.newick'
p32
sS'll'
p33
cnumpy.core.multiarray
scalar
p34
(cnumpy
dtype
p35
(S'f8'
p36
I0
I1
tp37
Rp38
(I3
S'<'
p39
NNNI-1
I-1
I0
tp40
bS'\x83\xfbA\x16 \xea\xc1\xc0'
p41
tp42
Rp43
sS'edge_list'
p44
(lp45
g19
ag25
ag6
ag15
ag11
ag17
ag26
ag21
ag13
ag28
ag9
ag23
asS'edge_to_blen'
p46
(dp47
g19
g34
(g38
S'YqCZ\xee\xce\xca?'
p48
tp49
Rp50
sg9
g34
(g38
S'\x0e\xd2x(a\r\xb0?'
p51
tp52
Rp53
sg11
g34
(g38
S':\x19\x0b\xf7\xc6\xa2\xa5?'
p54
tp55
Rp56
sg13
g34
(g38
S'\x97\xa1of\x98\x8e\xa1?'
p57
tp58
Rp59
sg15
g34
(g38
S'\xc0\x13l{\x90\xb8\xd3?'
p60
tp61
Rp62
sg17
g34
(g38
S'$X\xf4A.\x88\xb6?'
p63
tp64
Rp65
sg6
g34
(g38
S'\xd7)\x9e\xef\xbek\xd3?'
p66
tp67
Rp68
sg21
g34
(g38
S'\xdbI\x18\xc2T\xc6\xb0?'
p69
tp70
Rp71
sg23
g34
(g38
S'\rD\x8c\x05\x7f\xa0\xa3?'
p72
tp73
Rp74
sg28
g34
(g38
S'\x9aEOo\xdc#\xb1?'
p75
tp76
Rp77
sg26
g34
(g38
S'\xbc\xa5\r|mf\xa3?'
p78
tp79
Rp80
sg25
g34
(g38
S'\x18\x0c\xb9B\xa8,\xc4?'
p81
tp82
Rp83
ssS'paralog'
p84
(lp85
S'YDR438W'
p86
aS'YML018C'
p87
asS'alignment_file'
p88
S'../MafftAlignment/YDR438W_YML018C/YDR438W_YML018C_input.fasta'
p89
sS'x_clock'
p90
NsS'x'
p91
cnumpy.core.multiarray
_reconstruct
p92
(cnumpy
ndarray
p93
(I0
tp94
S'b'
p95
tp96
Rp97
(I1
(I17
tp98
g38
I00
S'\xc5\xd2gd\xeca\xe8\xbfk\xb8z\x9d\xdc\xc1\xe1\xbf\x15\xef\xcf\xaa\x07\xbb\xee\xbf"\x10\x9bM\xc1\x91\xf4?Z\xfbT\xa4B\xff\xf8\xbf{\xf03\x89Y\x03\xf9\xbf$\xa08^\xd3\x8f\xfd\xbf\x9f\xad*\xbc\x9e\x14\xf3\xbf\xce\xbc\xe3\x0e\xd1\xd5\xf2\xbf\x17\x002\x18\xd1O\t\xc0x\xbbP.#q\x03\xc0h\xc4\xf9\xbb2/\n\xc0A\xdeZ\x15l\xcd\x05\xc0Z\x14\x8c\xdf\xa3\xfb\n\xc0\x8b\x1df\xbbK\xa1\x05\xc0\xef\x8b;5\x95\'\x06\xc0\xe3\x92\xd25d\x17\n\xc0'
p99
tp100
bsS'Model'
p101
S'HKY'
p102
sS'clock'
p103
I00
s.