(dp0
S'Force'
p1
NsS'ExpectedGeneconv'
p2
(dp3
(S'N1'
p4
S'N2'
p5
tp6
F15.826032441765369
s(S'N5'
p7
S'cerevisiae'
p8
tp9
F9.372078049723475
s(g5
S'N3'
p10
tp11
F2.3894055149403393
s(S'N4'
p12
g7
tp13
F3.1156894861937237
s(g4
S'castellii'
p14
tp15
F33.335143501782994
s(g5
S'bayanus'
p16
tp17
F12.668716005075689
s(S'N0'
p18
g4
tp19
F38.994580760820334
s(g10
S'kudriavzevii'
p20
tp21
F19.119205022976665
s(g7
S'paradoxus'
p22
tp23
F5.7370039140485725
s(g18
S'kluyveri'
p24
tp25
F0.0
s(g10
g12
tp26
F1.639074097391142e-05
s(g12
S'mikatae'
p27
tp28
F15.05168551544969
ssS'ExpectedDwellTime'
p29
(dp30
g6
F56.623442616982516
sg9
F50.32462194382942
sg11
F58.74524101529756
sg13
F57.322676444244465
sg15
F47.47028398717067
sg17
F54.848452951279135
sg19
F34.84433176523466
sg21
F55.233232690652386
sg23
F53.742397907767824
sg25
F0.0
sg26
F58.476389708671526
sg28
F57.653110278207436
ssS'newicktree'
p31
S'../PairsAlignemt/YeastTree.newick'
p32
sS'll'
p33
cnumpy.core.multiarray
scalar
p34
(cnumpy
dtype
p35
(S'f8'
p36
I0
I1
tp37
Rp38
(I3
S'<'
p39
NNNI-1
I-1
I0
tp40
bS'\x01U\xa1\x9b\xe6\xd5\x96\xc0'
p41
tp42
Rp43
sS'edge_list'
p44
(lp45
g19
ag25
ag6
ag15
ag11
ag17
ag26
ag21
ag13
ag28
ag9
ag23
asS'edge_to_blen'
p46
(dp47
g19
g34
(g38
S'\xd8\xd8[\x13\nX\xb4?'
p48
tp49
Rp50
sg9
g34
(g38
S'\x8c\xd5\xc7:\xfa\xa5\x83?'
p51
tp52
Rp53
sg11
g34
(g38
S'\x0f5I\x16>\xf3e?'
p54
tp55
Rp56
sg13
g34
(g38
S'\xbcT\xecE-\xd8i?'
p57
tp58
Rp59
sg15
g34
(g38
S'LF\xa6O3u\xa3?'
p60
tp61
Rp62
sg17
g34
(g38
S'\xed\xf7@\xd3\x95\xd4\x8b?'
p63
tp64
Rp65
sg6
g34
(g38
S'|\xa9\x12\x87J\xd4\x94?'
p66
tp67
Rp68
sg21
g34
(g38
S'\x1d\x9c\x9f\xad \xdd\x96?'
p69
tp70
Rp71
sg23
g34
(g38
S'\x92\xc1\x04\x0f\xb5\xc9z?'
p72
tp73
Rp74
sg25
g34
(g38
S'\xa0\x08an\x95x(>'
p75
tp76
Rp77
sg26
g34
(g38
S'\x9d\xe7\xa8\xd2Yxh>'
p78
tp79
Rp80
sg28
g34
(g38
S'M?\x8d2\xa9G\x93?'
p81
tp82
Rp83
ssS'paralog'
p84
(lp85
S'YML026C'
p86
aS'YDR450W'
p87
asS'alignment_file'
p88
S'../MafftAlignment/YML026C_YDR450W/YML026C_YDR450W_input.fasta'
p89
sS'x_clock'
p90
NsS'x'
p91
cnumpy.core.multiarray
_reconstruct
p92
(cnumpy
ndarray
p93
(I0
tp94
S'b'
p95
tp96
Rp97
(I1
(I17
tp98
g38
I00
S'eq\\\xba\xdc_\xe7\xbf\xb6rV\xa1,\x99\xe0\xbf~\xc1\xa2\xda\xf4\xc5\xe9\xbf\x82H\xf4\xbd\xb4\xc1\x01@\xb2\xc0\x1f\xda%\xfd\x05@\x88\xfd]\xe9XB\x04\xc0\xf0\xe0\xfbb&\xad3\xc0\xfb\xd6C\xfd0)\x0f\xc0*6\xab\x8a\x1d)\n\xc0m\x9c\x8c\x1cE\xb0\x17\xc0,uuD\xa71\x11\xc0\x02\xd3\xb4r`\xe70\xc0\xe1\xc0\xbe\xe2Sj\x0e\xc0\xd8\x8c8\x8a\x07\t\x17\xc0p\xeeP\x85}\xc7\x0f\xc0q\x1f\xb9\x08%\x96\x12\xc0\xe9a\xd9\xdd\x87\x1e\x14\xc0'
p99
tp100
bsS'Model'
p101
S'HKY'
p102
sS'clock'
p103
I00
s.