(dp0
S'Force'
p1
NsS'ExpectedGeneconv'
p2
(dp3
(S'N1'
p4
S'N2'
p5
tp6
F87.82771104603056
s(S'N5'
p7
S'cerevisiae'
p8
tp9
F29.951468276903984
s(g5
S'N3'
p10
tp11
F20.410179453651306
s(S'N4'
p12
g7
tp13
F10.93795505497934
s(g4
S'castellii'
p14
tp15
F110.61795681666405
s(g5
S'bayanus'
p16
tp17
F33.9124651959762
s(S'N0'
p18
g4
tp19
F26.78458273795286
s(g10
S'kudriavzevii'
p20
tp21
F39.75742226755392
s(g7
S'paradoxus'
p22
tp23
F15.348901772559518
s(g18
S'kluyveri'
p24
tp25
F0.0
s(g10
g12
tp26
F11.186816761562527
s(g12
S'mikatae'
p27
tp28
F42.25881521032019
ssS'ExpectedDwellTime'
p29
(dp30
g6
F641.4465049548702
sg9
F830.2458416393688
sg11
F794.0374450033369
sg13
F821.8346774387254
sg15
F619.5626649247934
sg17
F791.6453317686781
sg19
F265.2045261263904
sg21
F834.5680381110345
sg23
F829.8650688137076
sg25
F0.0
sg26
F814.4930184905583
sg28
F822.5199959661256
ssS'newicktree'
p31
S'../PairsAlignemt/YeastTree.newick'
p32
sS'll'
p33
cnumpy.core.multiarray
scalar
p34
(cnumpy
dtype
p35
(S'f8'
p36
I0
I1
tp37
Rp38
(I3
S'<'
p39
NNNI-1
I-1
I0
tp40
bS'\x98\x93\xf6\xe5|\xc0\xc2\xc0'
p41
tp42
Rp43
sS'edge_list'
p44
(lp45
g19
ag25
ag6
ag15
ag11
ag17
ag26
ag21
ag13
ag28
ag9
ag23
asS'edge_to_blen'
p46
(dp47
g19
g34
(g38
S'mZSV\xe2\xd9\xc2?'
p48
tp49
Rp50
sg9
g34
(g38
S'\x9a\xcb3\xd4\x05X\xab?'
p51
tp52
Rp53
sg11
g34
(g38
S'(\x13\xaa\xa1".\xa6?'
p54
tp55
Rp56
sg13
g34
(g38
S'\xa3\xe9+\xc3\x08\xee\x96?'
p57
tp58
Rp59
sg15
g34
(g38
S'p\xc7V~\xa9\x1d\xcc?'
p60
tp61
Rp62
sg17
g34
(g38
S'r\xed\xa6\xea\x14J\xb0?'
p63
tp64
Rp65
sg6
g34
(g38
S'e\xc2\x88\x9b\xac\xf6\xc8?'
p66
tp67
Rp68
sg21
g34
(g38
S'H\xf35\xbd\x9a\xdf\xb3?'
p69
tp70
Rp71
sg23
g34
(g38
S'\x98\xb0\x9b\x95\xcf%\xa0?'
p72
tp73
Rp74
sg25
g34
(g38
S'\xedPF\xbe\xdf,\xbf?'
p75
tp76
Rp77
sg26
g34
(g38
S'\x15(U\x96\x0f\xb5\x96?'
p78
tp79
Rp80
sg28
g34
(g38
S'\xb3]\xfe\xa1\x80\xc5\xb4?'
p81
tp82
Rp83
ssS'paralog'
p84
(lp85
S'YMR243C'
p86
aS'YOR316C'
p87
asS'alignment_file'
p88
S'../MafftAlignment/YMR243C_YOR316C/YMR243C_YOR316C_input.fasta'
p89
sS'x_clock'
p90
NsS'x'
p91
cnumpy.core.multiarray
_reconstruct
p92
(cnumpy
ndarray
p93
(I0
tp94
S'b'
p95
tp96
Rp97
(I1
(I17
tp98
g38
I00
S"<\x8c\x90\x9dz|\xe8\xbf\xees}\x0f\x93\xd9\xe1\xbf\xf7|\xa9$\xc4\xc5\xea\xbf\x10K\xe8\xb8\xb2\xef\xf3?)e<\x1a\xc2\xee\xd7\xbf%\xa7g\xc8\xb7\xa5\xfe\xbfZ\xb2\xd1z+\xd8\x00\xc0\xae\xdb3\x98_'\xfa\xbf\x1f\xc2\xa8\x9fJ@\xf8\xbf}\xf2\xc9\xfe\xec\x1c\t\xc0X\x01\xe5D\x8d\t\x06\xc0\xad\xc4c*ex\x0e\xc0\xbf\xc3sZCr\x04\xc0I/\xce\xadkd\x0e\xc0\xc7&E\x94\xbf\x17\x04\xc0\xed\x12\xdb|Lp\x07\xc0\x89\xad\x9d'\x02\xa7\x0b\xc0"
p99
tp100
bsS'Model'
p101
S'HKY'
p102
sS'clock'
p103
I00
s.