(dp0
S'Force'
p1
NsS'ExpectedGeneconv'
p2
(dp3
(S'N1'
p4
S'N2'
p5
tp6
F77.69478644615435
s(S'N5'
p7
S'cerevisiae'
p8
tp9
F41.451703871745906
s(g5
S'N3'
p10
tp11
F20.814344503153965
s(S'N4'
p12
g7
tp13
F15.86372318239015
s(g4
S'castellii'
p14
tp15
F128.54200298971517
s(g5
S'bayanus'
p16
tp17
F36.557676788298586
s(S'N0'
p18
g4
tp19
F4.925941807845337
s(g10
S'kudriavzevii'
p20
tp21
F41.12679944136017
s(g7
S'paradoxus'
p22
tp23
F26.03735919113042
s(g18
S'kluyveri'
p24
tp25
F0.0
s(g10
g12
tp26
F20.971491573522606
s(g12
S'mikatae'
p27
tp28
F53.98407744117445
ssS'ExpectedDwellTime'
p29
(dp30
g6
F787.8264384547248
sg9
F1279.3645736507356
sg11
F1209.517640598541
sg13
F1282.317932855587
sg15
F859.6041314716834
sg17
F1216.983299233092
sg19
F168.60414481391473
sg21
F1278.9629529041013
sg23
F1297.019946351761
sg25
F0.0
sg26
F1257.5335952454345
sg28
F1280.023148988759
ssS'newicktree'
p31
S'../PairsAlignemt/YeastTree.newick'
p32
sS'll'
p33
cnumpy.core.multiarray
scalar
p34
(cnumpy
dtype
p35
(S'f8'
p36
I0
I1
tp37
Rp38
(I3
S'<'
p39
NNNI-1
I-1
I0
tp40
bS'\xc1M7ELT\xcd\xc0'
p41
tp42
Rp43
sS'edge_list'
p44
(lp45
g19
ag25
ag6
ag15
ag11
ag17
ag26
ag21
ag13
ag28
ag9
ag23
asS'edge_to_blen'
p46
(dp47
g19
g34
(g38
S'\x1c\xcfS?#\x9c\xa6?'
p48
tp49
Rp50
sg9
g34
(g38
S'$\xac^\x15\xcb2\xa4?'
p51
tp52
Rp53
sg11
g34
(g38
S'\x1b\xea\xbf\xc3(^\x9d?'
p54
tp55
Rp56
sg13
g34
(g38
S'c\xd1L\xac%\x92\x93?'
p57
tp58
Rp59
sg15
g34
(g38
S'\xcd\x03@\xc9\xec\xd7\xcc?'
p60
tp61
Rp62
sg17
g34
(g38
S'Ol\x98\x02F\xf1\xa7?'
p63
tp64
Rp65
sg6
g34
(g38
S'\x85\x04\nP\x1c\xd5\xc5?'
p66
tp67
Rp68
sg21
g34
(g38
S'\xc1\xd5\xf6r\xcaR\xa9?'
p69
tp70
Rp71
sg23
g34
(g38
S'\xa7@q\xa6|\xa4\x9e?'
p72
tp73
Rp74
sg25
g34
(g38
S'\xda6\x14\xe2\x1f&\xbb?'
p75
tp76
Rp77
sg26
g34
(g38
S'\xbd\x1b\xff)\xe4m\x99?'
p78
tp79
Rp80
sg28
g34
(g38
S'\x88\x1bK\xbb\x98G\xad?'
p81
tp82
Rp83
ssS'paralog'
p84
(lp85
S'YBR117C'
p86
aS'YPR074C'
p87
asS'alignment_file'
p88
S'../MafftAlignment/YBR117C_YPR074C/YBR117C_YPR074C_input.fasta'
p89
sS'x_clock'
p90
NsS'x'
p91
cnumpy.core.multiarray
_reconstruct
p92
(cnumpy
ndarray
p93
(I0
tp94
S'b'
p95
tp96
Rp97
(I1
(I17
tp98
g38
I00
S'\x9a2\xc1\x1d}M\xe8\xbf\xf6B\xd25M;\xe2\xbf^\xac(\xa1u.\xe9\xbfkCy\x1eP\x1d\xf6?"\xa4\x15~\xaa\x8c\xda\xbf&\xcfw\x1b\xa1\xf5\x08\xc0~z\xe8fb\xf3\x01\xc0\x18Q\x82WQL\xfc\xbf\xfd\xebh{\xa4\xd7\xf7\xbf\x1a\xc8K\xeb\x9ei\x0c\xc0\x7f0\x18mY\x80\x08\xc0y\xf4~\xa4\x87\x90\r\xc0iX\xb3\n\x82\r\x08\xc0\x1d\xae\x91^\xd0\xa8\x0f\xc0\x85\xa4\xe2\xf75\xe4\x06\xc08\x86\xd5\xa7\x9c\xdc\t\xc0\xe4JD\x1a\x9a\x12\x0c\xc0'
p99
tp100
bsS'Model'
p101
S'HKY'
p102
sS'clock'
p103
I00
s.