(dp0
S'Force'
p1
NsS'ExpectedGeneconv'
p2
(dp3
(S'N1'
p4
S'N2'
p5
tp6
F62.88904112507194
s(S'N5'
p7
S'cerevisiae'
p8
tp9
F24.09649768024838
s(g5
S'N3'
p10
tp11
F8.725886583372894
s(S'N4'
p12
g7
tp13
F11.429224649759504
s(g4
S'castellii'
p14
tp15
F104.22659137008385
s(g5
S'bayanus'
p16
tp17
F20.817183750284205
s(S'N0'
p18
g4
tp19
F11.408800425778145
s(g10
S'kudriavzevii'
p20
tp21
F20.89864003164085
s(g7
S'paradoxus'
p22
tp23
F7.183560676276158
s(g18
S'kluyveri'
p24
tp25
F0.0
s(g10
g12
tp26
F8.947047858655816
s(g12
S'mikatae'
p27
tp28
F25.632453534934896
ssS'ExpectedDwellTime'
p29
(dp30
g6
F575.8547001175683
sg9
F775.9798489941676
sg11
F767.2403306842646
sg13
F787.5503486684024
sg15
F592.5611095558015
sg17
F749.5230294725858
sg19
F194.106608845984
sg21
F787.4387434438423
sg23
F782.6193364264178
sg25
F0.0
sg26
F787.6036450009747
sg28
F783.5873983618644
ssS'newicktree'
p31
S'../PairsAlignemt/YeastTree.newick'
p32
sS'll'
p33
cnumpy.core.multiarray
scalar
p34
(cnumpy
dtype
p35
(S'f8'
p36
I0
I1
tp37
Rp38
(I3
S'<'
p39
NNNI-1
I-1
I0
tp40
bS'\xbe\x1a\x85\xc7\xdcq\xbf\xc0'
p41
tp42
Rp43
sS'edge_list'
p44
(lp45
g19
ag25
ag6
ag15
ag11
ag17
ag26
ag21
ag13
ag28
ag9
ag23
asS'edge_to_blen'
p46
(dp47
g19
g34
(g38
S'ytQW1\xf1\xbf?'
p48
tp49
Rp50
sg9
g34
(g38
S'\xa7\xb6\x0b\x82\xd4\xf9\xac?'
p51
tp52
Rp53
sg11
g34
(g38
S'\xa0\xd7\xa2\xe2@\xd3\xa2?'
p54
tp55
Rp56
sg13
g34
(g38
S'\xda\x82\xdaX9H\x9f?'
p57
tp58
Rp59
sg15
g34
(g38
S'\x07\xe2\xaf?\xcf6\xd6?'
p60
tp61
Rp62
sg17
g34
(g38
S'M\x85\xf8\xd0\xc4\xa8\xac?'
p63
tp64
Rp65
sg6
g34
(g38
S'g\xa2\xd5\xe3zt\xd0?'
p66
tp67
Rp68
sg21
g34
(g38
S'F\x83U\rU\xf9\xae?'
p69
tp70
Rp71
sg23
g34
(g38
S'sM\xe0@\xf9\x8d\x96?'
p72
tp73
Rp74
sg25
g34
(g38
S'\x1bD\xf2\xe8->\xce?'
p75
tp76
Rp77
sg26
g34
(g38
S'\xd8\xe2\xf4L\x89\xe4\x99?'
p78
tp79
Rp80
sg28
g34
(g38
S'gJxW#R\xb1?'
p81
tp82
Rp83
ssS'paralog'
p84
(lp85
S'YPL087W'
p86
aS'YBR183W'
p87
asS'alignment_file'
p88
S'../MafftAlignment/YPL087W_YBR183W/YPL087W_YBR183W_input.fasta'
p89
sS'x_clock'
p90
NsS'x'
p91
cnumpy.core.multiarray
_reconstruct
p92
(cnumpy
ndarray
p93
(I0
tp94
S'b'
p95
tp96
Rp97
(I1
(I17
tp98
g38
I00
S'\x1b\x91KX\x05+\xe8\xbfj\x90\xed\xbe@\x9b\xe2\xbf\xc0\x8b\x00c\x9f\x9b\xf0\xbf\xad~lF\x7f\xe6\xf3?T~.\xa4\xccE\xe8\xbf\xdbO\xec\xc4f\xa6\x00\xc0x7\xbc+\x95\x15\xf7\xbf\x93"\x199h\xbb\xf5\xbf\x8f\xb3\xae\xd84\xee\xf0\xbf\x16\xba\x0f?\xcel\n\xc0<4\xc1\xbf\x12\x10\x07\xc0(l\xfaV\x8ak\r\xc00m8%\x01q\x06\xc0\x87\x98\xe2WK\xe8\x0b\xc0\x04\x06I<\xcf\x8b\x05\xc0l\x13\x16\xd9\x91\xf9\x06\xc0\xcc\xd5Pg6\x86\x0e\xc0'
p99
tp100
bsS'Model'
p101
S'HKY'
p102
sS'clock'
p103
I00
s.