(dp0
S'Force'
p1
NsS'ExpectedGeneconv'
p2
(dp3
(S'N1'
p4
S'N2'
p5
tp6
F18.57171747268979
s(S'N5'
p7
S'cerevisiae'
p8
tp9
F5.3097770025146165
s(g5
S'N3'
p10
tp11
F1.59332456130664
s(S'N4'
p12
g7
tp13
F4.108249802355817
s(g4
S'castellii'
p14
tp15
F7.363139388211027
s(g5
S'bayanus'
p16
tp17
F7.426045726572558
s(S'N0'
p18
g4
tp19
F0.3153052227062522
s(g10
S'kudriavzevii'
p20
tp21
F7.416396332846288
s(g7
S'paradoxus'
p22
tp23
F3.415053991528109
s(g18
S'kluyveri'
p24
tp25
F0.0
s(g10
g12
tp26
F2.432325028921923
s(g12
S'mikatae'
p27
tp28
F9.143642423424335
ssS'ExpectedDwellTime'
p29
(dp30
g6
F209.62213919555904
sg9
F352.03805503247116
sg11
F336.3861902099171
sg13
F343.88523828218354
sg15
F118.48260986364926
sg17
F340.24026321780747
sg19
F26.3700471033371
sg21
F342.8957494377666
sg23
F354.4688892696728
sg25
F0.0
sg26
F339.17576516447974
sg28
F337.98714128455066
ssS'newicktree'
p31
S'../PairsAlignemt/YeastTree.newick'
p32
sS'll'
p33
cnumpy.core.multiarray
scalar
p34
(cnumpy
dtype
p35
(S'f8'
p36
I0
I1
tp37
Rp38
(I3
S'<'
p39
NNNI-1
I-1
I0
tp40
bS'\xcd\x1c\x95\\,\x91\xa8\xc0'
p41
tp42
Rp43
sS'edge_list'
p44
(lp45
g19
ag25
ag6
ag15
ag11
ag17
ag26
ag21
ag13
ag28
ag9
ag23
asS'edge_to_blen'
p46
(dp47
g19
g34
(g38
S'\xc7\xeb\xd4t&\x84\xa0?'
p48
tp49
Rp50
sg9
g34
(g38
S'\x94\xca\xacM\x1e6\xa6?'
p51
tp52
Rp53
sg11
g34
(g38
S'$\xe7\x0e\xf9\xbb\xc1\x8f?'
p54
tp55
Rp56
sg13
g34
(g38
S'\x1dG\x0b?\x9f\x8e\x9e?'
p57
tp58
Rp59
sg15
g34
(g38
S'm\xedo\xa0!}\xbc?'
p60
tp61
Rp62
sg17
g34
(g38
S'\xd2\xa1[\xf2\xbb\xb9\xaf?'
p63
tp64
Rp65
sg6
g34
(g38
S'{\xe3\xd7\xa3$\xc3\xd1?'
p66
tp67
Rp68
sg21
g34
(g38
S'\x89\xe1\x19d9\xa1\xac?'
p69
tp70
Rp71
sg23
g34
(g38
S'x\xba\xcc,"\x12\xa0?'
p72
tp73
Rp74
sg25
g34
(g38
S'\x0eg\x935\x10\xf7\xc1?'
p75
tp76
Rp77
sg26
g34
(g38
S'~\xc4O\xfd\xa8f\x8d?'
p78
tp79
Rp80
sg28
g34
(g38
S'\xe2\xe8\xa6\x07\x99\xd0\xb0?'
p81
tp82
Rp83
ssS'paralog'
p84
(lp85
S'YPL037C'
p86
aS'YDR252W'
p87
asS'alignment_file'
p88
S'../MafftAlignment/YPL037C_YDR252W/YPL037C_YDR252W_input.fasta'
p89
sS'x_clock'
p90
NsS'x'
p91
cnumpy.core.multiarray
_reconstruct
p92
(cnumpy
ndarray
p93
(I0
tp94
S'b'
p95
tp96
Rp97
(I1
(I17
tp98
g38
I00
S'Y\xdf\x15{\xc3\x88\xe5\xbf\\3\x9f5H\xf1\xdc\xbf\x92w@\xd1\xa8H\xe6\xbf)<\x08L6@\xf7?\x0c\xfb\x8a\xa0=\xd5\xef\xbf\x97w\xfa\xa7\xcbx\x0b\xc0\x0b2\x8b\x98\xe7j\xff\xbf\xc0\xffV\x1cG\x82\xf4\xbf0\xf8\x86\xa8\xb9\x90\x01\xc0*\x97}\\\x82\xaa\x10\xc0\x85=\x17h\xe7?\x06\xc0 \x82\x8a\x97o\xf9\x10\xc0:\xb2\x13+.\x12\x07\xc0\xcf\xf7Q|Q\x18\x0c\xc0I\xa1\xd6"\x88\xc8\x05\xc0\x08\r\xd0e\x0c\x1a\t\xc0M^\xbf\xc7\xc7\xb0\x0b\xc0'
p99
tp100
bsS'Model'
p101
S'HKY'
p102
sS'clock'
p103
I00
s.