(dp0
S'Force'
p1
NsS'ExpectedGeneconv'
p2
(dp3
(S'N1'
p4
S'N2'
p5
tp6
F60.073250734326734
s(S'N5'
p7
S'cerevisiae'
p8
tp9
F27.625634438836492
s(g5
S'N3'
p10
tp11
F9.965593769468123
s(S'N4'
p12
g7
tp13
F14.604151501502525
s(g4
S'castellii'
p14
tp15
F140.0662743311823
s(g5
S'bayanus'
p16
tp17
F33.98942870774336
s(S'N0'
p18
g4
tp19
F9.961397472231003
s(g10
S'kudriavzevii'
p20
tp21
F35.20322747189932
s(g7
S'paradoxus'
p22
tp23
F18.199551976669355
s(g18
S'kluyveri'
p24
tp25
F0.0
s(g10
g12
tp26
F18.370235950274694
s(g12
S'mikatae'
p27
tp28
F32.94337303481327
ssS'ExpectedDwellTime'
p29
(dp30
g6
F615.0737927901544
sg9
F849.6315622400051
sg11
F841.9761177345392
sg13
F855.9452094640255
sg15
F739.2171296466702
sg17
F840.2473908102999
sg19
F194.71425276613783
sg21
F871.7716854966577
sg23
F867.0531567553584
sg25
F0.0
sg26
F859.0550778874807
sg28
F860.4097928900551
ssS'newicktree'
p31
S'../PairsAlignemt/YeastTree.newick'
p32
sS'll'
p33
cnumpy.core.multiarray
scalar
p34
(cnumpy
dtype
p35
(S'f8'
p36
I0
I1
tp37
Rp38
(I3
S'<'
p39
NNNI-1
I-1
I0
tp40
bS'\x00aw\xb1\x82\x9f\xc4\xc0'
p41
tp42
Rp43
sS'edge_list'
p44
(lp45
g19
ag25
ag6
ag15
ag11
ag17
ag26
ag21
ag13
ag28
ag9
ag23
asS'edge_to_blen'
p46
(dp47
g19
g34
(g38
S'\x88\xc1\x13\x9c#x\xb7?'
p48
tp49
Rp50
sg9
g34
(g38
S'37\xbd\xab\xe9\xa8\xa9?'
p51
tp52
Rp53
sg11
g34
(g38
S'\xe0\xdd\xc8-\xb4\xc4\x9d?'
p54
tp55
Rp56
sg13
g34
(g38
S'\xb8\x85\xa1\x1b\x83\xf0\x9a?'
p57
tp58
Rp59
sg15
g34
(g38
S'^Q\xed\x9d\x9cY\xd6?'
p60
tp61
Rp62
sg17
g34
(g38
S'\xb0\xe1=\x01\xe0\xf2\xb1?'
p63
tp64
Rp65
sg6
g34
(g38
S'y\xbf\xca\xd6\xc07\xc8?'
p66
tp67
Rp68
sg21
g34
(g38
S'u\x8f\x13\xce\xef\xdd\xb0?'
p69
tp70
Rp71
sg23
g34
(g38
S'\x9b\xbc\xe7\xf7\x19\x16\xa3?'
p72
tp73
Rp74
sg25
g34
(g38
S'|kX\xe1&A\xcc?'
p75
tp76
Rp77
sg26
g34
(g38
S'\x10\xb4)\xe1n\x80\x9f?'
p78
tp79
Rp80
sg28
g34
(g38
S'\xa3\xce\x9d\x00\xd7\xe1\xb1?'
p81
tp82
Rp83
ssS'paralog'
p84
(lp85
S'YPR157W'
p86
aS'YGR141W'
p87
asS'alignment_file'
p88
S'../MafftAlignment/YPR157W_YGR141W/YPR157W_YGR141W_input.fasta'
p89
sS'x_clock'
p90
NsS'x'
p91
cnumpy.core.multiarray
_reconstruct
p92
(cnumpy
ndarray
p93
(I0
tp94
S'b'
p95
tp96
Rp97
(I1
(I17
tp98
g38
I00
S'N\xfc\xf8\xecf\xd2\xe6\xbf;\x0b\x12\x14\xb4-\xe3\xbf\xc1:\xf6G\xeb\xe6\xea\xbfhW\xaf<\xbc;\xf3?\xfb\xf9\x00\xbf\xf8\x99\xe2\xbf\xd2#}\x12\xaa\x1d\x03\xc0i~\xf8\x12%,\xf8\xbf\xe4=23\x9b\xa3\xfa\xbfk\x86\xd4O7\xd5\xf0\xbf0"^-\xe0M\x0c\xc0\xc5\x89\xcb9\xe2B\x05\xc0\xb7X\xadB\xf8\xd9\x0b\xc0$\xcd\xd5\xff1\xc2\x05\xc0\xab!H\xdf_\x1a\r\xc0\xcd\xbf\xfb\x98}J\x05\xc0\x18^\x97\xe3z\xf2\x07\xc0\x8f\xb8\xa6\xcf\x97P\n\xc0'
p99
tp100
bsS'Model'
p101
S'HKY'
p102
sS'clock'
p103
I00
s.