(dp0
S'Force'
p1
NsS'ExpectedGeneconv'
p2
(dp3
(S'N1'
p4
S'N2'
p5
tp6
F27.34593168847525
s(S'N5'
p7
S'cerevisiae'
p8
tp9
F7.759688455737432
s(g5
S'N3'
p10
tp11
F2.3614898689061527e-05
s(S'N4'
p12
g7
tp13
F10.438889908280906
s(g4
S'castellii'
p14
tp15
F50.58138254294758
s(g5
S'bayanus'
p16
tp17
F19.894794494613446
s(S'N0'
p18
g4
tp19
F48.92592602114385
s(g10
S'kudriavzevii'
p20
tp21
F29.84285594386252
s(g7
S'paradoxus'
p22
tp23
F5.6766958621228065
s(g18
S'kluyveri'
p24
tp25
F0.0
s(g10
g12
tp26
F8.62976718523365
s(g12
S'mikatae'
p27
tp28
F18.870566977576555
ssS'ExpectedDwellTime'
p29
(dp30
g6
F71.58062430119767
sg9
F74.79993455398032
sg11
F73.76339584047507
sg13
F68.08132063726234
sg15
F64.9583714187033
sg17
F61.105248267349
sg19
F44.97941259900627
sg21
F65.00618571013842
sg23
F63.6466447362648
sg25
F0.0
sg26
F72.2589353469399
sg28
F78.57825990133131
ssS'newicktree'
p31
S'../PairsAlignemt/YeastTree.newick'
p32
sS'll'
p33
cnumpy.core.multiarray
scalar
p34
(cnumpy
dtype
p35
(S'f8'
p36
I0
I1
tp37
Rp38
(I3
S'<'
p39
NNNI-1
I-1
I0
tp40
bS'\x93\x04g\x900\x9b\xa0\xc0'
p41
tp42
Rp43
sS'edge_list'
p44
(lp45
g19
ag25
ag6
ag15
ag11
ag17
ag26
ag21
ag13
ag28
ag9
ag23
asS'edge_to_blen'
p46
(dp47
g19
g34
(g38
S'\xc1\xdfZ\x82\xee\x8c\xb2?'
p48
tp49
Rp50
sg9
g34
(g38
S'~,2\xf6\xa3\xd8\x86?'
p51
tp52
Rp53
sg11
g34
(g38
S'\r\xa3OSD9]>'
p54
tp55
Rp56
sg13
g34
(g38
S'=\xf6<\xe14 \x81?'
p57
tp58
Rp59
sg15
g34
(g38
S'j/\xd7 {H\xa7?'
p60
tp61
Rp62
sg17
g34
(g38
S'\x90\xaf!\x02:\xb8\x8c?'
p63
tp64
Rp65
sg6
g34
(g38
S'=\x98\xa4\x8a\xb1B\x9a?'
p66
tp67
Rp68
sg21
g34
(g38
S'\xb2\xa9U\xe9\x9a&\x99?'
p69
tp70
Rp71
sg23
g34
(g38
S'h\xc7\xc4\xa1%\x91t?'
p72
tp73
Rp74
sg28
g34
(g38
S'_\x9ahC\xf2\t\x94?'
p75
tp76
Rp77
sg26
g34
(g38
S'\xb7\n\xdbo\xd7\xc3}?'
p78
tp79
Rp80
sg25
g34
(g38
S'`\xf4!\x15{\xb1>>'
p81
tp82
Rp83
ssS'paralog'
p84
(lp85
S'YMR142C'
p86
aS'YDL082W'
p87
asS'alignment_file'
p88
S'../MafftAlignment/YMR142C_YDL082W/YMR142C_YDL082W_input.fasta'
p89
sS'x_clock'
p90
NsS'x'
p91
cnumpy.core.multiarray
_reconstruct
p92
(cnumpy
ndarray
p93
(I0
tp94
S'b'
p95
tp96
Rp97
(I1
(I17
tp98
g38
I00
S'\x1c\x1c\xfb1\xff&\xe6\xbf\xf1u_<D\t\xe0\xbf\xc2\xe6\xe441k\xe7\xbfGr\x1f3#\xeb\x01@S\x05{ua(\x06@\x0f\r\x960X\xff\x04\xc0\xf6\x827\xdb\xb4\xc12\xc0\xd4\x14\xefQ\xa7N\r\xc0\xb2\x8dZ1\x8a\xb9\x08\xc0#\xa8\xdd\x1e`k1\xc0\xac\x0c7er\x11\x11\xc0\xa7E$\x80\x9e\xb2\x13\xc0<\x92n}\x14\xa7\r\xc0\xeb\xe8wi\xd9"\x13\xc0\x04\\\x8f}kx\x0f\xc0\xe4Q\x89\\\xbb\xfb\x11\xc0\xedb\x86\x1d#-\x15\xc0'
p99
tp100
bsS'Model'
p101
S'HKY'
p102
sS'clock'
p103
I00
s.