(dp0
S'Force'
p1
NsS'ExpectedGeneconv'
p2
(dp3
(S'N1'
p4
S'N2'
p5
tp6
F19.31158697450206
s(S'N5'
p7
S'cerevisiae'
p8
tp9
F2.0755933373901394
s(g5
S'N3'
p10
tp11
F5.365830527177913
s(S'N4'
p12
g7
tp13
F2.886927685171543
s(g4
S'castellii'
p14
tp15
F11.808306460861264
s(g5
S'bayanus'
p16
tp17
F2.978351465128974
s(S'N0'
p18
g4
tp19
F1.1158360840965855
s(g10
S'kudriavzevii'
p20
tp21
F10.297999007970052
s(g7
S'paradoxus'
p22
tp23
F4.111790602798065
s(g18
S'kluyveri'
p24
tp25
F0.0
s(g10
g12
tp26
F4.7230194358135345
s(g12
S'mikatae'
p27
tp28
F11.82941277242585
ssS'ExpectedDwellTime'
p29
(dp30
g6
F38.63245821699557
sg9
F48.687260177123925
sg11
F45.79417108179603
sg13
F44.56124592183421
sg15
F38.34742441924209
sg17
F47.01406210135886
sg19
F10.342169926076965
sg21
F53.49567322424735
sg23
F44.65593447866858
sg25
F0.0
sg26
F45.025138085599956
sg28
F42.004088051665576
ssS'newicktree'
p31
S'../PairsAlignemt/YeastTree.newick'
p32
sS'll'
p33
cnumpy.core.multiarray
scalar
p34
(cnumpy
dtype
p35
(S'f8'
p36
I0
I1
tp37
Rp38
(I3
S'<'
p39
NNNI-1
I-1
I0
tp40
bS'\x0f\x1b\xfbe-\xed\x96\xc0'
p41
tp42
Rp43
sS'edge_list'
p44
(lp45
g19
ag25
ag6
ag15
ag11
ag17
ag26
ag21
ag13
ag28
ag9
ag23
asS'edge_to_blen'
p46
(dp47
g19
g34
(g38
S'\xf8\x99\x05h)4\xa2?'
p48
tp49
Rp50
sg9
g34
(g38
S'[\xe1\x1aeHZ\x91?'
p51
tp52
Rp53
sg11
g34
(g38
S'\x15\xb5\x88w~\x95\x9c?'
p54
tp55
Rp56
sg13
g34
(g38
S'\xc2\xbec\xa9\xf9\xc3\x92?'
p57
tp58
Rp59
sg15
g34
(g38
S'|\x11\xab\x8a\x08$\xba?'
p60
tp61
Rp62
sg17
g34
(g38
S'\xf8\x1a\x14-*=\x91?'
p63
tp64
Rp65
sg6
g34
(g38
S'\xb0\x8d\xa2i5\xa8\xc1?'
p66
tp67
Rp68
sg21
g34
(g38
S'+\x8dN\x9d_\x84\xb2?'
p69
tp70
Rp71
sg23
g34
(g38
S'\x08t\xb4\xf8\xb9\xa4\x93?'
p72
tp73
Rp74
sg28
g34
(g38
S'.\x16Q\xdb?3\xac?'
p75
tp76
Rp77
sg26
g34
(g38
S"'\xfd7'G6\x95?"
p78
tp79
Rp80
sg25
g34
(g38
S'\x99\t\x8a\xf5\xd8\x88\xbe?'
p81
tp82
Rp83
ssS'paralog'
p84
(lp85
S'YBR191W'
p86
aS'YPL079W'
p87
asS'alignment_file'
p88
S'../MafftAlignment/YBR191W_YPL079W/YBR191W_YPL079W_input.fasta'
p89
sS'x_clock'
p90
NsS'x'
p91
cnumpy.core.multiarray
_reconstruct
p92
(cnumpy
ndarray
p93
(I0
tp94
S'b'
p95
tp96
Rp97
(I1
(I18
tp98
g38
I00
S"\xa6\xe0W\x0b.\xaa\xe6\xbf\xff6\x84\x1b\x92\xa6\xdf\xbf\xe3\xb5\xb2\xb8;\xa4\xeb\xbfM\xf9@\xba\xd4\xcc\x00@\t\x08\x9c\xd8\xa2\x04\x03\xc0\xf1\x94}\x14\xf5~\xf5?\xdf\xf1@\x01\x8e\xb1\n\xc0\xa4\x868'\xb3\x02\x01\xc0\x1dBq2\xbe\xb1\xff\xbf+3\xb5h\xe2@\x02\xc0\x83\x86\xc7\xb1\x06\xa1\x0c\xc0&\xd2P=SV\x10\xc0I\x95\xda\x0f\xe6\x03\x0f\xc0\xf1nP\xe0\t\x03\x05\xc0\x04]\xe0\xc1\xdf\xfe\x0f\xc0\xd2\x89\x94\xb5$1\x07\xc0\x08\x01\xaaK\x97O\x10\xc0\xc9r6\xbb;\xa1\x0f\xc0"
p99
tp100
bsS'Model'
p101
S'MG94'
p102
sS'clock'
p103
I00
s.