(dp0
S'Force'
p1
NsS'ExpectedGeneconv'
p2
(dp3
(S'N1'
p4
S'N2'
p5
tp6
F10.050894369615063
s(S'N5'
p7
S'cerevisiae'
p8
tp9
F4.105621532222444
s(g5
S'N3'
p10
tp11
F1.7881402442045378
s(S'N4'
p12
g7
tp13
F2.117362352193632
s(g4
S'castellii'
p14
tp15
F19.075735694241345
s(g5
S'bayanus'
p16
tp17
F3.47621209327632
s(S'N0'
p18
g4
tp19
F3.073408591643973
s(g10
S'kudriavzevii'
p20
tp21
F4.217147179899972
s(g7
S'paradoxus'
p22
tp23
F2.1245348912946405
s(g18
S'kluyveri'
p24
tp25
F0.0
s(g10
g12
tp26
F1.5047350883681168
s(g12
S'mikatae'
p27
tp28
F4.9698853205860845
ssS'ExpectedDwellTime'
p29
(dp30
g6
F372.2359064084821
sg9
F448.1775262574912
sg11
F437.86161368910956
sg13
F443.3793940974861
sg15
F405.16886966634144
sg17
F447.53412986877265
sg19
F164.42418508569978
sg21
F450.6207641349195
sg23
F452.6515784566663
sg25
F0.0
sg26
F441.2514546394515
sg28
F450.69249504364257
ssS'newicktree'
p31
S'../PairsAlignemt/YeastTree.newick'
p32
sS'll'
p33
cnumpy.core.multiarray
scalar
p34
(cnumpy
dtype
p35
(S'f8'
p36
I0
I1
tp37
Rp38
(I3
S'<'
p39
NNNI-1
I-1
I0
tp40
bS'\xd4\x1a\xc8p\xbe{\xba\xc0'
p41
tp42
Rp43
sS'edge_list'
p44
(lp45
g19
ag25
ag6
ag15
ag11
ag17
ag26
ag21
ag13
ag28
ag9
ag23
asS'edge_to_blen'
p46
(dp47
g6
g34
(g38
S'Gc\x9a\x0b\xf1\x1d\xe2?'
p48
tp49
Rp50
sg9
g34
(g38
S'fc\xbf<\xda\x88\xc4?'
p51
tp52
Rp53
sg11
g34
(g38
S'\xe5l\x8d<Y\x8e\xb9?'
p54
tp55
Rp56
sg13
g34
(g38
S'\xa9\xea\x07hG \xb7?'
p57
tp58
Rp59
sg21
g34
(g38
S'\x86\xd4\r\xe3\xf6\xb8\xcd?'
p60
tp61
Rp62
sg17
g34
(g38
S'\x95\x15\x83\x98mv\xc8?'
p63
tp64
Rp65
sg19
g34
(g38
S'F\x88\xe1h\xe7\xfe\xd5?'
p66
tp67
Rp68
sg15
g34
(g38
S'0\xe8W\xfd\xf1\xa0\xee?'
p69
tp70
Rp71
sg23
g34
(g38
S'k\xb7t`\xf1q\xbe?'
p72
tp73
Rp74
sg25
g34
(g38
S'\x9a`\x15m\xa9\xbb\xde?'
p75
tp76
Rp77
sg26
g34
(g38
S'\x02d\xe2\x99\x0e\x9d\xb3?'
p78
tp79
Rp80
sg28
g34
(g38
S'`#\xbbq\xc2\x98\xcf?'
p81
tp82
Rp83
ssS'paralog'
p84
(lp85
S'YGR043C'
p86
aS'YLR354C'
p87
asS'alignment_file'
p88
S'../MafftAlignment/YGR043C_YLR354C/YGR043C_YLR354C_input.fasta'
p89
sS'x_clock'
p90
NsS'x'
p91
cnumpy.core.multiarray
_reconstruct
p92
(cnumpy
ndarray
p93
(I0
tp94
S'b'
p95
tp96
Rp97
(I1
(I18
tp98
g38
I00
S"\xe9\\o\xd5\xedW\xe7\xbf'\x07\xf8\xa6\x10\x99\xe0\xbf(\xcf\xf8\xd7c!\xeb\xbf\x8c\x85\xb3p\x0f(\xf1?\xc6\x103?D\xa0\x01\xc0\xfa\xa8\x8f\x8a\xbb\x8f\x04\xc0\xf5\xfaX$\xac\x16\xf1\xbf\x8d\x93\xe6\xf51y\xe7\xbf\x0c\xec\x90fS4\xe2\xbf\xb0\x1ab\x85\xc7l\xa6\xbf\xc1\xf2\xd0\x9e6o\x02\xc0\x83\x9c\x05\x1chz\xfa\xbf\xe0\xea;r:\x8d\x04\xc0\xa1_Pf\xac\\\xf7\xbf$\xa4=\x9f\xd5;\x03\xc0\x9d\xea\x1a\xc05b\xf6\xbf\xff\xb6\x00)ZG\xfd\xbf\x81\xa6\x08\xa8\xb5\x08\x01\xc0"
p99
tp100
bsS'Model'
p101
S'MG94'
p102
sS'clock'
p103
I00
s.