(dp0
S'Force'
p1
NsS'ExpectedGeneconv'
p2
(dp3
(S'N1'
p4
S'N2'
p5
tp6
F47.86142250928644
s(S'N5'
p7
S'cerevisiae'
p8
tp9
F3.7366187242293454
s(g5
S'N3'
p10
tp11
F3.693256075311162
s(S'N4'
p12
g7
tp13
F2.0829493672135384
s(g4
S'castellii'
p14
tp15
F53.82644488944139
s(g5
S'bayanus'
p16
tp17
F6.811765716651498
s(S'N0'
p18
g4
tp19
F1.2094223093082757
s(g10
S'kudriavzevii'
p20
tp21
F6.531685393326165
s(g7
S'paradoxus'
p22
tp23
F1.3846992510983127
s(g18
S'kluyveri'
p24
tp25
F0.0
s(g10
g12
tp26
F3.854978310892063
s(g12
S'mikatae'
p27
tp28
F7.2517995229551575
ssS'ExpectedDwellTime'
p29
(dp30
g6
F346.292055024242
sg9
F421.02245911779363
sg11
F416.18487181999046
sg13
F416.1615779362562
sg15
F349.66794754894903
sg17
F420.12721573043126
sg19
F76.8697102029659
sg21
F425.1431466718667
sg23
F423.9392895636592
sg25
F0.0
sg26
F414.7344824900674
sg28
F411.02605107199423
ssS'newicktree'
p31
S'../PairsAlignemt/YeastTree.newick'
p32
sS'll'
p33
cnumpy.core.multiarray
scalar
p34
(cnumpy
dtype
p35
(S'f8'
p36
I0
I1
tp37
Rp38
(I3
S'<'
p39
NNNI-1
I-1
I0
tp40
bS')\x82\x93\xdb\x1ci\xba\xc0'
p41
tp42
Rp43
sS'edge_list'
p44
(lp45
g19
ag25
ag6
ag15
ag11
ag17
ag26
ag21
ag13
ag28
ag9
ag23
asS'edge_to_blen'
p46
(dp47
g6
g34
(g38
S'qcL\xb6\x81\xbf\xfe?'
p48
tp49
Rp50
sg9
g34
(g38
S'\xab\xa2\xdbi\x8a\xe5\xc4?'
p51
tp52
Rp53
sg11
g34
(g38
S'# \r<}}\xc1?'
p54
tp55
Rp56
sg13
g34
(g38
S'\xba\xb4sp\xc4\xad\xbf?'
p57
tp58
Rp59
sg15
g34
(g38
S'\x1eh\x7f)8E\x02@'
p60
tp61
Rp62
sg17
g34
(g38
S'\x107n\xdd\xc7,\xd5?'
p63
tp64
Rp65
sg19
g34
(g38
S'\x0b5P\x057\xb8\xc5?'
p66
tp67
Rp68
sg21
g34
(g38
S'\x0b>\xc2\xb4\xae\xf5\xd2?'
p69
tp70
Rp71
sg23
g34
(g38
S'\xba\xdd\xc9Y\xa1^\xb9?'
p72
tp73
Rp74
sg25
g34
(g38
S'\xcd\xe4&\x92\x14\xc7\xf7?'
p75
tp76
Rp77
sg26
g34
(g38
S'%\xfd\xc3j\xd0\xa6\xc2?'
p78
tp79
Rp80
sg28
g34
(g38
S'\x90~[*V8\xd4?'
p81
tp82
Rp83
ssS'paralog'
p84
(lp85
S'YBR024W'
p86
aS'YBR037C'
p87
asS'alignment_file'
p88
S'../MafftAlignment/YBR024W_YBR037C/YBR024W_YBR037C_input.fasta'
p89
sS'x_clock'
p90
NsS'x'
p91
cnumpy.core.multiarray
_reconstruct
p92
(cnumpy
ndarray
p93
(I0
tp94
S'b'
p95
tp96
Rp97
(I1
(I18
tp98
g38
I00
S'<\xd5\xf8\x08{\x00\xe5\xbf\x1a\xd4\\\xfe\x93s\xe2\xbf\xf4\x07\x0e3\xd1\x9e\xec\xbf\xcdtj\x01\n\xd6\xeb?\xb4\xc8\x04\x91SN\x03\xc0\x9dubA\xe6)\x01\xc0\x927B\x89\x8ca\xfc\xbf\xa1\x19o\xab\xa5Z\xd9?\xec\xb1\xbe\xa4T\xe7\xe4?\xdd\xb0u+Hm\xea?\xe92\xcc+\xa3\xd8\xff\xbfB}\xc1\xa1q\xb2\xf1\xbf\xaeB\x0f}K\xd1\xfe\xbf\xd7\x16\x07\x8d\x0fw\xf3\xbf#_\xed\xba[\xb7\x00\xc0\xc7\xc89Nqo\xf2\xbfcsi\xe5\xc2\xff\xfc\xbf\x9fS\xf2\xa94~\x02\xc0'
p99
tp100
bsS'Model'
p101
S'MG94'
p102
sS'clock'
p103
I00
s.