(dp0
S'Force'
p1
NsS'ExpectedGeneconv'
p2
(dp3
(S'N1'
p4
S'N2'
p5
tp6
F147.79583317905892
s(S'N5'
p7
S'cerevisiae'
p8
tp9
F8.050485977735047
s(g5
S'N3'
p10
tp11
F5.092911511965247
s(S'N4'
p12
g7
tp13
F4.6621093232074955
s(g4
S'castellii'
p14
tp15
F136.95732254301507
s(g5
S'bayanus'
p16
tp17
F13.445860579388299
s(S'N0'
p18
g4
tp19
F3.7567587534093927
s(g10
S'kudriavzevii'
p20
tp21
F10.221242727642801
s(g7
S'paradoxus'
p22
tp23
F5.725687562750384
s(g18
S'kluyveri'
p24
tp25
F0.0
s(g10
g12
tp26
F5.916430171140508
s(g12
S'mikatae'
p27
tp28
F11.64496114940974
ssS'ExpectedDwellTime'
p29
(dp30
g6
F677.4656652532087
sg9
F821.5240319215442
sg11
F817.154666775992
sg13
F825.2932096846695
sg15
F648.4365836636767
sg17
F807.7142610596092
sg19
F150.79904658189645
sg21
F820.9428130207251
sg23
F827.9613429353952
sg25
F0.0
sg26
F822.6075844148932
sg28
F815.6262312924191
ssS'newicktree'
p31
S'../PairsAlignemt/YeastTree.newick'
p32
sS'll'
p33
cnumpy.core.multiarray
scalar
p34
(cnumpy
dtype
p35
(S'f8'
p36
I0
I1
tp37
Rp38
(I3
S'<'
p39
NNNI-1
I-1
I0
tp40
bS'q\xf7\xa9\xe3,\xb8\xc8\xc0'
p41
tp42
Rp43
sS'edge_list'
p44
(lp45
g19
ag25
ag6
ag15
ag11
ag17
ag26
ag21
ag13
ag28
ag9
ag23
asS'edge_to_blen'
p46
(dp47
g19
g34
(g38
S'\x14>M\x16B1\xc8?'
p48
tp49
Rp50
sg9
g34
(g38
S'_-\x94\x12\xf5\x00\xc5?'
p51
tp52
Rp53
sg11
g34
(g38
S'+Y\xe3\xde6\xef\xc0?'
p54
tp55
Rp56
sg13
g34
(g38
S'}\x93\xf3\xf6e\x8d\xba?'
p57
tp58
Rp59
sg15
g34
(g38
S'b>\x1cq\xab=\x02@'
p60
tp61
Rp62
sg17
g34
(g38
S'\xeb\xcf\x9c\x98\xaf>\xd3?'
p63
tp64
Rp65
sg6
g34
(g38
S'!9\xb5\xa7Q\xb6\x04@'
p66
tp67
Rp68
sg21
g34
(g38
S'\x87\xc5\xa5\x1b\xc0\xe9\xcf?'
p69
tp70
Rp71
sg23
g34
(g38
S'\xd6\xffq\xc8\xdf\x85\xc1?'
p72
tp73
Rp74
sg28
g34
(g38
S'[\xcf!\xa5\xcbb\xd0?'
p75
tp76
Rp77
sg26
g34
(g38
S'_S\xa5\x05\x8d\x84\xc0?'
p78
tp79
Rp80
sg25
g34
(g38
S'\t\xba\\U\xf4\xeb\xf8?'
p81
tp82
Rp83
ssS'paralog'
p84
(lp85
S'YDR518W'
p86
aS'YCL043C'
p87
asS'alignment_file'
p88
S'../MafftAlignment/YDR518W_YCL043C/YDR518W_YCL043C_input.fasta'
p89
sS'x_clock'
p90
NsS'x'
p91
cnumpy.core.multiarray
_reconstruct
p92
(cnumpy
ndarray
p93
(I0
tp94
S'b'
p95
tp96
Rp97
(I1
(I18
tp98
g38
I00
S'\xa7\x97\xa0mL\x9d\xe7\xbf\x8d\x9a\x11]8\xcf\xe0\xbf{\xe2\x1f\xf4\xf5\xab\xe7\xbf\x8e\xfe\xf5\x9a\xf0y\xed?\x8f\x7fe\xdf\x9b*\x01\xc0{`A\xa7\xcb\xed\xfb\xbfj\xc4\xfcN\xe6\xa7\xfa\xbf\xae\x96\xc9\x18\x92\\\xdc?$\xa9\xe7\xec\xe3p\xee?\xa6\\OV\x0c`\xea?\xe3\xf9\xd8\x92s.\x00\xc0\xd7\xdc\x03\x84\xe99\xf3\xbfa\xf8\x02{xa\x00\xc0\x8f\x9a\t\xd1f9\xf6\xbf\xbf\xfb\xf5\xe4\xe3 \x02\xc0K\xd5\xeb\x8c\xa3\xcc\xf5\xbfKi\xfb\x9e\xd2\xea\xfc\xbf\xb1\\/Y\xf9\xd0\xff\xbf'
p99
tp100
bsS'Model'
p101
S'MG94'
p102
sS'clock'
p103
I00
s.