(dp0
S'Force'
p1
NsS'ExpectedGeneconv'
p2
(dp3
(S'N1'
p4
S'N2'
p5
tp6
F10.754066480318253
s(S'N5'
p7
S'cerevisiae'
p8
tp9
F9.965230470783508
s(g5
S'N3'
p10
tp11
F3.531111862276346e-05
s(S'N4'
p12
g7
tp13
F2.0102488122761013
s(g4
S'castellii'
p14
tp15
F27.153555136474296
s(g5
S'bayanus'
p16
tp17
F11.273584641938548
s(S'N0'
p18
g4
tp19
F0.0
s(g10
S'kudriavzevii'
p20
tp21
F11.26061035311455
s(g7
S'paradoxus'
p22
tp23
F3.290277067315008
s(g18
S'kluyveri'
p24
tp25
F0.0
s(g10
g12
tp26
F2.646712673165083e-07
s(g12
S'mikatae'
p27
tp28
F13.681215132829788
ssS'ExpectedDwellTime'
p29
(dp30
g6
F15.483497375404593
sg9
F22.795167136549548
sg11
F22.874527934775074
sg13
F21.968464943780987
sg15
F25.755581120914215
sg17
F21.06662965135753
sg19
F0.0
sg21
F36.699578049678806
sg23
F18.300344325940742
sg25
F0.0
sg26
F22.8745398010179
sg28
F23.63046300051897
ssS'newicktree'
p31
S'../PairsAlignemt/YeastTree.newick'
p32
sS'll'
p33
cnumpy.core.multiarray
scalar
p34
(cnumpy
dtype
p35
(S'f8'
p36
I0
I1
tp37
Rp38
(I3
S'<'
p39
NNNI-1
I-1
I0
tp40
bS'\x9b*\x83}\xda\x8f\x93\xc0'
p41
tp42
Rp43
sS'edge_list'
p44
(lp45
g19
ag25
ag6
ag15
ag11
ag17
ag26
ag21
ag13
ag28
ag9
ag23
asS'edge_to_blen'
p46
(dp47
g6
g34
(g38
S'/\xa9\x87S.\xb7\xb8?'
p48
tp49
Rp50
sg9
g34
(g38
S'\xda\xe7\x02\xfa;x\xab?'
p51
tp52
Rp53
sg11
g34
(g38
S'!\xec\xd15\x84P\x93>'
p54
tp55
Rp56
sg13
g34
(g38
S'P\xb3]\x99m\xae\x7f?'
p57
tp58
Rp59
sg21
g34
(g38
S'\xfc\xf2i\n\x1a\xf9\xb2?'
p60
tp61
Rp62
sg17
g34
(g38
S';\x9f\x15BE\x8b\xa8?'
p63
tp64
Rp65
sg19
g34
(g38
S'\xf9\x8a\x92aq\xba\xf7.'
p66
tp67
Rp68
sg15
g34
(g38
S'\x9c\xeb\\k\xc4\xa0\xc9?'
p69
tp70
Rp71
sg23
g34
(g38
S'n\xff\x860\xeb\xb3\x88?'
p72
tp73
Rp74
sg25
g34
(g38
S'\x80\xbf\xf8\xf5;\x1d\xcb?'
p75
tp76
Rp77
sg26
g34
(g38
S'F\x1bW\xb3~r!>'
p78
tp79
Rp80
sg28
g34
(g38
S'\xe3\xfe8`]C\xae?'
p81
tp82
Rp83
ssS'paralog'
p84
(lp85
S'YER074W'
p86
aS'YIL069C'
p87
asS'alignment_file'
p88
S'../MafftAlignment/YER074W_YIL069C/YER074W_YIL069C_input.fasta'
p89
sS'x_clock'
p90
NsS'x'
p91
cnumpy.core.multiarray
_reconstruct
p92
(cnumpy
ndarray
p93
(I0
tp94
S'b'
p95
tp96
Rp97
(I1
(I18
tp98
g38
I00
S'@\x8eM\xe2\x05\xd3\xe5\xbf\xb2\xa4\xba\xf4z0\xe0\xbf\xf6\xfb\n;m\x0c\xeb\xbf^aK\xa8\xc7\xa3\x01@\x9e5\x08\x90`\x08\x00\xc0\x86"\x8ap>\x16\x00@\x1b\xde\x86\xe2\x8a\x84g\xc0\xf3P\x08v\xe1\xd4\xf8\xbf\x9a_4\x8e\xb3\xb3\x02\xc0\xa2D=\xd5\xc7\xbb\xf9\xbf&F0k7\x1f.\xc0S\xc4\xa8\x87\x87M\x08\xc0\x0fBD\xc0\xc1\x034\xc00\x1c\xdf\x0e8\xd1\x04\xc0\xab\x0f,\x01\xbar\x13\xc0\xfb\xe8\x93\r\x8d\xa0\x06\xc0\x80}9q\xe5f\x07\xc0\x9b\xc4\x87\x18\xba\xab\x11\xc0'
p99
tp100
bsS'Model'
p101
S'MG94'
p102
sS'clock'
p103
I00
s.