(dp0
S'Force'
p1
NsS'ExpectedGeneconv'
p2
(dp3
(S'N1'
p4
S'N2'
p5
tp6
F33.59848201841428
s(S'N5'
p7
S'cerevisiae'
p8
tp9
F1.6485856396312364
s(g5
S'N3'
p10
tp11
F1.4095655978341584
s(S'N4'
p12
g7
tp13
F1.0550161601118817
s(g4
S'castellii'
p14
tp15
F27.878027727473313
s(g5
S'bayanus'
p16
tp17
F4.257251224846025
s(S'N0'
p18
g4
tp19
F15.78625048770728
s(g10
S'kudriavzevii'
p20
tp21
F2.003309263236141
s(g7
S'paradoxus'
p22
tp23
F1.4025974350121513
s(g18
S'kluyveri'
p24
tp25
F0.0
s(g10
g12
tp26
F1.213487993373873
s(g12
S'mikatae'
p27
tp28
F2.5268774016092683
ssS'ExpectedDwellTime'
p29
(dp30
g6
F514.0991285809157
sg9
F559.1318991966045
sg11
F539.4920434114928
sg13
F548.5197334675711
sg15
F497.1547173921016
sg17
F540.1995236119287
sg19
F328.98472228532825
sg21
F544.9817212669692
sg23
F555.2329201644092
sg25
F0.0
sg26
F542.9561565034194
sg28
F542.3564252998066
ssS'newicktree'
p31
S'../PairsAlignemt/YeastTree.newick'
p32
sS'll'
p33
cnumpy.core.multiarray
scalar
p34
(cnumpy
dtype
p35
(S'f8'
p36
I0
I1
tp37
Rp38
(I3
S'<'
p39
NNNI-1
I-1
I0
tp40
bS'"\x81XH\x00p\xc0\xc0'
p41
tp42
Rp43
sS'edge_list'
p44
(lp45
g19
ag25
ag6
ag15
ag11
ag17
ag26
ag21
ag13
ag28
ag9
ag23
asS'edge_to_blen'
p46
(dp47
g19
g34
(g38
S'\xf0\x90T\xe5\xfcy\xf2?'
p48
tp49
Rp50
sg9
g34
(g38
S'\x1f\xc8\x82\xc0`\xfa\xcc?'
p51
tp52
Rp53
sg11
g34
(g38
S'\xe1\xcc\xcdE\xf1L\xc0?'
p54
tp55
Rp56
sg13
g34
(g38
S'\xa3Q\x01\xbe\x10\x05\xbe?'
p57
tp58
Rp59
sg21
g34
(g38
S'\xd2`\xe2M\x0e;\xcd?'
p60
tp61
Rp62
sg17
g34
(g38
S'a@?\r6\xf9\xd6?'
p63
tp64
Rp65
sg6
g34
(g38
S';2[\xaei\x1a\x01@'
p66
tp67
Rp68
sg15
g34
(g38
S'\x05\x85\xc6\x9a\x13R\xfb?'
p69
tp70
Rp71
sg23
g34
(g38
S'e4\x82\xb3r\xe9\xbf?'
p72
tp73
Rp74
sg28
g34
(g38
S'\x1f\x16\n\x93E\xcb\xcf?'
p75
tp76
Rp77
sg26
g34
(g38
S'@\xbc\x1f\xfa\xe8\x1d\xc2?'
p78
tp79
Rp80
sg25
g34
(g38
S'}2\xca\x85\xe6\xa7\xf0?'
p81
tp82
Rp83
ssS'paralog'
p84
(lp85
S'YDR438W'
p86
aS'YML018C'
p87
asS'alignment_file'
p88
S'../MafftAlignment/YDR438W_YML018C/YDR438W_YML018C_input.fasta'
p89
sS'x_clock'
p90
NsS'x'
p91
cnumpy.core.multiarray
_reconstruct
p92
(cnumpy
ndarray
p93
(I0
tp94
S'b'
p95
tp96
Rp97
(I1
(I18
tp98
g38
I00
S'u\xb4\x91i\x00\xce\xe6\xbf\xc2\x89YT\x96\xa8\xe2\xbf\xd8\x94m 2w\xee\xbfx\x01{Q\x87\xb2\xf0?\x04y\x9c\xbf\xf9\xfa\x01\xc0$_)\xf5-?\x06\xc0`\x1bpD\xb3k\xc2?0\xb9\\\x99\x9d\x91\xa4?\x97\xdc\xfaqwP\xe8?\x91q,\xd7&\x1f\xe1?\xe7vw\xf8\x94|\x00\xc0h\xc5\xc6\xb5\x86d\xf0\xbf\xdf9e\xd2sH\xff\xbf\t\xb9\xe0\xc2\x04\xa1\xf7\xbf_9\xd2U\x85%\x01\xc0\x95$\xf7\x05\xb6H\xf6\xbfk\xd21C\x93\xc4\xf7\xbf\xa8\xb3\xe1\x8fW\xa8\x00\xc0'
p99
tp100
bsS'Model'
p101
S'MG94'
p102
sS'clock'
p103
I00
s.