(dp0
S'Force'
p1
NsS'ExpectedGeneconv'
p2
(dp3
(S'N1'
p4
S'N2'
p5
tp6
F14.572149097222544
s(S'N5'
p7
S'cerevisiae'
p8
tp9
F3.513530915914993
s(g5
S'N3'
p10
tp11
F3.09740435949085
s(S'N4'
p12
g7
tp13
F2.3442848841145225
s(g4
S'castellii'
p14
tp15
F11.923553858885414
s(g5
S'bayanus'
p16
tp17
F4.54503600062266
s(S'N0'
p18
g4
tp19
F5.340101950550062e-08
s(g10
S'kudriavzevii'
p20
tp21
F4.216191538700486
s(g7
S'paradoxus'
p22
tp23
F5.861267260860966
s(g18
S'kluyveri'
p24
tp25
F0.0
s(g10
g12
tp26
F3.154050219469216
s(g12
S'mikatae'
p27
tp28
F6.6958136493975005
ssS'ExpectedDwellTime'
p29
(dp30
g6
F43.149452863661104
sg9
F80.17848695135326
sg11
F74.97219187508202
sg13
F78.73373351146165
sg15
F46.851770012755644
sg17
F66.98331889227546
sg19
F0.003588231187403107
sg21
F93.66340468007473
sg23
F76.65172905397877
sg25
F0.0
sg26
F80.50679389278729
sg28
F82.83743599353924
ssS'newicktree'
p31
S'../PairsAlignemt/YeastTree.newick'
p32
sS'll'
p33
cnumpy.core.multiarray
scalar
p34
(cnumpy
dtype
p35
(S'f8'
p36
I0
I1
tp37
Rp38
(I3
S'<'
p39
NNNI-1
I-1
I0
tp40
bS'@xw\x98;\xb4\x9c\xc0'
p41
tp42
Rp43
sS'edge_list'
p44
(lp45
g19
ag25
ag6
ag15
ag11
ag17
ag26
ag21
ag13
ag28
ag9
ag23
asS'edge_to_blen'
p46
(dp47
g6
g34
(g38
S'\x10\xdc\xff\xb2\xb4\x15\xc7?'
p48
tp49
Rp50
sg9
g34
(g38
S'h\xe6:\xfc\x9d?\x9b?'
p51
tp52
Rp53
sg11
g34
(g38
S'\xa3\xfb\x0b\xbc7\x90\x9f?'
p54
tp55
Rp56
sg13
g34
(g38
S'mF\xe17\x87D\x82?'
p57
tp58
Rp59
sg15
g34
(g38
S'\x860M\xcc5\x10\xc7?'
p60
tp61
Rp62
sg17
g34
(g38
S"\x10m' \x1c\xd3\x9b?"
p63
tp64
Rp65
sg19
g34
(g38
S'\xc9\xd1L\xf1\xc2/\xe5>'
p66
tp67
Rp68
sg21
g34
(g38
S'tCK:\xb5\xfc\xab?'
p69
tp70
Rp71
sg23
g34
(g38
S'\x95\xf2\x02\xd1\xd2\x85\xa3?'
p72
tp73
Rp74
sg25
g34
(g38
S'a\x9ey\x0b@\xa6\xcc?'
p75
tp76
Rp77
sg26
g34
(g38
S'\x1b\xe7\xe3\xfa\x97W\x94?'
p78
tp79
Rp80
sg28
g34
(g38
S'e\x98c\xcc\x03\xc4\xa5?'
p81
tp82
Rp83
ssS'paralog'
p84
(lp85
S'YJL177W'
p86
aS'YKL180W'
p87
asS'alignment_file'
p88
S'../MafftAlignment/YJL177W_YKL180W/YJL177W_YKL180W_input.fasta'
p89
sS'x_clock'
p90
NsS'x'
p91
cnumpy.core.multiarray
_reconstruct
p92
(cnumpy
ndarray
p93
(I0
tp94
S'b'
p95
tp96
Rp97
(I1
(I18
tp98
g38
I00
S'\x04|\xdf(_\x01\xe7\xbf\xd4\xff-y>\x0b\xdd\xbf\x84\x10\xd6\xa0x\x0b\xea\xbfDL\x19+\xcd\x9a\xfd?\xe2)\xa0hE\xd0\x02\xc0r/h7\x92-\xe2?\xd6\xc2v\xf5d\x01\'\xc0\xca\xd0\x87\x87J\xf3\xf7\xbf\x08\xa5\xac\x14\xdcg\xfb\xbf;\xf0O\xa7\xabk\xfb\xbf\xd0q\xd5\x11\xf7\xd5\x0b\xc0?il^*\xd8\x0c\xc0w\x9a;G\xa7Y\x0f\xc0Q\x8e\x0b\xc0\xac@\x07\xc0\xdd\x96q\xb7\xc0\xe0\x12\xc0\x08_zL\x90C\t\xc0\xea\xe7\x83]\x04\x03\r\xc0W\xf96\xd2J"\n\xc0'
p99
tp100
bsS'Model'
p101
S'MG94'
p102
sS'clock'
p103
I00
s.