(dp0
S'Force'
p1
NsS'ExpectedGeneconv'
p2
(dp3
(S'N1'
p4
S'N2'
p5
tp6
F15.772258192310495
s(S'N5'
p7
S'cerevisiae'
p8
tp9
F10.006671174161902
s(g5
S'N3'
p10
tp11
F5.32700762498569
s(S'N4'
p12
g7
tp13
F0.7409528117311068
s(g4
S'castellii'
p14
tp15
F14.773744184613907
s(g5
S'bayanus'
p16
tp17
F8.397643680991605
s(S'N0'
p18
g4
tp19
F0.1803665384497433
s(g10
S'kudriavzevii'
p20
tp21
F6.498699935402007
s(g7
S'paradoxus'
p22
tp23
F3.078792702172613
s(g18
S'kluyveri'
p24
tp25
F0.0
s(g10
g12
tp26
F3.0472578597002413
s(g12
S'mikatae'
p27
tp28
F5.955067888063303
ssS'ExpectedDwellTime'
p29
(dp30
g6
F30.259476464455236
sg9
F53.30507007636818
sg11
F45.372638844880335
sg13
F57.38815594447457
sg15
F30.79842654550294
sg17
F35.77497835051591
sg19
F4.439342317941205
sg21
F54.84408421334378
sg23
F59.532373930058405
sg25
F0.0
sg26
F54.317942890142284
sg28
F67.70429719109868
ssS'newicktree'
p31
S'../PairsAlignemt/YeastTree.newick'
p32
sS'll'
p33
cnumpy.core.multiarray
scalar
p34
(cnumpy
dtype
p35
(S'f8'
p36
I0
I1
tp37
Rp38
(I3
S'<'
p39
NNNI-1
I-1
I0
tp40
bS'\x92Dj\x9a\xb7^\x95\xc0'
p41
tp42
Rp43
sS'edge_list'
p44
(lp45
g19
ag25
ag6
ag15
ag11
ag17
ag26
ag21
ag13
ag28
ag9
ag23
asS'edge_to_blen'
p46
(dp47
g19
g34
(g38
S'\xbf\xfcn\xad\xaf\xa4\x91?'
p48
tp49
Rp50
sg9
g34
(g38
S'\xe2\xfd&\x9b\xf4\xdc\xaa?'
p51
tp52
Rp53
sg11
g34
(g38
S'.\xba\t<\xee<\xaa?'
p54
tp55
Rp56
sg13
g34
(g38
S'b\xc2\x19\xe8\xaa\\q?'
p57
tp58
Rp59
sg15
g34
(g38
S'J\xd6Q\x87\xb0\xbe\xc4?'
p60
tp61
Rp62
sg17
g34
(g38
S'\x1c\x04\x9f\x9cg\xff\xa8?'
p63
tp64
Rp65
sg6
g34
(g38
S'o\xf6%\xb2\xde\x81\xc5?'
p66
tp67
Rp68
sg21
g34
(g38
S'o\xc6)\xb0\x98 \xab?'
p69
tp70
Rp71
sg23
g34
(g38
S'\x9c`oC\x14\xb0\x99?'
p72
tp73
Rp74
sg28
g34
(g38
S'\xadeQ3\xad\x97\xae?'
p75
tp76
Rp77
sg26
g34
(g38
S'\xabh\x1a\xfd\xf74\x9d?'
p78
tp79
Rp80
sg25
g34
(g38
S'>\xd7\xf9\xd8\xee\xa6\xcb?'
p81
tp82
Rp83
ssS'paralog'
p84
(lp85
S'YBL087C'
p86
aS'YER117W'
p87
asS'alignment_file'
p88
S'../MafftAlignment/YBL087C_YER117W/YBL087C_YER117W_input.fasta'
p89
sS'x_clock'
p90
NsS'x'
p91
cnumpy.core.multiarray
_reconstruct
p92
(cnumpy
ndarray
p93
(I0
tp94
S'b'
p95
tp96
Rp97
(I1
(I18
tp98
g38
I00
S'\xc9\x92c_\x04\xe6\xe6\xbf\xc32\xa7f;A\xe3\xbf\x16j\xa4\xa2\x0f\x95\xef\xbf\xcf\xceGF\xc5\x10\x01@\xe0\xbb\xd9\x14\xd1\x0e\x07\xc0<\x98"I\xe5\x87\xf0?\xc5\x96\xa5\x07\x95>\x10\xc0\xcem\'\xaak\x84\xf8\xbf\xfb\xc5\x19\xa2\xc7\x89\xfc\xbf\xc72E\xfb\x9d\x1d\xfd\xbfF~w3\xd8\xc4\x07\xc0Y>\xfe\x89\x05(\x08\xc0\xf38\xebI\xdft\x0c\xc0\x87\xaftU\x94\x80\x07\xc0U\x86\x1bZ\x9b\xda\x15\xc0\xff[l<b\x8a\x06\xc0\xbe\x8dy\xf9\x9f\x94\x07\xc0\x96\x92\xdf\xf9\xcf{\r\xc0'
p99
tp100
bsS'Model'
p101
S'MG94'
p102
sS'clock'
p103
I00
s.