(dp0
S'Force'
p1
NsS'ExpectedGeneconv'
p2
(dp3
(S'N1'
p4
S'N2'
p5
tp6
F17.906396563747002
s(S'N5'
p7
S'cerevisiae'
p8
tp9
F4.031483049907957
s(g5
S'N3'
p10
tp11
F6.6146115388751925
s(S'N4'
p12
g7
tp13
F12.854053455586124
s(g4
S'castellii'
p14
tp15
F40.863723116448035
s(g5
S'bayanus'
p16
tp17
F21.107158648467564
s(S'N0'
p18
g4
tp19
F3.071754066612671
s(g10
S'kudriavzevii'
p20
tp21
F14.584188617633886
s(g7
S'paradoxus'
p22
tp23
F5.492016870562426
s(g18
S'kluyveri'
p24
tp25
F0.0
s(g10
g12
tp26
F6.186856369845913
s(g12
S'mikatae'
p27
tp28
F6.445754750898378
ssS'ExpectedDwellTime'
p29
(dp30
g6
F46.81982758338698
sg9
F26.08598241064985
sg11
F56.67800486494701
sg13
F39.980535116276
sg15
F54.986219156855555
sg17
F55.55601888753479
sg19
F17.448076912911755
sg21
F74.91678687795516
sg23
F32.64155079770355
sg25
F0.0
sg26
F54.766931101324616
sg28
F56.918636643909856
ssS'newicktree'
p31
S'../PairsAlignemt/YeastTree.newick'
p32
sS'll'
p33
cnumpy.core.multiarray
scalar
p34
(cnumpy
dtype
p35
(S'f8'
p36
I0
I1
tp37
Rp38
(I3
S'<'
p39
NNNI-1
I-1
I0
tp40
bS"'\xf2@\x9c\xe9\x15\xa0\xc0"
p41
tp42
Rp43
sS'edge_list'
p44
(lp45
g19
ag25
ag6
ag15
ag11
ag17
ag26
ag21
ag13
ag28
ag9
ag23
asS'edge_to_blen'
p46
(dp47
g19
g34
(g38
S'M_Y\xc2~p\xaa?'
p48
tp49
Rp50
sg9
g34
(g38
S'\xd1\xa9\x15q\x1d\xe3\x85?'
p51
tp52
Rp53
sg11
g34
(g38
S'?\x12*\x12\x91\xba\x9a?'
p54
tp55
Rp56
sg13
g34
(g38
S'\x7f\x83\xfd\x8d\xb7:\x9f?'
p57
tp58
Rp59
sg15
g34
(g38
S'\x88\xfe\xf6\tp\x92\xc9?'
p60
tp61
Rp62
sg17
g34
(g38
S'\xfa\xa8\xc0\xad\xc1E\xb2?'
p63
tp64
Rp65
sg6
g34
(g38
S'Cv\xf3?\xbd\x1f\xb7?'
p66
tp67
Rp68
sg21
g34
(g38
S'\x05\xb8\xde\xf6dm\xb5?'
p69
tp70
Rp71
sg23
g34
(g38
S'\xa22W\xcca9\x9c?'
p72
tp73
Rp74
sg28
g34
(g38
S'\xa2V\xd9\xf4\xce\xab\x9e?'
p75
tp76
Rp77
sg26
g34
(g38
S'\x06\xc9.\x16[\xcc\x91?'
p78
tp79
Rp80
sg25
g34
(g38
S'\xa0\xfb\x04ZMj\xc7?'
p81
tp82
Rp83
ssS'paralog'
p84
(lp85
S'YER102W'
p86
aS'YBL072C'
p87
asS'alignment_file'
p88
S'../MafftAlignment/YER102W_YBL072C/YER102W_YBL072C_input.fasta'
p89
sS'x_clock'
p90
NsS'x'
p91
cnumpy.core.multiarray
_reconstruct
p92
(cnumpy
ndarray
p93
(I0
tp94
S'b'
p95
tp96
Rp97
(I1
(I18
tp98
g38
I00
S"T\xcbW\x81\xc4O\xe6\xbf\x98\x1c=\xe2\xc6\xf4\xe0\xbf\xb6%\x81\xad\x93U\xeb\xbf(-&\xb0\x18l\xff?\xc5#\x85n\xc9\xa0\xfa\xbfy\xaeoi6R\xf9?\xe6\x8aM\xb7.\xb5\x07\xc0\xd1pOV\xa4-\xfb\xbf\x90u\xaaj\x05<\x03\xc0\xf7| \x92\xbc\xc4\xf9\xbf\xff\x10F\x0cu*\r\xc0\x14\xee\xf5}E\x1e\x05\xc0>v\r\xb3\xa05\x10\xc0\xc5.\n\xf3\x15\xd8\x03\xc0\xc2s-`\xc0\xeb\x0b\xc0\xef\xf0\x04\xff\xb0\x10\x0c\xc0\xa2[\xb0\xcf\xa5'\x12\xc0\xea\x15\xe5F\xf8\xba\x0c\xc0"
p99
tp100
bsS'Model'
p101
S'MG94'
p102
sS'clock'
p103
I00
s.