(dp0
S'Force'
p1
NsS'ExpectedGeneconv'
p2
(dp3
(S'N1'
p4
S'N2'
p5
tp6
F16.318775193688417
s(S'N5'
p7
S'cerevisiae'
p8
tp9
F1.123642127933341
s(g5
S'N3'
p10
tp11
F1.2556179009276862
s(S'N4'
p12
g7
tp13
F0.8653610143606302
s(g4
S'castellii'
p14
tp15
F19.629008109195755
s(g5
S'bayanus'
p16
tp17
F1.208183153018212
s(S'N0'
p18
g4
tp19
F0.2117779677373666
s(g10
S'kudriavzevii'
p20
tp21
F2.3182982015972438
s(g7
S'paradoxus'
p22
tp23
F0.9486449865418503
s(g18
S'kluyveri'
p24
tp25
F0.0
s(g10
g12
tp26
F1.0529660466888717
s(g12
S'mikatae'
p27
tp28
F2.282532287013229
ssS'ExpectedDwellTime'
p29
(dp30
g6
F364.2271535641705
sg9
F441.89050491545015
sg11
F435.37708283092854
sg13
F435.77537223322673
sg15
F378.13205987996696
sg17
F440.483018180733
sg19
F60.87908795572868
sg21
F434.95985166226177
sg23
F433.50100005960104
sg25
F0.0
sg26
F435.3645648562059
sg28
F438.5434685294762
ssS'newicktree'
p31
S'../PairsAlignemt/YeastTree.newick'
p32
sS'll'
p33
cnumpy.core.multiarray
scalar
p34
(cnumpy
dtype
p35
(S'f8'
p36
I0
I1
tp37
Rp38
(I3
S'<'
p39
NNNI-1
I-1
I0
tp40
bS'(\xf8\x16mh\xa4\xbc\xc0'
p41
tp42
Rp43
sS'edge_list'
p44
(lp45
g19
ag25
ag6
ag15
ag11
ag17
ag26
ag21
ag13
ag28
ag9
ag23
asS'edge_to_blen'
p46
(dp47
g6
g34
(g38
S"\xde'\x03\x16l\x05\x04@"
p48
tp49
Rp50
sg9
g34
(g38
S'JX\xeb\x17\xd2\x82\xd1?'
p51
tp52
Rp53
sg11
g34
(g38
S'\xc9\xbc\xad\xfdt\xee\xca?'
p54
tp55
Rp56
sg13
g34
(g38
S'i\xc4xo\x86\xe0\xc2?'
p57
tp58
Rp59
sg21
g34
(g38
S'\xb2\x1f\xb1\xdbV"\xd5?'
p60
tp61
Rp62
sg17
g34
(g38
S'\x14\xa4\xff\x88K\x96\xd1?'
p63
tp64
Rp65
sg19
g34
(g38
S'/\x90ec\x94\xfe\xc0?'
p66
tp67
Rp68
sg15
g34
(g38
S'q\x07\x7f\x8aC\xd7\x08@'
p69
tp70
Rp71
sg23
g34
(g38
S'\xf9*h\xaa\x86\xb3\xc6?'
p72
tp73
Rp74
sg25
g34
(g38
S'cQ\x89\xfa4\xb5\t@'
p75
tp76
Rp77
sg26
g34
(g38
S'=\xc0z\x95\xb7v\xc8?'
p78
tp79
Rp80
sg28
g34
(g38
S'gG\xb4\xdbr\xd7\xda?'
p81
tp82
Rp83
ssS'paralog'
p84
(lp85
S'YLR284C'
p86
aS'YOR180C'
p87
asS'alignment_file'
p88
S'../MafftAlignment/YLR284C_YOR180C/YLR284C_YOR180C_input.fasta'
p89
sS'x_clock'
p90
NsS'x'
p91
cnumpy.core.multiarray
_reconstruct
p92
(cnumpy
ndarray
p93
(I0
tp94
S'b'
p95
tp96
Rp97
(I1
(I18
tp98
g38
I00
S"af\xf9\xa0\x0e\xf9\xe3\xbf\xc7w\xc4?f\xfa\xe2\xbf\x0b%\x89\xca\xd7/\xee\xbf\xc9-\xb3[\xca[\xec?EF\x8c\xa9}\xff\x02\xc0\xc8\xe2\xc7RtE\x0b\xc0\xfc\xa6\xe6\x9f4'\x00\xc0\xc2\xc0\x94\xdb{\xad\xf2?\x03\xfd\x0c\xb4\xecZ\xed?yK\xd8\xe5\xf7 \xf2?\x08\x95(\xc5\x93\xf0\xf8\xbf\x15(\x04v\xe0\xaa\xf4\xbf-6\xca\xb77z\xfa\xbfUd\x07UW\xba\xf1\xbf\xf2\xa37\xce\x15\xa0\xfe\xbf\xdbK\xcc\xe8F\xce\xeb\xbf\xde\x98Z\xd8\xa1\xbc\xf4\xbfX9\xf4\xbbz\xac\xfb\xbf"
p99
tp100
bsS'Model'
p101
S'MG94'
p102
sS'clock'
p103
I00
s.