(dp0
S'Force'
p1
NsS'ExpectedGeneconv'
p2
(dp3
(S'N1'
p4
S'N2'
p5
tp6
F12.09124539998758
s(S'N5'
p7
S'cerevisiae'
p8
tp9
F7.731906933279638
s(g5
S'N3'
p10
tp11
F0.000107594589378159
s(S'N4'
p12
g7
tp13
F1.3488555722047468
s(g4
S'castellii'
p14
tp15
F19.91174716405897
s(g5
S'bayanus'
p16
tp17
F10.909496721304556
s(S'N0'
p18
g4
tp19
F0.7851358510972184
s(g10
S'kudriavzevii'
p20
tp21
F14.092506683762812
s(g7
S'paradoxus'
p22
tp23
F3.184179079517869
s(g18
S'kluyveri'
p24
tp25
F0.0
s(g10
g12
tp26
F1.2135346228348737e-08
s(g12
S'mikatae'
p27
tp28
F12.58763198704831
ssS'ExpectedDwellTime'
p29
(dp30
g6
F34.857327597947524
sg9
F47.69408203486571
sg11
F50.199622708915804
sg13
F50.61319917691302
sg15
F32.228585888794356
sg17
F50.75603328597986
sg19
F8.35004730283034
sg21
F51.18709982449469
sg23
F51.28354157649858
sg25
F0.0
sg26
F50.19973981577681
sg28
F53.40870677364933
ssS'newicktree'
p31
S'../PairsAlignemt/YeastTree.newick'
p32
sS'll'
p33
cnumpy.core.multiarray
scalar
p34
(cnumpy
dtype
p35
(S'f8'
p36
I0
I1
tp37
Rp38
(I3
S'<'
p39
NNNI-1
I-1
I0
tp40
bS'\xde\x94pX\xfb\x84\x95\xc0'
p41
tp42
Rp43
sS'edge_list'
p44
(lp45
g19
ag25
ag6
ag15
ag11
ag17
ag26
ag21
ag13
ag28
ag9
ag23
asS'edge_to_blen'
p46
(dp47
g19
g34
(g38
S'\xf9X\x92\xc1\x16Q\xa0?'
p48
tp49
Rp50
sg9
g34
(g38
S'\x84\\}\x7f\x9c\x19\xa3?'
p51
tp52
Rp53
sg11
g34
(g38
S'v\xba\x89\x14\xa8D\xab>'
p54
tp55
Rp56
sg13
g34
(g38
S'P\x9d\xe6\xf3\x93<\x80?'
p57
tp58
Rp59
sg15
g34
(g38
S"\xfc\xeaJ\x15'\xe3\xc3?"
p60
tp61
Rp62
sg17
g34
(g38
S'\xf3f\xae\xc0\xadD\xad?'
p63
tp64
Rp65
sg6
g34
(g38
S'\x1f\xf6\x03Z\xdf\x9d\xbd?'
p66
tp67
Rp68
sg21
g34
(g38
S's\\\xb6\x92\xd3l\xb4?'
p69
tp70
Rp71
sg23
g34
(g38
S'\t\x944\x8aL\x19\x94?'
p72
tp73
Rp74
sg28
g34
(g38
S'\xa1loGt0\xb3?'
p75
tp76
Rp77
sg26
g34
(g38
S'\xc5\xb1y\xb3-;\xeb='
p78
tp79
Rp80
sg25
g34
(g38
S'\x13\xffg\x16\x00\xb4\xca?'
p81
tp82
Rp83
ssS'paralog'
p84
(lp85
S'YML026C'
p86
aS'YDR450W'
p87
asS'alignment_file'
p88
S'../MafftAlignment/YML026C_YDR450W/YML026C_YDR450W_input.fasta'
p89
sS'x_clock'
p90
NsS'x'
p91
cnumpy.core.multiarray
_reconstruct
p92
(cnumpy
ndarray
p93
(I0
tp94
S'b'
p95
tp96
Rp97
(I1
(I18
tp98
g38
I00
S'OnS\x93\xd0\x18\xe6\xbf&\x8eWx#\xaa\xe0\xbfU\xb0#\xdd \xbc\xeb\xbf\xcd\t\xd9\xa4\xa2N\xfb?\xbb\xc1d8\x1e\xdc\x04\xc0N\xdcB\xde\xf3\xb0\xf4?\x97&\x83\xc5\xad\x91\x0b\xc0*\x1a\xd7Tt\x13\xf9\xbf\xe8\x16\xbd\x055A\x01\xc0$\x99A)\x8a\xca\xfd\xbf\xe1pB>\xc1\x0b,\xc0\x9b\xdaX\x1a\x02\xe5\x06\xc0\x1f\x87\xa0\xc9\x92W6\xc0\xb3\x93\xebu0:\x04\xc0}\xe0\xee\x05rY\x13\xc0a{\x0b\xf5\x02\xba\x04\xc0bURT\x1fO\n\xc0I\x16n\xc5Lr\x0f\xc0'
p99
tp100
bsS'Model'
p101
S'MG94'
p102
sS'clock'
p103
I00
s.