(dp0
S'Force'
p1
NsS'ExpectedGeneconv'
p2
(dp3
(S'N1'
p4
S'N2'
p5
tp6
F243.97609268042086
s(S'N5'
p7
S'cerevisiae'
p8
tp9
F11.519940672636261
s(g5
S'N3'
p10
tp11
F13.82630624769921
s(S'N4'
p12
g7
tp13
F6.786561609369888
s(g4
S'castellii'
p14
tp15
F266.1908149066496
s(g5
S'bayanus'
p16
tp17
F18.420866651599507
s(S'N0'
p18
g4
tp19
F36.40757357418498
s(g10
S'kudriavzevii'
p20
tp21
F15.198041693779516
s(g7
S'paradoxus'
p22
tp23
F8.170746419534508
s(g18
S'kluyveri'
p24
tp25
F0.0
s(g10
g12
tp26
F5.9597329956630345
s(g12
S'mikatae'
p27
tp28
F17.639008741637788
ssS'ExpectedDwellTime'
p29
(dp30
g6
F1200.5775267713937
sg9
F1315.0332691445524
sg11
F1302.329172541859
sg13
F1314.4590505117867
sg15
F1223.9094865125746
sg17
F1303.959449016413
sg19
F584.4884158826679
sg21
F1308.7753427961613
sg23
F1325.3696441315783
sg25
F0.0
sg26
F1307.0783059682917
sg28
F1327.4336525985539
ssS'newicktree'
p31
S'../PairsAlignemt/YeastTree.newick'
p32
sS'll'
p33
cnumpy.core.multiarray
scalar
p34
(cnumpy
dtype
p35
(S'f8'
p36
I0
I1
tp37
Rp38
(I3
S'<'
p39
NNNI-1
I-1
I0
tp40
bS'CD\x93\xd2\xa39\xd5\xc0'
p41
tp42
Rp43
sS'edge_list'
p44
(lp45
g19
ag25
ag6
ag15
ag11
ag17
ag26
ag21
ag13
ag28
ag9
ag23
asS'edge_to_blen'
p46
(dp47
g6
g34
(g38
S'\x1ex\xd2\xa5Y\x1c\x07@'
p48
tp49
Rp50
sg9
g34
(g38
S'\xc27\xd8\x1a,\xea\xc8?'
p51
tp52
Rp53
sg11
g34
(g38
S'c|E^\xa8\x89\xc9?'
p54
tp55
Rp56
sg13
g34
(g38
S'5a\xe2\x85\nH\xc0?'
p57
tp58
Rp59
sg15
g34
(g38
S'*\xa0\xf5\x97Z\xed\n@'
p60
tp61
Rp62
sg17
g34
(g38
S'\x94\xf5\x16\xe7\xb7\xa7\xd1?'
p63
tp64
Rp65
sg19
g34
(g38
S'e\xd5\x0c\xbc\x9c>\xe3?'
p66
tp67
Rp68
sg21
g34
(g38
S'\x94\xa7\xfa\x12\xd2\xa9\xd0?'
p69
tp70
Rp71
sg23
g34
(g38
S'!S\xf6\x87\xa3B\xc2?'
p72
tp73
Rp74
sg25
g34
(g38
S'\x94\x1c\xba\xd2v$\x07@'
p75
tp76
Rp77
sg26
g34
(g38
S'\xf3FndV\xaa\xbc?'
p78
tp79
Rp80
sg28
g34
(g38
S'dD\xda\x06\xfc}\xd4?'
p81
tp82
Rp83
ssS'paralog'
p84
(lp85
S'YIR033W'
p86
aS'YKL020C'
p87
asS'alignment_file'
p88
S'../MafftAlignment/YIR033W_YKL020C/YIR033W_YKL020C_input.fasta'
p89
sS'x_clock'
p90
NsS'x'
p91
cnumpy.core.multiarray
_reconstruct
p92
(cnumpy
ndarray
p93
(I0
tp94
S'b'
p95
tp96
Rp97
(I1
(I18
tp98
g38
I00
S'\xcbym\xea\xaf\x12\xe5\xbf\x92\xca\x85\x81\xf4\xa0\xdd\xbf\xdc\x1c&\xb5\x807\xee\xbf\xc3ab\x96vE\xef?\xbf\x8a\xa8\xdc\x07\xb0\x03\xc0\x0cf\x1b\xd1\xf2i\xff\xbf\xb1q\xf4e\xafE\xe0\xbf,d\xf3@\xe1\xfe\xf0?\x16\xca\xe7+D\xf9\xf0?Z\x03\xa1oJk\xf3?\xd5M\x8a\xd8;\xca\xf9\xbf\x1c\xe5\xb7o\x0e\x9b\xf4\xbf\xe9\x99Q\xea\x11\x84\x01\xc0okR\xfb\xdd\x87\xf5\xbf\xb6q\xb9#\xfd~\x00\xc0\x06\xbb\x13\xbb\xb28\xf2\xbfR\x97\x17\xead/\xfa\xbf\x83/\x93\x9a$(\xff\xbf'
p99
tp100
bsS'Model'
p101
S'MG94'
p102
sS'clock'
p103
I00
s.