(dp0
S'Force'
p1
NsS'ExpectedGeneconv'
p2
(dp3
(S'N1'
p4
S'N2'
p5
tp6
F17.86901633871994
s(S'N5'
p7
S'cerevisiae'
p8
tp9
F5.34807735926693
s(g5
S'N3'
p10
tp11
F2.455723282458982
s(S'N4'
p12
g7
tp13
F0.4419612235783889
s(g4
S'castellii'
p14
tp15
F9.682790527977014
s(g5
S'bayanus'
p16
tp17
F8.530520852743726
s(S'N0'
p18
g4
tp19
F0.0008590120164423795
s(g10
S'kudriavzevii'
p20
tp21
F8.99730461824854
s(g7
S'paradoxus'
p22
tp23
F6.655591523568162
s(g18
S'kluyveri'
p24
tp25
F0.0
s(g10
g12
tp26
F1.3444134336153184
s(g12
S'mikatae'
p27
tp28
F7.738500548029958
ssS'ExpectedDwellTime'
p29
(dp30
g6
F27.087188566016916
sg9
F51.63006436746945
sg11
F43.86087232646237
sg13
F50.95821350602965
sg15
F25.828129505391544
sg17
F35.76825164102945
sg19
F0.28688424267263624
sg21
F57.57187749652886
sg23
F48.05809987227261
sg25
F0.0
sg26
F50.05686241458895
sg28
F54.46862493253237
ssS'newicktree'
p31
S'../PairsAlignemt/YeastTree.newick'
p32
sS'll'
p33
cnumpy.core.multiarray
scalar
p34
(cnumpy
dtype
p35
(S'f8'
p36
I0
I1
tp37
Rp38
(I3
S'<'
p39
NNNI-1
I-1
I0
tp40
bS'@\x94\x12\xab\x01\xe7\x92\xc0'
p41
tp42
Rp43
sS'edge_list'
p44
(lp45
g19
ag25
ag6
ag15
ag11
ag17
ag26
ag21
ag13
ag28
ag9
ag23
asS'edge_to_blen'
p46
(dp47
g6
g34
(g38
S'\x12\xe4\xda\xf7,\x89\xc6?'
p48
tp49
Rp50
sg9
g34
(g38
S'\xda\xa6\x10VW\xf2\x9d?'
p51
tp52
Rp53
sg11
g34
(g38
S'\x9f\xaf3\xe5\x10l\x9d?'
p54
tp55
Rp56
sg13
g34
(g38
S'\xca \xea\x0b\x00\xedo?'
p57
tp58
Rp59
sg21
g34
(g38
S'\x08\r\xed`P\x86\xb3?'
p60
tp61
Rp62
sg17
g34
(g38
S'\xca\xe9p\xb1\x85\x92\xa9?'
p63
tp64
Rp65
sg19
g34
(g38
S'\xd0}\xf3|\x95\x94P?'
p66
tp67
Rp68
sg15
g34
(g38
S'd\xacP\xf2\x9a\xc0\xc0?'
p69
tp70
Rp71
sg23
g34
(g38
S'[\x88\xb9\x1d\xe9\x13\xa1?'
p72
tp73
Rp74
sg25
g34
(g38
S'\xd0\x92\xf7,\xef\x01\xb2?'
p75
tp76
Rp77
sg26
g34
(g38
S'\xfd\xe3kX\xf9P\x81?'
p78
tp79
Rp80
sg28
g34
(g38
S'\xd8\xaa\xec\xaf\xa1\x9f\xab?'
p81
tp82
Rp83
ssS'paralog'
p84
(lp85
S'YMR143W'
p86
aS'YDL083C'
p87
asS'alignment_file'
p88
S'../MafftAlignment/YMR143W_YDL083C/YMR143W_YDL083C_input.fasta'
p89
sS'x_clock'
p90
NsS'x'
p91
cnumpy.core.multiarray
_reconstruct
p92
(cnumpy
ndarray
p93
(I0
tp94
S'b'
p95
tp96
Rp97
(I1
(I18
tp98
g38
I00
S'j\xbb{\xa6_\xf4\xe6\xbf\xa7%p\x0bM$\xdf\xbf3`S\xe3\xeb\x83\xee\xbffVN\xf2\xa6z\x03@r\xb5\xb8#\x18\xb8\r\xc08\xa8d\xc6Zm\xf2?\xb5\x7fG\xcaV\x95\x1b\xc0\xfe\xed^\xbb.<\x05\xc0S\xb4A\x02p\xca\xfb\xbf\x9a\x10\x9e\xdb\x96D\x00\xc0y}\x94\x02\xd6e\x0c\xc0}\xecT\x02y\xf9\x07\xc0\xb7,v\x91\x85\x17\x13\xc0\x9dO<\x9f\x86\x96\x04\xc0z\xa5C\xb2\xa30\x16\xc0^R\xe4_t[\x07\xc0\xa8\x1a\x80\xca\xa5A\x0c\xc0\x88\xec\x88\xcfQ4\x0b\xc0'
p99
tp100
bsS'Model'
p101
S'MG94'
p102
sS'clock'
p103
I00
s.