(dp0
S'Force'
p1
NsS'ExpectedGeneconv'
p2
(dp3
(S'N1'
p4
S'N2'
p5
tp6
F16.250950532279088
s(S'N5'
p7
S'cerevisiae'
p8
tp9
F8.78901702483423
s(g5
S'N3'
p10
tp11
F3.292542108500842
s(S'N4'
p12
g7
tp13
F3.943912880095393
s(g4
S'castellii'
p14
tp15
F9.412004597101301
s(g5
S'bayanus'
p16
tp17
F2.968200305999423
s(S'N0'
p18
g4
tp19
F0.1401632627261283
s(g10
S'kudriavzevii'
p20
tp21
F9.129541306810946
s(g7
S'paradoxus'
p22
tp23
F2.3164838951065634
s(g18
S'kluyveri'
p24
tp25
F0.0
s(g10
g12
tp26
F3.5934772903318257
s(g12
S'mikatae'
p27
tp28
F5.655170803058648
ssS'ExpectedDwellTime'
p29
(dp30
g6
F53.49718869173203
sg9
F80.83153946763032
sg11
F80.75000810309231
sg13
F84.02303730363406
sg15
F51.418617682168204
sg17
F81.74654813023056
sg19
F6.364886282885333
sg21
F88.12925848399652
sg23
F84.2791300016985
sg25
F0.0
sg26
F82.70347913274735
sg28
F87.79185101392203
ssS'newicktree'
p31
S'../PairsAlignemt/YeastTree.newick'
p32
sS'll'
p33
cnumpy.core.multiarray
scalar
p34
(cnumpy
dtype
p35
(S'f8'
p36
I0
I1
tp37
Rp38
(I3
S'<'
p39
NNNI-1
I-1
I0
tp40
bS'-\xf2\xdd\x82\xb4,\x9b\xc0'
p41
tp42
Rp43
sS'edge_list'
p44
(lp45
g19
ag25
ag6
ag15
ag11
ag17
ag26
ag21
ag13
ag28
ag9
ag23
asS'edge_to_blen'
p46
(dp47
g6
g34
(g38
S'\x8b\xb6R\x1e\xbf\xc8\xca?'
p48
tp49
Rp50
sg9
g34
(g38
S'\xb1t\x9df2\xc5\xad?'
p51
tp52
Rp53
sg11
g34
(g38
S'9\x05\xce`\rT\x9a?'
p54
tp55
Rp56
sg13
g34
(g38
S'\xc1x\xfcj\xf0\x8b\x99?'
p57
tp58
Rp59
sg21
g34
(g38
S'>M\x00;\x14\xda\xb5?'
p60
tp61
Rp62
sg17
g34
(g38
S'D\x16=\x8f\x03?\x9b?'
p63
tp64
Rp65
sg19
g34
(g38
S'\xdfg\xee\x95\x8d2\x94?'
p66
tp67
Rp68
sg15
g34
(g38
S'k\x0f\xff\xd3\xc3\xf9\xc5?'
p69
tp70
Rp71
sg23
g34
(g38
S'^\x1c\x16\x88fg\x96?'
p72
tp73
Rp74
sg28
g34
(g38
S'\x1bP~a\xe6\x02\xad?'
p75
tp76
Rp77
sg26
g34
(g38
S'\rP\xfb\x95\x80p\xa0?'
p78
tp79
Rp80
sg25
g34
(g38
S'\x12p\x8fFy\x9b\xcb?'
p81
tp82
Rp83
ssS'paralog'
p84
(lp85
S'YDR418W'
p86
aS'YEL054C'
p87
asS'alignment_file'
p88
S'../MafftAlignment/YDR418W_YEL054C/YDR418W_YEL054C_input.fasta'
p89
sS'x_clock'
p90
NsS'x'
p91
cnumpy.core.multiarray
_reconstruct
p92
(cnumpy
ndarray
p93
(I0
tp94
S'b'
p95
tp96
Rp97
(I1
(I18
tp98
g38
I00
S"\xff;\xbc\x96\x05\x1f\xe7\xbf\x00\xee\x01\x1d])\xdf\xbf\x8fW`\xbb \xbd\xec\xbf\xc7\xf6\x98\xc2\xac\x07\x01@\xa3\x8d\x13\xf5\xc0\x98\x04\xc0\xa9\xa8\x06~}\xf6\xd5?k&=\xc3Eh\x0f\xc00\x00Wu\x0e\x8b\xf8\xbfm\xa0\x03\xe2\n\x07\xf9\xbfAe\xbe\x0c\x8b1\xfc\xbf\x80\x10\x9dK_I\r\xc0\xd4\x84\xab\xb41\x03\r\xc0`\xf2r\xaaU\x82\x0b\xc0\x15'\xe9\x8f\xe7\xaf\x03\xc0l*\xc3=\x19\x87\r\xc0vX\xaf0\x11\xf7\x06\xc0Cd\x1a\x82-\xc2\x06\xc0>\x1c\xa1\xab\xf0\x93\x0e\xc0"
p99
tp100
bsS'Model'
p101
S'MG94'
p102
sS'clock'
p103
I00
s.