(dp0
S'Force'
p1
NsS'ExpectedGeneconv'
p2
(dp3
(S'N1'
p4
S'N2'
p5
tp6
F66.02266304141074
s(S'N5'
p7
S'cerevisiae'
p8
tp9
F5.242278243507648
s(g5
S'N3'
p10
tp11
F5.935776475654629
s(S'N4'
p12
g7
tp13
F2.835290622955553
s(g4
S'castellii'
p14
tp15
F87.47622194577167
s(g5
S'bayanus'
p16
tp17
F8.436134939593762
s(S'N0'
p18
g4
tp19
F3.7895290221505755
s(g10
S'kudriavzevii'
p20
tp21
F6.906556844944074
s(g7
S'paradoxus'
p22
tp23
F9.102955433598568
s(g18
S'kluyveri'
p24
tp25
F0.0
s(g10
g12
tp26
F2.056328646969019
s(g12
S'mikatae'
p27
tp28
F5.978386400541312
ssS'ExpectedDwellTime'
p29
(dp30
g6
F912.9262190700147
sg9
F1073.847961800618
sg11
F1058.328601781499
sg13
F1074.8269976999723
sg15
F940.4002599370635
sg17
F1058.4330257420752
sg19
F276.6524087920271
sg21
F1073.9641025197527
sg23
F1097.2857536353315
sg25
F0.0
sg26
F1067.5252507514044
sg28
F1079.0215044463396
ssS'newicktree'
p31
S'../PairsAlignemt/YeastTree.newick'
p32
sS'll'
p33
cnumpy.core.multiarray
scalar
p34
(cnumpy
dtype
p35
(S'f8'
p36
I0
I1
tp37
Rp38
(I3
S'<'
p39
NNNI-1
I-1
I0
tp40
bS'\x14\xb5\x04\xb0\x1e\x17\xd2\xc0'
p41
tp42
Rp43
sS'edge_list'
p44
(lp45
g19
ag25
ag6
ag15
ag11
ag17
ag26
ag21
ag13
ag28
ag9
ag23
asS'edge_to_blen'
p46
(dp47
g19
g34
(g38
S'y\xcd\x88\xa3\xc5n\xd1?'
p48
tp49
Rp50
sg9
g34
(g38
S'\xe8\xbd\xc70\x9bn\xc8?'
p51
tp52
Rp53
sg11
g34
(g38
S'6q\xfb\xb4T\xf7\xcc?'
p54
tp55
Rp56
sg13
g34
(g38
S'+\x9f\x7ft\x08\xfd\xbe?'
p57
tp58
Rp59
sg15
g34
(g38
S'_\x14Y\xfc\x15\x8e\x06@'
p60
tp61
Rp62
sg17
g34
(g38
S'\x8a\xab\xfb\xfb\x8cr\xd5?'
p63
tp64
Rp65
sg6
g34
(g38
S'Cp\xf8\xb5\xe8!\x01@'
p66
tp67
Rp68
sg21
g34
(g38
S'#\xc55\x8fm\xbb\xd5?'
p69
tp70
Rp71
sg23
g34
(g38
S'\xea\xbe\x0e\xc2\xac\x0e\xd6?'
p72
tp73
Rp74
sg28
g34
(g38
S'=\x97SS\x08\x15\xd2?'
p75
tp76
Rp77
sg26
g34
(g38
S"'\riGV\x87\xbb?"
p78
tp79
Rp80
sg25
g34
(g38
S'\x06\x0b,[<\x12\r@'
p81
tp82
Rp83
ssS'paralog'
p84
(lp85
S'YAL056W'
p86
aS'YOR371C'
p87
asS'alignment_file'
p88
S'../MafftAlignment/YAL056W_YOR371C/YAL056W_YOR371C_input.fasta'
p89
sS'x_clock'
p90
NsS'x'
p91
cnumpy.core.multiarray
_reconstruct
p92
(cnumpy
ndarray
p93
(I0
tp94
S'b'
p95
tp96
Rp97
(I1
(I18
tp98
g38
I00
S'\xdd\t\xcc\xfdu\r\xe4\xbf<I\xb7g\xd8\xb0\xdd\xbf\t\xe1"t\xe2\x00\xf0\xbf\xf4\x8eK\x83\xa5{\xed?\xab\xbf\xd1\xf7f\xd3\x00\xc0V\x90\xfb\x92\xedg\x05\xc0\xb2\xc3\xc3\xf0\xfd\xce\xf4\xbf\n*\xb8\x95\x19\xa5\xf4?\x02Y\x0e\xe0z^\xe8?;U\xa3\x0f\x92\x95\xf0?\xc6M\xfa\x0bB\xc6\xf7\xbf\xd04~\xb1\x0f~\xf1\xbf\xa1\xed\x85\xea\xef\xd6\x01\xc0\x8e\xac\xb1G\rH\xf1\xbfl\x01\xbd\xc1{\xe4\x00\xc0\xbb\x1f\xa1Z+9\xf4\xbf\xf9\x1e\xb9\x9e\x86\x7f\xfa\xbf`\x86\x10l7\x0b\xf1\xbf'
p99
tp100
bsS'Model'
p101
S'MG94'
p102
sS'clock'
p103
I00
s.