(dp0
S'Force'
p1
NsS'ExpectedGeneconv'
p2
(dp3
(S'N1'
p4
S'N2'
p5
tp6
F19.74118552041974
s(S'N5'
p7
S'cerevisiae'
p8
tp9
F4.014332040596568
s(g5
S'N3'
p10
tp11
F4.367789147329595
s(S'N4'
p12
g7
tp13
F2.6275429030583033
s(g4
S'castellii'
p14
tp15
F25.704155964436033
s(g5
S'bayanus'
p16
tp17
F12.20630211017536
s(S'N0'
p18
g4
tp19
F4.49719549944765
s(g10
S'kudriavzevii'
p20
tp21
F8.36565058473581
s(g7
S'paradoxus'
p22
tp23
F1.1412502746333928
s(g18
S'kluyveri'
p24
tp25
F0.0
s(g10
g12
tp26
F1.0411380655118803
s(g12
S'mikatae'
p27
tp28
F5.953330885984204
ssS'ExpectedDwellTime'
p29
(dp30
g6
F98.01203949577315
sg9
F133.2435969642259
sg11
F119.33899629739214
sg13
F122.39334462919392
sg15
F94.89788715536886
sg17
F123.89227770594601
sg19
F39.36752576734809
sg21
F129.90877933088706
sg23
F125.55498417854649
sg25
F0.0
sg26
F119.89776041717617
sg28
F130.186676349961
ssS'newicktree'
p31
S'../PairsAlignemt/YeastTree.newick'
p32
sS'll'
p33
cnumpy.core.multiarray
scalar
p34
(cnumpy
dtype
p35
(S'f8'
p36
I0
I1
tp37
Rp38
(I3
S'<'
p39
NNNI-1
I-1
I0
tp40
bS'*\x1b\xf1n\xa8%\xa2\xc0'
p41
tp42
Rp43
sS'edge_list'
p44
(lp45
g19
ag25
ag6
ag15
ag11
ag17
ag26
ag21
ag13
ag28
ag9
ag23
asS'edge_to_blen'
p46
(dp47
g6
g34
(g38
S'\x00d\x175\xb8\xea\xc6?'
p48
tp49
Rp50
sg9
g34
(g38
S'~\x1e\x14\xb2\x17\x96\xa4?'
p51
tp52
Rp53
sg11
g34
(g38
S'\xda\xb9\x16\x9bB\xbb\x99?'
p54
tp55
Rp56
sg13
g34
(g38
S'\xd5e\xed}\x19\xe3\x95?'
p57
tp58
Rp59
sg21
g34
(g38
S'A\xc3@G\x9c\xdf\xb4?'
p60
tp61
Rp62
sg17
g34
(g38
S'\xa4\xa4\xafM\xe2\xef\xb3?'
p63
tp64
Rp65
sg19
g34
(g38
S'\xb2\xb8]\xab\xe3\xbe\xbd?'
p66
tp67
Rp68
sg15
g34
(g38
S'\xb2\r\xf7uT6\xc9?'
p69
tp70
Rp71
sg23
g34
(g38
S'"vp\'\xd6\x0c\x85?'
p72
tp73
Rp74
sg28
g34
(g38
S'<"\x19\xf4\x98\xd7\xb0?'
p75
tp76
Rp77
sg26
g34
(g38
S'\xeb\x93\xa0\xd1\x00,w?'
p78
tp79
Rp80
sg25
g34
(g38
S'\x98o\xf9\x0c\x10\xcd\xc0?'
p81
tp82
Rp83
ssS'paralog'
p84
(lp85
S'YNL069C'
p86
aS'YIL133C'
p87
asS'alignment_file'
p88
S'../MafftAlignment/YNL069C_YIL133C/YNL069C_YIL133C_input.fasta'
p89
sS'x_clock'
p90
NsS'x'
p91
cnumpy.core.multiarray
_reconstruct
p92
(cnumpy
ndarray
p93
(I0
tp94
S'b'
p95
tp96
Rp97
(I1
(I18
tp98
g38
I00
S'\xcb\x18\xcb\xad\xf26\xe7\xbf>z\xaf\xf8w9\xe1\xbf\xd9#\xa4\xfb\xea\xef\xed\xbf\xf9_\xa8\xf5J\x14\xfb?\xceJ{c\xe1\x1c\xfc\xbfT|\xc4\x1a4e\xd8?ZR5\xdbN8\x01\xc0\x87UR \xa6>\x00\xc0\xc9q\n#\xc3\x85\xfb\xbf\xee\n8\xb4\xc6\xfe\xf9\xbfA\x8c\x04OUx\r\xc0j\xa7\x1fd\xb8k\x04\xc0\xa2\x87\x00\xaf\x05\xb3\x14\xc01\x89\x98\xb7\xb7\r\x04\xc0 \x189Q\xbc\xc3\x0e\xc0J7\xccH4\xc5\x05\xc0\xd8\x92\r\xc0\xa7\xb5\t\xc0%\xfa>\xa4\x93O\x12\xc0'
p99
tp100
bsS'Model'
p101
S'MG94'
p102
sS'clock'
p103
I00
s.