(dp0
S'Force'
p1
NsS'ExpectedGeneconv'
p2
(dp3
(S'N1'
p4
S'N2'
p5
tp6
F25.73962825121432
s(S'N5'
p7
S'cerevisiae'
p8
tp9
F8.41746312757765
s(g5
S'N3'
p10
tp11
F6.9932555845875575
s(S'N4'
p12
g7
tp13
F4.5799008569356205
s(g4
S'castellii'
p14
tp15
F24.67133161380552
s(g5
S'bayanus'
p16
tp17
F11.443072571032426
s(S'N0'
p18
g4
tp19
F0.9132626702916455
s(g10
S'kudriavzevii'
p20
tp21
F9.215530704026632
s(g7
S'paradoxus'
p22
tp23
F5.285507665905373
s(g18
S'kluyveri'
p24
tp25
F0.0
s(g10
g12
tp26
F6.732432125607213
s(g12
S'mikatae'
p27
tp28
F11.111792568056385
ssS'ExpectedDwellTime'
p29
(dp30
g6
F261.9627685564162
sg9
F377.82821070396864
sg11
F351.84495909940836
sg13
F375.5139674073195
sg15
F251.71907376863206
sg17
F364.0445715024927
sg19
F58.11987772319383
sg21
F379.3000944268485
sg23
F390.23127578197017
sg25
F0.0
sg26
F362.4533213174991
sg28
F383.2975316836443
ssS'newicktree'
p31
S'../PairsAlignemt/YeastTree.newick'
p32
sS'll'
p33
cnumpy.core.multiarray
scalar
p34
(cnumpy
dtype
p35
(S'f8'
p36
I0
I1
tp37
Rp38
(I3
S'<'
p39
NNNI-1
I-1
I0
tp40
bS'z`$\xcdL\xa2\xb6\xc0'
p41
tp42
Rp43
sS'edge_list'
p44
(lp45
g19
ag25
ag6
ag15
ag11
ag17
ag26
ag21
ag13
ag28
ag9
ag23
asS'edge_to_blen'
p46
(dp47
g6
g34
(g38
S'\x08x\xcaB\x99m\xe3?'
p48
tp49
Rp50
sg9
g34
(g38
S'<i\x14 \x88\x9c\xc0?'
p51
tp52
Rp53
sg11
g34
(g38
S'\xea-\x8c\xd9\x90\x1d\xc1?'
p54
tp55
Rp56
sg13
g34
(g38
S')\x11\xb5\xfaP\xb0\xbb?'
p57
tp58
Rp59
sg15
g34
(g38
S'\x85a\xdda\xcf\xc7\xe1?'
p60
tp61
Rp62
sg17
g34
(g38
S'\x92\x19=\x8c6x\xcf?'
p63
tp64
Rp65
sg19
g34
(g38
S'\x17\x15\xf5\xaev\x00\xba?'
p66
tp67
Rp68
sg21
g34
(g38
S'\xd5\xed\x9b1)#\xcd?'
p69
tp70
Rp71
sg23
g34
(g38
S'\x10g\xed{}\xfc\xbc?'
p72
tp73
Rp74
sg25
g34
(g38
S'\xb3\x92$\x0f\xeb\xb3\xe1?'
p75
tp76
Rp77
sg26
g34
(g38
S'\xe2TN>\xb5\x9b\xc1?'
p78
tp79
Rp80
sg28
g34
(g38
S']\xce\xf8\x00\xba{\xcd?'
p81
tp82
Rp83
ssS'paralog'
p84
(lp85
S'YHR106W'
p86
aS'YDR353W'
p87
asS'alignment_file'
p88
S'../MafftAlignment/YHR106W_YDR353W/YHR106W_YDR353W_input.fasta'
p89
sS'x_clock'
p90
NsS'x'
p91
cnumpy.core.multiarray
_reconstruct
p92
(cnumpy
ndarray
p93
(I0
tp94
S'b'
p95
tp96
Rp97
(I1
(I18
tp98
g38
I00
S"\xbb.|\xac\x83\x03\xe6\xbf\xec\xad;t}\xb8\xe1\xbf\xfbp*P\xd5\xda\xeb\xbf\xc9s\xfa\xb1e\xe0\xf4?\x86(~~ag\x06\xc0\xff\x9e\x153d>\xfb\xbf5\x83\xbd\x8e\xccK\x02\xc0q\\M\xc6\xc4\xf1\xe2\xbf\xb0\x93~#\xda\xef\xdf\xbf\xf3=\x9f\xea\xe3\xcd\xe2\xbf\x0b]\xc7\xb7\xab\x18\x00\xc0+\x03\xaaa\xb9r\xf6\xbfw\xb3\x86\x0e\x16\xbd\xff\xbf'\x16\xecp\x1e\xae\xf7\xbf\xfe\xcb5\x15\x10\xcb\x01\xc0\xbe\xfca\x9a\xc5}\xf7\xbf\xe9\xaee\x8c\xe3U\x00\xc0]\xb2\xf7\x1eEm\x01\xc0"
p99
tp100
bsS'Model'
p101
S'MG94'
p102
sS'clock'
p103
I00
s.