(dp0
S'Force'
p1
NsS'ExpectedGeneconv'
p2
(dp3
(S'N1'
p4
S'N2'
p5
tp6
F73.50723717609567
s(S'N5'
p7
S'cerevisiae'
p8
tp9
F7.405955261227136
s(g5
S'N3'
p10
tp11
F2.134551177157537
s(S'N4'
p12
g7
tp13
F2.6795133965344884
s(g4
S'castellii'
p14
tp15
F89.72751571267395
s(g5
S'bayanus'
p16
tp17
F8.333479569388107
s(S'N0'
p18
g4
tp19
F7.751011866070445
s(g10
S'kudriavzevii'
p20
tp21
F5.890317263653292
s(g7
S'paradoxus'
p22
tp23
F1.2395116842431297
s(g18
S'kluyveri'
p24
tp25
F0.0
s(g10
g12
tp26
F2.038997147020193
s(g12
S'mikatae'
p27
tp28
F7.508163189388732
ssS'ExpectedDwellTime'
p29
(dp30
g6
F406.67733746109815
sg9
F470.7190036938516
sg11
F472.1523430383923
sg13
F476.7877515616221
sg15
F411.150907614572
sg17
F458.78212263278806
sg19
F171.50655816498175
sg21
F476.96412343489135
sg23
F478.9712492366578
sg25
F0.0
sg26
F477.4173064550267
sg28
F476.1934784391945
ssS'newicktree'
p31
S'../PairsAlignemt/YeastTree.newick'
p32
sS'll'
p33
cnumpy.core.multiarray
scalar
p34
(cnumpy
dtype
p35
(S'f8'
p36
I0
I1
tp37
Rp38
(I3
S'<'
p39
NNNI-1
I-1
I0
tp40
bS'\xca+\xe2\xf4\xc5"\xbc\xc0'
p41
tp42
Rp43
sS'edge_list'
p44
(lp45
g19
ag25
ag6
ag15
ag11
ag17
ag26
ag21
ag13
ag28
ag9
ag23
asS'edge_to_blen'
p46
(dp47
g19
g34
(g38
S'\x8b\xee?5d\x13\xdc?'
p48
tp49
Rp50
sg9
g34
(g38
S'\x80\xae\r)\xc6!\xcd?'
p51
tp52
Rp53
sg11
g34
(g38
S'\xe5\x1a\xf3\xfa\x8a5\xbf?'
p54
tp55
Rp56
sg13
g34
(g38
S'\xfc\xaf\x16{\x8b?\xc0?'
p57
tp58
Rp59
sg21
g34
(g38
S'\xcdG\xeb\xb4\x06\x7f\xd0?'
p60
tp61
Rp62
sg17
g34
(g38
S'\xf9\xad\xa9\x81\x91\xe4\xd1?'
p63
tp64
Rp65
sg6
g34
(g38
S'9\x10\xd9\x00\x08Z\x04@'
p66
tp67
Rp68
sg15
g34
(g38
S'\r/\xc3\xe5c \t@'
p69
tp70
Rp71
sg23
g34
(g38
S'f\xa2W\x8a$-\xb2?'
p72
tp73
Rp74
sg28
g34
(g38
S'\xc9\x80\x91\xed\x00\x16\xd2?'
p75
tp76
Rp77
sg26
g34
(g38
S'A\xd4\x04T\xa56\xb6?'
p78
tp79
Rp80
sg25
g34
(g38
S'\x8d2:\xca\xd4\xc9\x03@'
p81
tp82
Rp83
ssS'paralog'
p84
(lp85
S'YPL087W'
p86
aS'YBR183W'
p87
asS'alignment_file'
p88
S'../MafftAlignment/YPL087W_YBR183W/YPL087W_YBR183W_input.fasta'
p89
sS'x_clock'
p90
NsS'x'
p91
cnumpy.core.multiarray
_reconstruct
p92
(cnumpy
ndarray
p93
(I0
tp94
S'b'
p95
tp96
Rp97
(I1
(I18
tp98
g38
I00
S'\x01\x9a\xa5\xea\xbah\xe6\xbf\\\xe8M\x17Bn\xe1\xbf\x8e\xcc\x95\x8b,3\xf1\xbf\xa7M\xab}7*\xf0?\xadl\x11\xe9`\xae\x05\xc0\xa1\x9b\xc5\xbe\x01i\x00\xc0\xc8\x19\x1b\xe7\x04^\xea\xbf\x99Y83\x1f\xfb\xec?\xda\x97\xc2E\r\xe1\xed?\xb6\x93\xa7\xdf\xccO\xf2?\xbe\xc5zM\xf2\xd5\x00\xc0\x8d\x80\xf7fGd\xf4\xbf\x8d\xe0\xb2\x04K\x8e\x03\xc0\x05,\x0eW*\xb1\xf5\xbft\x01Y\xf4*\x83\x00\xc0\x13\x9d\xb0fO8\xf4\xbf\xa0\xfb\x98j\xe1\xae\xf7\xbf\xd0\xd0\xf4\x84\x13)\x05\xc0'
p99
tp100
bsS'Model'
p101
S'MG94'
p102
sS'clock'
p103
I00
s.