(dp0
S'Force'
p1
NsS'ExpectedGeneconv'
p2
(dp3
(S'N1'
p4
S'N2'
p5
tp6
F22.51813769599683
s(S'N5'
p7
S'cerevisiae'
p8
tp9
F9.717766515190625
s(g5
S'N3'
p10
tp11
F5.895433372117145
s(S'N4'
p12
g7
tp13
F3.6519748812981088
s(g4
S'castellii'
p14
tp15
F24.117758695730487
s(g5
S'bayanus'
p16
tp17
F9.850510829490293
s(S'N0'
p18
g4
tp19
F0.07304257550502209
s(g10
S'kudriavzevii'
p20
tp21
F8.413224837717863
s(g7
S'paradoxus'
p22
tp23
F4.540704333903443
s(g18
S'kluyveri'
p24
tp25
F0.0
s(g10
g12
tp26
F5.242625246881128
s(g12
S'mikatae'
p27
tp28
F16.24503143475936
ssS'ExpectedDwellTime'
p29
(dp30
g6
F146.8517551625729
sg9
F243.440797575838
sg11
F228.57169312007497
sg13
F235.707291305553
sg15
F126.2480399656272
sg17
F244.24391389212437
sg19
F10.324453600748386
sg21
F228.6729759845637
sg23
F244.5720092960773
sg25
F0.0
sg26
F231.86811557647167
sg28
F221.2372823829934
ssS'newicktree'
p31
S'../PairsAlignemt/YeastTree.newick'
p32
sS'll'
p33
cnumpy.core.multiarray
scalar
p34
(cnumpy
dtype
p35
(S'f8'
p36
I0
I1
tp37
Rp38
(I3
S'<'
p39
NNNI-1
I-1
I0
tp40
bS'\x89\xae\x96\xe5\x1a,\xab\xc0'
p41
tp42
Rp43
sS'edge_list'
p44
(lp45
g19
ag25
ag6
ag15
ag11
ag17
ag26
ag21
ag13
ag28
ag9
ag23
asS'edge_to_blen'
p46
(dp47
g19
g34
(g38
S'L\xdbU\x08\xfb/\x96?'
p48
tp49
Rp50
sg9
g34
(g38
S'\xc0\x19\xd5\x17\xe9y\xc1?'
p51
tp52
Rp53
sg11
g34
(g38
S'A\xdb\xe1X*\x90\xb4?'
p54
tp55
Rp56
sg13
g34
(g38
S'=>\xe0\x12\x03T\xad?'
p57
tp58
Rp59
sg15
g34
(g38
S'\\\xb6DX\xe5q\xde?'
p60
tp61
Rp62
sg17
g34
(g38
S'\x84\xc4\xaa\xc4#\xd1\xc4?'
p63
tp64
Rp65
sg6
g34
(g38
S'\x8f\x89\xd0\xbc\xf24\xde?'
p66
tp67
Rp68
sg21
g34
(g38
S'!\xaa\xe7\x99\x00\xb3\xba?'
p69
tp70
Rp71
sg23
g34
(g38
S'^\xff\xdf:g\xac\xaf?'
p72
tp73
Rp74
sg28
g34
(g38
S"\x8dq\xe7h\x7f'\xc8?"
p75
tp76
Rp77
sg26
g34
(g38
S'\xb1u\x05\x18}\x94\xb0?'
p78
tp79
Rp80
sg25
g34
(g38
S'\xea5,$4\x8b\xe4?'
p81
tp82
Rp83
ssS'paralog'
p84
(lp85
S'YDR099W'
p86
aS'YER177W'
p87
asS'alignment_file'
p88
S'../MafftAlignment/YDR099W_YER177W/YDR099W_YER177W_input.fasta'
p89
sS'x_clock'
p90
NsS'x'
p91
cnumpy.core.multiarray
_reconstruct
p92
(cnumpy
ndarray
p93
(I0
tp94
S'b'
p95
tp96
Rp97
(I1
(I18
tp98
g38
I00
S"\xb2P\xe3}\xf5\x9f\xe8\xbf%#2\xa3`W\xde\xbf#\x1fq\xb0\x16\xf2\xeb\xbf\x18\x95O`b?\xfa?\x02\xf2l0~G\r\xc0 \xb8\xf4\xca=y\xf0\xbf\x82\x8e\xafb\xd3\xa7\x0e\xc0\xcb\x99! \t]\xdc\xbf\x90=mO\xad\x06\xe8\xbf\xe1\xd8\xb0G]\xc6\xe7\xbf\xc9\xd5\x9a\xfcd,\x04\xc0\xfb\xe8Pai\x0f\xfd\xbf$\x9fI\xdbT\xe5\x05\xc0\xe5\xa7'v\x97\x15\x02\xc0\xc4+\x0eG\xd2\xe0\x06\xc0\x8d\xf1\xec%\\\xae\xfa\xbf\xb4\xe9H\x97\xe9\xdb\xff\xbfP(\x96\xacDC\x06\xc0"
p99
tp100
bsS'Model'
p101
S'MG94'
p102
sS'clock'
p103
I00
s.