(dp0
S'Force'
p1
NsS'ExpectedGeneconv'
p2
(dp3
(S'N1'
p4
S'N2'
p5
tp6
F140.60820900983018
s(S'N5'
p7
S'cerevisiae'
p8
tp9
F15.540333066948168
s(g5
S'N3'
p10
tp11
F16.460867833137893
s(S'N4'
p12
g7
tp13
F8.656685559680769
s(g4
S'castellii'
p14
tp15
F203.35744435879786
s(g5
S'bayanus'
p16
tp17
F34.76158046367653
s(S'N0'
p18
g4
tp19
F2.3975831730781683
s(g10
S'kudriavzevii'
p20
tp21
F27.816876562615253
s(g7
S'paradoxus'
p22
tp23
F12.095183113779655
s(g18
S'kluyveri'
p24
tp25
F0.0
s(g10
g12
tp26
F8.829263145141205
s(g12
S'mikatae'
p27
tp28
F30.12250111344968
ssS'ExpectedDwellTime'
p29
(dp30
g6
F646.0676664608185
sg9
F845.0159168950189
sg11
F797.8066390355192
sg13
F828.621083224717
sg15
F687.4024289554307
sg17
F793.4321107242804
sg19
F117.74190188259188
sg21
F828.5394834487586
sg23
F828.2441946951117
sg25
F0.0
sg26
F819.1942171085116
sg28
F833.8228017510082
ssS'newicktree'
p31
S'../PairsAlignemt/YeastTree.newick'
p32
sS'll'
p33
cnumpy.core.multiarray
scalar
p34
(cnumpy
dtype
p35
(S'f8'
p36
I0
I1
tp37
Rp38
(I3
S'<'
p39
NNNI-1
I-1
I0
tp40
bS'\xe7\xb4\xf9\xcd\xd6\xe1\xcb\xc0'
p41
tp42
Rp43
sS'edge_list'
p44
(lp45
g19
ag25
ag6
ag15
ag11
ag17
ag26
ag21
ag13
ag28
ag9
ag23
asS'edge_to_blen'
p46
(dp47
g6
g34
(g38
S'Cb!\xe1\xb6\xfb\xf3?'
p48
tp49
Rp50
sg9
g34
(g38
S',\x90\xd8FKp\xc4?'
p51
tp52
Rp53
sg11
g34
(g38
S'\x8e\xe5d{\xe8\xf9\xc3?'
p54
tp55
Rp56
sg13
g34
(g38
S'XE\x9f\x8b\x86\xbd\xb4?'
p57
tp58
Rp59
sg21
g34
(g38
S'\x1c&\x15\xeaM4\xd0?'
p60
tp61
Rp62
sg17
g34
(g38
S"'['3\xf5\xb7\xd1?"
p63
tp64
Rp65
sg19
g34
(g38
S'\xcc\xb2\xcdR\x08\xe7\xb9?'
p66
tp67
Rp68
sg15
g34
(g38
S'\xeb\xfd\xae\x13\x82\x9e\xfc?'
p69
tp70
Rp71
sg23
g34
(g38
S'\xa4\x9f\x1bk-\xd0\xbd?'
p72
tp73
Rp74
sg28
g34
(g38
S'\x9fr#\xad\xc8\xda\xd1?'
p75
tp76
Rp77
sg26
g34
(g38
S'\xde&\x8d\xcb\xea\x8d\xb7?'
p78
tp79
Rp80
sg25
g34
(g38
S'<~m\xace\x00\x00@'
p81
tp82
Rp83
ssS'paralog'
p84
(lp85
S'YPR159W'
p86
aS'YGR143W'
p87
asS'alignment_file'
p88
S'../MafftAlignment/YPR159W_YGR143W/YPR159W_YGR143W_input.fasta'
p89
sS'x_clock'
p90
NsS'x'
p91
cnumpy.core.multiarray
_reconstruct
p92
(cnumpy
ndarray
p93
(I0
tp94
S'b'
p95
tp96
Rp97
(I1
(I18
tp98
g38
I00
S'\xbe\xc1\xa2\xdc\x8c\x9a\xe6\xbf6\xeb\xfeDc\xf5\xdc\xbf\xac\xcfT\xef\xce\xc7\xf0\xbf*t\xd9\x0e)\xcf\xf1?\xd9\x0fKX%\x15\x05\xc0\x80\x7f\x06\x99f\xb8\xf6\xbf\xef_\x1dq\xa3S\x02\xc0\xf0(OU\x0e/\xe6?\t\xc0\x85D\x87t\xcc?6~\x93\xff\x8c\x9b\xe2?&q\xf5\xe0E\xb8\xfd\xbf\xb8\x8c#\xa2]\x8c\xf4\xbfV\xd2\xea\x16A\x16\x03\xc0\x97\x9cN\xdaI\xfa\xf5\xbf\xdexq\xaa\xd2\x1a\x04\xc0Q?\xc3\xa5\tm\xf4\xbf\xabtrE\x88Z\xfd\xbf\xd0\xb6\x18\xea\xa93\x01\xc0'
p99
tp100
bsS'Model'
p101
S'MG94'
p102
sS'clock'
p103
I00
s.