(dp0
S'Force'
p1
NsS'ExpectedGeneconv'
p2
(dp3
(S'N1'
p4
S'N2'
p5
tp6
F7.363938987876316
s(S'N5'
p7
S'cerevisiae'
p8
tp9
F2.8304085604092837
s(g5
S'N3'
p10
tp11
F1.1101694732567313
s(S'N4'
p12
g7
tp13
F0.3928808211205748
s(g4
S'castellii'
p14
tp15
F6.833124130956671
s(g5
S'bayanus'
p16
tp17
F3.9978834503226834
s(S'N0'
p18
g4
tp19
F0.4469732773603471
s(g10
S'kudriavzevii'
p20
tp21
F2.0634392554914185
s(g7
S'paradoxus'
p22
tp23
F3.251171753245327
s(g18
S'kluyveri'
p24
tp25
F0.0
s(g10
g12
tp26
F1.0054969736979686
s(g12
S'mikatae'
p27
tp28
F7.51493982267158
ssS'ExpectedDwellTime'
p29
(dp30
g6
F26.632743550609536
sg9
F50.26458566246937
sg11
F36.59525720923416
sg13
F45.90585126873074
sg15
F29.335752128147647
sg17
F39.17802508428969
sg19
F8.186095479792947
sg21
F54.470489848899845
sg23
F47.91816872869453
sg25
F0.0
sg26
F43.648031959797855
sg28
F50.87934445255337
ssS'newicktree'
p31
S'../PairsAlignemt/YeastTree.newick'
p32
sS'll'
p33
cnumpy.core.multiarray
scalar
p34
(cnumpy
dtype
p35
(S'f8'
p36
I0
I1
tp37
Rp38
(I3
S'<'
p39
NNNI-1
I-1
I0
tp40
bS'\xbdx\xc9\x98eh\x92\xc0'
p41
tp42
Rp43
sS'edge_list'
p44
(lp45
g19
ag25
ag6
ag15
ag11
ag17
ag26
ag21
ag13
ag28
ag9
ag23
asS'edge_to_blen'
p46
(dp47
g6
g34
(g38
S' \xac`\xf1\xac\xe7\xbb?'
p48
tp49
Rp50
sg9
g34
(g38
S'\x1c\xce}\xb0\x86Q\xa5?'
p51
tp52
Rp53
sg11
g34
(g38
S'\xfe%p}2\x9f\x9b?'
p54
tp55
Rp56
sg13
g34
(g38
S'\x1b\x14\xb1U\xa4\xc6n?'
p57
tp58
Rp59
sg21
g34
(g38
S'\x9d\xb77\xb3\x98\xfd\xae?'
p60
tp61
Rp62
sg17
g34
(g38
S'8\x1a\x00\x9f\xaa\x1d\xb3?'
p63
tp64
Rp65
sg19
g34
(g38
S'\xcb\x9co\xc7\xfe\xd3\xa4?'
p66
tp67
Rp68
sg15
g34
(g38
S'\xf5\x8c\xd4\r\xd4\xf6\xbd?'
p69
tp70
Rp71
sg23
g34
(g38
S'\xa4%\xb2Vs9\xa3?'
p72
tp73
Rp74
sg28
g34
(g38
S'\xd6\x07]t\x91\xf2\xb6?'
p75
tp76
Rp77
sg26
g34
(g38
S'J\xae\xe6^%\x9e\x94?'
p78
tp79
Rp80
sg25
g34
(g38
S'C\xb3<\xcf\x14Y\xce?'
p81
tp82
Rp83
ssS'paralog'
p84
(lp85
S'YLR406C'
p86
aS'YDL075W'
p87
asS'alignment_file'
p88
S'../MafftAlignment/YLR406C_YDL075W/YLR406C_YDL075W_input.fasta'
p89
sS'x_clock'
p90
NsS'x'
p91
cnumpy.core.multiarray
_reconstruct
p92
(cnumpy
ndarray
p93
(I0
tp94
S'b'
p95
tp96
Rp97
(I1
(I18
tp98
g38
I00
S'\x8f\x84\x8a\x11\xf5\x9c\xe4\xbf<\xe3G\xdd-\xd8\xde\xbf\x1ex\x08\xde\x07\xc7\xed\xbfjQI~\xedp\xfd?+N01\xbc\xa9\x03\xc0y\x18\x1a%\xf5\x15\xe0?J?\x92U\xbd\x9d\t\xc0\x9cj\xda\xf8_\x07\xf7\xbf\x81\xa5\xacV!\xbb\x01\xc0\xa2\xae#\x83Q)\x01\xc0g\xdd\x01T%\xe7\x0c\xc0#g\x15\xf2\xdb\xc1\x04\xc0u\xa0g\xed\x17>\x0f\xc0\x05\x00\xc8D\xe7o\x06\xc0\xb8\xe4\xfaE3V\x16\xc0\xbcy\xf2a\xb5K\x03\xc0\xbb\xe1\x03\x1b\x15n\t\xc0\xac\xa9\x94p\xd4A\n\xc0'
p99
tp100
bsS'Model'
p101
S'MG94'
p102
sS'clock'
p103
I00
s.