(dp0
S'Force'
p1
NsS'ExpectedGeneconv'
p2
(dp3
(S'N1'
p4
S'N2'
p5
tp6
F35.052028124150226
s(S'N5'
p7
S'cerevisiae'
p8
tp9
F5.846372607549785
s(g5
S'N3'
p10
tp11
F4.661715396791579
s(S'N4'
p12
g7
tp13
F1.5649399533673818
s(g4
S'castellii'
p14
tp15
F36.58480731481631
s(g5
S'bayanus'
p16
tp17
F7.301930430723493
s(S'N0'
p18
g4
tp19
F3.633669315392037
s(g10
S'kudriavzevii'
p20
tp21
F8.07466195028634
s(g7
S'paradoxus'
p22
tp23
F2.6832281934475173
s(g18
S'kluyveri'
p24
tp25
F0.0
s(g10
g12
tp26
F1.8132084483702104
s(g12
S'mikatae'
p27
tp28
F9.324807310658096
ssS'ExpectedDwellTime'
p29
(dp30
g6
F451.4340930584814
sg9
F565.178963390819
sg11
F529.0541002104849
sg13
F552.264533240656
sg15
F442.82477725124113
sg17
F524.0924190737466
sg19
F167.2318016702451
sg21
F551.7371220843729
sg23
F559.4044503978323
sg25
F0.0
sg26
F540.5444082806235
sg28
F547.7463717476036
ssS'newicktree'
p31
S'../PairsAlignemt/YeastTree.newick'
p32
sS'll'
p33
cnumpy.core.multiarray
scalar
p34
(cnumpy
dtype
p35
(S'f8'
p36
I0
I1
tp37
Rp38
(I3
S'<'
p39
NNNI-1
I-1
I0
tp40
bS'r %\x81\xc3\x02\xc1\xc0'
p41
tp42
Rp43
sS'edge_list'
p44
(lp45
g19
ag25
ag6
ag15
ag11
ag17
ag26
ag21
ag13
ag28
ag9
ag23
asS'edge_to_blen'
p46
(dp47
g19
g34
(g38
S'\xe3\xf8\xeb\xacy\x0f\xd3?'
p48
tp49
Rp50
sg9
g34
(g38
S'\xc0\x7f\xa5\xd91\xce\xca?'
p51
tp52
Rp53
sg11
g34
(g38
S'\xdd\x89?\x8c\xbdF\xc7?'
p54
tp55
Rp56
sg13
g34
(g38
S'i\x15\xc4\xea\xc4q\xb5?'
p57
tp58
Rp59
sg21
g34
(g38
S'\xdeO\xba4*\x1c\xd5?'
p60
tp61
Rp62
sg17
g34
(g38
S'\xeep\x03\x00\x97\xe3\xcf?'
p63
tp64
Rp65
sg6
g34
(g38
S"2\r7\xd5\x90'\xf2?"
p66
tp67
Rp68
sg15
g34
(g38
S'\xe3X0\x19\xc0\xeb\xf2?'
p69
tp70
Rp71
sg23
g34
(g38
S'\x86o\xf8\x10\x99\xed\xbd?'
p72
tp73
Rp74
sg28
g34
(g38
S'\x13\xa9\x81:\x93;\xd5?'
p75
tp76
Rp77
sg26
g34
(g38
S'\xd3^\xdb\xf5\xfe\xc8\xb4?'
p78
tp79
Rp80
sg25
g34
(g38
S'\xd3 \xc7E\xc9\xc9\xf1?'
p81
tp82
Rp83
ssS'paralog'
p84
(lp85
S'YMR243C'
p86
aS'YOR316C'
p87
asS'alignment_file'
p88
S'../MafftAlignment/YMR243C_YOR316C/YMR243C_YOR316C_input.fasta'
p89
sS'x_clock'
p90
NsS'x'
p91
cnumpy.core.multiarray
_reconstruct
p92
(cnumpy
ndarray
p93
(I0
tp94
S'b'
p95
tp96
Rp97
(I1
(I18
tp98
g38
I00
S'qE~\x81s\xb0\xe7\xbf\xa1qh\xa8\x82m\xe1\xbf^V\x1cE{\x05\xee\xbf4M\xd7\x11"\xc1\xee?^S\xd5\xbc4@\x02\xc0P\xc3\xd2\xef\xbf\xc9\x02\xc0\xdf\xee\xd1\x16Za\xf3\xbf\xf6\x86\xc6\xc1j\x1f\xbb?x\xb3c\x81\xab+\xc0?\x8e\xcbnj|v\xc5?%\xdcL\xa2\x03F\xfb\xbf\x0b\x94\xfc\xd0}<\xf6\xbf\x9c\xa9\x81?g\x16\x04\xc0\x16\xb1\xa0\xad\x04\xbf\xf1\xbf+\xa5\xd8\xf9s\xd6\x03\xc0\xc9y\xe7\xc1G\xa7\xf1\xbf@\xfe\xb8\x0b\xca\x03\xf9\xbf\xbeM\x8f\xc6\xc8+\x01\xc0'
p99
tp100
bsS'Model'
p101
S'MG94'
p102
sS'clock'
p103
I00
s.