(dp0
S'Force'
p1
NsS'ExpectedGeneconv'
p2
(dp3
(S'N1'
p4
S'N2'
p5
tp6
F85.14333017661363
s(S'N5'
p7
S'cerevisiae'
p8
tp9
F4.939966083664889
s(g5
S'N3'
p10
tp11
F4.879816051656366
s(S'N4'
p12
g7
tp13
F1.8877234083150294
s(g4
S'castellii'
p14
tp15
F137.17798145678876
s(g5
S'bayanus'
p16
tp17
F8.36388802294683
s(S'N0'
p18
g4
tp19
F10.365618269997313
s(g10
S'kudriavzevii'
p20
tp21
F7.0693314566879515
s(g7
S'paradoxus'
p22
tp23
F3.9671127512952817
s(g18
S'kluyveri'
p24
tp25
F0.0
s(g10
g12
tp26
F3.272717851860537
s(g12
S'mikatae'
p27
tp28
F8.57718838456105
ssS'ExpectedDwellTime'
p29
(dp30
g6
F177.96864134553016
sg9
F226.53675834271937
sg11
F200.4702337305653
sg13
F218.10318324665857
sg15
F184.5971531808705
sg17
F200.8411218709946
sg19
F83.20076078702199
sg21
F203.38152484553902
sg23
F220.7899214249705
sg25
F0.0
sg26
F207.29970902136915
sg28
F211.6628192485828
ssS'newicktree'
p31
S'../PairsAlignemt/YeastTree.newick'
p32
sS'll'
p33
cnumpy.core.multiarray
scalar
p34
(cnumpy
dtype
p35
(S'f8'
p36
I0
I1
tp37
Rp38
(I3
S'<'
p39
NNNI-1
I-1
I0
tp40
bS' x\xca\xb6\x1d\xd7\xa9\xc0'
p41
tp42
Rp43
sS'edge_list'
p44
(lp45
g19
ag25
ag6
ag15
ag11
ag17
ag26
ag21
ag13
ag28
ag9
ag23
asS'edge_to_blen'
p46
(dp47
g6
g34
(g38
S'J%\x13\xa6qX\x04@'
p48
tp49
Rp50
sg9
g34
(g38
S' \x9c\xc5q\xcc\x10\xcc?'
p51
tp52
Rp53
sg11
g34
(g38
S'T\xeb\xf1\xb0\xe4~\xc4?'
p54
tp55
Rp56
sg13
g34
(g38
S'}\x86G\xe6\x9c.\xb8?'
p57
tp58
Rp59
sg21
g34
(g38
S'\xea\x88D\x7fU\x1e\xd0?'
p60
tp61
Rp62
sg17
g34
(g38
S'\x0c\x80\xa4\xe5\x0b\x9b\xd2?'
p63
tp64
Rp65
sg19
g34
(g38
S'\xc0\xc9{hK\xec\xdf?'
p66
tp67
Rp68
sg15
g34
(g38
S'5\x06\xaa@\xaeP\x10@'
p69
tp70
Rp71
sg23
g34
(g38
S',H\xe1\xb5\xf1\x82\xb8?'
p72
tp73
Rp74
sg28
g34
(g38
S'S\x14\x90\xf7\xc1:\xd1?'
p75
tp76
Rp77
sg26
g34
(g38
S'\x99t\xf7K\xb4h\xc1?'
p78
tp79
Rp80
sg25
g34
(g38
S'\xbd\xfb\xc9\xfa^;\x14@'
p81
tp82
Rp83
ssS'paralog'
p84
(lp85
S'YIL057C'
p86
aS'YER067W'
p87
asS'alignment_file'
p88
S'../MafftAlignment/YIL057C_YER067W/YIL057C_YER067W_input.fasta'
p89
sS'x_clock'
p90
NsS'x'
p91
cnumpy.core.multiarray
_reconstruct
p92
(cnumpy
ndarray
p93
(I0
tp94
S'b'
p95
tp96
Rp97
(I1
(I18
tp98
g38
I00
S'\xef<\xe5\x06\xc3;\xe5\xbf$\x93\xa16\\%\xe3\xbf\xd9\x02\xad\xab\x94\x18\xea\xbf\xea\x86\x90I[g\xe9?\xfbz\x89\x0ex\x08\x0b\xc0\xc3\xc9\xfdA\xae\xae\xf3\xbf\xcc\xc74\xaa\xfdA\xe6\xbf\xd3\xe2\xb21{\xef\xf9?\xdb\xf01>\x8e\xde\xed?a \x8ev(~\xf6?\x94\x14?\x95\x1eO\xfd\xbf\xcadslE\xc4\xf3\xbf\xefB\xeb\x16\xb2\xeb\xff\xbf\xce/\xc4\x1c\n\x10\xf6\xbf\x1c)\x8d\xe2c\xe0\x02\xc0\xed/\xa5\x0b\x03\xff\xf4\xbf \xdf\xabI\x9eG\xf8\xbf=9>\x02\xae\xc4\x02\xc0'
p99
tp100
bsS'Model'
p101
S'MG94'
p102
sS'clock'
p103
I00
s.