(dp0
S'Force'
p1
NsS'ExpectedGeneconv'
p2
(dp3
(S'N1'
p4
S'N2'
p5
tp6
F28.088244275227936
s(S'N5'
p7
S'cerevisiae'
p8
tp9
F3.4061717819530664
s(g5
S'N3'
p10
tp11
F2.0167988777699453
s(S'N4'
p12
g7
tp13
F1.7770252856571307
s(g4
S'castellii'
p14
tp15
F47.00772688114374
s(g5
S'bayanus'
p16
tp17
F5.931355587739102
s(S'N0'
p18
g4
tp19
F2.3399368990728916e-07
s(g10
S'kudriavzevii'
p20
tp21
F5.1270302117322455
s(g7
S'paradoxus'
p22
tp23
F2.5098526243831114
s(g18
S'kluyveri'
p24
tp25
F0.0
s(g10
g12
tp26
F2.198215184332358
s(g12
S'mikatae'
p27
tp28
F4.635257112409767
ssS'ExpectedDwellTime'
p29
(dp30
g6
F435.34326511243694
sg9
F575.3996674670273
sg11
F575.1427320641226
sg13
F576.9453930309871
sg15
F498.42027111331964
sg17
F571.9087457663012
sg19
F0.06168054560857066
sg21
F580.6246902081407
sg23
F588.3529974409261
sg25
F0.0
sg26
F576.6123108298682
sg28
F570.2233902186447
ssS'newicktree'
p31
S'../PairsAlignemt/YeastTree.newick'
p32
sS'll'
p33
cnumpy.core.multiarray
scalar
p34
(cnumpy
dtype
p35
(S'f8'
p36
I0
I1
tp37
Rp38
(I3
S'<'
p39
NNNI-1
I-1
I0
tp40
bS'\\\xd0\x01_\\v\xc2\xc0'
p41
tp42
Rp43
sS'edge_list'
p44
(lp45
g19
ag25
ag6
ag15
ag11
ag17
ag26
ag21
ag13
ag28
ag9
ag23
asS'edge_to_blen'
p46
(dp47
g6
g34
(g38
S'J&\x80\xed9u\xfc?'
p48
tp49
Rp50
sg9
g34
(g38
S'\xdb\x88>\xed\x83\x84\xca?'
p51
tp52
Rp53
sg11
g34
(g38
S'\xff\xfd\xd9\xf4\x85\xee\xc2?'
p54
tp55
Rp56
sg13
g34
(g38
S'f\x82B\x95\x8e\xfc\xbb?'
p57
tp58
Rp59
sg21
g34
(g38
S'\x83\xfe\x9d)H\xb7\xd3?'
p60
tp61
Rp62
sg17
g34
(g38
S'\x0b\xa6\xfd\xf8z\x9d\xd3?'
p63
tp64
Rp65
sg19
g34
(g38
S'\x8a\xe9\xba\xb33\x1d\x15?'
p66
tp67
Rp68
sg15
g34
(g38
S'US\xad~\xd5\xdc\x07@'
p69
tp70
Rp71
sg23
g34
(g38
S'n\xac\xbf\xb3\xd47\xc3?'
p72
tp73
Rp74
sg25
g34
(g38
S'\x16\xab\xbeW\xdf\xbe\x03@'
p75
tp76
Rp77
sg26
g34
(g38
S'\xac=\xcc\xeeQ\xa2\xbd?'
p78
tp79
Rp80
sg28
g34
(g38
S'^\x8f\xa2\xe84\xdd\xd3?'
p81
tp82
Rp83
ssS'paralog'
p84
(lp85
S'YPR157W'
p86
aS'YGR141W'
p87
asS'alignment_file'
p88
S'../MafftAlignment/YPR157W_YGR141W/YPR157W_YGR141W_input.fasta'
p89
sS'x_clock'
p90
NsS'x'
p91
cnumpy.core.multiarray
_reconstruct
p92
(cnumpy
ndarray
p93
(I0
tp94
S'b'
p95
tp96
Rp97
(I1
(I18
tp98
g38
I00
S'\xf4#\x13e\'\t\xe5\xbf1\xc5\xe4,;%\xe1\xbf[\x91\x02\xb3\xb4\xf0\xee\xbf\xfah\xe2\xd9\x058\xee?\xa9\x99\xfdD\xab:\x05\xc0\xd644wc"\x07\xc0\xa1\xf7=\xaey\xda"\xc0\xf9\xe3\x9b\x92a\xe9\xec?\x98\xa35\x00Cm\xe2?\x9a\x8aL\x91g|\xf1?\xe5\x96\xec\xd6<\x94\xfe\xbf\x97\x8d\x9a~\xd9\xeb\xf2\xbfv\x9f\xb4\x8f\x01@\x01\xc0\x82\xc1\xd1v\xdb\xd6\xf2\xbf\x10\xe65\x0c\'\xb5\x01\xc0\x8fu\xb0\x042\xb8\xf2\xbf\xc6H\x0f|\x010\xf9\xbf\x06\\+\x08\xbfV\xfe\xbf'
p99
tp100
bsS'Model'
p101
S'MG94'
p102
sS'clock'
p103
I00
s.