(dp0
S'Force'
p1
NsS'ExpectedGeneconv'
p2
(dp3
(S'N1'
p4
S'N2'
p5
tp6
F7.370001580357148
s(S'N5'
p7
S'cerevisiae'
p8
tp9
F6.484023660231766
s(g5
S'N3'
p10
tp11
F2.05214355662929
s(S'N4'
p12
g7
tp13
F0.6949209733936667
s(g4
S'castellii'
p14
tp15
F8.646935528882633
s(g5
S'bayanus'
p16
tp17
F3.531091086354715
s(S'N0'
p18
g4
tp19
F0.47809578552303295
s(g10
S'kudriavzevii'
p20
tp21
F2.6039269082398087
s(g7
S'paradoxus'
p22
tp23
F1.8187555931528017
s(g18
S'kluyveri'
p24
tp25
F0.0
s(g10
g12
tp26
F2.134453056753517
s(g12
S'mikatae'
p27
tp28
F5.662469906188973
ssS'ExpectedDwellTime'
p29
(dp30
g6
F36.394530605824855
sg9
F57.07038884987448
sg11
F50.75656473871492
sg13
F60.02374536523569
sg15
F45.87167334539387
sg17
F52.22270080700871
sg19
F9.75973055985599
sg21
F57.4359897871852
sg23
F66.1223797399133
sg25
F0.0
sg26
F56.695915407168336
sg28
F62.26628628436041
ssS'newicktree'
p31
S'../PairsAlignemt/YeastTree.newick'
p32
sS'll'
p33
cnumpy.core.multiarray
scalar
p34
(cnumpy
dtype
p35
(S'f8'
p36
I0
I1
tp37
Rp38
(I3
S'<'
p39
NNNI-1
I-1
I0
tp40
bS'\x89:p*\xbd\xd4\x92\xc0'
p41
tp42
Rp43
sS'edge_list'
p44
(lp45
g19
ag25
ag6
ag15
ag11
ag17
ag26
ag21
ag13
ag28
ag9
ag23
asS'edge_to_blen'
p46
(dp47
g19
g34
(g38
S'\x15\xbcd`\xe7\xa5\xa6?'
p48
tp49
Rp50
sg9
g34
(g38
S'\x11|\n\xec\xae\xda\xaa?'
p51
tp52
Rp53
sg11
g34
(g38
S'\xa3\xc1\x8d\xf9\xab\xee\xa1?'
p54
tp55
Rp56
sg13
g34
(g38
S'm\x08%\x96\x8f\x91\x85?'
p57
tp58
Rp59
sg15
g34
(g38
S'\x8bvZ\x9f\xa7;\xc7?'
p60
tp61
Rp62
sg17
g34
(g38
S'Y\xe4u\x07\x81\x06\xae?'
p63
tp64
Rp65
sg6
g34
(g38
S'G<)Nx\x12\xc1?'
p66
tp67
Rp68
sg21
g34
(g38
S"yG'\xbe\x11~\xa7?"
p69
tp70
Rp71
sg23
g34
(g38
S'[\xe2\xd2\xdaTG\xa4?'
p72
tp73
Rp74
sg28
g34
(g38
S'\x08\x9f\xe1\x83\x89^\xb0?'
p75
tp76
Rp77
sg26
g34
(g38
S'\xed\xb5\xcb\x15S\xb8\xa1?'
p78
tp79
Rp80
sg25
g34
(g38
S'\xe7\x04\xd1!\n4\xbd?'
p81
tp82
Rp83
ssS'paralog'
p84
(lp85
S'YER131W'
p86
aS'YGL189C'
p87
asS'alignment_file'
p88
S'../MafftAlignment/YER131W_YGL189C/YER131W_YGL189C_input.fasta'
p89
sS'x_clock'
p90
NsS'x'
p91
cnumpy.core.multiarray
_reconstruct
p92
(cnumpy
ndarray
p93
(I0
tp94
S'b'
p95
tp96
Rp97
(I1
(I18
tp98
g38
I00
S'\xc7\xe6^\xf6!s\xe5\xbfj\x90\xf7\xe4\x8b7\xdc\xbf\xf7\xc74;$\xae\xe6\xbf9G\x8ai\xdf5\xfe?\xa8f]\xd4\xef=\x07\xc0\x7f\xe4\xa9l!\x8e\xd3?5\xafA=-\xf2\x08\xc0}\x80\x10\xf2\xfe]\x01\xc0!H\xd7\x1b\xdd\x1d\x00\xc0\x0eb\xfa8\xa4M\xfb\xbfn\xc2\xbe\xcbR\xd0\n\xc0yX\xc4\xf2\xb3\xb0\x06\xc0\xd7D\x05\xad\xb6\xe8\n\xc0\x8c\xf1\xc7\x965\xa7\x08\xc0\xd2H\xe6d\xa96\x12\xc0\xa6Al\xc5\x87\xff\x05\xc0u\x8ct;M\x95\x07\xc0FM\xb8T~\xd4\t\xc0'
p99
tp100
bsS'Model'
p101
S'MG94'
p102
sS'clock'
p103
I00
s.