(dp0
(S'N0'
p1
S'N1'
p2
tp3
cnumpy.core.multiarray
scalar
p4
(cnumpy
dtype
p5
(S'f8'
p6
I0
I1
tp7
Rp8
(I3
S'<'
p9
NNNI-1
I-1
I0
tp10
bS'\xd8\x10A\x85\x18=\xd1?'
p11
tp12
Rp13
s(S'N5'
p14
S'cerevisiae'
p15
tp16
g4
(g8
S'W\xf0\xae\xe0Rx\xc8?'
p17
tp18
Rp19
s(S'N2'
p20
S'N3'
p21
tp22
g4
(g8
S'\x9f\x0f-eQ\xf6\xbe?'
p23
tp24
Rp25
s(S'N4'
p26
g14
tp27
g4
(g8
S'\t<\xa2}\x18\xb1\xb7?'
p28
tp29
Rp30
s(g21
S'kudriavzevii'
p31
tp32
g4
(g8
S'\x88\xea\xc8\xe4q\xa7\xd0?'
p33
tp34
Rp35
s(g20
S'bayanus'
p36
tp37
g4
(g8
S'\n\xba\xfa\xdc-[\xcd?'
p38
tp39
Rp40
s(g2
g20
tp41
g4
(g8
S'\x01\x88\xcc\x05A\x0f\xe4?'
p42
tp43
Rp44
s(g2
S'castellii'
p45
tp46
g4
(g8
S'\xa2G\t0\xff/\xea?'
p47
tp48
Rp49
s(g14
S'paradoxus'
p50
tp51
g4
(g8
S'\xd1\xb6\xf5f\x8c\xb9\xc0?'
p52
tp53
Rp54
s(g26
S'mikatae'
p55
tp56
g4
(g8
S'\x17\x03\xcd\xd6\x0fs\xd0?'
p57
tp58
Rp59
s(g21
g26
tp60
g4
(g8
S'.\xbbE\xc1*\xb0\xbc?'
p61
tp62
Rp63
s(g1
S'kluyveri'
p64
tp65
g4
(g8
S'\xa1\xfe\xd8\xd1vw\xd6?'
p66
tp67
Rp68
s.