(dp0
(S'N0'
p1
S'N1'
p2
tp3
cnumpy.core.multiarray
scalar
p4
(cnumpy
dtype
p5
(S'f8'
p6
I0
I1
tp7
Rp8
(I3
S'<'
p9
NNNI-1
I-1
I0
tp10
bS'W\xb5hw/^\xb7?'
p11
tp12
Rp13
s(S'N5'
p14
S'cerevisiae'
p15
tp16
g4
(g8
S'\x10\xcaz\x1b\x90\x12\xbc?'
p17
tp18
Rp19
s(S'N2'
p20
S'N3'
p21
tp22
g4
(g8
S't\xf8^\xa5\xbb\xb5\xb7?'
p23
tp24
Rp25
s(S'N4'
p26
g14
tp27
g4
(g8
S'\x98*\xd1I\xdc]\xb4?'
p28
tp29
Rp30
s(g21
S'kudriavzevii'
p31
tp32
g4
(g8
S'\x817f\x9f\x9e\xb2\xc6?'
p33
tp34
Rp35
s(g20
S'bayanus'
p36
tp37
g4
(g8
S'\xe5\x8f\\\xcb\xda\x9c\xc8?'
p38
tp39
Rp40
s(g2
g20
tp41
g4
(g8
S'\xdd\x9at{\x7fi\xe1?'
p42
tp43
Rp44
s(g2
S'castellii'
p45
tp46
g4
(g8
S'\xca\xc6"Sl\xe5\xe3?'
p47
tp48
Rp49
s(g14
S'paradoxus'
p50
tp51
g4
(g8
S"&\xc9\xaa4\xcd'\xb1?"
p52
tp53
Rp54
s(g26
S'mikatae'
p55
tp56
g4
(g8
S'<\x8d~\x03`E\xc7?'
p57
tp58
Rp59
s(g21
g26
tp60
g4
(g8
S'\xa0\xf4\r\x83\xf5\xa9\xb7?'
p61
tp62
Rp63
s(g1
S'kluyveri'
p64
tp65
g4
(g8
S'\xcdgL\xbd=\xe8\xd1?'
p66
tp67
Rp68
s.