(dp0
(S'N0'
p1
S'N1'
p2
tp3
cnumpy.core.multiarray
scalar
p4
(cnumpy
dtype
p5
(S'f8'
p6
I0
I1
tp7
Rp8
(I3
S'<'
p9
NNNI-1
I-1
I0
tp10
bS'\xa5j\xbcc\xe1\x14\xc3?'
p11
tp12
Rp13
s(S'N5'
p14
S'cerevisiae'
p15
tp16
g4
(g8
S'\x10\x12\x10\xbc\xd3\xe4\xb1?'
p17
tp18
Rp19
s(S'N2'
p20
S'N3'
p21
tp22
g4
(g8
S'\xd9\x91n4+1\x90?'
p23
tp24
Rp25
s(S'root'
p26
S'kluyveri'
p27
tp28
g4
(g8
S'K\xb1%y\xf1\x86\xc1?'
p29
tp30
Rp31
s(S'N4'
p32
g14
tp33
g4
(g8
S'\x19rvED\x0f\xa5?'
p34
tp35
Rp36
s(g2
S'castellii'
p37
tp38
g4
(g8
S'|\xd4f\xf6AF\xda?'
p39
tp40
Rp41
s(g20
S'bayanus'
p42
tp43
g4
(g8
S'\xeaOuq t\xc3?'
p44
tp45
Rp46
s(g2
g20
tp47
g4
(g8
S'\xf8*\x95\x8b_\x7f\xd1?'
p48
tp49
Rp50
s(g21
S'kudriavzevii'
p51
tp52
g4
(g8
S"B\xec\xe9\x06'_\xba?"
p53
tp54
Rp55
s(g14
S'paradoxus'
p56
tp57
g4
(g8
S'\xde\x8f\xe4YW$\xaf?'
p58
tp59
Rp60
s(g32
S'mikatae'
p61
tp62
g4
(g8
S'\xfd \xdb(\xc2E\xbb?'
p63
tp64
Rp65
s(g21
g32
tp66
g4
(g8
S';\x9d\x06\xc4\x17n\xa5?'
p67
tp68
Rp69
s(g26
S'N0'
p70
tp71
g4
(g8
S'\x00\x00\x00\x00\x00\x00\x00\x00'
p72
tp73
Rp74
s.