(dp0
(S'N0'
p1
S'N1'
p2
tp3
cnumpy.core.multiarray
scalar
p4
(cnumpy
dtype
p5
(S'f8'
p6
I0
I1
tp7
Rp8
(I3
S'<'
p9
NNNI-1
I-1
I0
tp10
bS"\x89\xbe\xef\xa5'3\xaf?"
p11
tp12
Rp13
s(S'N5'
p14
S'cerevisiae'
p15
tp16
g4
(g8
S'BN\xf8\x8f*\x15\xb7?'
p17
tp18
Rp19
s(S'N2'
p20
S'N3'
p21
tp22
g4
(g8
S'!\xc0\xd0M\x05]\x9e?'
p23
tp24
Rp25
s(S'root'
p26
S'kluyveri'
p27
tp28
g4
(g8
S'\xc0H\xaatb\xb2\xc4?'
p29
tp30
Rp31
s(S'N4'
p32
g14
tp33
g4
(g8
S'\x96_r\x9c\x15B\xa9?'
p34
tp35
Rp36
s(g2
S'castellii'
p37
tp38
g4
(g8
S'A\xa6\x17\xcd\x05\xe1\xda?'
p39
tp40
Rp41
s(g20
S'bayanus'
p42
tp43
g4
(g8
S'\xac7j)\x95\xdd\xc7?'
p44
tp45
Rp46
s(g2
g20
tp47
g4
(g8
S'uF\x9a+to\xd2?'
p48
tp49
Rp50
s(g21
S'kudriavzevii'
p51
tp52
g4
(g8
S'`S\x1e\xa4\x8e\xf1\xbf?'
p53
tp54
Rp55
s(g14
S'paradoxus'
p56
tp57
g4
(g8
S'\x02d~\xa1!\xe6\xb2?'
p58
tp59
Rp60
s(g32
S'mikatae'
p61
tp62
g4
(g8
S'\x84vO+V\xa8\xc0?'
p63
tp64
Rp65
s(g21
g32
tp66
g4
(g8
S'\x96\x10\xfb/v\x8b\xa8?'
p67
tp68
Rp69
s(g26
S'N0'
p70
tp71
g4
(g8
S'\x00\x00\x00\x00\x00\x00\x00\x00'
p72
tp73
Rp74
s.