(iCodonBased2Repeats
Codon2RepeatsPhy
p0
(dp1
S'nbranch'
p2
I12
sS'Tao'
p3
cnumpy.core.multiarray
scalar
p4
(cnumpy
dtype
p5
(S'f8'
p6
I0
I1
tp7
Rp8
(I3
S'<'
p9
NNNI-1
I-1
I0
tp10
bS'\xa1\xb1\xae\x9b0\xe07@'
p11
tp12
Rp13
sS'SpecAfterDupli_node'
p14
S'N1'
p15
sS'tree_phy'
p16
ccopy_reg
_reconstructor
p17
(cBio.Phylo.PhyloXML
Phylogeny
p18
c__builtin__
object
p19
Ntp20
Rp21
(dp22
S'confidences'
p23
(lp24
sS'rerootable'
p25
NsS'clade_relations'
p26
(lp27
sS'rooted'
p28
S'True'
p29
sS'type'
p30
NsS'description'
p31
NsS'properties'
p32
(lp33
sS'branch_length_unit'
p34
NsS'other'
p35
(lp36
sS'date'
p37
NsS'sequence_relations'
p38
(lp39
sS'root'
p40
g17
(cBio.Phylo.PhyloXML
Clade
p41
g19
Ntp42
Rp43
(dp44
g23
(lp45
sS'branch_length'
p46
F1.0
sS'taxonomies'
p47
(lp48
sS'name'
p49
S'N0'
p50
sS'clades'
p51
(lp52
g17
(g41
g19
Ntp53
Rp54
(dp55
g23
(lp56
sg46
F1.0
sg47
(lp57
sg49
S'N1'
p58
sg51
(lp59
g17
(g41
g19
Ntp60
Rp61
(dp62
g23
(lp63
sg46
F1.0
sg47
(lp64
sg49
S'N2'
p65
sg51
(lp66
g17
(g41
g19
Ntp67
Rp68
(dp69
g23
(lp70
sg46
F1.0
sg47
(lp71
sg49
S'N3'
p72
sg51
(lp73
g17
(g41
g19
Ntp74
Rp75
(dp76
g23
(lp77
sg46
F1.0
sg47
(lp78
sg49
S'N4'
p79
sg51
(lp80
g17
(g41
g19
Ntp81
Rp82
(dp83
g23
(lp84
sg46
F1.0
sg47
(lp85
sg49
S'N5'
p86
sg51
(lp87
g17
(g41
g19
Ntp88
Rp89
(dp90
g23
(lp91
sg46
F1.0
sg47
(lp92
sg49
S'cerevisiae'
p93
sg51
(lp94
sg32
(lp95
sS'id_source'
p96
NsS'width'
p97
NsS'node_id'
p98
NsS'references'
p99
(lp100
sS'_color'
p101
NsS'sequences'
p102
(lp103
S'TCTGACGCTGTTACTATCCGTACTAGAAAGGTTATCTCCAACCCATTGTTGGCCAGAAAGCAATTCGTCGTCGACGTCTTGCACCCAAACAGAGCTAATGTCTCCAAGGATGAATTGCGTGAAAAATTAGCTGAAGTCTACAAGGCTGAAAAGGACGCTGTCTCCGTTTTCGGTTTCAGAACCCAATTTGGTGGTGGTAAGTCTGTTGGTTTCGGTTTGGTCTACAACTCTGTTGCCGAAGCTAAGAAGTTCGAACCAACTTACAGATTAGTCAGATACGGTTTGGCTGAAAAGGTTGAAAAGGCTTCCAGACAACAAAGAAAGCAAAAGAAGAACAGAGACAAGAAGATCTTCGGTACTGGTAAGAGATTGGCTAAGAAGGTTGCTCGTCGTAACGCC'
p104
aS'TCTGACGCTGTCACTATTCGTACCAGAAAGGTTATCTCCAACCCATTGTTGGCCAGAAAGCAATTCGTTGTTGACGTCTTGCACCCAAACAGAGCTAATGTCTCCAAGGATGAATTACGTGAAAAATTAGCTGAAGTCTACAAGGCTGAAAAGGACGCTGTCTCCGTTTTCGGTTTCAGAACCCAATTTGGTGGTGGTAAATCTGTTGGTTTCGGTTTGGTCTACAACTCTGTTGCCGAAGCTAAGAAGTTCGAACCAACTTACAGATTAGTCAGATACGGTTTGGCTGAAAAGGTTGAAAAGGCTTCCAGACAACAAAGAAAGCAAAAGAAGAACAGAGACAAGAAGATCTTTGGTACTGGTAAAAGATTGGCCAAAAAGGTTGCTCGTCGTAACGCT'
p105
asg37
Nsg35
(lp106
sS'binary_characters'
p107
NsS'distributions'
p108
(lp109
sS'events'
p110
Nsbag17
(g41
g19
Ntp111
Rp112
(dp113
g23
(lp114
sg46
F1.0
sg47
(lp115
sg49
S'paradoxus'
p116
sg51
(lp117
sg32
(lp118
sg96
Nsg97
Nsg98
Nsg99
(lp119
sg101
Nsg102
(lp120
S'TCTGACGCTGTCACTATCCGTACTAGAAAGGTTATCTCCAACCCATTGTTGGCCAGAAAGCAATTCGTTGTCGACGTCTTGCACCCAAACAGAGCTAATGTCTCCAAGGATGAATTGCGTGAAAAGTTAGCTGAAGTCTACAAGGCTGAAAAGGACGCTGTCTCCGTTTTCGGTTTCAGAACCCAATTCGGTGGTGGTAAGTCTGTTGGTTTCGGTTTGATCTACAACTCTGTTGCTGAAGCTAAGAAGTTCGAACCAACCTACAGATTAGTCAGATACGGTTTGGCTGAAAAGGTTGAAAAGGCTTCCAGACAACAAAGAAAGCAAAAGAAGAACAGAGACAAGAAGATCTTCGGTACTGGTAAGAGATTGGCTAAGAAGGTTGCTCGTCGTAACGCC'
p121
aS'TCTGACGCTGTCACTATTCGTACCAGAAAGGTTATCTCCAACCCATTGTTGGCCAGAAAGCAATTCGTCGTCGACGTCTTGCACCCAAACAGAGCTAATGTCTCCAAGGATGAATTGCGTGAAAAGTTAGCTGAAGTCTACAAGGCTGAAAAGGATGCTGTTTCCGTTTTCGGTTTCAGAACCCAATTCGGTGGTGGTAAGTCTGTTGGTTTCGGTTTGATCTACAACTCTGTTGCTGAAGCTAAGAAGTTCGAACCAACCTACAGATTAGTCAGATACGGTTTGGCTGAAAAGGTTGAAAAGGCTTCCAGACAACAAAGAAAGCAAAAGAAGAACAGAGACAAGAAGATCTTCGGTACTGGCAAGAGATTGGCCAAGAAGGTTGCTCGTCGTAACGCT'
p122
asg37
Nsg35
(lp123
sg107
Nsg108
(lp124
sg110
Nsbasg32
(lp125
sg96
Nsg97
Nsg98
Nsg99
(lp126
sg101
Nsg102
(lp127
sg37
Nsg35
(lp128
sg107
Nsg108
(lp129
sg110
Nsbag17
(g41
g19
Ntp130
Rp131
(dp132
g23
(lp133
sg46
F1.0
sg47
(lp134
sg49
S'mikatae'
p135
sg51
(lp136
sg32
(lp137
sg96
Nsg97
Nsg98
Nsg99
(lp138
sg101
Nsg102
(lp139
S'TCTGACGCTGTCACTATCCGTACTAGAAAGGTTATCTCCAACCCATTGTTGGCCAGAAAGCAATTCGTTGTCGACGTCTTGCACCCAAACAGAGCTAATGTCTCCAAGGATGAATTGCGTGAAAAATTGGCCGAAGTCTACAAGGCTGAAAAGGACGCTGTCTCCGTTTTCGGTTTCAGAACCCAATTTGGTGGTGGTAAGTCTGTTGGTTTCGGTTTGGTCTACAACTCCGTCGCAGAAGCTAAAAAGTTCGAACCAACCTACAGATTAGTCAGATACGGCTTGGCTGAAAAGGTTGAAAAGGCTTCTAGACAACAAAGAAAGCAAAAGAAGAACAGAGACAAGAAGATCTTCGGTACTGGTAAGAGATTGGCTAAGAAGGTTGCTCGTCGTAACGCC'
p140
aS'TCTGACGCTGTCACTATTCGTACCAGAAAGGTTATCTCCAACCCATTGTTGGCCAGAAAGCAATTCGTTGTCGACGTCTTGCACCCAAACAGAGCTAATGTCTCCAAGGATGAATTGCGTGAAAAATTGGCCGAAGTCTACAAGGCTGAAAAGGACGCTGTCTCTGTTTTCGGTTTCAGAACCCAATTTGGTGGTGGTAAGTCTGTTGGTTTCGGTTTGGTCTACAACTCCGTCGCAGAAGCTAAAAAGTTCGAACCAACCTACAGATTAGTCAGATACGGCTTGGCTGAAAAGGTTGAAAAGGCTTCTAGACAACAAAGAAAGCAAAAGAAGAACAGAGACAAGAAGATCTTCGGTACCGGCAAAAGATTGGCCAAGAAGGTTGCTCGTCGTAACGCT'
p141
asg37
Nsg35
(lp142
sg107
Nsg108
(lp143
sg110
Nsbasg32
(lp144
sg96
Nsg97
Nsg98
Nsg99
(lp145
sg101
Nsg102
(lp146
sg37
Nsg35
(lp147
sg107
Nsg108
(lp148
sg110
Nsbag17
(g41
g19
Ntp149
Rp150
(dp151
g23
(lp152
sg46
F1.0
sg47
(lp153
sg49
S'kudriavzevii'
p154
sg51
(lp155
sg32
(lp156
sg96
Nsg97
Nsg98
Nsg99
(lp157
sg101
Nsg102
(lp158
S'TCTGACGCTGTCACTATCCGTACTAGAAAGGTTATCACCAACCCATTGTTGGCCAGAAAGCAATTCGTTGTCGACGTCTTGCACCCTAACAGAGCTAATGTCTCCAAGGATGAATTGCGTGAAAAGTTGGCTGAAGTTTACAAGGCTGAAAAGGACGCTGTCTCCGTTTTCGGTTTCAGAACCCAATTCGGTGGTGGTAAGTCTGTCGGTTTCGGTTTGATTTACAACTCTGTTGCTGAAGCCAAGAAGTTTGAACCAACCTACAGATTAGTCAGATATGGTTTGACTGAAAAGGTTGAAAAAGCTTCCAGACAACAAAGAAAGCAAAAGAAGAACAGAGACAAGAAGATCTTCGGTACTGGTAAGAGATTGGCTAAGAAAGTTGCTCGTCGTAACGCC'
p159
aS'TCTGACGCCGTCACTATCCGTACTAGAAAGGTTCTCTCCAACCCATTGTTGGCCAGAAAGCAATTCGTCGTCGACGTTTTGCACCCAAACAGAGCCAATGTCTCCAAGGATGAATTGCGTGAAAAATTGGCTGAAGTCTACAAGGCTGAAAAAGACGCTGTTTCCGTTTTTGGTTTCAGAACCCAATTCGGTGGTGGCAAGTCTGTTGGTTTCGGTTTGATTTACAACTCCGTTGCTGAGGCCAAGAAATTTGAACCAACCTACAGATTAGTCAGATATGGTTTGACTGAAAAGGTTGAAAAGGCTTCCAGACAACAAAGAAAGCAAAAGAAGAACAGAGACAAGAAGATTTTCGGTACCGGCAAGAGATTGGCCAAAAAGGTTGCTCGTCGTAACGCT'
p160
asg37
Nsg35
(lp161
sg107
Nsg108
(lp162
sg110
Nsbasg32
(lp163
sg96
Nsg97
Nsg98
Nsg99
(lp164
sg101
Nsg102
(lp165
sg37
Nsg35
(lp166
sg107
Nsg108
(lp167
sg110
Nsbag17
(g41
g19
Ntp168
Rp169
(dp170
g23
(lp171
sg46
F1.0
sg47
(lp172
sg49
S'bayanus'
p173
sg51
(lp174
sg32
(lp175
sg96
Nsg97
Nsg98
Nsg99
(lp176
sg101
Nsg102
(lp177
S'TCTGACGCTGTCACTATCCGTACTAGAAAGGTTATCTCCAACCCATTGTTGGCCAGAAAGCAATTCGTTGTCGACGTCTTGCACCCAAACAGAGCTAACGTCTCCAAGGATGAATTGCGTGAAAAATTGGCTGAAGTCTACAAGGCTGAGAAGGACGCTGTCTCCGTTTTCGGTTTCAGAACCCAATTCGGTGGTAGTAAGTCCGTTGGTTTCGGTTTGATCTACAACTCTGTTGCTGAAGCTAAGAAGTTCGAACCAACCTACAGATTAGTCAGATACGGTTTGGCTGAAAAGGTTGAAAAGGCTTCTAGACAACAAAGAAAGCAAAAGAAGAACAGAGACAAGAAGATCTTCGGTACTGGTAAGAGATTGGCTAAGAAGGTTGCTCGTCGTAACGCC'
p178
aS'TCTGACGCCGTCACTATTCGTACCAGAAAGGTCATCTCCAACCCATTGTTGGCCAGAAAGCAATTCGTTGTCGACGTCTTGCACCCAAACAGAGCTAACGTCTCCAAGGATGAATTGCGTGAAAAATTGGCTGAAGTCTACAAGGCTGAGAAGGACGCTGTCTCCGTTTTCGGTTTCAGAACCCAATTCGGTGGTAGTAAGTCCGTTGGTTTCGGTTTGATCTACAACTCTGTTGCTGAAGCTAAGAAGTTCGAACCAACCTACAGATTAGTCAGATACGGTTTGGCTGAAAAGGTTGAAAAGGCTTCTAGACAACAAAGAAAGCAAAAGAAGAACAGAGACAAGAAGATCTTCGGTACCGGTAAGAGATTGGCCAAGAAGGTTGCTCGTCGTAACGCT'
p179
asg37
Nsg35
(lp180
sg107
Nsg108
(lp181
sg110
Nsbasg32
(lp182
sg96
Nsg97
Nsg98
Nsg99
(lp183
sg101
Nsg102
(lp184
sg37
Nsg35
(lp185
sg107
Nsg108
(lp186
sg110
Nsbag17
(g41
g19
Ntp187
Rp188
(dp189
g23
(lp190
sg46
F1.0
sg47
(lp191
sg49
S'castellii'
p192
sg51
(lp193
sg32
(lp194
sg96
Nsg97
Nsg98
Nsg99
(lp195
sg101
Nsg102
(lp196
S'TCTGACGCTGTCACTATCCGTACTAGAAAGGTCATCACCAACCCATTATTGGCTAGAAAGCAATTCGTTGTTGACGTCTTACACCCAAACAGAGCTAATGTCTCTAAGGATGAATTACGTGAAAAGATTGCTGAAGTTTACAAGGCTGAAAAGGATGCTGTTTCCGTTTTCGGTTTCAGAACTCAATTCGGTGGTTCCAAGTCTACCGGTTTCGGTTTAGTCTACAACTCTGTTGCTGATGCTAAGAAGTTCGAACCAACCTACAGATTGGTCAGATACGGTTTAGCTGAAAAGGTCGAAAAGGCTTCCAGACAACAAAGAAAGCAAAAGAAGAACAGAGACAAGAAGGTCTTCGGTACTGGTAAGAGAAGAGCTAAGAAGGTTGCTCGTCGTAACGCT'
p197
aS'TCTGACGCTGTCACCATCCGTACCAGAAAGGTTATCACCAACCCATTGTTGGCTAGAAAGCAATTTGTTGTCGACGTCTTGCACCCAAACAGAGCTAATGTCTCTAAGGATGAATTACGTGAAAAGATTGCTGAAGTTTACAAGGCCGAAAAGGATGCTGTTTCCGTCTTCGGTTTCAGAACTCAATTTGGTGGTTCCAAATCTACAGGTTTTGGCTTAGTTTACAACTCTGTTGCTGATGCTAAGAAGTTCGAACCAACCTACAGATTAGTAAGATATGGTCTAGCTGAAAAGGTTGAAAAAGCTTCCAGACAACAAAGAAAGCAAAAGAAGAACAGAGACAAGAAGGTCTTTGGTACTGGTAAGAGAAGAGCTAAGAAGGTTGCTCGTCGTAATGCT'
p198
asg37
Nsg35
(lp199
sg107
Nsg108
(lp200
sg110
Nsbasg32
(lp201
sg96
Nsg97
Nsg98
Nsg99
(lp202
sg101
Nsg102
(lp203
sg37
Nsg35
(lp204
sg107
Nsg108
(lp205
sg110
Nsbag17
(g41
g19
Ntp206
Rp207
(dp208
g23
(lp209
sg46
F1.0
sg47
(lp210
sg49
S'kluyveri'
p211
sg51
(lp212
sg32
(lp213
sg96
Nsg97
Nsg98
Nsg99
(lp214
sg101
Nsg102
(lp215
S'TCTGACGCTATCACTATCCGTACTAGAAAGGTTATTTCCAACCCATTGTTGGCTAGAAAGCAATTCGTCATCGACGTCTTGCACCCAAACAGAGCCAACGTTTCCAAGGACGAATTGCGTGAAAAGTTGTCTGAAATCTACAAGGCTGAAAAGGACTCTGTTTCCGTTTTTGGTTTCAGAACTCAATTCGGTGGTGGTAAGTCCACTGGTTTCGGTTTAGTTTACAACTCTGTTGCCGACGCCAAGAAGTTCGAACCAACCTACAGATTGGTCAGATACGGTTTGGCTGAAAAGGTTGAAAAGGCCTCCAGACAACAAAGAAAGCAAAGAAAGAACAGAGGTAAGAAGGTCTTCGGTACTGGTAAGCGTTTGGCCAAGAAGGTTGCTCGTCGTAACGCT'
p216
asg37
Nsg35
(lp217
sg107
Nsg108
(lp218
sg110
Nsbasg32
(lp219
sg96
Nsg97
Nsg98
Nsg99
(lp220
sg101
Nsg102
(lp221
sg37
Nsg35
(lp222
sg107
Nsg108
(lp223
sg110
NsbsS'id'
p224
Nsg49
NsbsS'para'
p225
cnumpy.core.multiarray
_reconstruct
p226
(cnumpy
ndarray
p227
(I0
tp228
S'b'
p229
tp230
Rp231
(I1
(I4
tp232
g8
I00
S'o\xd5c\xfb\x7f#\xdf?\xf8\x82\x86\x9f\x1e2\xe3?X\xa8\xc7.\x93\xb4\xdc?f\xde\x1d\x05\xaf\xe9*@'
p233
tp234
bsS'err'
p235
F1e-10
sS'newicktree'
p236
S'../YeastTree.newick'
p237
sS'models'
p238
(dp239
S'HKY'
p240
I3
sS'F81'
p241
I2
sS'Codon'
p242
I6
sS'GTR'
p243
I4
sS'Codon_corrected'
p244
I7
sS'K80'
p245
I1
sS'Jukes-Cantor'
p246
I0
ssS'data'
p247
(dp248
(g116
S'YER074W'
p249
tp250
g121
s(g135
S'YIL069C'
p251
tp252
g141
s(g211
g249
tp253
g216
s(g93
g249
tp254
g104
s(g192
g249
tp255
g197
s(g154
g251
tp256
g160
s(g211
g251
tp257
g216
s(g93
g251
tp258
g105
s(g173
g251
tp259
g179
s(g154
g249
tp260
g159
s(g173
g249
tp261
g178
s(g116
g251
tp262
g122
s(g135
g249
tp263
g140
s(g192
g251
tp264
g198
ssS'duplication_node'
p265
S'N0'
p266
sS'nsites'
p267
I399
sS'root_branch'
p268
(g266
S'kluyveri'
p269
tp270
sS'nleaf'
p271
I7
sS'modelnum'
p272
I3
sS'paralog'
p273
(lp274
g249
ag251
asS'treetopo'
p275
g17
(cnetworkx.classes.digraph
DiGraph
p276
g19
Ntp277
Rp278
(dp279
S'node'
p280
(dp281
g192
(dp282
sg135
(dp283
sg79
(dp284
sg211
(dp285
sg116
(dp286
sg154
(dp287
sg173
(dp288
sg50
(dp289
sg58
(dp290
sg65
(dp291
sg72
(dp292
sg93
(dp293
sg86
(dp294
ssS'graph'
p295
(dp296
sS'succ'
p297
(dp298
g192
(dp299
sg135
(dp300
sg79
(dp301
g86
(dp302
sg135
(dp303
ssg211
(dp304
sg116
(dp305
sg154
(dp306
sg173
(dp307
sg50
(dp308
g58
(dp309
sg211
(dp310
ssg58
(dp311
g65
(dp312
sg192
(dp313
ssg65
(dp314
g72
(dp315
sg173
(dp316
ssg72
(dp317
g79
(dp318
sg154
(dp319
ssg93
(dp320
sg86
(dp321
g93
(dp322
sg116
(dp323
sssS'edge'
p324
g298
sS'pred'
p325
(dp326
g192
(dp327
g58
g313
ssg135
(dp328
g79
g303
ssg79
(dp329
g72
g318
ssg211
(dp330
g50
g310
ssg116
(dp331
g86
g323
ssg154
(dp332
g72
g319
ssg173
(dp333
g65
g316
ssg50
(dp334
sg58
(dp335
g50
g309
ssg65
(dp336
g58
g312
ssg72
(dp337
g65
g315
ssg93
(dp338
g86
g322
ssg86
(dp339
g79
g302
sssS'adj'
p340
g298
sbsS'seqloc'
p341
S'./YER074W_YIL069C_input.fasta'
p342
sS'blen'
p343
g226
(g227
(I0
tp344
g229
tp345
Rp346
(I1
(I12
tp347
g8
I00
S'\x00\x00\x00\x00\x00\x00\x00@\x00\x00\x00\x00\x00\x00\x00@\x00\x00\x00\x00\x00\x00\x00@\x00\x00\x00\x00\x00\x00\x00@\x00\x00\x00\x00\x00\x00\x00@\x00\x00\x00\x00\x00\x00\x00@\x00\x00\x00\x00\x00\x00\x00@\x00\x00\x00\x00\x00\x00\x00@\x00\x00\x00\x00\x00\x00\x00@\x00\x00\x00\x00\x00\x00\x00@\x00\x00\x00\x00\x00\x00\x00@\x00\x00\x00\x00\x00\x00\x00@'
p348
tp349
bsg40
g50
sS'edge_to_blen'
p350
(dp351
(g50
g58
tp352
g4
(g8
S'\xd1\x07\xca\xa4\xe0x\xb3?'
p353
tp354
Rp355
s(g86
g93
tp356
g4
(g8
S'\x06|<.wY\x92?'
p357
tp358
Rp359
s(g65
g72
tp360
g4
(g8
S'\xcf\x03\xc5\xbaF\xa0\xc6>'
p361
tp362
Rp363
s(g79
g86
tp364
g4
(g8
S'\x1ccBSt\xebk?'
p365
tp366
Rp367
s(g72
g154
tp368
g4
(g8
S'`p\xafbO"\x97?'
p369
tp370
Rp371
s(g65
g173
tp372
g4
(g8
S'\xd4\xbcF\xaeB\xa9\x90?'
p373
tp374
Rp375
s(g58
g65
tp376
g4
(g8
S'0I\x1a\xe5v\xe4\x97?'
p377
tp378
Rp379
s(g58
g192
tp380
g4
(g8
S'\x0c\x84~3\xb5\xb3\xab?'
p381
tp382
Rp383
s(g86
g116
tp384
g4
(g8
S'\x04\x8c\x85_\xd8\x12q?'
p385
tp386
Rp387
s(g79
g135
tp388
g4
(g8
S'/\xacH1#%\x94?'
p389
tp390
Rp391
s(g72
g79
tp392
g4
(g8
S'\xd5\xa2_MuQ\xb3>'
p393
tp394
Rp395
s(g50
g211
tp396
g4
(g8
S'\xb9,\x1a\x97&@:?'
p397
tp398
Rp399
ssb.