(dp0
(S'N0'
p1
S'N1'
p2
tp3
cnumpy.core.multiarray
scalar
p4
(cnumpy
dtype
p5
(S'f8'
p6
I0
I1
tp7
Rp8
(I3
S'<'
p9
NNNI-1
I-1
I0
tp10
bS'ip\xff\r\x04\xe6\x98>'
p11
tp12
Rp13
s(S'N5'
p14
S'cerevisiae'
p15
tp16
g4
(g8
S'\xee#\xda\xac\xf7{\xa5?'
p17
tp18
Rp19
s(S'N2'
p20
S'N3'
p21
tp22
g4
(g8
S'{F\xc5q(\xf3|?'
p23
tp24
Rp25
s(S'N4'
p26
g14
tp27
g4
(g8
S'=\xd6\xe3G"E\x9b?'
p28
tp29
Rp30
s(g21
S'kudriavzevii'
p31
tp32
g4
(g8
S'\xfe\x97P\xef\xbf\xd1\xb1?'
p33
tp34
Rp35
s(g20
S'bayanus'
p36
tp37
g4
(g8
S'\\xT\x7f\x877\xa2?'
p38
tp39
Rp40
s(g2
g20
tp41
g4
(g8
S'\xa1\xd4\xaeo\xce}\xb1?'
p42
tp43
Rp44
s(g2
S'castellii'
p45
tp46
g4
(g8
S'o\x0eK\x8dk\x97\xbd?'
p47
tp48
Rp49
s(g14
S'paradoxus'
p50
tp51
g4
(g8
S'\xba\xd6\xfc\xa3\x7f\x92\x8e?'
p52
tp53
Rp54
s(g26
S'mikatae'
p55
tp56
g4
(g8
S'\xe3~$\xd1=C\xb1?'
p57
tp58
Rp59
s(g21
g26
tp60
g4
(g8
S' \xa0|\x84`\xbe\x92?'
p61
tp62
Rp63
s(g1
S'kluyveri'
p64
tp65
g4
(g8
S'W,\x00\xc2\xbaW\xb2?'
p66
tp67
Rp68
s.