(dp0
(S'N0'
p1
S'N1'
p2
tp3
cnumpy.core.multiarray
scalar
p4
(cnumpy
dtype
p5
(S'f8'
p6
I0
I1
tp7
Rp8
(I3
S'<'
p9
NNNI-1
I-1
I0
tp10
bS'\xde\x1e\x04\x19\xbe\x11\xb5?'
p11
tp12
Rp13
s(S'N5'
p14
S'cerevisiae'
p15
tp16
g4
(g8
S'&xI\xcbw\xc1\x8a?'
p17
tp18
Rp19
s(S'N2'
p20
S'N3'
p21
tp22
g4
(g8
S'ne.\xc9\xcbE\xd1>'
p23
tp24
Rp25
s(S'N4'
p26
g14
tp27
g4
(g8
S'D\xfe\x9c\xdd\x03\x00\x92?'
p28
tp29
Rp30
s(g21
S'kudriavzevii'
p31
tp32
g4
(g8
S'r\xc2\xbf\xf5o\xbd\xa9?'
p33
tp34
Rp35
s(g20
S'bayanus'
p36
tp37
g4
(g8
S'r\x11\xe2\xec\x16-\xa1?'
p38
tp39
Rp40
s(g2
g20
tp41
g4
(g8
S' 5\xb0\xbd_\x87\xa7?'
p42
tp43
Rp44
s(g2
S'castellii'
p45
tp46
g4
(g8
S'N\xbf?\xbf\xed\xce\xb5?'
p47
tp48
Rp49
s(g14
S'paradoxus'
p50
tp51
g4
(g8
S'J\xc3\x89\xff\\\x95\x83?'
p52
tp53
Rp54
s(g26
S'mikatae'
p55
tp56
g4
(g8
S'\x02\xb3\x94\xf7~G\xa0?'
p57
tp58
Rp59
s(g21
g26
tp60
g4
(g8
S"M\xde'y\x04\xc8\x8d?"
p61
tp62
Rp63
s(g1
S'kluyveri'
p64
tp65
g4
(g8
S'\x00\x00\x00\x00\x00\x00\x00\x00'
p66
tp67
Rp68
s.