(dp0
(S'N0'
p1
S'N1'
p2
tp3
cnumpy.core.multiarray
scalar
p4
(cnumpy
dtype
p5
(S'f8'
p6
I0
I1
tp7
Rp8
(I3
S'<'
p9
NNNI-1
I-1
I0
tp10
bS'\xc6\xd1\xb3\xc4\x9a:z?'
p11
tp12
Rp13
s(S'N5'
p14
S'cerevisiae'
p15
tp16
g4
(g8
S'\xec=\x83\xa5\x94\xc6\xa3?'
p17
tp18
Rp19
s(S'N2'
p20
S'N3'
p21
tp22
g4
(g8
S'\xfe\xde\xac\x82\xe7\x94\x90?'
p23
tp24
Rp25
s(S'N4'
p26
g14
tp27
g4
(g8
S'E\xffI\xd9\xe6\xec~?'
p28
tp29
Rp30
s(g21
S'kudriavzevii'
p31
tp32
g4
(g8
S'R\x80\xb3|\xf8\xab\xb1?'
p33
tp34
Rp35
s(g20
S'bayanus'
p36
tp37
g4
(g8
S'\x84\x93\xbc\xdc\xea\xd5\xa5?'
p38
tp39
Rp40
s(g2
g20
tp41
g4
(g8
S'K3\xdf\xd9_B\xae?'
p42
tp43
Rp44
s(g2
S'castellii'
p45
tp46
g4
(g8
S'\x19D\x83M\xd4\xdb\xbb?'
p47
tp48
Rp49
s(g14
S'paradoxus'
p50
tp51
g4
(g8
S'\xd3\xe0m\xd0\xf8v\x91?'
p52
tp53
Rp54
s(g26
S'mikatae'
p55
tp56
g4
(g8
S'g4\xafw\xeb@\xb3?'
p57
tp58
Rp59
s(g21
g26
tp60
g4
(g8
S'a\xc2\xc9\xe9\x97\xd1\xca>'
p61
tp62
Rp63
s(g1
S'kluyveri'
p64
tp65
g4
(g8
S'x-\xc9\xec\xf7v\xb2?'
p66
tp67
Rp68
s.