(dp0
S'Force'
p1
(dp2
I5
F0.0
ssS'ExpectedGeneconv'
p3
(dp4
(S'N1'
p5
S'N2'
p6
tp7
F0.0
s(S'N5'
p8
S'cerevisiae'
p9
tp10
F0.0
s(g6
S'N3'
p11
tp12
F0.0
s(S'N4'
p13
g8
tp14
F0.0
s(g5
S'castellii'
p15
tp16
F0.0
s(g6
S'bayanus'
p17
tp18
F0.0
s(S'N0'
p19
g5
tp20
F0.0
s(g11
S'kudriavzevii'
p21
tp22
F0.0
s(g8
S'paradoxus'
p23
tp24
F0.0
s(g19
S'kluyveri'
p25
tp26
F0.0
s(g11
g13
tp27
F0.0
s(g13
S'mikatae'
p28
tp29
F0.0
ssS'ExpectedDwellTime'
p30
(dp31
g7
F677.1486766297163
sg10
F821.7928856655838
sg12
F819.5855391883044
sg14
F824.9596384108443
sg16
F640.7994773676703
sg18
F810.8394697616413
sg20
F71.17001711829504
sg22
F822.7153555575446
sg24
F828.100337619735
sg26
F0.0
sg27
F823.2623933244697
sg29
F816.8932968566924
ssS'newicktree'
p32
S'../PairsAlignemt/YeastTree.newick'
p33
sS'll'
p34
cnumpy.core.multiarray
scalar
p35
(cnumpy
dtype
p36
(S'f8'
p37
I0
I1
tp38
Rp39
(I3
S'<'
p40
NNNI-1
I-1
I0
tp41
bS'\x8f\xa1\xf2\x08\x10\xc9\xc8\xc0'
p42
tp43
Rp44
sS'edge_list'
p45
(lp46
g20
ag26
ag7
ag16
ag12
ag18
ag27
ag22
ag14
ag29
ag10
ag24
asS'edge_to_blen'
p47
(dp48
g20
g35
(g39
S'*X9g\x0ew\xb4?'
p49
tp50
Rp51
sg10
g35
(g39
S'\xf2\x8aD\xd2\xaa!\xc6?'
p52
tp53
Rp54
sg12
g35
(g39
S'\x10P\x1a\x19b,\xc2?'
p55
tp56
Rp57
sg14
g35
(g39
S'Tg4T\xdf\x1f\xbc?'
p58
tp59
Rp60
sg16
g35
(g39
S'+=\\a/=\x01@'
p61
tp62
Rp63
sg18
g35
(g39
S'wB\x15\xe2\xdc(\xd4?'
p64
tp65
Rp66
sg7
g35
(g39
S'\xf4f\xc3J\xedy\x03@'
p67
tp68
Rp69
sg22
g35
(g39
S'\x1e\x07\tz\xe6\xcf\xd0?'
p70
tp71
Rp72
sg24
g35
(g39
S'y\x11\xb6u\x08\xa3\xc2?'
p73
tp74
Rp75
sg29
g35
(g39
S'\xaeX\xbcA\xedI\xd1?'
p76
tp77
Rp78
sg27
g35
(g39
S'\x08\xecM\xbe\x98>\xc1?'
p79
tp80
Rp81
sg26
g35
(g39
S'H\n\xf1 \xe3\x16\xfa?'
p82
tp83
Rp84
ssS'paralog'
p85
(lp86
S'YDR518W'
p87
aS'YCL043C'
p88
asS'alignment_file'
p89
S'../MafftAlignment/YDR518W_YCL043C/YDR518W_YCL043C_input.fasta'
p90
sS'x_clock'
p91
NsS'x'
p92
cnumpy.core.multiarray
_reconstruct
p93
(cnumpy
ndarray
p94
(I0
tp95
S'b'
p96
tp97
Rp98
(I1
(I18
tp99
g39
I00
S'\x9bc\xe4\xbc\xc0\xcb\xe7\xbf\xe5]\xfa\xfb?\xbc\xe0\xbf\xe7D\n3\xc2\xab\xe7\xbfz\x0f\xda\x07/q\xed?r4\xc1\xf0l\xb2\x00\xc0\x8f4\x13\xd9\xc2\x88\xd5?1%\x93\xbb/6\x04\xc0r\x9a\xc7\x1a\xcdJ\xdf?\xed\xd9\xcd\xc7\xe0x\xec?n\xb8`\xb7D\x91\xe8?\xbc\x1d-\xb7\xb0;\xff\xbf\x91\x06+\x89\xb4{\xf2\xbf\xe6\xec\xee%J\t\x00\xc0`\xcc\xc80wc\xf5\xbf\xa9\xf1\xa3\x15\x15\xab\x01\xc0@\xa87\x0f\xf3\xf0\xf4\xbfz*P\xfb\x97\x14\xfc\xbfW\xa4\x1d*\x8a\xd4\xfe\xbf'
p100
tp101
bsS'Model'
p102
S'MG94'
p103
sS'clock'
p104
I00
s.