(dp0
S'Force'
p1
(dp2
I5
F0.0
ssS'ExpectedGeneconv'
p3
(dp4
(S'N1'
p5
S'N2'
p6
tp7
F0.0
s(S'N5'
p8
S'cerevisiae'
p9
tp10
F0.0
s(g6
S'N3'
p11
tp12
F0.0
s(S'N4'
p13
g8
tp14
F0.0
s(g5
S'castellii'
p15
tp16
F0.0
s(g6
S'bayanus'
p17
tp18
F0.0
s(S'N0'
p19
g5
tp20
F0.0
s(g11
S'kudriavzevii'
p21
tp22
F0.0
s(g8
S'paradoxus'
p23
tp24
F0.0
s(g19
S'kluyveri'
p25
tp26
F0.0
s(g11
g13
tp27
F0.0
s(g13
S'mikatae'
p28
tp29
F0.0
ssS'ExpectedDwellTime'
p30
(dp31
g7
F178.74152836889922
sg10
F314.82607551730473
sg12
F257.02176268730085
sg14
F298.2426437727318
sg16
F295.5465359192306
sg18
F292.36873306104036
sg20
F53.45244054969997
sg22
F303.01584563756177
sg24
F329.0245892520533
sg26
F0.0
sg27
F280.9507308800744
sg29
F320.8944372559209
ssS'newicktree'
p32
S'../PairsAlignemt/YeastTree.newick'
p33
sS'll'
p34
cnumpy.core.multiarray
scalar
p35
(cnumpy
dtype
p36
(S'f8'
p37
I0
I1
tp38
Rp39
(I3
S'<'
p40
NNNI-1
I-1
I0
tp41
bS'\xb5a}\x8db\xa9\xb6\xc0'
p42
tp43
Rp44
sS'edge_list'
p45
(lp46
g20
ag26
ag7
ag16
ag12
ag18
ag27
ag22
ag14
ag29
ag10
ag24
asS'edge_to_blen'
p47
(dp48
g20
g35
(g39
S'\xc2t(r\xf5q\xb4?'
p49
tp50
Rp51
sg10
g35
(g39
S'\x1dB\x07#_\x14\xbc?'
p52
tp53
Rp54
sg12
g35
(g39
S'g\xbf\x9a\xa8qF\xb4?'
p55
tp56
Rp57
sg14
g35
(g39
S"\x82>'0a\xef\xb4?"
p58
tp59
Rp60
sg22
g35
(g39
S'D\xe4x\xd9\xb7\xab\xc9?'
p61
tp62
Rp63
sg18
g35
(g39
S'K|\x97\xb1[\xa7\xc5?'
p64
tp65
Rp66
sg7
g35
(g39
S'I\x88\x04+\x85u\xc7?'
p67
tp68
Rp69
sg16
g35
(g39
S'\xf1\xc6\x89$\x19\xf2\xe5?'
p70
tp71
Rp72
sg24
g35
(g39
S'\xc5\x14r\xea\x14\xdc\xbb?'
p73
tp74
Rp75
sg29
g35
(g39
S'Y%\xa1Yup\xcc?'
p76
tp77
Rp78
sg27
g35
(g39
S'\x89\xf6\x91TS\x1c\xb8?'
p79
tp80
Rp81
sg26
g35
(g39
S']W\x8b\x0f\x00\xf0\xd6?'
p82
tp83
Rp84
ssS'paralog'
p85
(lp86
S'YDR502C'
p87
aS'YLR180W'
p88
asS'alignment_file'
p89
S'../MafftAlignment/YDR502C_YLR180W/YDR502C_YLR180W_input.fasta'
p90
sS'x_clock'
p91
NsS'x'
p92
cnumpy.core.multiarray
_reconstruct
p93
(cnumpy
ndarray
p94
(I0
tp95
S'b'
p96
tp97
Rp98
(I1
(I18
tp99
g39
I00
S"\xb3s\xdc\x1e\xe6\xd1\xe8\xbf\xec\x81&\x95n\xbf\xe1\xbf\x87\x1b\xb8\xb79@\xec\xbf\xde\x10\xc5d\xb3\xbe\xf5?\xf7\xcby\\\xdd\xc2\t\xc0\x8f4\x13\xd9\xc2\x88\xd5?1_\x1e\x1a.8\x04\xc0\xa5M\x84;\xf2j\xf0\xbf\xdf\x08q\xd0\xfb%\xfb\xbfl\xd7X\x12x#\xd8\xbf\x0e['8GI\x04\xc0\x0ea\x88M\xfcm\xfc\xbf\x04\x862\xf3r\xe6\x02\xc0w7\xf5\x0f\xf3\xb4\xf9\xbf\x92\x87\xba\xcd\xae\x07\x04\xc0Lj\xdawq\x11\xf8\xbfRDa:[\xae\x01\xc0D\xde\xce\xect\xbe\x01\xc0"
p100
tp101
bsS'Model'
p102
S'MG94'
p103
sS'clock'
p104
I00
s.