(dp0
S'Force'
p1
NsS'ExpectedGeneconv'
p2
(dp3
(S'N1'
p4
S'N2'
p5
tp6
F29.93188620835077
s(S'N5'
p7
S'cerevisiae'
p8
tp9
F7.235796553765542
s(g5
S'N3'
p10
tp11
F6.403425364231801
s(S'N4'
p12
g7
tp13
F4.639462873805527
s(g4
S'castellii'
p14
tp15
F44.662384128100925
s(g5
S'bayanus'
p16
tp17
F18.355196901923385
s(S'N0'
p18
g4
tp19
F33.511079012616314
s(g10
S'kudriavzevii'
p20
tp21
F12.901691383562856
s(g7
S'paradoxus'
p22
tp23
F1.733194986698404
s(g18
S'kluyveri'
p24
tp25
F0.0
s(g10
g12
tp26
F2.0157091585732307
s(g12
S'mikatae'
p27
tp28
F8.03759223706682
ssS'ExpectedDwellTime'
p29
(dp30
g6
F134.99252655715136
sg9
F150.335746791111
sg11
F146.17941128827914
sg13
F144.66049371800904
sg15
F125.89513302819638
sg17
F147.06496240088347
sg19
F73.73245571014506
sg21
F155.2508065381048
sg23
F145.78191023575238
sg25
F0.0
sg26
F144.5126547522758
sg28
F155.41206414664586
ssS'newicktree'
p31
S'../PairsAlignemt/YeastTree.newick'
p32
sS'll'
p33
cnumpy.core.multiarray
scalar
p34
(cnumpy
dtype
p35
(S'f8'
p36
I0
I1
tp37
Rp38
(I3
S'<'
p39
NNNI-1
I-1
I0
tp40
bS'&\xa7\x08\xc9\xcc\x15\xa3\xc0'
p41
tp42
Rp43
sS'edge_list'
p44
(lp45
g19
ag25
ag6
ag15
ag11
ag17
ag26
ag21
ag13
ag28
ag9
ag23
asS'edge_to_blen'
p46
(dp47
g19
g34
(g38
S'\xc9\xf2FR\xfb\xd1\xb6?'
p48
tp49
Rp50
sg9
g34
(g38
S'\xee\xfb\xbc\xfc\xfe\x18\x87?'
p51
tp52
Rp53
sg11
g34
(g38
S'\xfcs\xb6 \x83\x1c}?'
p54
tp55
Rp56
sg13
g34
(g38
S'|\xae\xfb\x05\xf0\xfbz?'
p57
tp58
Rp59
sg15
g34
(g38
S'} i\xda\x1c\xc6\xac?'
p60
tp61
Rp62
sg17
g34
(g38
S'zmqH\xc9\xb7\x95?'
p63
tp64
Rp65
sg6
g34
(g38
S'\xbeb\xb9(\xbbj\xa6?'
p66
tp67
Rp68
sg21
g34
(g38
S'\x87\xe6|X\x12G\x96?'
p69
tp70
Rp71
sg23
g34
(g38
S'"n\x8c$\xb5.f?'
p72
tp73
Rp74
sg28
g34
(g38
S'\x89w%/\x8bZ\x91?'
p75
tp76
Rp77
sg26
g34
(g38
S'\xc3xH\xb8\xc4\xaaa?'
p78
tp79
Rp80
sg25
g34
(g38
S'\x90%\xb38\xdeA\xf6>'
p81
tp82
Rp83
ssS'paralog'
p84
(lp85
S'YNL069C'
p86
aS'YIL133C'
p87
asS'alignment_file'
p88
S'../MafftAlignment/YNL069C_YIL133C/YNL069C_YIL133C_input.fasta'
p89
sS'x_clock'
p90
NsS'x'
p91
cnumpy.core.multiarray
_reconstruct
p92
(cnumpy
ndarray
p93
(I0
tp94
S'b'
p95
tp96
Rp97
(I1
(I18
tp98
g38
I00
S"\xf6\xb7!Y\x9f\xe5\xe7\xbf\xa4 \xaf\xf3l\xce\xe1\xbfw\xf0\x96\x0f\x1a\xc2\xea\xbf'\x86\x8by\x1b\xd9\xff?\xf2\x03b~\\\xae\xfa?\xba\n\x95\xa5#\x92\xf9?\xf3\x9ey\xb9\x19W\x03\xc0\x0f\xfd\x16\x98B\x85%\xc0\x8c\x84\x97\x8d/\x07\t\xc0.\xcf\xb1\x01\xe6\x07\x07\xc0\xa0\x9d\x80?[\xc9\x13\xc0<\x1b\xbd\xef\xa0\xd3\x0e\xc0Z\x08\xdbb\x8d\x8e\x18\xc0\x15\xf8\xc1K\x84\x9f\x0e\xc0\xca\x90!\xc0\x0e\x17\x14\xc0oay\xe6\x87O\x10\xc0<\x13\xa9\x9c\x86\xf0\x11\xc0\x1b\xed2\x93}\xa5\x17\xc0"
p99
tp100
bsS'Model'
p101
S'HKY'
p102
sS'clock'
p103
I00
s.