(dp0
S'Force'
p1
NsS'ExpectedGeneconv'
p2
(dp3
(S'N1'
p4
S'N2'
p5
tp6
F62.792027452422744
s(S'N5'
p7
S'cerevisiae'
p8
tp9
F24.053661660511835
s(g5
S'N3'
p10
tp11
F8.412356732381088
s(S'N4'
p12
g7
tp13
F11.408978961567694
s(g4
S'castellii'
p14
tp15
F105.23376973771451
s(g5
S'bayanus'
p16
tp17
F22.039684185284035
s(S'N0'
p18
g4
tp19
F11.498452913332915
s(g10
S'kudriavzevii'
p20
tp21
F20.556734572819924
s(g7
S'paradoxus'
p22
tp23
F7.227043462604391
s(g18
S'kluyveri'
p24
tp25
F0.0
s(g10
g12
tp26
F8.918273067866652
s(g12
S'mikatae'
p27
tp28
F25.772811274356943
ssS'ExpectedDwellTime'
p29
(dp30
g6
F576.7772329419824
sg9
F775.9194458647994
sg11
F768.1164232968517
sg13
F787.4944080172058
sg15
F592.8191237511998
sg17
F750.2994542182951
sg19
F194.46331840604122
sg21
F787.4521568298787
sg23
F782.5638481667643
sg25
F0.0
sg26
F787.6484731077456
sg28
F783.5655005212229
ssS'newicktree'
p31
S'../PairsAlignemt/YeastTree.newick'
p32
sS'll'
p33
cnumpy.core.multiarray
scalar
p34
(cnumpy
dtype
p35
(S'f8'
p36
I0
I1
tp37
Rp38
(I3
S'<'
p39
NNNI-1
I-1
I0
tp40
bS'\xd5\x9cKgFq\xbf\xc0'
p41
tp42
Rp43
sS'edge_list'
p44
(lp45
g19
ag25
ag6
ag15
ag11
ag17
ag26
ag21
ag13
ag28
ag9
ag23
asS'edge_to_blen'
p46
(dp47
g19
g34
(g38
S'\xc8\xe5\xda\xea\xf8\x01\xc0?'
p48
tp49
Rp50
sg9
g34
(g38
S'\xc7\xd2o\xc5\x99\xe3\xac?'
p51
tp52
Rp53
sg11
g34
(g38
S'[\xc4\xd78h%\xa2?'
p54
tp55
Rp56
sg13
g34
(g38
S'D\x9a\xe8.\xd5;\x9f?'
p57
tp58
Rp59
sg15
g34
(g38
S'\x92\xfb\x9c3"K\xd6?'
p60
tp61
Rp62
sg17
g34
(g38
S'\xae\x12r\xde\xfbc\xad?'
p63
tp64
Rp65
sg6
g34
(g38
S'\x81M\x838:s\xd0?'
p66
tp67
Rp68
sg21
g34
(g38
S'\x91\x89\xdd\xd0\xc5\xe6\xae?'
p69
tp70
Rp71
sg23
g34
(g38
S'bL\x8a\x0f\x99\xb5\x96?'
p72
tp73
Rp74
sg28
g34
(g38
S'Pr\xa4\x06\xffT\xb1?'
p75
tp76
Rp77
sg26
g34
(g38
S'\x9c\xb96\x17\xbb\xcd\x99?'
p78
tp79
Rp80
sg25
g34
(g38
S'\x1dz\x9e\x1a\xb5\x1c\xce?'
p81
tp82
Rp83
ssS'paralog'
p84
(lp85
S'YPL087W'
p86
aS'YBR183W'
p87
asS'alignment_file'
p88
S'../MafftAlignment/YPL087W_YBR183W/YPL087W_YBR183W_input.fasta'
p89
sS'x_clock'
p90
NsS'x'
p91
cnumpy.core.multiarray
_reconstruct
p92
(cnumpy
ndarray
p93
(I0
tp94
S'b'
p95
tp96
Rp97
(I1
(I18
tp98
g38
I00
S"\x1dl\xff\xee\xed-\xe8\xbf~\xa7\xf7e\xb0\x9d\xe2\xbf\x82 \xd6{\xdc\x99\xf0\xbf\t\to{\x8d\xec\xf3?\xaf\x1eX\xc1\xe18\xe3\xbf$\tiKa\xf8\xed\xbf\xa6g\\\xd9\xb5\xa1\x00\xc0\xb1.TST'\xf7\xbf';^\x12\xa0\xbc\xf5\xbfw'\x03\x08\x98\xdf\xf0\xbf\xedw\xae\x98\x0c\xb8\n\xc08\x18\xd6#x\xdc\x06\xc0L\xf4\xd7C\x99r\r\xc0\xba\xcc\x84\xbd\xcdu\x06\xc0\xe6\xe3(6w\xeb\x0b\xc0!1\x8cf}\x8a\x05\xc0\xe7\xb7\xfe^\xb7\xff\x06\xc0\xddO\n\xbc4x\x0e\xc0"
p99
tp100
bsS'Model'
p101
S'HKY'
p102
sS'clock'
p103
I00
s.