(dp0
S'Force'
p1
NsS'ExpectedGeneconv'
p2
(dp3
(S'N1'
p4
S'N2'
p5
tp6
F148.16508799517703
s(S'N5'
p7
S'cerevisiae'
p8
tp9
F8.147577575301433
s(g5
S'N3'
p10
tp11
F4.782188861500633
s(S'N4'
p12
g7
tp13
F4.845946022864972
s(g4
S'castellii'
p14
tp15
F137.44488611620068
s(g5
S'bayanus'
p16
tp17
F14.515508409256281
s(S'N0'
p18
g4
tp19
F3.4825289840438387
s(g10
S'kudriavzevii'
p20
tp21
F10.470413650546387
s(g7
S'paradoxus'
p22
tp23
F5.26750331164851
s(g18
S'kluyveri'
p24
tp25
F0.0
s(g10
g12
tp26
F5.775707906317472
s(g12
S'mikatae'
p27
tp28
F11.7621761124762
ssS'ExpectedDwellTime'
p29
(dp30
g6
F676.3676914125382
sg9
F821.6200900058502
sg11
F818.5175773311092
sg13
F825.8088671121369
sg15
F647.1287917730482
sg17
F808.4149695532034
sg19
F145.43702135825373
sg21
F821.5444500151866
sg23
F828.0174689101646
sg25
F0.0
sg26
F823.7280268382434
sg28
F816.0258305654846
ssS'newicktree'
p31
S'../PairsAlignemt/YeastTree.newick'
p32
sS'll'
p33
cnumpy.core.multiarray
scalar
p34
(cnumpy
dtype
p35
(S'f8'
p36
I0
I1
tp37
Rp38
(I3
S'<'
p39
NNNI-1
I-1
I0
tp40
bS'\xaa\xeafN\xaf\xb7\xc8\xc0'
p41
tp42
Rp43
sS'edge_list'
p44
(lp45
g19
ag25
ag6
ag15
ag11
ag17
ag26
ag21
ag13
ag28
ag9
ag23
asS'edge_to_blen'
p46
(dp47
g19
g34
(g38
S'\xab|/\xefe+\xc7?'
p48
tp49
Rp50
sg9
g34
(g38
S'~@\x80\xaed\t\xc5?'
p51
tp52
Rp53
sg11
g34
(g38
S'kxK#Ar\xc0?'
p54
tp55
Rp56
sg13
g34
(g38
S'\xa09\xe1\xd8Pz\xba?'
p57
tp58
Rp59
sg21
g34
(g38
S'\x13\x87\x0ed&\x07\xd0?'
p60
tp61
Rp62
sg17
g34
(g38
S'\xf6\xb5\x86\x90L\x91\xd3?'
p63
tp64
Rp65
sg6
g34
(g38
S'\xa1\xa0{\xa3\xb8\xcc\x04@'
p66
tp67
Rp68
sg15
g34
(g38
S'\xd3aG\xb9GS\x02@'
p69
tp70
Rp71
sg23
g34
(g38
S'\x9a\xb3N3\xb1\x86\xc1?'
p72
tp73
Rp74
sg28
g34
(g38
S'"-\xca\xd9Hk\xd0?'
p75
tp76
Rp77
sg26
g34
(g38
S'\x9f\xac\x021hg\xc0?'
p78
tp79
Rp80
sg25
g34
(g38
S'h\xe2\xd7\xbb\x13\x0f\xf9?'
p81
tp82
Rp83
ssS'paralog'
p84
(lp85
S'YDR518W'
p86
aS'YCL043C'
p87
asS'alignment_file'
p88
S'../MafftAlignment/YDR518W_YCL043C/YDR518W_YCL043C_input.fasta'
p89
sS'x_clock'
p90
NsS'x'
p91
cnumpy.core.multiarray
_reconstruct
p92
(cnumpy
ndarray
p93
(I0
tp94
S'b'
p95
tp96
Rp97
(I1
(I19
tp98
g38
I00
S"\xef5\xc0\x9f\xf2\x9e\xe7\xbf\xfd\xe1\xea\r~\xcc\xe0\xbffI\x10\xeb%\xb6\xe7\xbf\x1b<7\xfeBt\xed?\xb9p<\xb2:0\x01\xc0\xb3\xfe\xc0\xa7h+\x02\xc0\x9dA\xd8\xcd\xa4h\xf6\xbfv\xccD2\xdaX\xfb\xbfZ\x8d\xe2\x13\x85\xb6\xdc?\xfc,_\xb8m\x93\xee?\xd6.\xb2:\xdf\x85\xea?.\xf2\xbf\xeeYj\x00\xc0\xb5\xed\xc3A\xcc\xf5\xf2\xbf\xc1r=x\xa2o\x00\xc0\xc7\xd9k3\x1e'\xf6\xbf\xdf\xc4N\xcf\xa5&\x02\xc0/\r\x18\xac[\xc4\xf5\xbf\xa4Vf\xc9f\xe4\xfc\xbfF\xf6/&:\xd0\xff\xbf"
p99
tp100
bsS'Model'
p101
S'MG94'
p102
sS'clock'
p103
I00
s.