(dp0
S'Force'
p1
NsS'ExpectedGeneconv'
p2
(dp3
(S'N1'
p4
S'N2'
p5
tp6
F36.33058966876017
s(S'N5'
p7
S'cerevisiae'
p8
tp9
F6.402864096688215
s(g5
S'N3'
p10
tp11
F2.5650130798984137
s(S'N4'
p12
g7
tp13
F1.3607735571018689
s(g4
S'castellii'
p14
tp15
F59.0888193020244
s(g5
S'bayanus'
p16
tp17
F12.022476024249752
s(S'N0'
p18
g4
tp19
F41.41310925417291
s(g10
S'kudriavzevii'
p20
tp21
F4.996227249006697
s(g7
S'paradoxus'
p22
tp23
F2.3218197465824972
s(g18
S'kluyveri'
p24
tp25
F0.0
s(g10
g12
tp26
F5.054196606948687
s(g12
S'mikatae'
p27
tp28
F7.912031305254395
ssS'ExpectedDwellTime'
p29
(dp30
g6
F43.782947393528325
sg9
F47.88226958522935
sg11
F36.677297277484676
sg13
F43.91795307081621
sg15
F51.632457937202844
sg17
F27.52534103361325
sg19
F33.74262024500939
sg21
F43.81916785552379
sg23
F52.12786238311697
sg25
F0.0
sg26
F39.91477237834245
sg28
F43.947624433688325
ssS'newicktree'
p31
S'../PairsAlignemt/YeastTree.newick'
p32
sS'll'
p33
cnumpy.core.multiarray
scalar
p34
(cnumpy
dtype
p35
(S'f8'
p36
I0
I1
tp37
Rp38
(I3
S'<'
p39
NNNI-1
I-1
I0
tp40
bS'\x07\x97\xf1\xffs\xc7\x94\xc0'
p41
tp42
Rp43
sS'edge_list'
p44
(lp45
g19
ag25
ag6
ag15
ag11
ag17
ag26
ag21
ag13
ag28
ag9
ag23
asS'edge_to_blen'
p46
(dp47
g19
g34
(g38
S'\x80\x9cO@\xbb>\xbc?'
p48
tp49
Rp50
sg9
g34
(g38
S'\x15\x8fd\xb5\xaew\x8b?'
p51
tp52
Rp53
sg11
g34
(g38
S'\x94\x8f\x11\x1c\x11\xbe}?'
p54
tp55
Rp56
sg13
g34
(g38
S'\x19)\xd0\\\t"t?'
p57
tp58
Rp59
sg15
g34
(g38
S'\x12\x0bWF\xe5M\xbb?'
p60
tp61
Rp62
sg17
g34
(g38
S'\xe3-\x84\x9c\xe1\xcd\x94?'
p63
tp64
Rp65
sg6
g34
(g38
S'B\x99N\xb4\x95\xb7\xaf?'
p66
tp67
Rp68
sg21
g34
(g38
S'g\xacZ\xab\xd9\xd5\x8c?'
p69
tp70
Rp71
sg23
g34
(g38
S'1\xaf\xa2G-\x19\x82?'
p72
tp73
Rp74
sg28
g34
(g38
S'\x8a\x0c~48;\x92?'
p75
tp76
Rp77
sg26
g34
(g38
S'\xee\x9b&\x14\x1b \x86?'
p78
tp79
Rp80
sg25
g34
(g38
S'\xae\xe5\xdfJ\x8f\xac ?'
p81
tp82
Rp83
ssS'paralog'
p84
(lp85
S'YLR333C'
p86
aS'YGR027C'
p87
asS'alignment_file'
p88
S'../MafftAlignment/YLR333C_YGR027C/YLR333C_YGR027C_input.fasta'
p89
sS'x_clock'
p90
NsS'x'
p91
cnumpy.core.multiarray
_reconstruct
p92
(cnumpy
ndarray
p93
(I0
tp94
S'b'
p95
tp96
Rp97
(I1
(I18
tp98
g38
I00
S">`6c\xe0\x9d\xe7\xbf\xc3\xe1s\xdf\xa2R\xe0\xbff\x13\x07\x17\xf7H\xe9\xbf\xcc(>p$e\x00@3\xd2+9\xdf\xa1\xf8?G\x1c<\x11\x9b\x12\x07@\x85\xc9\xf4\xc1R\xa2\x01\xc0F@\xed\xabu\xf0!\xc0\xf4k\xf9,r@\x06\xc0\xb5*\xf0\xca\xb2\xe7\x01\xc0*+\x0b>e\xb3\x13\xc01\xefx\x9a\xa7+\x0f\xc0\xfbM\x81\xc0\x8f\x1c\x12\xc0^\xef\xb0HT\r\x11\xc0@'\xe7X\xfaB\x15\xc0\xd7b\x1e\xa9\x02\x1d\x10\xc0\xd9.\xae\n\x18?\x11\xc0\xd2\r\x9f\x1eJ\xea\x12\xc0"
p99
tp100
bsS'Model'
p101
S'HKY'
p102
sS'clock'
p103
I00
s.