(dp0
S'Force'
p1
NsS'ExpectedGeneconv'
p2
(dp3
(S'N1'
p4
S'N2'
p5
tp6
F249.27543173900114
s(S'N5'
p7
S'cerevisiae'
p8
tp9
F10.770260872768072
s(g5
S'N3'
p10
tp11
F13.703738815093887
s(S'N4'
p12
g7
tp13
F6.724767255953709
s(g4
S'castellii'
p14
tp15
F272.1421841634529
s(g5
S'bayanus'
p16
tp17
F18.28568366895187
s(S'N0'
p18
g4
tp19
F39.60887160156109
s(g10
S'kudriavzevii'
p20
tp21
F15.844909170415056
s(g7
S'paradoxus'
p22
tp23
F8.398034140064292
s(g18
S'kluyveri'
p24
tp25
F0.0
s(g10
g12
tp26
F5.664891730525038
s(g12
S'mikatae'
p27
tp28
F18.875005519195856
ssS'ExpectedDwellTime'
p29
(dp30
g6
F1202.7674889704876
sg9
F1315.0518172380798
sg11
F1301.8460918848386
sg13
F1314.7977755360657
sg15
F1226.1179739775778
sg17
F1304.0443258250787
sg19
F598.6023595148175
sg21
F1308.3377076724275
sg23
F1325.4106090945697
sg25
F0.0
sg26
F1307.0126889131868
sg28
F1327.394540638396
ssS'newicktree'
p31
S'../PairsAlignemt/YeastTree.newick'
p32
sS'll'
p33
cnumpy.core.multiarray
scalar
p34
(cnumpy
dtype
p35
(S'f8'
p36
I0
I1
tp37
Rp38
(I3
S'<'
p39
NNNI-1
I-1
I0
tp40
bS'\xaa6\x0f\x9eu8\xd5\xc0'
p41
tp42
Rp43
sS'edge_list'
p44
(lp45
g19
ag25
ag6
ag15
ag11
ag17
ag26
ag21
ag13
ag28
ag9
ag23
asS'edge_to_blen'
p46
(dp47
g19
g34
(g38
S'@,j\x04g\x1a\xe4?'
p48
tp49
Rp50
sg9
g34
(g38
S'\xbe\x90\x9bu\x08\xe7\xc8?'
p51
tp52
Rp53
sg11
g34
(g38
S'\x90}\x1e\x86\xc6\x04\xca?'
p54
tp55
Rp56
sg13
g34
(g38
S'X\x164@.2\xc0?'
p57
tp58
Rp59
sg15
g34
(g38
S'|\x1cuvC\xf2\n@'
p60
tp61
Rp62
sg17
g34
(g38
S'\xfd\xf3\xc2\xbe\x08\x87\xd1?'
p63
tp64
Rp65
sg6
g34
(g38
S'\xec\x12%\t\xbd\x1b\x07@'
p66
tp67
Rp68
sg21
g34
(g38
S'\xa5}\x15\xa4\x14\xb6\xd0?'
p69
tp70
Rp71
sg23
g34
(g38
S'p\x81)b*C\xc2?'
p72
tp73
Rp74
sg25
g34
(g38
S'C\xcd\xa7\x0bp\xf5\x06@'
p75
tp76
Rp77
sg26
g34
(g38
S'\xb9LV\x12\x0f\xb8\xbc?'
p78
tp79
Rp80
sg28
g34
(g38
S'vR\xdc\x0bA|\xd4?'
p81
tp82
Rp83
ssS'paralog'
p84
(lp85
S'YIR033W'
p86
aS'YKL020C'
p87
asS'alignment_file'
p88
S'../MafftAlignment/YIR033W_YKL020C/YIR033W_YKL020C_input.fasta'
p89
sS'x_clock'
p90
NsS'x'
p91
cnumpy.core.multiarray
_reconstruct
p92
(cnumpy
ndarray
p93
(I0
tp94
S'b'
p95
tp96
Rp97
(I1
(I19
tp98
g38
I00
S'U\xc0\xe9X\x8b\x15\xe5\xbf\xcc\x05`\xaa\xbb\xac\xdd\xbf\xb9Y\xd2)\xb62\xee\xbf\xf0\x8d\x8dE\xd4\\\xef?\xa70\xa4C\x19\xb2\x03\xc0TI\r\xa4\xf3\xf5\xf4\xbf"\xa5\xc9\\4K\x10\xc0\xd7\xfc\xae\xd2D\xc0\xdd\xbf\xeb\x08\xb9\xc9<\xde\xf0?]#\x8f\xbd\xd7\xf8\xf0?\xdb\xf3\x08\xff4n\xf3?\xbc]\x11\x99\xd0}\xf9\xbf\x11\x9f\x91\xbb\xc8\xb8\xf4\xbf\x0cP\r\x81>\x80\x01\xc0\xa3\xc2\xab\xae\x1c|\xf5\xbfP\x03\x03&\xc2\x89\x00\xc0\x8f^W\xa9\x0c:\xf2\xbf:_~"i1\xfa\xbf!eSs\xae\'\xff\xbf'
p99
tp100
bsS'Model'
p101
S'MG94'
p102
sS'clock'
p103
I00
s.