(dp0
S'Force'
p1
NsS'ExpectedGeneconv'
p2
(dp3
(S'N1'
p4
S'N2'
p5
tp6
F21.455750607514485
s(S'N5'
p7
S'cerevisiae'
p8
tp9
F7.886280235921901
s(g5
S'N3'
p10
tp11
F1.1144566866443293
s(S'N4'
p12
g7
tp13
F4.838314772958226
s(g4
S'castellii'
p14
tp15
F10.146375774778036
s(g5
S'bayanus'
p16
tp17
F10.497964272393958
s(S'N0'
p18
g4
tp19
F0.45699851456969803
s(g10
S'kudriavzevii'
p20
tp21
F8.069802634362356
s(g7
S'paradoxus'
p22
tp23
F5.154023408657713
s(g18
S'kluyveri'
p24
tp25
F0.0
s(g10
g12
tp26
F3.587467923031067
s(g12
S'mikatae'
p27
tp28
F12.37689278766126
ssS'ExpectedDwellTime'
p29
(dp30
g6
F213.28496442977718
sg9
F353.4261512411592
sg11
F341.1966987915623
sg13
F346.8744020111026
sg15
F120.24468526331698
sg17
F343.30393441224794
sg19
F27.954315456676262
sg21
F344.46869971776266
sg23
F355.8856730214492
sg25
F0.0
sg26
F342.43929653443723
sg28
F339.4174779819059
ssS'newicktree'
p31
S'../PairsAlignemt/YeastTree.newick'
p32
sS'll'
p33
cnumpy.core.multiarray
scalar
p34
(cnumpy
dtype
p35
(S'f8'
p36
I0
I1
tp37
Rp38
(I3
S'<'
p39
NNNI-1
I-1
I0
tp40
bS'\x81\xe1\xdb\xa5Tv\xa8\xc0'
p41
tp42
Rp43
sS'edge_list'
p44
(lp45
g19
ag25
ag6
ag15
ag11
ag17
ag26
ag21
ag13
ag28
ag9
ag23
asS'edge_to_blen'
p46
(dp47
g19
g34
(g38
S'\xdd\xf1\xad\x90x\x9c\xa1?'
p48
tp49
Rp50
sg9
g34
(g38
S'\xf0\x17\x8f<\x17\xf5\xa5?'
p51
tp52
Rp53
sg11
g34
(g38
S'\x0b]\xe6\x0f\xdf\xab\x81?'
p54
tp55
Rp56
sg13
g34
(g38
S'\xb1w5\xb2\xa7\x91\x9e?'
p57
tp58
Rp59
sg15
g34
(g38
S'\\W\xa6\x05\rv\xbd?'
p60
tp61
Rp62
sg17
g34
(g38
S'IS\xe2\xdd1\xc7\xb0?'
p63
tp64
Rp65
sg6
g34
(g38
S'\x10\xde\xa0%\xfc\xc5\xd1?'
p66
tp67
Rp68
sg21
g34
(g38
S'\x8d\x0b>J8r\xab?'
p69
tp70
Rp71
sg23
g34
(g38
S'\xf7\xf4\x98Q\xf7=\x9e?'
p72
tp73
Rp74
sg28
g34
(g38
S'\x11\x01\x05\x81\xdf\x10\xb0?'
p75
tp76
Rp77
sg26
g34
(g38
S'N]Z\xe5\x00\r\x90?'
p78
tp79
Rp80
sg25
g34
(g38
S'\xe6\x0b\x90#\x88\x9f\xc1?'
p81
tp82
Rp83
ssS'paralog'
p84
(lp85
S'YPL037C'
p86
aS'YDR252W'
p87
asS'alignment_file'
p88
S'../MafftAlignment/YPL037C_YDR252W/YPL037C_YDR252W_input.fasta'
p89
sS'x_clock'
p90
NsS'x'
p91
cnumpy.core.multiarray
_reconstruct
p92
(cnumpy
ndarray
p93
(I0
tp94
S'b'
p95
tp96
Rp97
(I1
(I18
tp98
g38
I00
S"\x9d\x997w\x11\x8d\xe5\xbf\xd2\x9fP\xe9\x88\xd4\xdc\xbf\xac\xd0a \x90\x98\xe6\xbf\xbf\xc9z\xce\x0c\xf0\xf6??]'\xf2\t\x89\xab\xbf[\n\xf9\\\x08O!\xc0k\x87\xf3\xcaS\xf5\n\xc0\x18p\xe6\xf1\x9c\xb9\xff\xbf\x9c\xcf\xdd\xfc\xb7\x7f\xf4\xbfi\x94l\xf3\xfdK\x01\xc0\r:G\xb8\xbc\x02\x13\xc0\xf0\xd3G\xa5\x02\xcd\x05\xc0K\xe0\\Ws\x9f\x10\xc0\xbc\x1d\xa0\t\xa6h\x07\xc0@7)?\x86\x17\x0c\xc0\x8c\x9a&\xae\xd7%\x06\xc0\xaa\xbdv\xcf\x9a1\t\xc0\xd8\x14\xfbE\x8b-\x0c\xc0"
p99
tp100
bsS'Model'
p101
S'HKY'
p102
sS'clock'
p103
I00
s.