(dp0
S'Force'
p1
NsS'ExpectedGeneconv'
p2
(dp3
(S'N1'
p4
S'N2'
p5
tp6
F20.34237639282621
s(S'N5'
p7
S'cerevisiae'
p8
tp9
F12.807358551006134
s(g5
S'N3'
p10
tp11
F4.60637269649037
s(S'N4'
p12
g7
tp13
F2.0504450382996047
s(g4
S'castellii'
p14
tp15
F24.970076311234585
s(g5
S'bayanus'
p16
tp17
F12.769290444185504
s(S'N0'
p18
g4
tp19
F28.07930043292001
s(g10
S'kudriavzevii'
p20
tp21
F9.439820739465754
s(g7
S'paradoxus'
p22
tp23
F2.994822980851691
s(g18
S'kluyveri'
p24
tp25
F0.0
s(g10
g12
tp26
F2.8342474024418864
s(g12
S'mikatae'
p27
tp28
F5.932163145028444
ssS'ExpectedDwellTime'
p29
(dp30
g6
F44.60783931482994
sg9
F54.64017077144621
sg11
F51.096742293609324
sg13
F61.298085565344174
sg15
F42.349745100715914
sg17
F38.37562903525487
sg19
F31.514659463714707
sg21
F57.408194802290915
sg23
F61.245146102942634
sg25
F0.0
sg26
F59.444516490308345
sg28
F69.81622258817723
ssS'newicktree'
p31
S'../PairsAlignemt/YeastTree.newick'
p32
sS'll'
p33
cnumpy.core.multiarray
scalar
p34
(cnumpy
dtype
p35
(S'f8'
p36
I0
I1
tp37
Rp38
(I3
S'<'
p39
NNNI-1
I-1
I0
tp40
bS'\xfa\x1d\x11u\xd9\x8a\x95\xc0'
p41
tp42
Rp43
sS'edge_list'
p44
(lp45
g19
ag25
ag6
ag15
ag11
ag17
ag26
ag21
ag13
ag28
ag9
ag23
asS'edge_to_blen'
p46
(dp47
g19
g34
(g38
S'\x81\xb3ll}\x85\xcf?'
p48
tp49
Rp50
sg9
g34
(g38
S'\xb0W\xceN\xdeE\xaa?'
p51
tp52
Rp53
sg11
g34
(g38
S'\n\x81\n\x05\x92.\xa4?'
p54
tp55
Rp56
sg13
g34
(g38
S'L@\xe9?\x80\xa2\x81?'
p57
tp58
Rp59
sg15
g34
(g38
S'\xb3\x82\xb0\xe3\x1f\xeb\xc2?'
p60
tp61
Rp62
sg17
g34
(g38
S'I;F\xaan\xf8\xad?'
p63
tp64
Rp65
sg6
g34
(g38
S'v\x9c:z\r\\\xc0?'
p66
tp67
Rp68
sg21
g34
(g38
S'X\x81\xbd%\x04\xee\xaa?'
p69
tp70
Rp71
sg23
g34
(g38
S'\x159\xe7\xdd\xea\xcd\x93?'
p72
tp73
Rp74
sg28
g34
(g38
S'\x8d\xa0\x18\x8cXG\xa8?'
p75
tp76
Rp77
sg26
g34
(g38
S'\x91\xd5\x9euX%\x95?'
p78
tp79
Rp80
sg25
g34
(g38
S'Y\x84\xe0T\x0c\xeb\xc3>'
p81
tp82
Rp83
ssS'paralog'
p84
(lp85
S'YBL087C'
p86
aS'YER117W'
p87
asS'alignment_file'
p88
S'../MafftAlignment/YBL087C_YER117W/YBL087C_YER117W_input.fasta'
p89
sS'x_clock'
p90
NsS'x'
p91
cnumpy.core.multiarray
_reconstruct
p92
(cnumpy
ndarray
p93
(I0
tp94
S'b'
p95
tp96
Rp97
(I1
(I19
tp98
g38
I00
S"\xd8\xae+\xf4S\x08\xe7\xbf\x12\xeb\xf9\x8b\xa1f\xe3\xbfR\xeb\xc6d\x0f\x81\xef\xbf\xa4\xda\x98\xc4\x01\x01\x01@\xe9b\xd4\xa3M\xa7\x05\xc0\x9b\x80\x8d\xd4\x10c\xd0?\x01aL\x18k)\xfd?ed\xdd\xb8\xfak\xf6\xbf\xb1pK'\xc9\xe6)\xc0\xa3\xf1t\xf5-u\x00\xc0\xb14ym\x1c\x97\xfe\xbf\x062\x1f\x02I\xde\t\xc02\x0f@\xa5t\xb4\x06\xc0\xe9\xa5\x1flK\n\x0f\xc0\xfe\xca\x82\xe7\x8c\x8f\x07\xc0\xc5d\x03D\xdc\x04\x13\xc0\xceWI&\xcac\x08\xc02\x14O\x07\x1f\xc2\x07\xc0\n\x00]\xb5\x86\x90\x0f\xc0"
p99
tp100
bsS'Model'
p101
S'MG94'
p102
sS'clock'
p103
I00
s.