(dp0
S'Force'
p1
NsS'ExpectedGeneconv'
p2
(dp3
(S'N1'
p4
S'N2'
p5
tp6
F30.06229791888012
s(S'N5'
p7
S'cerevisiae'
p8
tp9
F3.5291747021645286
s(g5
S'N3'
p10
tp11
F2.2116204071191468
s(S'N4'
p12
g7
tp13
F2.1307448598989978
s(g4
S'castellii'
p14
tp15
F50.22396875431383
s(g5
S'bayanus'
p16
tp17
F6.5847854764481415
s(S'N0'
p18
g4
tp19
F7.695979324044997e-07
s(g10
S'kudriavzevii'
p20
tp21
F5.3942141883522785
s(g7
S'paradoxus'
p22
tp23
F2.4730756960064206
s(g18
S'kluyveri'
p24
tp25
F0.0
s(g10
g12
tp26
F2.6477380910714077
s(g12
S'mikatae'
p27
tp28
F4.779286782945911
ssS'ExpectedDwellTime'
p29
(dp30
g6
F435.20297725930754
sg9
F575.4354929325798
sg11
F575.4324936027649
sg13
F577.208698514793
sg15
F497.9562365358457
sg17
F571.8741869466568
sg19
F0.10799890069049249
sg21
F580.742833725512
sg23
F588.4607936507631
sg25
F0.0
sg26
F576.9848029431586
sg28
F570.5152468022735
ssS'newicktree'
p31
S'../PairsAlignemt/YeastTree.newick'
p32
sS'll'
p33
cnumpy.core.multiarray
scalar
p34
(cnumpy
dtype
p35
(S'f8'
p36
I0
I1
tp37
Rp38
(I3
S'<'
p39
NNNI-1
I-1
I0
tp40
bS'\xa1 \t\xe3\x1ev\xc2\xc0'
p41
tp42
Rp43
sS'edge_list'
p44
(lp45
g19
ag25
ag6
ag15
ag11
ag17
ag26
ag21
ag13
ag28
ag9
ag23
asS'edge_to_blen'
p46
(dp47
g6
g34
(g38
S'\x9d\r3\x10\xac\x81\xfc?'
p48
tp49
Rp50
sg9
g34
(g38
S'\x81\xdcC\xc7\xa0}\xca?'
p51
tp52
Rp53
sg11
g34
(g38
S'\xcb\x8a\x07\xf5\xc3\xea\xc2?'
p54
tp55
Rp56
sg13
g34
(g38
S'C\x8e\xdcr\xeb\xfa\xbb?'
p57
tp58
Rp59
sg15
g34
(g38
S'\x05T3\xa4\xfd\xdd\x07@'
p60
tp61
Rp62
sg17
g34
(g38
S'0tX\x8f\xd5\x97\xd3?'
p63
tp64
Rp65
sg19
g34
(g38
S'\x11mS@,}"?'
p66
tp67
Rp68
sg21
g34
(g38
S'\xc7\xcb\xf1\x18\xcf\x87\xd3?'
p69
tp70
Rp71
sg23
g34
(g38
S'v\x0b\xdd\xdey?\xc3?'
p72
tp73
Rp74
sg28
g34
(g38
S'\x9e\xc8\xc7\xfd\xa2\xd7\xd3?'
p75
tp76
Rp77
sg26
g34
(g38
S'\x05J\xf4\xd70\xf0\xbd?'
p78
tp79
Rp80
sg25
g34
(g38
S"\n\x16c'q\xb6\x03@"
p81
tp82
Rp83
ssS'paralog'
p84
(lp85
S'YPR157W'
p86
aS'YGR141W'
p87
asS'alignment_file'
p88
S'../MafftAlignment/YPR157W_YGR141W/YPR157W_YGR141W_input.fasta'
p89
sS'x_clock'
p90
NsS'x'
p91
cnumpy.core.multiarray
_reconstruct
p92
(cnumpy
ndarray
p93
(I0
tp94
S'b'
p95
tp96
Rp97
(I1
(I19
tp98
g38
I00
S'\x9e\x134t$\t\xe5\xbf\x10bb\x1f\x8a*\xe1\xbf\xf6\xc7\x9c\xa2\xa2\xe8\xee\xbf\xc4\x88\x8f\xb9V8\xee?\'>s\x14\x08:\x05\xc0T\x07\xe5|k\x11\x0f\xc0\x1a\x99\xc5x3\x8c\x02\xc0\xbf\x15\x82g\x8f\xbb!\xc0\xfa\xfcw\x0f\xb5\xdb\xec?\x1e;Y\xa6>{\xe2?Fq\xc9\x1d.}\xf1?v\x1eL.j\x97\xfe\xbf_;\xc0,u\xf0\xf2\xbf\xf3S\x8b_\x17+\x01\xc0\xbfjx\xaa\x90\xfd\xf2\xbf6""\xdf\x9e\xb5\x01\xc0\xa1\x05\xcb/\xaf\xbc\xf2\xbf\x84\xdb\xe4\xdb)4\xf9\xbf\xff\xd0\xae\xdbbP\xfe\xbf'
p99
tp100
bsS'Model'
p101
S'MG94'
p102
sS'clock'
p103
I00
s.