(dp0
S'Force'
p1
NsS'ExpectedGeneconv'
p2
(dp3
(S'N1'
p4
S'N2'
p5
tp6
F28.19591605489286
s(S'N5'
p7
S'cerevisiae'
p8
tp9
F12.63741395962198
s(g5
S'N3'
p10
tp11
F6.195845019362614
s(S'N4'
p12
g7
tp13
F4.7874359536943905
s(g4
S'castellii'
p14
tp15
F40.86359281553799
s(g5
S'bayanus'
p16
tp17
F10.704802724623955
s(S'N0'
p18
g4
tp19
F7.1655229087661185
s(g10
S'kudriavzevii'
p20
tp21
F15.488182147629638
s(g7
S'paradoxus'
p22
tp23
F9.177966062374999
s(g18
S'kluyveri'
p24
tp25
F0.0
s(g10
g12
tp26
F3.475316585106419
s(g12
S'mikatae'
p27
tp28
F13.376696023359282
ssS'ExpectedDwellTime'
p29
(dp30
g6
F111.37695368591109
sg9
F148.1432719636516
sg11
F146.17383716669192
sg13
F151.79403316157277
sg15
F99.83975004656199
sg17
F143.216872977747
sg19
F40.93427795784556
sg21
F154.6635947343079
sg23
F150.81443703898208
sg25
F0.0
sg26
F151.87025602820697
sg28
F155.273925335762
ssS'newicktree'
p31
S'../PairsAlignemt/YeastTree.newick'
p32
sS'll'
p33
cnumpy.core.multiarray
scalar
p34
(cnumpy
dtype
p35
(S'f8'
p36
I0
I1
tp37
Rp38
(I3
S'<'
p39
NNNI-1
I-1
I0
tp40
bS'\x84\x97"\xfco\xa3\xa0\xc0'
p41
tp42
Rp43
sS'edge_list'
p44
(lp45
g19
ag25
ag6
ag15
ag11
ag17
ag26
ag21
ag13
ag28
ag9
ag23
asS'edge_to_blen'
p46
(dp47
g19
g34
(g38
S'\xd7\x9d\x1d>\xfc~\xb3?'
p48
tp49
Rp50
sg9
g34
(g38
S'"Xa\x84\t\x16\xa2?'
p51
tp52
Rp53
sg11
g34
(g38
S'\xc7\x914q\xaf\x8e\x97?'
p54
tp55
Rp56
sg13
g34
(g38
S'\x13=46oJ\x8f?'
p57
tp58
Rp59
sg15
g34
(g38
S'\xb4U\tY\x1a\xc4\xc2?'
p60
tp61
Rp62
sg17
g34
(g38
S'\xf1u<\x0b\xfa\xdf\xa0?'
p63
tp64
Rp65
sg6
g34
(g38
S'\x0e`\x1aC\x88P\xbf?'
p66
tp67
Rp68
sg21
g34
(g38
S'Z\xe4g\xe8U\xc9\xa8?'
p69
tp70
Rp71
sg23
g34
(g38
S'5\xdfu+-\xbc\x99?'
p72
tp73
Rp74
sg28
g34
(g38
S'v^\x0ch\xb3\x81\xa5?'
p75
tp76
Rp77
sg26
g34
(g38
S'\x027("\xad\xb8\x83?'
p78
tp79
Rp80
sg25
g34
(g38
S'\x1f\\Gk\x88y\xb0?'
p81
tp82
Rp83
ssS'paralog'
p84
(lp85
S'YJR048W'
p86
aS'YEL039C'
p87
asS'alignment_file'
p88
S'../MafftAlignment/YJR048W_YEL039C/YJR048W_YEL039C_input.fasta'
p89
sS'x_clock'
p90
NsS'x'
p91
cnumpy.core.multiarray
_reconstruct
p92
(cnumpy
ndarray
p93
(I0
tp94
S'b'
p95
tp96
Rp97
(I1
(I18
tp98
g38
I00
S'\\j;2k\x1d\xe5\xbf\xf7{\x81\x10)H\xe0\xbf\x14\xbdXZ\x97G\xe9\xbf\xc3\xff\xc5PZ\xcf\xf8?\xdd\x11\xea\x98\xc9\x9a\xec?\xa5\xc5\x08\xcf\xceh\xe8?)\xc3\x1f\xe9\x87\x99\x04\xc0\xe0\x19\x0c\x1ba\xf2\x05\xc0\x7fD82\n\xcf\x00\xc0\xce\xea\xe5&?\xb8\xfe\xbf\x90\xeav\xcd\x1f-\x0e\xc0B\xbd\xce\x1b\xcbL\x0b\xc0\x1f^eSX\x92\x12\xc0\xfb\x88\xb9\x1df9\x08\xc0\x17\xe0(\xb3\xa5\xb9\x10\xc0\xcb$\xc6j\x15\\\t\xc0\x95\xe2\xf9%\xd6\xbe\n\xc02m\x16c\x0cx\r\xc0'
p99
tp100
bsS'Model'
p101
S'HKY'
p102
sS'clock'
p103
I00
s.