(dp0
S'Force'
p1
NsS'ExpectedGeneconv'
p2
(dp3
(S'N1'
p4
S'N2'
p5
tp6
F45.03388091310819
s(S'N5'
p7
S'cerevisiae'
p8
tp9
F26.69394776959884
s(g5
S'N3'
p10
tp11
F13.756069453953542
s(S'N4'
p12
g7
tp13
F10.011694339972609
s(g4
S'castellii'
p14
tp15
F87.28883020320326
s(g5
S'bayanus'
p16
tp17
F31.75195197457907
s(S'N0'
p18
g4
tp19
F81.18361245230882
s(g10
S'kudriavzevii'
p20
tp21
F26.425191006634837
s(g7
S'paradoxus'
p22
tp23
F15.035446804174594
s(g18
S'kluyveri'
p24
tp25
F0.0
s(g10
g12
tp26
F12.757557973756793
s(g12
S'mikatae'
p27
tp28
F46.0671285994276
ssS'ExpectedDwellTime'
p29
(dp30
g6
F243.35356823517515
sg9
F271.534276711072
sg11
F271.49757909716357
sg13
F274.18790078084714
sg15
F203.79882673912502
sg17
F272.3925354560484
sg19
F137.5588637394896
sg21
F260.2390379367201
sg23
F275.43803487608176
sg25
F0.0
sg26
F271.53673053064585
sg28
F246.9902059353313
ssS'newicktree'
p31
S'../PairsAlignemt/YeastTree.newick'
p32
sS'll'
p33
cnumpy.core.multiarray
scalar
p34
(cnumpy
dtype
p35
(S'f8'
p36
I0
I1
tp37
Rp38
(I3
S'<'
p39
NNNI-1
I-1
I0
tp40
bS'\x1fn:\xe7\x07\xef\xaf\xc0'
p41
tp42
Rp43
sS'edge_list'
p44
(lp45
g19
ag25
ag6
ag15
ag11
ag17
ag26
ag21
ag13
ag28
ag9
ag23
asS'edge_to_blen'
p46
(dp47
g19
g34
(g38
S'-7q\xd3}u\xc3?'
p48
tp49
Rp50
sg9
g34
(g38
S'6Iy\xe6\xf0\x8d\x9c?'
p51
tp52
Rp53
sg11
g34
(g38
S'o\x05~x\xbe-\x8d?'
p54
tp55
Rp56
sg13
g34
(g38
S'\x92\xdd\xf5iKh\x87?'
p57
tp58
Rp59
sg15
g34
(g38
S'|\xd0+l\x87}\xb6?'
p60
tp61
Rp62
sg17
g34
(g38
S':!!\x10\x9e\xcf\xa1?'
p63
tp64
Rp65
sg6
g34
(g38
S"\xe5\x95aK'\xc3\xac?"
p66
tp67
Rp68
sg21
g34
(g38
S'\x90\x82*\xd4^\xad\x97?'
p69
tp70
Rp71
sg23
g34
(g38
S'\xf2\xb7J\xab(1\x8e?'
p72
tp73
Rp74
sg28
g34
(g38
S'/\xb9\xd6=0"\xa4?'
p75
tp76
Rp77
sg26
g34
(g38
S'\xa2t|0\xd8[\x8b?'
p78
tp79
Rp80
sg25
g34
(g38
S'\xfc\xff\xf4X7\rb?'
p81
tp82
Rp83
ssS'paralog'
p84
(lp85
S'YDR099W'
p86
aS'YER177W'
p87
asS'alignment_file'
p88
S'../MafftAlignment/YDR099W_YER177W/YDR099W_YER177W_input.fasta'
p89
sS'x_clock'
p90
NsS'x'
p91
cnumpy.core.multiarray
_reconstruct
p92
(cnumpy
ndarray
p93
(I0
tp94
S'b'
p95
tp96
Rp97
(I1
(I18
tp98
g38
I00
S'w8^\xad/<\xe9\xbf\x1aj?\xf0\x99Q\xe0\xbf\x15\xb3\x88Y;\xfb\xe8\xbf^\n\xb7\xfam\xec\x00@\x89\xcb\xe2\x84S\x1a\xf8?I]\xd8?\xb7\xa3\xf3?v\x96\xf3\xd0\xba#\xfe\xbf\x82\xa5\xbdy\x80x\x18\xc0{\xacF\xac\xb8\x08\x07\xc0A\xed\x04>\xect\x03\xc0\x97\x9b\xa5p5\x01\x11\xc0\xd6\x7f-z9\xde\n\xc0\xbc \x87\xe9\'C\x11\xc06\xdau\xe7\xba"\x0e\xc0"\xe9td\xe2\xe2\x11\xc0\x89R\xb6\xff2\xe3\t\xc0m\xc0\x9d"$\xa3\x0c\xc0x\xd9L\x06@\xde\x10\xc0'
p99
tp100
bsS'Model'
p101
S'HKY'
p102
sS'clock'
p103
I00
s.