(dp0
S'Force'
p1
NsS'ExpectedGeneconv'
p2
(dp3
(S'N1'
p4
S'N2'
p5
tp6
F33.84118042960072
s(S'N5'
p7
S'cerevisiae'
p8
tp9
F5.780299121683322
s(g5
S'N3'
p10
tp11
F4.547391635666145
s(S'N4'
p12
g7
tp13
F1.292986520297405
s(g4
S'castellii'
p14
tp15
F36.03831452871078
s(g5
S'bayanus'
p16
tp17
F7.99093357899568
s(S'N0'
p18
g4
tp19
F3.319887743293423
s(g10
S'kudriavzevii'
p20
tp21
F8.384854635700528
s(g7
S'paradoxus'
p22
tp23
F2.2889837285331143
s(g18
S'kluyveri'
p24
tp25
F0.0
s(g10
g12
tp26
F1.8488165667931884
s(g12
S'mikatae'
p27
tp28
F9.207901700438468
ssS'ExpectedDwellTime'
p29
(dp30
g6
F450.28254548065706
sg9
F565.1011811655077
sg11
F530.2169599413699
sg13
F552.3716718767976
sg15
F441.5031941183128
sg17
F524.7652605929866
sg19
F162.1319192187687
sg21
F551.8972633779806
sg23
F559.4021703711844
sg25
F0.0
sg26
F541.0047942301683
sg28
F547.8637585735725
ssS'newicktree'
p31
S'../PairsAlignemt/YeastTree.newick'
p32
sS'll'
p33
cnumpy.core.multiarray
scalar
p34
(cnumpy
dtype
p35
(S'f8'
p36
I0
I1
tp37
Rp38
(I3
S'<'
p39
NNNI-1
I-1
I0
tp40
bS'-\xcb\xc4V\xc1\x01\xc1\xc0'
p41
tp42
Rp43
sS'edge_list'
p44
(lp45
g19
ag25
ag6
ag15
ag11
ag17
ag26
ag21
ag13
ag28
ag9
ag23
asS'edge_to_blen'
p46
(dp47
g6
g34
(g38
S'\xff\xbf\x16C\xe82\xf2?'
p48
tp49
Rp50
sg9
g34
(g38
S"g'@1(\x0f\xcb?"
p51
tp52
Rp53
sg11
g34
(g38
S'\x10M\xf2\x0c\xae\x04\xc7?'
p54
tp55
Rp56
sg13
g34
(g38
S'\xecz\xdc=\xb1q\xb5?'
p57
tp58
Rp59
sg21
g34
(g38
S'\xe7\x83aU\xe4*\xd5?'
p60
tp61
Rp62
sg17
g34
(g38
S'z3\x05\x04\x160\xd0?'
p63
tp64
Rp65
sg19
g34
(g38
S'\xee\xaet\x0b\xbe>\xd2?'
p66
tp67
Rp68
sg15
g34
(g38
S'A\x83k\x17C\x04\xf3?'
p69
tp70
Rp71
sg23
g34
(g38
S'Y\xb2\x98poa\xbd?'
p72
tp73
Rp74
sg28
g34
(g38
S'\x04\x7fK\x01\x126\xd5?'
p75
tp76
Rp77
sg26
g34
(g38
S'|\xb4c$\x90\xdb\xb4?'
p78
tp79
Rp80
sg25
g34
(g38
S'\xe0\x13C\xaf\xa0\x1b\xf2?'
p81
tp82
Rp83
ssS'paralog'
p84
(lp85
S'YMR243C'
p86
aS'YOR316C'
p87
asS'alignment_file'
p88
S'../MafftAlignment/YMR243C_YOR316C/YMR243C_YOR316C_input.fasta'
p89
sS'x_clock'
p90
NsS'x'
p91
cnumpy.core.multiarray
_reconstruct
p92
(cnumpy
ndarray
p93
(I0
tp94
S'b'
p95
tp96
Rp97
(I1
(I19
tp98
g38
I00
S'+\xe2\xfcY#\xaf\xe7\xbf-\xcb\x98l\xe5j\xe1\xbf\x02\xc2k\x99\xf7\x06\xee\xbfn\xbd\x9e\xd0t\x8d\xee?\xf7^\xe9\x16dD\x02\xc0\xfc0"\xaeo\x9e\xfb\xbf\x8cg\t\xccpi\x12\xc0\x86\xce5|m\x14\xf4\xbf!\xafe`\xc8\xae\xbf?\x0f\xdf%h\x89{\xc0?\xb4X\x88\xbb\xe3\x1b\xc6?\x86\x02Yh\xads\xfb\xbf\x82\x07\x8d\xadt\xfe\xf5\xbfq)\x8d\xfaD\x0f\x04\xc0z\xe3\x9b\x0e\xdf\xb3\xf1\xbf\x1f6\xeaP{\xd6\x03\xc0n\x16\xc08n\xab\xf1\xbf>\xb8K12\xdd\xf8\xbf/\x93\x82\x02\x99Q\x01\xc0'
p99
tp100
bsS'Model'
p101
S'MG94'
p102
sS'clock'
p103
I00
s.