(dp0
S'Force'
p1
NsS'ExpectedGeneconv'
p2
(dp3
(S'N1'
p4
S'N2'
p5
tp6
F397.4177851637142
s(S'N5'
p7
S'cerevisiae'
p8
tp9
F126.27432402333471
s(g5
S'N3'
p10
tp11
F77.78346997840525
s(S'N4'
p12
g7
tp13
F61.12586541713894
s(g4
S'castellii'
p14
tp15
F460.18003308210257
s(g5
S'bayanus'
p16
tp17
F176.115574131972
s(S'N0'
p18
g4
tp19
F687.7225779712799
s(g10
S'kudriavzevii'
p20
tp21
F152.97322939052123
s(g7
S'paradoxus'
p22
tp23
F65.31785087369994
s(g18
S'kluyveri'
p24
tp25
F0.0
s(g10
g12
tp26
F85.20338216017903
s(g12
S'mikatae'
p27
tp28
F155.20122747145757
ssS'ExpectedDwellTime'
p29
(dp30
g6
F799.5591680574873
sg9
F846.1813225016178
sg11
F806.6705329592985
sg13
F864.9666367718204
sg15
F870.6042607004987
sg17
F795.6569037743676
sg19
F660.1774205383362
sg21
F874.1078781911856
sg23
F900.8380160398444
sg25
F0.0
sg26
F839.3770251776275
sg28
F890.6647624416112
ssS'newicktree'
p31
S'../PairsAlignemt/YeastTree.newick'
p32
sS'll'
p33
cnumpy.core.multiarray
scalar
p34
(cnumpy
dtype
p35
(S'f8'
p36
I0
I1
tp37
Rp38
(I3
S'<'
p39
NNNI-1
I-1
I0
tp40
bS'@:\x84z\xe3\x93\xd2\xc0'
p41
tp42
Rp43
sS'edge_list'
p44
(lp45
g19
ag25
ag6
ag15
ag11
ag17
ag26
ag21
ag13
ag28
ag9
ag23
asS'edge_to_blen'
p46
(dp47
g19
g34
(g38
S'\x12\x053\xb6\xd1\x8b\xed?'
p48
tp49
Rp50
sg9
g34
(g38
S'\xf4jnG\xfa\xa4\xc0?'
p51
tp52
Rp53
sg11
g34
(g38
S' Q\x88\x99-\x1e\xb7?'
p54
tp55
Rp56
sg13
g34
(g38
S'\xe8f!3hD\xb2?'
p57
tp58
Rp59
sg21
g34
(g38
S'\xd4\x18\xac\x90\x0bo\xc8?'
p60
tp61
Rp62
sg17
g34
(g38
S'>LBj\xe2\xf0\xc8?'
p63
tp64
Rp65
sg6
g34
(g38
S'W\xf4\x01\xf9\xcb\x19\xdb?'
p66
tp67
Rp68
sg15
g34
(g38
S'L\xaf\x08*\x11 \xe2?'
p69
tp70
Rp71
sg23
g34
(g38
S'#\x1cQV\x0fo\xb6?'
p72
tp73
Rp74
sg28
g34
(g38
S'h\xac\xc1\xa1[Q\xc8?'
p75
tp76
Rp77
sg26
g34
(g38
S'rg\xb8\xea:\x9e\xb9?'
p78
tp79
Rp80
sg25
g34
(g38
S'/:\xb3\xf8\xe4Q\xe1>'
p81
tp82
Rp83
ssS'paralog'
p84
(lp85
S'YGL062W'
p86
aS'YBR218C'
p87
asS'alignment_file'
p88
S'../MafftAlignment/YGL062W_YBR218C/YGL062W_YBR218C_input.fasta'
p89
sS'x_clock'
p90
NsS'x'
p91
cnumpy.core.multiarray
_reconstruct
p92
(cnumpy
ndarray
p93
(I0
tp94
S'b'
p95
tp96
Rp97
(I1
(I19
tp98
g38
I00
S"\xb0|\xe8\xeb;x\xe7\xbf\xe3XSvR\xf6\xe0\xbf\x1c\xa4\x14\xa1N\x8f\xed\xbf\xe5\xe1<>\xa6\xdb\xf4?l\x8bj\x1c\x88\xec\x07\xc0\xabk\xe5.|\x8d\xbb?\x07\xa7C\x02\xd1\x17\xdb?v-\x85\xdd\x94l\xb4\xbf\xc95\xf0q\x91h'\xc0Y\xc4]\xbd\x8e\x7f\xeb\xbfF\xf7\x0e\x8b\x920\xe2\xbf\xfcp\xc4\xb2\x8f<\x03\xc0\xf0\x889\x03\x16+\xfa\xbfz\xf6\xd6s?j\x02\xc0Uk\xf1\x07=\x7f\xfa\xbf\xab\x954\xc5\xdc\x1e\x05\xc0\x9c\xab\xae\x8d\xb9\x92\xfa\xbf\xa9\x864L\xd3Q\x00\xc0\x9e\xe1Vy\x13z\x03\xc0"
p99
tp100
bsS'Model'
p101
S'MG94'
p102
sS'clock'
p103
I00
s.