(dp0
S'Force'
p1
NsS'ExpectedGeneconv'
p2
(dp3
(S'N1'
p4
S'N2'
p5
tp6
F72.01021536776358
s(S'N5'
p7
S'cerevisiae'
p8
tp9
F7.230585359538605
s(g5
S'N3'
p10
tp11
F1.749129148618033
s(S'N4'
p12
g7
tp13
F2.7253725721088577
s(g4
S'castellii'
p14
tp15
F88.45179229240046
s(g5
S'bayanus'
p16
tp17
F9.688219452668394
s(S'N0'
p18
g4
tp19
F7.816812594383048
s(g10
S'kudriavzevii'
p20
tp21
F5.16356397387619
s(g7
S'paradoxus'
p22
tp23
F1.2419436746498802
s(g18
S'kluyveri'
p24
tp25
F0.0
s(g10
g12
tp26
F1.7717343968212353
s(g12
S'mikatae'
p27
tp28
F6.993699451017726
ssS'ExpectedDwellTime'
p29
(dp30
g6
F407.59234020421445
sg9
F470.91930519066864
sg11
F473.3786115073026
sg13
F477.25464339192905
sg15
F411.82757442410167
sg17
F459.7675581878235
sg19
F173.60188864664457
sg21
F477.27406782600104
sg23
F479.0764679456696
sg25
F0.0
sg26
F477.9947415565005
sg28
F476.4164204990338
ssS'newicktree'
p31
S'../PairsAlignemt/YeastTree.newick'
p32
sS'll'
p33
cnumpy.core.multiarray
scalar
p34
(cnumpy
dtype
p35
(S'f8'
p36
I0
I1
tp37
Rp38
(I3
S'<'
p39
NNNI-1
I-1
I0
tp40
bS'\xf3f\x07(\xa8!\xbc\xc0'
p41
tp42
Rp43
sS'edge_list'
p44
(lp45
g19
ag25
ag6
ag15
ag11
ag17
ag26
ag21
ag13
ag28
ag9
ag23
asS'edge_to_blen'
p46
(dp47
g6
g34
(g38
S'\xc6u\x84\xc8\xae[\x04@'
p48
tp49
Rp50
sg9
g34
(g38
S'\x95;\x973mH\xcd?'
p51
tp52
Rp53
sg11
g34
(g38
S"\x06\xd9\xda'h\xd6\xbc?"
p54
tp55
Rp56
sg13
g34
(g38
S'\x0c\xf2\x88y\x13`\xc0?'
p57
tp58
Rp59
sg21
g34
(g38
S'C\xf78\xb8A\x87\xd0?'
p60
tp61
Rp62
sg17
g34
(g38
S'\x9e\x95K\xb1\xfd\xac\xd2?'
p63
tp64
Rp65
sg19
g34
(g38
S'c\xd6\x81\xcc\x7f\x98\xdc?'
p66
tp67
Rp68
sg15
g34
(g38
S'-6a\x7fL2\t@'
p69
tp70
Rp71
sg23
g34
(g38
S'\xf9&0\x05\xba7\xb2?'
p72
tp73
Rp74
sg28
g34
(g38
S']\xaa\xaaQy\x0e\xd2?'
p75
tp76
Rp77
sg26
g34
(g38
S'\x9d\xaf<\xed8\xf6\xb5?'
p78
tp79
Rp80
sg25
g34
(g38
S'\x05\xbeR\x0bY\xc3\x03@'
p81
tp82
Rp83
ssS'paralog'
p84
(lp85
S'YPL087W'
p86
aS'YBR183W'
p87
asS'alignment_file'
p88
S'../MafftAlignment/YPL087W_YBR183W/YPL087W_YBR183W_input.fasta'
p89
sS'x_clock'
p90
NsS'x'
p91
cnumpy.core.multiarray
_reconstruct
p92
(cnumpy
ndarray
p93
(I0
tp94
S'b'
p95
tp96
Rp97
(I1
(I19
tp98
g38
I00
S'\x0e\xb4b\x99dg\xe6\xbf~\xed2\x8arq\xe1\xbf\x8cc\xda\x0f\xca2\xf1\xbfK\xb6\xf7\x1443\xf0?n\x8dJ\x0e\xa3\xb3\x05\xc0\x13\x1c\x90Ro\xc8\xf8\xbfX\xb8s\x90\xea\xe7\t\xc0\xafmU\xb2\xb1\xc7\xe9\xbf\xac\xf1\xe3}\xa1\xf0\xec?\xe6#\x03\xed\xa5\xe3\xed?\x9d\x9b\xb9/0[\xf2?L\x84\x97\xca\xcew\x01\xc0\xed\xb1\x01e\xde\xb4\xf3\xbf2\xf3\x94\x86\xa0\xa5\x03\xc0_X\x9c\xb10\xa9\xf5\xbf\xb7E\x83\x856s\x00\xc0U\x90\x9b\x13\xfa>\xf4\xbf\xd4\x84\x8a\xd7\xb4\x99\xf7\xbf\x14\x9d\xd0Wl$\x05\xc0'
p99
tp100
bsS'Model'
p101
S'MG94'
p102
sS'clock'
p103
I00
s.