(dp0
S'Force'
p1
NsS'ExpectedGeneconv'
p2
(dp3
(S'N1'
p4
S'N2'
p5
tp6
F140.8150709036559
s(S'N5'
p7
S'cerevisiae'
p8
tp9
F16.55137953863346
s(g5
S'N3'
p10
tp11
F17.04417821616642
s(S'N4'
p12
g7
tp13
F8.972005429252945
s(g4
S'castellii'
p14
tp15
F203.67603236350266
s(g5
S'bayanus'
p16
tp17
F34.225938309266766
s(S'N0'
p18
g4
tp19
F2.1422309108416107
s(g10
S'kudriavzevii'
p20
tp21
F28.487096903099438
s(g7
S'paradoxus'
p22
tp23
F12.353130306007134
s(g18
S'kluyveri'
p24
tp25
F0.0
s(g10
g12
tp26
F8.986150975650382
s(g12
S'mikatae'
p27
tp28
F29.407810947366933
ssS'ExpectedDwellTime'
p29
(dp30
g6
F643.2331036762972
sg9
F845.4036000080614
sg11
F798.3743529331151
sg13
F829.0866607908072
sg15
F685.2121571390696
sg17
F793.3565941628457
sg19
F111.34546979817421
sg21
F829.0977706344631
sg23
F828.5775376438996
sg25
F0.0
sg26
F819.9439618689495
sg28
F833.9361409174245
ssS'newicktree'
p31
S'../PairsAlignemt/YeastTree.newick'
p32
sS'll'
p33
cnumpy.core.multiarray
scalar
p34
(cnumpy
dtype
p35
(S'f8'
p36
I0
I1
tp37
Rp38
(I3
S'<'
p39
NNNI-1
I-1
I0
tp40
bS'3\xf3\xa3\x99X\xe1\xcb\xc0'
p41
tp42
Rp43
sS'edge_list'
p44
(lp45
g19
ag25
ag6
ag15
ag11
ag17
ag26
ag21
ag13
ag28
ag9
ag23
asS'edge_to_blen'
p46
(dp47
g6
g34
(g38
S'L`x\xb9\x89\xff\xf3?'
p48
tp49
Rp50
sg9
g34
(g38
S'\x9b\xf1`\xff\x7fv\xc4?'
p51
tp52
Rp53
sg11
g34
(g38
S'\x98\x1a$JT\x84\xc4?'
p54
tp55
Rp56
sg13
g34
(g38
S'\xd6"afP\xdd\xb4?'
p57
tp58
Rp59
sg21
g34
(g38
S'U\xe1\x01NF*\xd0?'
p60
tp61
Rp62
sg17
g34
(g38
S'\x8asnIs\x8b\xd1?'
p63
tp64
Rp65
sg19
g34
(g38
S'\x0e\xc3\xa0]\x8eP\xb8?'
p66
tp67
Rp68
sg15
g34
(g38
S'\x8c\x95\x05\xcdo\x9c\xfc?'
p69
tp70
Rp71
sg23
g34
(g38
S'\xbb6\x85(\xa9\xb7\xbd?'
p72
tp73
Rp74
sg28
g34
(g38
S'*c\x16uS\xd9\xd1?'
p75
tp76
Rp77
sg26
g34
(g38
S'%\xc2\xfc\xb9\x15c\xb7?'
p78
tp79
Rp80
sg25
g34
(g38
S'i\xd2!j:\x12\x00@'
p81
tp82
Rp83
ssS'paralog'
p84
(lp85
S'YPR159W'
p86
aS'YGR143W'
p87
asS'alignment_file'
p88
S'../MafftAlignment/YPR159W_YGR143W/YPR159W_YGR143W_input.fasta'
p89
sS'x_clock'
p90
NsS'x'
p91
cnumpy.core.multiarray
_reconstruct
p92
(cnumpy
ndarray
p93
(I0
tp94
S'b'
p95
tp96
Rp97
(I1
(I19
tp98
g38
I00
S'\xa5\xd1\x9e=\xbf\x99\xe6\xbfyP\x99x\xdb\xf6\xdc\xbf4fd\r\x0e\xc8\xf0\xbf@\x0b\xd7\xf4\x80\xc2\xf1?\xe1\xc3=\xafZ\x15\x05\xc0\x1d\x87>m\x90*\xf2\xbf\xc2K;h\xb4\xcf\xfc\xbfV\x01\xd4\x0e1\xd5\x02\xc0-\x1f\xb2\x1e\xa3R\xe6?\x04\x05E\xc8\x02\x8d\xcc?\x9f\xcd\x03\xff;\x99\xe2?\xb3Mi\xca\xe0J\xfd\xbf\x01O\xf68\xc1\xb4\xf4\xbf\xd6\x88\xac\x8d\xda$\x03\xc0CM\x81(4\x04\xf6\xbf\x1fl\xa5\x13\x99\x0e\x04\xc0\xdf\xd4\xf6&Xn\xf4\xbf\x8d\x1b\x17O\xadU\xfd\xbfSB\x1b\xc8@:\x01\xc0'
p99
tp100
bsS'Model'
p101
S'MG94'
p102
sS'clock'
p103
I00
s.