(dp0
S'Force'
p1
NsS'ExpectedGeneconv'
p2
(dp3
(S'N1'
p4
S'N2'
p5
tp6
F25.29479259266153
s(S'N5'
p7
S'cerevisiae'
p8
tp9
F13.930157621402957
s(g5
S'N3'
p10
tp11
F3.6893009994463077
s(S'N4'
p12
g7
tp13
F5.895253406536312
s(g4
S'castellii'
p14
tp15
F26.484147377178815
s(g5
S'bayanus'
p16
tp17
F7.6214912352727815
s(S'N0'
p18
g4
tp19
F14.785106368268181
s(g10
S'kudriavzevii'
p20
tp21
F15.046944020267736
s(g7
S'paradoxus'
p22
tp23
F4.335579141707683
s(g18
S'kluyveri'
p24
tp25
F0.0
s(g10
g12
tp26
F5.336214728668241
s(g12
S'mikatae'
p27
tp28
F10.860999219867672
ssS'ExpectedDwellTime'
p29
(dp30
g6
F78.69850293581031
sg9
F85.59495524619288
sg11
F92.23056644376459
sg13
F93.01103687347613
sg15
F74.02418841674313
sg17
F88.63077248358296
sg19
F36.58730744615399
sg21
F95.8445348137237
sg23
F90.29394668521036
sg25
F0.0
sg26
F93.2773480632182
sg28
F93.42956843029012
ssS'newicktree'
p31
S'../PairsAlignemt/YeastTree.newick'
p32
sS'll'
p33
cnumpy.core.multiarray
scalar
p34
(cnumpy
dtype
p35
(S'f8'
p36
I0
I1
tp37
Rp38
(I3
S'<'
p39
NNNI-1
I-1
I0
tp40
bS'.\x9f\xd0\xed\x1d/\x9d\xc0'
p41
tp42
Rp43
sS'edge_list'
p44
(lp45
g19
ag25
ag6
ag15
ag11
ag17
ag26
ag21
ag13
ag28
ag9
ag23
asS'edge_to_blen'
p46
(dp47
g19
g34
(g38
S'\x01\x1d\xac\x13\x19\xde\xa9?'
p48
tp49
Rp50
sg9
g34
(g38
S'\xe9F\x8f\xc1?O\x8f?'
p51
tp52
Rp53
sg11
g34
(g38
S'\xaf\xddj\xfcYJu?'
p54
tp55
Rp56
sg13
g34
(g38
S'\x1bF\xe3}\x0b\xa8z?'
p57
tp58
Rp59
sg15
g34
(g38
S'\xe0\x05\xc4oa"\xa7?'
p60
tp61
Rp62
sg17
g34
(g38
S'\x9e\xb9\t(\xd8\xbd\x80?'
p63
tp64
Rp65
sg6
g34
(g38
S'\xc6\x86|\x92\x7f)\xa6?'
p66
tp67
Rp68
sg21
g34
(g38
S'\x9cG-\x17\xe5\xa4\x96?'
p69
tp70
Rp71
sg23
g34
(g38
S'\x17\xce.\xdb\x158x?'
p72
tp73
Rp74
sg28
g34
(g38
S'(I\xe6!\x10}\x8d?'
p75
tp76
Rp77
sg26
g34
(g38
S'D\x1d\xda\\M\x05\x81?'
p78
tp79
Rp80
sg25
g34
(g38
S'0\xd6|Ml\xe1\x9e?'
p81
tp82
Rp83
ssS'paralog'
p84
(lp85
S'YDR418W'
p86
aS'YEL054C'
p87
asS'alignment_file'
p88
S'../MafftAlignment/YDR418W_YEL054C/YDR418W_YEL054C_input.fasta'
p89
sS'x_clock'
p90
NsS'x'
p91
cnumpy.core.multiarray
_reconstruct
p92
(cnumpy
ndarray
p93
(I0
tp94
S'b'
p95
tp96
Rp97
(I1
(I18
tp98
g38
I00
S"P\x15\xcbk\x95`\xe8\xbf\x9a=\xd1.\x89\x0b\xe0\xbf\xed\x06\x13\xf7\xadu\xe9\xbf\x08a\xa9\xe8F\xad\x03@\xd5\x8a\xc0L\xcb\xd9\x00@:\x0b\xe41\x80\x94\x00@\xaf_\xd2\x15\xf7\xe1\x07\xc0\x0bS\xb8(\xc1\x02\x0c\xc0\xfa\x8c#R\x99\x1e\t\xc0\xba\xf8\x90H\xac\xc6\x08\xc0eun\x86\xbc\t\x15\xc0\xa0\xa7@\xbe\x15:\x13\xc0\xb1\x9b:\x0e')\x13\xc0_\xa5\x1a;\x19~\x0e\xc0\xb3I\xbb\xd1\x91#\x14\xc0\x9bj}|d\xf6\x10\xc0\x82_\xdf/\x08\xb9\x10\xc0\x14sz\xa1\xc2\x85\x14\xc0"
p99
tp100
bsS'Model'
p101
S'HKY'
p102
sS'clock'
p103
I00
s.