(dp0
S'Force'
p1
NsS'ExpectedGeneconv'
p2
(dp3
(S'N1'
p4
S'N2'
p5
tp6
F18.90224199583894
s(S'N5'
p7
S'cerevisiae'
p8
tp9
F6.650477347092669
s(g5
S'N3'
p10
tp11
F1.0959328776456425
s(S'N4'
p12
g7
tp13
F1.2383672425674674
s(g4
S'castellii'
p14
tp15
F16.544277003365885
s(g5
S'bayanus'
p16
tp17
F16.751513587833383
s(S'N0'
p18
g4
tp19
F10.87281306016671
s(g10
S'kudriavzevii'
p20
tp21
F8.148864664743698
s(g7
S'paradoxus'
p22
tp23
F9.525034676855146
s(g18
S'kluyveri'
p24
tp25
F0.0
s(g10
g12
tp26
F6.752487351145191
s(g12
S'mikatae'
p27
tp28
F9.808338181991404
ssS'ExpectedDwellTime'
p29
(dp30
g6
F47.466141996939456
sg9
F53.00550048458398
sg11
F56.08276191085977
sg13
F55.207011051657055
sg15
F41.396596691208984
sg17
F42.64189765566723
sg19
F22.874562261131395
sg21
F64.31629436411542
sg23
F49.697304752452006
sg25
F0.0
sg26
F56.79994359349741
sg28
F56.772158724695494
ssS'newicktree'
p31
S'../PairsAlignemt/YeastTree.newick'
p32
sS'll'
p33
cnumpy.core.multiarray
scalar
p34
(cnumpy
dtype
p35
(S'f8'
p36
I0
I1
tp37
Rp38
(I3
S'<'
p39
NNNI-1
I-1
I0
tp40
bS'\xce\xaf\x84\x84P\xaf\x94\xc0'
p41
tp42
Rp43
sS'edge_list'
p44
(lp45
g19
ag25
ag6
ag15
ag11
ag17
ag26
ag21
ag13
ag28
ag9
ag23
asS'edge_to_blen'
p46
(dp47
g19
g34
(g38
S'p\xec\x07h1\xbb\xa3?'
p48
tp49
Rp50
sg9
g34
(g38
S'\xbeX\xe2\xbf1\x17\x7f?'
p51
tp52
Rp53
sg11
g34
(g38
S'\xec\xb9\xeay\x05\x93o?'
p54
tp55
Rp56
sg13
g34
(g38
S'n\x9b\x1d)e\xc1[?'
p57
tp58
Rp59
sg15
g34
(g38
S'\x14{\x1bDm\xf8\x9b?'
p60
tp61
Rp62
sg17
g34
(g38
S'r\xdc\xff\xc6~\x92\x93?'
p63
tp64
Rp65
sg6
g34
(g38
S'tS=\xab\nb\xa0?'
p66
tp67
Rp68
sg21
g34
(g38
S'\x9f\xff\x03gE\xc3\x8c?'
p69
tp70
Rp71
sg23
g34
(g38
S'\x94Su\xfd\xd3\xcf\x85?'
p72
tp73
Rp74
sg28
g34
(g38
S'\xd9\xff\x94\xc1\xd26\x8e?'
p75
tp76
Rp77
sg26
g34
(g38
S'\xa2\xafLg4\x0f\x7f?'
p78
tp79
Rp80
sg25
g34
(g38
S'\x03wv&\xb9m\x88>'
p81
tp82
Rp83
ssS'paralog'
p84
(lp85
S'YMR143W'
p86
aS'YDL083C'
p87
asS'alignment_file'
p88
S'../MafftAlignment/YMR143W_YDL083C/YMR143W_YDL083C_input.fasta'
p89
sS'x_clock'
p90
NsS'x'
p91
cnumpy.core.multiarray
_reconstruct
p92
(cnumpy
ndarray
p93
(I0
tp94
S'b'
p95
tp96
Rp97
(I1
(I18
tp98
g38
I00
S"\xeboe\x0fMa\xe8\xbf\xcaa\xd7\xd1\xde\x1d\xe0\xbf\xdc\xe7}\xfe\x12o\xeb\xbf\x9d\x12\x86\xd1\xd17\x08@L\x17\xe47r\xc7\x04@3\xf1Z\xad\t\x18\x05@F\xdef\xde\x89\x0c\n\xc0\xd7q\xd0\x13\xd7\t/\xc0Zy\r?b\x89\x0b\xc0\xfa6\\\xdev\xcd\x0c\xc0\x92\xf0\x19\xb7\xf9;\x16\xc0\x80\xb7\x8d\xf2\xab\xa8\x0f\xc0\x10DQ\x96\x07\x87\x13\xc0\xdd\xd3\xfb\xe5\xe8\x0f\x11\xc0\xd9\xbb\xeam\xc3\x85\x19\xc0'.\xd0\xfa\x7f\xdd\x10\xc0k\xfb\xf8N\x00\x86\x13\xc0\xe1\x0f\xd9\xb6-+\x12\xc0"
p99
tp100
bsS'Model'
p101
S'HKY'
p102
sS'clock'
p103
I00
s.