(dp0
S'Force'
p1
NsS'ExpectedGeneconv'
p2
(dp3
(S'N1'
p4
S'N2'
p5
tp6
F151.40431256479917
s(S'N5'
p7
S'cerevisiae'
p8
tp9
F43.72178821777985
s(g5
S'N3'
p10
tp11
F32.959189230582034
s(S'N4'
p12
g7
tp13
F28.486543486982832
s(g4
S'castellii'
p14
tp15
F236.7252604763277
s(g5
S'bayanus'
p16
tp17
F81.19774311594408
s(S'N0'
p18
g4
tp19
F44.66867896492921
s(g10
S'kudriavzevii'
p20
tp21
F73.64040771268071
s(g7
S'paradoxus'
p22
tp23
F44.53264413642582
s(g18
S'kluyveri'
p24
tp25
F0.0
s(g10
g12
tp26
F24.836602559964717
s(g12
S'mikatae'
p27
tp28
F85.49123681257011
ssS'ExpectedDwellTime'
p29
(dp30
g6
F900.8204336077156
sg9
F1219.2569407200933
sg11
F1140.722523363448
sg13
F1199.0261275593593
sg15
F944.6193333905827
sg17
F1132.8165865252286
sg19
F360.50863084143276
sg21
F1186.3289049665987
sg23
F1181.4806932890801
sg25
F0.0
sg26
F1188.7663272701914
sg28
F1202.2238335037327
ssS'newicktree'
p31
S'../PairsAlignemt/YeastTree.newick'
p32
sS'll'
p33
cnumpy.core.multiarray
scalar
p34
(cnumpy
dtype
p35
(S'f8'
p36
I0
I1
tp37
Rp38
(I3
S'<'
p39
NNNI-1
I-1
I0
tp40
bS'P\xe1\xc8\ro\r\xcf\xc0'
p41
tp42
Rp43
sS'edge_list'
p44
(lp45
g19
ag25
ag6
ag15
ag11
ag17
ag26
ag21
ag13
ag28
ag9
ag23
asS'edge_to_blen'
p46
(dp47
g19
g34
(g38
S'\x1a\xc5*A\xd1\x0b\xbc?'
p48
tp49
Rp50
sg9
g34
(g38
S'\xcc\xc7\x14\x94\x17G\xa3?'
p51
tp52
Rp53
sg11
g34
(g38
S'\\\xd0\x9c\xafw\xbb\x9f?'
p54
tp55
Rp56
sg13
g34
(g38
S'\xec\xaf\x9e\x8cd\xd8\x95?'
p57
tp58
Rp59
sg15
g34
(g38
S'FJ\nW\xbd\xe0\xca?'
p60
tp61
Rp62
sg17
g34
(g38
S'\x92O!P\x10\x12\xaf?'
p63
tp64
Rp65
sg6
g34
(g38
S'\xc9\x07]\xd5z\xd3\xc2?'
p66
tp67
Rp68
sg21
g34
(g38
S'\xa1W \xaf\xcc{\xad?'
p69
tp70
Rp71
sg23
g34
(g38
S'\x9c\x18\x8b\x90"\x98\x9e?'
p72
tp73
Rp74
sg28
g34
(g38
S'\xcb\xec\x92\x871\xe7\xae?'
p75
tp76
Rp77
sg26
g34
(g38
S'\x93\xf8`\xa1\xa6\xb2\x96?'
p78
tp79
Rp80
sg25
g34
(g38
S'=\xad\x8bx\xcb\x9c\xc9?'
p81
tp82
Rp83
ssS'paralog'
p84
(lp85
S'YPR159W'
p86
aS'YGR143W'
p87
asS'alignment_file'
p88
S'../MafftAlignment/YPR159W_YGR143W/YPR159W_YGR143W_input.fasta'
p89
sS'x_clock'
p90
NsS'x'
p91
cnumpy.core.multiarray
_reconstruct
p92
(cnumpy
ndarray
p93
(I0
tp94
S'b'
p95
tp96
Rp97
(I1
(I18
tp98
g38
I00
S'\xe1\x0f|}\xb5\xb4\xe7\xbf\xf7`\xf1\xdc\x15\x92\xe0\xbf1\x93j\xcdF\xee\xe9\xbf\x01H\xde\x1f}t\xf4?\x85\xc7\x8b\xb2\xf9v\xc7?\xed\xcc=\x96\x02\xbc\xaf?:\x8c\xce\x81\xcb\xb0\x01\xc0B\ny\xecB\xbe\xf9\xbf\x14X\x0c?(\xab\xfe\xbf(^+\x1f\xbc\xf8\xf8\xbf\xd2\xfc\xe0E\x08\xcb\x0b\xc0\xc1\x13Kq\xa0j\x06\xc0ku\x1e\x92>y\x0e\xc0\x9d\xbf\x18;\xff\xd5\x06\xc0$#\x80\x1f\xa7\xc7\x0e\xc0\x89:\xf6\xda\xb1u\x06\xc0\x84\x9c\xc42)<\n\xc0;\xef\x81K\xd4\x15\x0c\xc0'
p99
tp100
bsS'Model'
p101
S'HKY'
p102
sS'clock'
p103
I00
s.