(dp0
S'Force'
p1
NsS'ExpectedGeneconv'
p2
(dp3
(S'N1'
p4
S'N2'
p5
tp6
F85.38375260030193
s(S'N5'
p7
S'cerevisiae'
p8
tp9
F4.851361421964647
s(g5
S'N3'
p10
tp11
F5.036365754827514
s(S'N4'
p12
g7
tp13
F1.9626390120062729
s(g4
S'castellii'
p14
tp15
F134.19424612874568
s(g5
S'bayanus'
p16
tp17
F7.892878148705487
s(S'N0'
p18
g4
tp19
F9.82587064614733
s(g10
S'kudriavzevii'
p20
tp21
F6.716619835213295
s(g7
S'paradoxus'
p22
tp23
F4.056845953104974
s(g18
S'kluyveri'
p24
tp25
F0.0
s(g10
g12
tp26
F3.3186144244994034
s(g12
S'mikatae'
p27
tp28
F8.078694454500715
ssS'ExpectedDwellTime'
p29
(dp30
g6
F178.18559468657625
sg9
F226.50341300296856
sg11
F200.15030972715957
sg13
F217.85297273433358
sg15
F184.7544280250636
sg17
F200.86271800468526
sg19
F82.23036045626951
sg21
F203.25014302184005
sg23
F220.86473544131647
sg25
F0.0
sg26
F206.82053219113257
sg28
F211.46658034786256
ssS'newicktree'
p31
S'../PairsAlignemt/YeastTree.newick'
p32
sS'll'
p33
cnumpy.core.multiarray
scalar
p34
(cnumpy
dtype
p35
(S'f8'
p36
I0
I1
tp37
Rp38
(I3
S'<'
p39
NNNI-1
I-1
I0
tp40
bS'bx\xf2\xd6,\xd6\xa9\xc0'
p41
tp42
Rp43
sS'edge_list'
p44
(lp45
g19
ag25
ag6
ag15
ag11
ag17
ag26
ag21
ag13
ag28
ag9
ag23
asS'edge_to_blen'
p46
(dp47
g19
g34
(g38
S'*Z\xe4\xee\xd3A\xdf?'
p48
tp49
Rp50
sg9
g34
(g38
S'!;!\x98\x97p\xcc?'
p51
tp52
Rp53
sg11
g34
(g38
S'|C\x0c\x1d@N\xc5?'
p54
tp55
Rp56
sg13
g34
(g38
S'5{y\x116U\xb9?'
p57
tp58
Rp59
sg15
g34
(g38
S'\xee\x14\x15\x90\xe2E\x10@'
p60
tp61
Rp62
sg17
g34
(g38
S'\xb1\xb4)\x9aY$\xd2?'
p63
tp64
Rp65
sg6
g34
(g38
S'\xfc\xfb\xf1\xf8O\xbf\x04@'
p66
tp67
Rp68
sg21
g34
(g38
S'\x0bo\xac\x943"\xd0?'
p69
tp70
Rp71
sg23
g34
(g38
S'(\x9f-6\xc0&\xb8?'
p72
tp73
Rp74
sg25
g34
(g38
S'((\xed<\xa1h\x14@'
p75
tp76
Rp77
sg26
g34
(g38
S'K\x8f\xf6,\xe9Y\xc1?'
p78
tp79
Rp80
sg28
g34
(g38
S'\x14\xa9\x9f:\xad(\xd1?'
p81
tp82
Rp83
ssS'paralog'
p84
(lp85
S'YIL057C'
p86
aS'YER067W'
p87
asS'alignment_file'
p88
S'../MafftAlignment/YIL057C_YER067W/YIL057C_YER067W_input.fasta'
p89
sS'x_clock'
p90
NsS'x'
p91
cnumpy.core.multiarray
_reconstruct
p92
(cnumpy
ndarray
p93
(I0
tp94
S'b'
p95
tp96
Rp97
(I1
(I19
tp98
g38
I00
S"\xec\x80\x15\xae\xa0;\xe5\xbf\xf1\xdcF6\x863\xe3\xbf\xec\xe3o\xc1\xa3\x12\xea\xbfblKa\x13A\xe9?\x0b\x96\xd9\x97\xef\x16\x0b\xc0\x11\xb6\\3\xd2\xa6\xfd\xbf\x1a_QX\xd10\xec\xbf\x95\xd3c\x0c\xad\xee\xe6\xbf\xa6\xaa\x11&\x1e\x13\xfa?\xcc\x9d\xdf\xf4\xc5~\xee?\xcdl\x8c\xa6\x8es\xf6?\xf9\xb5S\xc6\\\xb0\xfc\xbf\xe3\x13\x04W\xa3+\xf4\xbf\xa2|\x1d}P\xf9\xff\xbf\xf50x\xc43\x0c\xf6\xbf\x90\x08X\x95-\x81\x02\xc0&\x06\rN\xd6\x0f\xf5\xbf32\xd93^\x11\xf8\xbf\xe3Q\x0b'\xfe\xe2\x02\xc0"
p99
tp100
bsS'Model'
p101
S'MG94'
p102
sS'clock'
p103
I00
s.