(dp0
S'Force'
p1
NsS'ExpectedGeneconv'
p2
(dp3
(S'N1'
p4
S'N2'
p5
tp6
F26.621136484875137
s(S'N5'
p7
S'cerevisiae'
p8
tp9
F4.387231983279864
s(g5
S'N3'
p10
tp11
F4.984945089057983
s(S'N4'
p12
g7
tp13
F3.102911682551331
s(g4
S'castellii'
p14
tp15
F30.57937882804965
s(g5
S'bayanus'
p16
tp17
F13.630337119980949
s(S'N0'
p18
g4
tp19
F26.919341993588876
s(g10
S'kudriavzevii'
p20
tp21
F9.674367806250213
s(g7
S'paradoxus'
p22
tp23
F1.4344412992364408
s(g18
S'kluyveri'
p24
tp25
F0.0
s(g10
g12
tp26
F1.2720248791196351
s(g12
S'mikatae'
p27
tp28
F6.7657055012820555
ssS'ExpectedDwellTime'
p29
(dp30
g6
F110.13457066833634
sg9
F133.43070307435855
sg11
F122.00222427549008
sg13
F123.5501765962737
sg15
F104.1315748711217
sg17
F125.15070315097661
sg19
F63.464296734207444
sg21
F130.5697637528837
sg23
F125.87006644724056
sg25
F0.0
sg26
F121.79085290596332
sg28
F130.8603965981207
ssS'newicktree'
p31
S'../PairsAlignemt/YeastTree.newick'
p32
sS'll'
p33
cnumpy.core.multiarray
scalar
p34
(cnumpy
dtype
p35
(S'f8'
p36
I0
I1
tp37
Rp38
(I3
S'<'
p39
NNNI-1
I-1
I0
tp40
bS'\xbc\x98G\x08\xeb9\xa2\xc0'
p41
tp42
Rp43
sS'edge_list'
p44
(lp45
g19
ag25
ag6
ag15
ag11
ag17
ag26
ag21
ag13
ag28
ag9
ag23
asS'edge_to_blen'
p46
(dp47
g19
g34
(g38
S'!\x15\x02\xe9 \xe8\xd0?'
p48
tp49
Rp50
sg9
g34
(g38
S'L\xa4\xa4\xdc\x00\xc9\xa2?'
p51
tp52
Rp53
sg11
g34
(g38
S'u-y(\xdb\x12\x98?'
p54
tp55
Rp56
sg13
g34
(g38
S'\x10\x1eV\xbc^\x7f\x94?'
p57
tp58
Rp59
sg21
g34
(g38
S'\x9d\x0b\xdb2\xe5j\xb3?'
p60
tp61
Rp62
sg17
g34
(g38
S'\x92+\xf1\x1a\x97,\xb2?'
p63
tp64
Rp65
sg6
g34
(g38
S'\xbe\x87H\xad\x95=\xc5?'
p66
tp67
Rp68
sg15
g34
(g38
S'x\x13\xc1\xfagg\xc5?'
p69
tp70
Rp71
sg23
g34
(g38
S'h\x1d6\x0e\xb9H\x84?'
p72
tp73
Rp74
sg28
g34
(g38
S'Ha\x0bql\xf0\xae?'
p75
tp76
Rp77
sg26
g34
(g38
S'\xae\x93O\xda\xa9\xe1v?'
p78
tp79
Rp80
sg25
g34
(g38
S'\xba\x84\x85\x94a\x97\xf6>'
p81
tp82
Rp83
ssS'paralog'
p84
(lp85
S'YNL069C'
p86
aS'YIL133C'
p87
asS'alignment_file'
p88
S'../MafftAlignment/YNL069C_YIL133C/YNL069C_YIL133C_input.fasta'
p89
sS'x_clock'
p90
NsS'x'
p91
cnumpy.core.multiarray
_reconstruct
p92
(cnumpy
ndarray
p93
(I0
tp94
S'b'
p95
tp96
Rp97
(I1
(I19
tp98
g38
I00
S'5u\'\xed{?\xe7\xbf"\x83y\x1b\x95G\xe1\xbf\x8e\x96\xee\x17\xc9\xca\xed\xbfL\xf32\xbc*9\xfb?\xcar\xf7g\x83)\xfa\xbf\x8f\xf9U\xe9\xe8\x9e\xe4?\x82t\x1b\xe0\xb4\xc2\xe4?,\r0\xebxL\xf5\xbf\xfc\x91~\x17\xa2}%\xc07\x05\x94\xa9\xe5\xbc\xfc\xbf*\x0b\xb0\xb8\x83\x9d\xfc\xbfD\x02/j\xb9\x00\x0e\xc06\r\xf6\xc5Q)\x05\xc0\x84\xda\xbc\x9f\xef\xbf\x14\xc0\r\xc3\xb3\x90\xca\xa1\x04\xc0~\xafK\xe7\x11J\x0f\xc0\xbfP\x1e\x84Ns\x06\xc0n5Z\x8b*q\n\xc0\xd3\xf9\xa0\xa9\x89u\x12\xc0'
p99
tp100
bsS'Model'
p101
S'MG94'
p102
sS'clock'
p103
I00
s.