(dp0
S'Force'
p1
NsS'ExpectedGeneconv'
p2
(dp3
(S'N1'
p4
S'N2'
p5
tp6
F47.299672747637075
s(S'N5'
p7
S'cerevisiae'
p8
tp9
F3.557445554153161
s(g5
S'N3'
p10
tp11
F3.6722516643455085
s(S'N4'
p12
g7
tp13
F2.0888205266956255
s(g4
S'castellii'
p14
tp15
F53.262751316458846
s(g5
S'bayanus'
p16
tp17
F6.732668183353136
s(S'N0'
p18
g4
tp19
F1.1661647320735797
s(g10
S'kudriavzevii'
p20
tp21
F6.5237140367150985
s(g7
S'paradoxus'
p22
tp23
F1.39530156196757
s(g18
S'kluyveri'
p24
tp25
F0.0
s(g10
g12
tp26
F3.8171749636410564
s(g12
S'mikatae'
p27
tp28
F7.128840917156509
ssS'ExpectedDwellTime'
p29
(dp30
g6
F346.18566989476875
sg9
F421.0338893418557
sg11
F416.31025259542173
sg13
F416.1781290377001
sg15
F349.5824763731578
sg17
F420.1786258753999
sg19
F76.02920630253227
sg21
F425.22333840150884
sg23
F423.9315244830057
sg25
F0.0
sg26
F414.833491040553
sg28
F411.0462160310767
ssS'newicktree'
p31
S'../PairsAlignemt/YeastTree.newick'
p32
sS'll'
p33
cnumpy.core.multiarray
scalar
p34
(cnumpy
dtype
p35
(S'f8'
p36
I0
I1
tp37
Rp38
(I3
S'<'
p39
NNNI-1
I-1
I0
tp40
bS'\x83\xaa\xf9\x04\x14i\xba\xc0'
p41
tp42
Rp43
sS'edge_list'
p44
(lp45
g19
ag25
ag6
ag15
ag11
ag17
ag26
ag21
ag13
ag28
ag9
ag23
asS'edge_to_blen'
p46
(dp47
g19
g34
(g38
S'\xeb%\xd3\xbd\x8bn\xc5?'
p48
tp49
Rp50
sg9
g34
(g38
S'W\xf7\\\xd3]\xe9\xc4?'
p51
tp52
Rp53
sg11
g34
(g38
S'\xcc^\xe1s\x0e\x81\xc1?'
p54
tp55
Rp56
sg13
g34
(g38
S'\x0e\xeeV\x92W\xae\xbf?'
p57
tp58
Rp59
sg15
g34
(g38
S'\xc5\xc9\x97\xc2TJ\x02@'
p60
tp61
Rp62
sg17
g34
(g38
S'\x15\x07\xb9`\xd5-\xd5?'
p63
tp64
Rp65
sg6
g34
(g38
S'\x9c>\xc8Cx\xc4\xfe?'
p66
tp67
Rp68
sg21
g34
(g38
S'*\xd5\xf0"\x88\xfc\xd2?'
p69
tp70
Rp71
sg23
g34
(g38
S'\xc7\x9fs\x10\xf5_\xb9?'
p72
tp73
Rp74
sg28
g34
(g38
S'\xbb\xde\x14\x06\xd0;\xd4?'
p75
tp76
Rp77
sg26
g34
(g38
S'7\xa5\x00\xcc1\x9f\xc2?'
p78
tp79
Rp80
sg25
g34
(g38
S'H\xfc\xf3\x1ag\xd0\xf7?'
p81
tp82
Rp83
ssS'paralog'
p84
(lp85
S'YBR024W'
p86
aS'YBR037C'
p87
asS'alignment_file'
p88
S'../MafftAlignment/YBR024W_YBR037C/YBR024W_YBR037C_input.fasta'
p89
sS'x_clock'
p90
NsS'x'
p91
cnumpy.core.multiarray
_reconstruct
p92
(cnumpy
ndarray
p93
(I0
tp94
S'b'
p95
tp96
Rp97
(I1
(I19
tp98
g38
I00
S'v\x88\x8d\xff\xbd\x00\xe5\xbfj \xdc\xaa\xe3q\xe2\xbf\xe4Q\xb2K\t\xa4\xec\xbf\xc9Z\x1c\x15\xdc\xd3\xeb?\xa2\xdbC\xf3}O\x03\xc0|>\xcb]\x944\x00\xc0\x19\xf6{/b{\x02\xc0j\xa1\x8bO.\x98\xfc\xbf\xa8\x92\x7f[\xb8s\xd9?i4\xc8\x82~\xec\xe4?\x0f\xd6\xc2\xe2:v\xea?9\x14\xdf\x17`\xd5\xff\xbf\x10L<\x01\xa6\xb1\xf1\xbf\xa9H\\"\xd6\xd7\xfe\xbf\x15U\xd9\xe1Hq\xf3\xbfuNO\x936\xb7\x00\xc0z\x98.g\xb1l\xf2\xbf\xf1K)A\xd5\xfc\xfc\xbf<s\xe7\x8c\xc9}\x02\xc0'
p99
tp100
bsS'Model'
p101
S'MG94'
p102
sS'clock'
p103
I00
s.