(dp0
S'Force'
p1
NsS'ExpectedGeneconv'
p2
(dp3
(S'N1'
p4
S'N2'
p5
tp6
F24.67597842745248
s(S'N5'
p7
S'cerevisiae'
p8
tp9
F6.639250963686311
s(g5
S'N3'
p10
tp11
F4.369432956151064
s(S'N4'
p12
g7
tp13
F2.985266192253709
s(g4
S'castellii'
p14
tp15
F41.92875554719454
s(g5
S'bayanus'
p16
tp17
F14.11984273241069
s(S'N0'
p18
g4
tp19
F39.71852715460448
s(g10
S'kudriavzevii'
p20
tp21
F7.360705246603013
s(g7
S'paradoxus'
p22
tp23
F8.363037425498804
s(g18
S'kluyveri'
p24
tp25
F0.0
s(g10
g12
tp26
F7.771002244685172
s(g12
S'mikatae'
p27
tp28
F10.651223593484527
ssS'ExpectedDwellTime'
p29
(dp30
g6
F84.92672113205161
sg9
F84.741507663828
sg11
F93.00268048729647
sg13
F86.5423948558734
sg15
F78.19598488358245
sg17
F80.45760609730341
sg19
F49.719764754225366
sg21
F101.89620215852464
sg23
F82.04468391851744
sg25
F0.0
sg26
F91.93812908970422
sg28
F88.64789817562657
ssS'newicktree'
p31
S'../PairsAlignemt/YeastTree.newick'
p32
sS'll'
p33
cnumpy.core.multiarray
scalar
p34
(cnumpy
dtype
p35
(S'f8'
p36
I0
I1
tp37
Rp38
(I3
S'<'
p39
NNNI-1
I-1
I0
tp40
bS'\xf8D\x8e\xdf\xed\x8a\x9e\xc0'
p41
tp42
Rp43
sS'edge_list'
p44
(lp45
g19
ag25
ag6
ag15
ag11
ag17
ag26
ag21
ag13
ag28
ag9
ag23
asS'edge_to_blen'
p46
(dp47
g19
g34
(g38
S'^\x94\xb0\xcdS\x8d\xb3?'
p48
tp49
Rp50
sg9
g34
(g38
S'\xa97"\xf3w \x7f?'
p51
tp52
Rp53
sg11
g34
(g38
S'\xd2o%\x13%Jw?'
p54
tp55
Rp56
sg13
g34
(g38
S'\x12\x89\xf0\xe1J\x87a?'
p57
tp58
Rp59
sg15
g34
(g38
S'9\x1f~\x91\xc8]\xa9?'
p60
tp61
Rp62
sg17
g34
(g38
S'\xd3eS\x87\xe43\x87?'
p63
tp64
Rp65
sg6
g34
(g38
S'G>[\xdb\x08G\x9e?'
p66
tp67
Rp68
sg21
g34
(g38
S'\x0b\xd6oR\xf9\xb0\x85?'
p69
tp70
Rp71
sg23
g34
(g38
S'tXqq\x82\x88\x82?'
p72
tp73
Rp74
sg28
g34
(g38
S'\x11\xfb\x81F\xc5\xd1\x87?'
p75
tp76
Rp77
sg26
g34
(g38
S'>\xa9Z+\xd5\xa9z?'
p78
tp79
Rp80
sg25
g34
(g38
S'\xa9!V?\xdf\xd5\xdd>'
p81
tp82
Rp83
ssS'paralog'
p84
(lp85
S'YJL177W'
p86
aS'YKL180W'
p87
asS'alignment_file'
p88
S'../MafftAlignment/YJL177W_YKL180W/YJL177W_YKL180W_input.fasta'
p89
sS'x_clock'
p90
NsS'x'
p91
cnumpy.core.multiarray
_reconstruct
p92
(cnumpy
ndarray
p93
(I0
tp94
S'b'
p95
tp96
Rp97
(I1
(I18
tp98
g38
I00
S"\\\x880\xc4\xab\xb6\xe7\xbf\xa7sb\xc4\x16\xd0\xde\xbfj&K\r\xcd>\xe7\xbf\xc0b(\xf1\x04#\x01@\x06G\xbaC\x94V\x00@\xb0\x8cY\xc1\x1c\xd1\x04@|\x98\xca{\xa7\x93\x04\xc0\xf3\x08\xc9V\x03\xb5'\xc0L\xab\xce\x82%+\x0c\xc0;\x1d\xe4\xc6\t\n\x08\xc0\xf9J\xa2\r\xd5\xad\x14\xc0\xf6\xa9w\xe4\xe0\xeb\x11\xc0\xadLv&M#\x14\xc0Z`\xf1=\xda0\x12\xc0\xce%1\xb6\x9d\x96\x18\xc0\xa6\xe1\xd5I\x04\xd1\x11\xc0\xaf]\xd8\x07\xcf\x84\x13\xc0\xad'\xc7o\xf9\xd1\x12\xc0"
p99
tp100
bsS'Model'
p101
S'HKY'
p102
sS'clock'
p103
I00
s.