(dp0
S'Force'
p1
NsS'ExpectedGeneconv'
p2
(dp3
(S'N1'
p4
S'N2'
p5
tp6
F59.46890784763559
s(S'N5'
p7
S'cerevisiae'
p8
tp9
F10.82737560115783
s(g5
S'N3'
p10
tp11
F8.816781450897983
s(S'N4'
p12
g7
tp13
F7.110389779400211
s(g4
S'castellii'
p14
tp15
F65.92040104446404
s(g5
S'bayanus'
p16
tp17
F19.808155863901383
s(S'N0'
p18
g4
tp19
F19.30331383004247
s(g10
S'kudriavzevii'
p20
tp21
F13.14572684027439
s(g7
S'paradoxus'
p22
tp23
F7.285873789154236
s(g18
S'kluyveri'
p24
tp25
F0.0
s(g10
g12
tp26
F7.119649076869672
s(g12
S'mikatae'
p27
tp28
F11.554213444641304
ssS'ExpectedDwellTime'
p29
(dp30
g6
F801.1578582351224
sg9
F985.4451839455965
sg11
F942.4997488763976
sg13
F964.6580160365803
sg15
F773.4647164582526
sg17
F939.14276093404
sg19
F352.7514809683073
sg21
F960.5491370538792
sg23
F973.2582396942319
sg25
F0.0
sg26
F957.301714165899
sg28
F957.5051072145334
ssS'newicktree'
p31
S'../PairsAlignemt/YeastTree.newick'
p32
sS'll'
p33
cnumpy.core.multiarray
scalar
p34
(cnumpy
dtype
p35
(S'f8'
p36
I0
I1
tp37
Rp38
(I3
S'<'
p39
NNNI-1
I-1
I0
tp40
bS"\x17'\xb1)r\xe5\xc1\xc0"
p41
tp42
Rp43
sS'edge_list'
p44
(lp45
g19
ag25
ag6
ag15
ag11
ag17
ag26
ag21
ag13
ag28
ag9
ag23
asS'edge_to_blen'
p46
(dp47
g19
g34
(g38
S'\x18P8Bbz\xcd?'
p48
tp49
Rp50
sg9
g34
(g38
S"\xda\xe9+'8\xe7\xaf?"
p51
tp52
Rp53
sg11
g34
(g38
S'\xe9az\xd71\xda\xa5?'
p54
tp55
Rp56
sg13
g34
(g38
S'\x03\x03<\xb1\xc8\x12\xa1?'
p57
tp58
Rp59
sg15
g34
(g38
S'\xe1bg\xa4\x07\xd9\xd3?'
p60
tp61
Rp62
sg17
g34
(g38
S';\x9c\xb2q\x03\xf3\xb5?'
p63
tp64
Rp65
sg6
g34
(g38
S'\xcf1\x16\r4N\xd3?'
p66
tp67
Rp68
sg21
g34
(g38
S'\xa0\x1e\x0c\xb9\xdf\xd0\xb0?'
p69
tp70
Rp71
sg23
g34
(g38
S'\x8e H\xb3\x94N\xa3?'
p72
tp73
Rp74
sg28
g34
(g38
S'\xda_\xe0\xb5\xd4+\xb1?'
p75
tp76
Rp77
sg26
g34
(g38
S'P\xca\x1f.\xc7.\xa3?'
p78
tp79
Rp80
sg25
g34
(g38
S'6\xd5\xa8j"J\xc2?'
p81
tp82
Rp83
ssS'paralog'
p84
(lp85
S'YDR438W'
p86
aS'YML018C'
p87
asS'alignment_file'
p88
S'../MafftAlignment/YDR438W_YML018C/YDR438W_YML018C_input.fasta'
p89
sS'x_clock'
p90
NsS'x'
p91
cnumpy.core.multiarray
_reconstruct
p92
(cnumpy
ndarray
p93
(I0
tp94
S'b'
p95
tp96
Rp97
(I1
(I18
tp98
g38
I00
S"N'\x94[\x9an\xe8\xbf?\xf0\x13\xe9\x17\xbd\xe1\xbf\x87\\\xa7AP\xcd\xee\xbf)\xe2\x8b\xbad\x89\xf4?\xf3e\xa0\xe1J\x90\x10\xc0\x16+\xdf`\xd8&\xe9\xbfdr\xca)\x80~\xf7\xbf\x13\x1f\xe4\x96\x94!\xff\xbf,\xd0c\x0b\x08-\xf3\xbf\xe4rc\xa3\x8f\xbb\xf2\xbf\xdc\xf8uxm;\t\xc0\xe5T\x01\xda\xcb\xa6\x03\xc0\x94\xc1\xbb\xa0FF\n\xc0\xc9\x0f\xe9\x80f\xc8\x05\xc0\x90.U\xf0\xd84\x0b\xc0\xda\x10#P\x94\x9d\x05\xc0\xad\xa9\x81\\w4\x06\xc0\xc6Kf8\x0e9\n\xc0"
p99
tp100
bsS'Model'
p101
S'HKY'
p102
sS'clock'
p103
I00
s.