(dp0
S'Force'
p1
NsS'ExpectedGeneconv'
p2
(dp3
(S'N1'
p4
S'N2'
p5
tp6
F15.123999296320195
s(S'N5'
p7
S'cerevisiae'
p8
tp9
F6.160358412878675
s(g5
S'N3'
p10
tp11
F2.863386062976206
s(S'N4'
p12
g7
tp13
F1.7686193042082605
s(g4
S'castellii'
p14
tp15
F26.423116700590118
s(g5
S'bayanus'
p16
tp17
F5.01026822612618
s(S'N0'
p18
g4
tp19
F4.895527232962216
s(g10
S'kudriavzevii'
p20
tp21
F5.835525618389435
s(g7
S'paradoxus'
p22
tp23
F3.0775662665063757
s(g18
S'kluyveri'
p24
tp25
F0.0
s(g10
g12
tp26
F2.2808583915677985
s(g12
S'mikatae'
p27
tp28
F6.842827799955902
ssS'ExpectedDwellTime'
p29
(dp30
g6
F378.47418021044473
sg9
F448.9571059509156
sg11
F440.849907732436
sg13
F445.7004847430075
sg15
F407.5347509674408
sg17
F448.922594716595
sg19
F173.79758154267827
sg21
F451.6959558854679
sg23
F453.42435683621943
sg25
F0.0
sg26
F443.58632816627295
sg28
F451.5872182277937
ssS'newicktree'
p31
S'../PairsAlignemt/YeastTree.newick'
p32
sS'll'
p33
cnumpy.core.multiarray
scalar
p34
(cnumpy
dtype
p35
(S'f8'
p36
I0
I1
tp37
Rp38
(I3
S'<'
p39
NNNI-1
I-1
I0
tp40
bS"'2od\x82w\xba\xc0"
p41
tp42
Rp43
sS'edge_list'
p44
(lp45
g19
ag25
ag6
ag15
ag11
ag17
ag26
ag21
ag13
ag28
ag9
ag23
asS'edge_to_blen'
p46
(dp47
g19
g34
(g38
S'5\xb6G\x12\xda\xce\xd7?'
p48
tp49
Rp50
sg9
g34
(g38
S'\xbce\xc2\xe9Nc\xc4?'
p51
tp52
Rp53
sg11
g34
(g38
S'Y\xe69\xea\x8b\x1a\xba?'
p54
tp55
Rp56
sg13
g34
(g38
S'n>\xf2\x9b\xb7\x13\xb7?'
p57
tp58
Rp59
sg15
g34
(g38
S'k\xccR\x14\xc7A\xee?'
p60
tp61
Rp62
sg17
g34
(g38
S'Z\x95W\xce?\n\xc8?'
p63
tp64
Rp65
sg6
g34
(g38
S']N6r\xb85\xe2?'
p66
tp67
Rp68
sg21
g34
(g38
S'\xd3\xe3\xbe\xe37A\xcd?'
p69
tp70
Rp71
sg23
g34
(g38
S'!>5\xd1\x08\xd6\xbd?'
p72
tp73
Rp74
sg28
g34
(g38
S'9\xa0\x15*\x18x\xcf?'
p75
tp76
Rp77
sg26
g34
(g38
S'\xb7\x08\xc3K2d\xb3?'
p78
tp79
Rp80
sg25
g34
(g38
S'\xd6\xed\xaa\xfc\xfc\x88\xde?'
p81
tp82
Rp83
ssS'paralog'
p84
(lp85
S'YGR043C'
p86
aS'YLR354C'
p87
asS'alignment_file'
p88
S'../MafftAlignment/YGR043C_YLR354C/YGR043C_YLR354C_input.fasta'
p89
sS'x_clock'
p90
NsS'x'
p91
cnumpy.core.multiarray
_reconstruct
p92
(cnumpy
ndarray
p93
(I0
tp94
S'b'
p95
tp96
Rp97
(I1
(I19
tp98
g38
I00
S'%M\x94N\xd7P\xe7\xbf\x1d\xee\xb2\xeb\xe2\x95\xe0\xbfR~0$\xd4\x15\xeb\xbf\xe0\xda;\xb2i6\xf1?7\x19\x06\x9f\xac\xa1\x01\xc0\x97\x0eo\x14\xc0B$\xc0\x08\xd7\\Oa\x8e\xf8\xbf\xa2y\x8cd\xbf\xa4\xef\xbf 3>\xdd \xae\xe7\xbf\xf8bo\xb0n\n\xe2\xbf\xe4x\xf7/^\xad\xac\xbfH\x97\xb2.\xcaC\x02\xc0\xc7\xee"\xc4\xc7\xc1\xfa\xbf\xf2\xf8\x1e\x94\x8d\xa4\x04\xc0\xd3H\x00\x98\xa5\x9d\xf7\xbf\xa8lU>/@\x03\xc08\nR\xd4\xc8r\xf6\xbf.\xc4o\xeb\xb5d\xfd\xbf\xec\xf7C\xb9\x172\x01\xc0'
p99
tp100
bsS'Model'
p101
S'MG94'
p102
sS'clock'
p103
I00
s.