(dp0
S'Force'
p1
(dp2
I4
F0.0
sI5
F0.0
ssS'ExpectedGeneconv'
p3
(dp4
(S'N1'
p5
S'N2'
p6
tp7
F0.0
s(S'N5'
p8
S'cerevisiae'
p9
tp10
F0.0
s(g6
S'N3'
p11
tp12
F0.0
s(S'N4'
p13
g8
tp14
F0.0
s(g5
S'castellii'
p15
tp16
F0.0
s(g6
S'bayanus'
p17
tp18
F0.0
s(S'N0'
p19
g5
tp20
F0.0
s(g11
S'kudriavzevii'
p21
tp22
F0.0
s(g8
S'paradoxus'
p23
tp24
F0.0
s(g19
S'kluyveri'
p25
tp26
F0.0
s(g11
g13
tp27
F0.0
s(g13
S'mikatae'
p28
tp29
F0.0
ssS'ExpectedDwellTime'
p30
(dp31
g7
F422.1782838974344
sg10
F673.2386871451772
sg12
F653.1700261219532
sg14
F660.5925551539049
sg16
F441.01551972197575
sg18
F680.0520797076568
sg20
F58.64558429668446
sg22
F684.0471184942522
sg24
F675.1655670550647
sg26
F0.0
sg27
F657.1052566035415
sg29
F661.2033041870716
ssS'newicktree'
p32
S'../PairsAlignemt/YeastTree.newick'
p33
sS'll'
p34
cnumpy.core.multiarray
scalar
p35
(cnumpy
dtype
p36
(S'f8'
p37
I0
I1
tp38
Rp39
(I3
S'<'
p40
NNNI-1
I-1
I0
tp41
bS'\x83\xda \xa7\xecQ\xbd\xc0'
p42
tp43
Rp44
sS'edge_list'
p45
(lp46
g20
ag26
ag7
ag16
ag12
ag18
ag27
ag22
ag14
ag29
ag10
ag24
asS'edge_to_blen'
p47
(dp48
g20
g35
(g39
S'\x84\xdbvsT\xd2\xa2?'
p49
tp50
Rp51
sg10
g35
(g39
S'\x97\xd0l\xa7\xac(\xaa?'
p52
tp53
Rp54
sg12
g35
(g39
S'(\xe9l\xe7\xbf\xb5\xa6?'
p55
tp56
Rp57
sg14
g35
(g39
S'\xabmu\xa5\x04=\xa4?'
p58
tp59
Rp60
sg16
g35
(g39
S'E\xdc\xf6#\xdb{\xd4?'
p61
tp62
Rp63
sg18
g35
(g39
S'G\x0c@=\xadU\xb6?'
p64
tp65
Rp66
sg7
g35
(g39
S'\xe5\xab\xb4\x859\xd9\xd1?'
p67
tp68
Rp69
sg22
g35
(g39
S'V\xcfa\xf7\xf4\xa9\xb5?'
p70
tp71
Rp72
sg24
g35
(g39
S'{\x91)\xdf\x8e\xc9\xa0?'
p73
tp74
Rp75
sg29
g35
(g39
S'R\x9c[\x12G\x9e\xb6?'
p76
tp77
Rp78
sg27
g35
(g39
S'\xfa\xda\xfcl\xf0\xfd\xa7?'
p79
tp80
Rp81
sg26
g35
(g39
S'\x15p\xdd\xaa\x11\xae\xd1?'
p82
tp83
Rp84
ssS'paralog'
p85
(lp86
S'YBR024W'
p87
aS'YBR037C'
p88
asS'alignment_file'
p89
S'../MafftAlignment/YBR024W_YBR037C/YBR024W_YBR037C_input.fasta'
p90
sS'x_clock'
p91
NsS'x'
p92
cnumpy.core.multiarray
_reconstruct
p93
(cnumpy
ndarray
p94
(I0
tp95
S'b'
p96
tp97
Rp98
(I1
(I18
tp99
g39
I00
S'\xb6\x89x\x9fPC\xe6\xbfI\xd9\xaf<\x12\x9c\xe1\xbf\x1a\xbd\x82\xa4z.\xeb\xbf\xcexjV\xca+\xf4?i`\xbb\xe6\x1bR\xf9?i`\xbb\xe6\x1bR\xf9?\x82\x93G\xbb2m\n\xc0\xa9\xaf\x8d\x1eN\x95\xf4\xbfJN\xa7fon\xf4\xbf\xda\x84\xf1A\\:\xf2\xbf\x10\x8bUM\x96\xec\x08\xc0\x8f\x07\x1e\xdc%\x83\x03\xc0%\xdcY$\x1f|\x08\xc0E\xcb\x1b,\x99\xc1\x03\xc0D^o\xf0\x90\xd8\t\xc0s\xd9\x1b\x8fNi\x03\xc0\x1a|\xf0\xad\x07\xcb\x07\xc0w\xe1\x18\x00sW\x0b\xc0'
p100
tp101
bsS'Model'
p102
S'HKY'
p103
sS'clock'
p104
I00
s.