(dp0
S'Force'
p1
(dp2
I4
F0.0
sI5
F0.0
ssS'ExpectedGeneconv'
p3
(dp4
(S'N1'
p5
S'N2'
p6
tp7
F0.0
s(S'N5'
p8
S'cerevisiae'
p9
tp10
F0.0
s(g6
S'N3'
p11
tp12
F0.0
s(S'N4'
p13
g8
tp14
F0.0
s(g5
S'castellii'
p15
tp16
F0.0
s(g6
S'bayanus'
p17
tp18
F0.0
s(S'N0'
p19
g5
tp20
F0.0
s(g11
S'kudriavzevii'
p21
tp22
F0.0
s(g8
S'paradoxus'
p23
tp24
F0.0
s(g19
S'kluyveri'
p25
tp26
F0.0
s(g11
g13
tp27
F0.0
s(g13
S'mikatae'
p28
tp29
F0.0
ssS'ExpectedDwellTime'
p30
(dp31
g7
F32.20358880736507
sg10
F50.17824253635576
sg12
F42.24776146248301
sg14
F41.05440089412713
sg16
F35.344835536399806
sg18
F48.052799645338176
sg20
F3.5099886701215346
sg22
F54.98927985101491
sg24
F45.96189965886204
sg26
F0.0
sg27
F39.974706307859535
sg29
F41.51711266787716
ssS'newicktree'
p32
S'../PairsAlignemt/YeastTree.newick'
p33
sS'll'
p34
cnumpy.core.multiarray
scalar
p35
(cnumpy
dtype
p36
(S'f8'
p37
I0
I1
tp38
Rp39
(I3
S'<'
p40
NNNI-1
I-1
I0
tp41
bS'U\xf2\x19`\xb6\x1d\x9a\xc0'
p42
tp43
Rp44
sS'edge_list'
p45
(lp46
g20
ag26
ag7
ag16
ag12
ag18
ag27
ag22
ag14
ag29
ag10
ag24
asS'edge_to_blen'
p47
(dp48
g20
g35
(g39
S'\xe2\x1cG2\xe48n?'
p49
tp50
Rp51
sg10
g35
(g39
S"#\x00\x7f\xd0\xac'\x85?"
p52
tp53
Rp54
sg12
g35
(g39
S'\x98\x1c\x840\x07\xf7\x87?'
p55
tp56
Rp57
sg14
g35
(g39
S'"TR\n\xaeP{?'
p58
tp59
Rp60
sg16
g35
(g39
S']\xecL\x90\x10\xdc\xa4?'
p61
tp62
Rp63
sg18
g35
(g39
S'\xe0X\x87=K\t\x84?'
p64
tp65
Rp66
sg7
g35
(g39
S'\x98K\xf7\xa4\xca\xc9\xa5?'
p67
tp68
Rp69
sg22
g35
(g39
S'\rYt\x18b\xa4\x9e?'
p70
tp71
Rp72
sg24
g35
(g39
S'\xfe*&\xdf\xe5\xa1{?'
p73
tp74
Rp75
sg29
g35
(g39
S'\xec\xc3|\xbb"e\x98?'
p76
tp77
Rp78
sg27
g35
(g39
S'|\x99l\xdc\x8b\xe5\x84?'
p79
tp80
Rp81
sg26
g35
(g39
S'\x88B\x96\x8e\x96\xfe\xa5?'
p82
tp83
Rp84
ssS'paralog'
p85
(lp86
S'YBR191W'
p87
aS'YPL079W'
p88
asS'alignment_file'
p89
S'../MafftAlignment/YBR191W_YPL079W/YBR191W_YPL079W_input.fasta'
p90
sS'x_clock'
p91
NsS'x'
p92
cnumpy.core.multiarray
_reconstruct
p93
(cnumpy
ndarray
p94
(I0
tp95
S'b'
p96
tp97
Rp98
(I1
(I18
tp99
g39
I00
S'\xa2\xc6\x8a<27\xe9\xbf,\x92\x07\xf2\xa3\x91\xde\xbfk\x01\xb2~ \x16\xea\xbf\x1b\xf4\xef\x0c \x99\x04@i`\xbb\xe6\x1bR\xf9?i`\xbb\xe6\x1bR\xf9?\x8b,|\xa5\xcah\x16\xc0\x02F\xbc\xb9%.\t\xc0\x91\xd0d\x07qA\t\xc0\ngDy\xa4\x9a\t\xc0oI-u\xc7\xca\x11\xc0\xe0\xc30v\x1f\x82\x12\xc0O\x98\xe8\xf1\x11W\x12\xc0pN\x10\t\xa1\x12\x0c\xc0\xed<<\x7f\x92\n\x14\xc0\x82, \x05\x90\xe5\r\xc0\t\x90ZM}J\x12\xc0\x9d\xe9\xaeO\xbf\xfe\x13\xc0'
p100
tp101
bsS'Model'
p102
S'HKY'
p103
sS'clock'
p104
I00
s.