(dp0
S'Force'
p1
(dp2
I5
F0.0
sI6
F0.0
ssS'ExpectedGeneconv'
p3
(dp4
(S'N1'
p5
S'N2'
p6
tp7
F0.0
s(S'N5'
p8
S'cerevisiae'
p9
tp10
F0.0
s(g6
S'N3'
p11
tp12
F0.0
s(S'N4'
p13
g8
tp14
F0.0
s(g5
S'castellii'
p15
tp16
F0.0
s(g6
S'bayanus'
p17
tp18
F0.0
s(S'N0'
p19
g5
tp20
F0.0
s(g11
S'kudriavzevii'
p21
tp22
F0.0
s(g8
S'paradoxus'
p23
tp24
F0.0
s(g19
S'kluyveri'
p25
tp26
F0.0
s(g11
g13
tp27
F0.0
s(g13
S'mikatae'
p28
tp29
F0.0
ssS'ExpectedDwellTime'
p30
(dp31
g7
F677.208285001879
sg10
F821.79233931089
sg12
F819.5814511268746
sg14
F824.9583621321648
sg16
F640.8811888125498
sg18
F810.8302278482157
sg20
F71.50289335881371
sg22
F822.7164701194491
sg24
F828.0996203325727
sg26
F0.0
sg27
F823.2628928757334
sg29
F816.8928303368565
ssS'newicktree'
p32
S'../PairsAlignemt/YeastTree.newick'
p33
sS'll'
p34
cnumpy.core.multiarray
scalar
p35
(cnumpy
dtype
p36
(S'f8'
p37
I0
I1
tp38
Rp39
(I3
S'<'
p40
NNNI-1
I-1
I0
tp41
bS'\x05\xc3\x08\x0c\x10\xc9\xc8\xc0'
p42
tp43
Rp44
sS'edge_list'
p45
(lp46
g20
ag26
ag7
ag16
ag12
ag18
ag27
ag22
ag14
ag29
ag10
ag24
asS'edge_to_blen'
p47
(dp48
g20
g35
(g39
S"',9@\x19\x92\xb4?"
p49
tp50
Rp51
sg10
g35
(g39
S't\xd41\x94A!\xc6?'
p52
tp53
Rp54
sg12
g35
(g39
S'<\x13\xadE\xcb4\xc2?'
p55
tp56
Rp57
sg14
g35
(g39
S'j\x1cF\xe5\n#\xbc?'
p58
tp59
Rp60
sg16
g35
(g39
S'\xda<\x15V\xd4;\x01@'
p61
tp62
Rp63
sg18
g35
(g39
S'|\x98v\xdb\xce#\xd4?'
p64
tp65
Rp66
sg7
g35
(g39
S'\xdbnn\xefzw\x03@'
p67
tp68
Rp69
sg22
g35
(g39
S'#)\x8b\x86\xb7\xcf\xd0?'
p70
tp71
Rp72
sg24
g35
(g39
S'\xde\xdd\xfc`\x02\xa5\xc2?'
p73
tp74
Rp75
sg29
g35
(g39
S'\xee\x0827\xf3H\xd1?'
p76
tp77
Rp78
sg27
g35
(g39
S'nX\x05\xf4\x1b;\xc1?'
p79
tp80
Rp81
sg26
g35
(g39
S'\xdc\xbe\x10\xa55\x11\xfa?'
p82
tp83
Rp84
ssS'paralog'
p85
(lp86
S'YDR518W'
p87
aS'YCL043C'
p88
asS'alignment_file'
p89
S'../MafftAlignment/YDR518W_YCL043C/YDR518W_YCL043C_input.fasta'
p90
sS'x_clock'
p91
NsS'x'
p92
cnumpy.core.multiarray
_reconstruct
p93
(cnumpy
ndarray
p94
(I0
tp95
S'b'
p96
tp97
Rp98
(I1
(I19
tp99
g39
I00
S'\x9f\xf7xjX\xcb\xe7\xbf:.G08\xbc\xe0\xbfZ?\xbf\xcax\xab\xe7\xbf\t\tA\xda\xbcr\xed?\x80\xeeOi\x90\xb1\x00\xc0i`\xbb\xe6\x1bR\xf9?i`\xbb\xe6\x1bR\xf9?h\xd6e{\xa4+\x04\xc0.\xe6\xca\n\xde<\xdf?\x1c\xa6\x8ch\xdbt\xec?3\xd13j\xc0\x8e\xe8?8\xc0\xcf\xc0J4\xff\xbf\xc5k&\x10\xb8\x7f\xf2\xbfl~\xb8}\xe8\n\x00\xc09\xc8\xea\xdf\xa3c\xf5\xbfk)\x1eI.\xaa\x01\xc0U\xac\xaf|\xda\xf1\xf4\xbfw\xc3\xd1\x11\xe4\x14\xfc\xbf\x89rl\xea\xd7\xd2\xfe\xbf'
p100
tp101
bsS'Model'
p102
S'MG94'
p103
sS'clock'
p104
I00
s.