(dp0
S'Force'
p1
(dp2
I4
F0.0
sI5
F0.0
ssS'ExpectedGeneconv'
p3
(dp4
(S'N1'
p5
S'N2'
p6
tp7
F0.0
s(S'N5'
p8
S'cerevisiae'
p9
tp10
F0.0
s(g6
S'N3'
p11
tp12
F0.0
s(S'N4'
p13
g8
tp14
F0.0
s(g5
S'castellii'
p15
tp16
F0.0
s(g6
S'bayanus'
p17
tp18
F0.0
s(S'N0'
p19
g5
tp20
F0.0
s(g11
S'kudriavzevii'
p21
tp22
F0.0
s(g8
S'paradoxus'
p23
tp24
F0.0
s(g19
S'kluyveri'
p25
tp26
F0.0
s(g11
g13
tp27
F0.0
s(g13
S'mikatae'
p28
tp29
F0.0
ssS'ExpectedDwellTime'
p30
(dp31
g7
F1104.8675082835382
sg10
F1852.1238109823364
sg12
F1774.323199179238
sg14
F1845.1973920018145
sg16
F1272.72602206332
sg18
F1798.2055433656167
sg20
F111.54454221858967
sg22
F1876.8792219782586
sg24
F1915.4146166022354
sg26
F0.0
sg27
F1827.7077756318665
sg29
F1871.3783540233317
ssS'newicktree'
p32
S'../PairsAlignemt/YeastTree.newick'
p33
sS'll'
p34
cnumpy.core.multiarray
scalar
p35
(cnumpy
dtype
p36
(S'f8'
p37
I0
I1
tp38
Rp39
(I3
S'<'
p40
NNNI-1
I-1
I0
tp41
bS'xA/\t\xeeu\xd3\xc0'
p42
tp43
Rp44
sS'edge_list'
p45
(lp46
g20
ag26
ag7
ag16
ag12
ag18
ag27
ag22
ag14
ag29
ag10
ag24
asS'edge_to_blen'
p47
(dp48
g20
g35
(g39
S'\xa79\xe7I\x9d+\x9e?'
p49
tp50
Rp51
sg10
g35
(g39
S'\xfcX\xba\xe7\xaf\xdc\xae?'
p52
tp53
Rp54
sg12
g35
(g39
S'\xdb%\xec;\xe5\xba\xaf?'
p55
tp56
Rp57
sg14
g35
(g39
S'\xd8\xf31\xbf\xd3,\xa3?'
p58
tp59
Rp60
sg16
g35
(g39
S'\xc1\x1a\x98I\n\x9c\xdc?'
p61
tp62
Rp63
sg18
g35
(g39
S'cn\xc3C\xf8N\xb6?'
p64
tp65
Rp66
sg7
g35
(g39
S'GPX#N\x02\xd6?'
p67
tp68
Rp69
sg22
g35
(g39
S'\x03`\xd9\x891\xa4\xb8?'
p70
tp71
Rp72
sg24
g35
(g39
S'\xf2\x9c\xe2J\xc1u\xb9?'
p73
tp74
Rp75
sg29
g35
(g39
S'\xd2\x88E\x97\xf2\x06\xb5?'
p76
tp77
Rp78
sg27
g35
(g39
S'\xa6j<\x14|\xb9\xa2?'
p79
tp80
Rp81
sg26
g35
(g39
S'\x04\xe0\xddw\xe5\xdb\xe2?'
p82
tp83
Rp84
ssS'paralog'
p85
(lp86
S'YAL056W'
p87
aS'YOR371C'
p88
asS'alignment_file'
p89
S'../MafftAlignment/YAL056W_YOR371C/YAL056W_YOR371C_input.fasta'
p90
sS'x_clock'
p91
NsS'x'
p92
cnumpy.core.multiarray
_reconstruct
p93
(cnumpy
ndarray
p94
(I0
tp95
S'b'
p96
tp97
Rp98
(I1
(I18
tp99
g39
I00
S'fi\x196\xf9C\xe5\xbf`\x94K\x07\xf2F\xdf\xbf\xde\xc9\xc9\xf6\t\xc5\xeb\xbf4\xf10mh\xa3\xf1?i`\xbb\xe6\x1bR\xf9?i`\xbb\xe6\x1bR\xf9?\x9eC\x7f\x87g2\x0c\xc0H\x95}P\x7f\xeb\xe0\xbf\xd8\x90\xf3\xf32\x14\xf1\xbfK\xc2N\x89\xbb\xc3\xe9\xbf\x0b\x93vr\x9c?\x06\xc0\x04\xfc38\x8d\x85\x03\xc0\x7fn\x1f)\xc9w\n\xc0ppPF\xdb\xb9\x02\xc0XN/\xf4\x16G\n\xc0\xe2\xfe\x8aJ\xb2\xfe\x03\xc0J\x19S\x97jx\x06\xc0Tu@3\xedv\x02\xc0'
p100
tp101
bsS'Model'
p102
S'HKY'
p103
sS'clock'
p104
I00
s.