(dp0
S'Force'
p1
(dp2
I4
F0.0
sI5
F0.0
ssS'ExpectedGeneconv'
p3
(dp4
(S'N1'
p5
S'N2'
p6
tp7
F0.0
s(S'N5'
p8
S'cerevisiae'
p9
tp10
F0.0
s(g6
S'N3'
p11
tp12
F0.0
s(S'N4'
p13
g8
tp14
F0.0
s(g5
S'castellii'
p15
tp16
F0.0
s(g6
S'bayanus'
p17
tp18
F0.0
s(S'N0'
p19
g5
tp20
F0.0
s(g11
S'kudriavzevii'
p21
tp22
F0.0
s(g8
S'paradoxus'
p23
tp24
F0.0
s(g19
S'kluyveri'
p25
tp26
F0.0
s(g11
g13
tp27
F0.0
s(g13
S'mikatae'
p28
tp29
F0.0
ssS'ExpectedDwellTime'
p30
(dp31
g7
F18.9862154579073
sg10
F49.9109942269225
sg12
F33.35956064088629
sg14
F45.351686820895125
sg16
F25.52260648565734
sg18
F30.373684641297757
sg20
F0.149008739093228
sg22
F57.13276142013861
sg24
F46.29456002803439
sg26
F0.0
sg27
F42.827939681782446
sg29
F51.98394875875462
ssS'newicktree'
p32
S'../PairsAlignemt/YeastTree.newick'
p33
sS'll'
p34
cnumpy.core.multiarray
scalar
p35
(cnumpy
dtype
p36
(S'f8'
p37
I0
I1
tp38
Rp39
(I3
S'<'
p40
NNNI-1
I-1
I0
tp41
bS"9\x81\xe7\xe5\xe8'\x96\xc0"
p42
tp43
Rp44
sS'edge_list'
p45
(lp46
g20
ag26
ag7
ag16
ag12
ag18
ag27
ag22
ag14
ag29
ag10
ag24
asS'edge_to_blen'
p47
(dp48
g20
g35
(g39
S'\x1cDBv\xb7B(?'
p49
tp50
Rp51
sg10
g35
(g39
S'A\xcd\xb1\xdei\x16\x91?'
p52
tp53
Rp54
sg12
g35
(g39
S'_A\x86Mh\x16\x8c?'
p55
tp56
Rp57
sg14
g35
(g39
S's*\xff\xdc\xfevh?'
p58
tp59
Rp60
sg16
g35
(g39
S'P\xf0\xde_fu\xa4?'
p61
tp62
Rp63
sg18
g35
(g39
S'tk\x83\x8b\xb5\xe7\x90?'
p64
tp65
Rp66
sg7
g35
(g39
S'zN\xbe\xe0\x12V\xa4?'
p67
tp68
Rp69
sg22
g35
(g39
S'\x93\x1fB{\x86\xfd\xa1?'
p70
tp71
Rp72
sg24
g35
(g39
S'Z\x02\x83\xac\x1e>\x8d?'
p73
tp74
Rp75
sg29
g35
(g39
S'\xf7>\xd4\xa9W\x1b\x9c?'
p76
tp77
Rp78
sg27
g35
(g39
S'\xb5\x16\xc3\x1b\xa1Gu?'
p79
tp80
Rp81
sg26
g35
(g39
S'%\xeeh\x8e\xab\x0c\xa1?'
p82
tp83
Rp84
ssS'paralog'
p85
(lp86
S'YMR143W'
p87
aS'YDL083C'
p88
asS'alignment_file'
p89
S'../MafftAlignment/YMR143W_YDL083C/YMR143W_YDL083C_input.fasta'
p90
sS'x_clock'
p91
NsS'x'
p92
cnumpy.core.multiarray
_reconstruct
p93
(cnumpy
ndarray
p94
(I0
tp95
S'b'
p96
tp97
Rp98
(I1
(I18
tp99
g39
I00
S')\xa9\xd2\xae=\x07\xea\xbf\x99\x08\xc4I\xc3\x81\xde\xbf\x17\x86E\x00\xc3\x97\xec\xbf\xae\xe7\xaf\x11\\\x0f\x08@i`\xbb\xe6\x1bR\xf9?i`\xbb\xe6\x1bR\xf9?\xd8c\xfb\xb1u0!\xc0\xde\xd1J\xd2\xb67\x0b\xc0\x9e\xba\x12\x93\xaf\xce\t\xc0\xf6<\xd9Cf\xc2\t\xc0\xe8\x1c\xba\x81<(\x11\xc0\xd5\xf5q!Yj\x10\xc03OS|?\n\x15\xc0\x8f}\xf8&\xb5\xc9\n\xc0\x87\xfe\xa4\x854A\x17\xc0p$x\x8d\x80\xc3\x0c\xc0\x8a.j>[_\x10\xc0\x89?\x0c`\xf7\xfe\x10\xc0'
p100
tp101
bsS'Model'
p102
S'HKY'
p103
sS'clock'
p104
I00
s.