(dp0
S'Force'
p1
(dp2
I4
F0.0
sI5
F0.0
ssS'ExpectedGeneconv'
p3
(dp4
(S'N1'
p5
S'N2'
p6
tp7
F0.0
s(S'N5'
p8
S'cerevisiae'
p9
tp10
F0.0
s(g6
S'N3'
p11
tp12
F0.0
s(S'N4'
p13
g8
tp14
F0.0
s(g5
S'castellii'
p15
tp16
F0.0
s(g6
S'bayanus'
p17
tp18
F0.0
s(S'N0'
p19
g5
tp20
F0.0
s(g11
S'kudriavzevii'
p21
tp22
F0.0
s(g8
S'paradoxus'
p23
tp24
F0.0
s(g19
S'kluyveri'
p25
tp26
F0.0
s(g11
g13
tp27
F0.0
s(g13
S'mikatae'
p28
tp29
F0.0
ssS'ExpectedDwellTime'
p30
(dp31
g7
F16.889600259636442
sg10
F51.537408362284346
sg12
F30.913697471955206
sg14
F43.69693889768971
sg16
F59.901095811837536
sg18
F50.819974588124346
sg20
F1.7455531860042717
sg22
F63.65793241787341
sg24
F77.71775820733356
sg26
F0.0
sg27
F36.26228772627261
sg29
F74.44697846752901
ssS'newicktree'
p32
S'../PairsAlignemt/YeastTree.newick'
p33
sS'll'
p34
cnumpy.core.multiarray
scalar
p35
(cnumpy
dtype
p36
(S'f8'
p37
I0
I1
tp38
Rp39
(I3
S'<'
p40
NNNI-1
I-1
I0
tp41
bS'k\xf0\x82<(\xbc\xa2\xc0'
p42
tp43
Rp44
sS'edge_list'
p45
(lp46
g20
ag26
ag7
ag16
ag12
ag18
ag27
ag22
ag14
ag29
ag10
ag24
asS'edge_to_blen'
p47
(dp48
g20
g35
(g39
S'\x8d+tI\xa0\xf5Y?'
p49
tp50
Rp51
sg10
g35
(g39
S"K'S|\xc2\xd0\x94?"
p52
tp53
Rp54
sg12
g35
(g39
S'\x15+[=|\xac}?'
p55
tp56
Rp57
sg14
g35
(g39
S'\xcatg\xe2\x1c\xa7o?'
p58
tp59
Rp60
sg16
g35
(g39
S'X\xf7}\x94nJ\xb5?'
p61
tp62
Rp63
sg18
g35
(g39
S'`\xfc\xf2\xd2\x04\xa1\xa1?'
p64
tp65
Rp66
sg7
g35
(g39
S' \xc3r\xca\x88\x90\x8d?'
p67
tp68
Rp69
sg22
g35
(g39
S'\xeb\xd8\xd7E>\xf8\xa4?'
p70
tp71
Rp72
sg24
g35
(g39
S'\xc37H\x04d/\xa2?'
p73
tp74
Rp75
sg29
g35
(g39
S'\xfdX:L\x7f\xb5\xa4?'
p76
tp77
Rp78
sg27
g35
(g39
S'H\x1c\x16\x81\x06\xf4n?'
p79
tp80
Rp81
sg26
g35
(g39
S'.O\x81\x06\x81\x1a\xb2?'
p82
tp83
Rp84
ssS'paralog'
p85
(lp86
S'YNL301C'
p87
aS'YOL120C'
p88
asS'alignment_file'
p89
S'../MafftAlignment/YNL301C_YOL120C/YNL301C_YOL120C_input.fasta'
p90
sS'x_clock'
p91
NsS'x'
p92
cnumpy.core.multiarray
_reconstruct
p93
(cnumpy
ndarray
p94
(I0
tp95
S'b'
p96
tp97
Rp98
(I1
(I18
tp99
g39
I00
S'\xbd\xf8\x17Q*\xef\xe8\xbf\x9e:\xbc\xe4!E\xe2\xbf\xcd\xa5c\xff\xf7\xb5\xe9\xbf\xc8\x93\xa3^\xa1\x14\x00@i`\xbb\xe6\x1bR\xf9?i`\xbb\xe6\x1bR\xf9?+\xc1\x92\xacC\xca\x19\xc0\x11\x96\x12\xd6K1\x05\xc0U.<5\xc1\xf3\x10\xc0\xdd\x7f\xe3P.\xe5\x03\xc0\x87\xfdBA\xc3\xb5\x13\xc0\r\x81\x110C\xf3\n\xc0\xab3\xc6\x92QP\x16\xc0 \xbb\xc8,\xdd\x8f\t\xc0\x07\xcd\xf3\xedn9\x16\xc0\xe1\x94\xc6\xc4|\xa9\t\xc0\xc0{\x06S\x8c*\x0f\xc0T\xed)\x0b\xa7\xb3\n\xc0'
p100
tp101
bsS'Model'
p102
S'HKY'
p103
sS'clock'
p104
I00
s.