(dp0
S'Force'
p1
(dp2
I4
F0.0
sI5
F0.0
ssS'ExpectedGeneconv'
p3
(dp4
(S'N1'
p5
S'N2'
p6
tp7
F0.0
s(S'N5'
p8
S'cerevisiae'
p9
tp10
F0.0
s(g6
S'N3'
p11
tp12
F0.0
s(S'N4'
p13
g8
tp14
F0.0
s(g5
S'castellii'
p15
tp16
F0.0
s(g6
S'bayanus'
p17
tp18
F0.0
s(S'N0'
p19
g5
tp20
F0.0
s(g11
S'kudriavzevii'
p21
tp22
F0.0
s(g8
S'paradoxus'
p23
tp24
F0.0
s(g19
S'kluyveri'
p25
tp26
F0.0
s(g11
g13
tp27
F0.0
s(g13
S'mikatae'
p28
tp29
F0.0
ssS'ExpectedDwellTime'
p30
(dp31
g7
F1096.939358197628
sg10
F1826.911656913996
sg12
F1628.5337972088528
sg14
F1772.18554153711
sg16
F1382.299673490276
sg18
F1673.705810871087
sg20
F242.4958012649554
sg22
F1753.831840530711
sg24
F1813.9877576914007
sg26
F0.0
sg27
F1706.5064915475666
sg29
F1774.3474335278147
ssS'newicktree'
p32
S'../PairsAlignemt/YeastTree.newick'
p33
sS'll'
p34
cnumpy.core.multiarray
scalar
p35
(cnumpy
dtype
p36
(S'f8'
p37
I0
I1
tp38
Rp39
(I3
S'<'
p40
NNNI-1
I-1
I0
tp41
bS'f\x94\xb0\x00\x0b\xa3\xd4\xc0'
p42
tp43
Rp44
sS'edge_list'
p45
(lp46
g20
ag26
ag7
ag16
ag12
ag18
ag27
ag22
ag14
ag29
ag10
ag24
asS'edge_to_blen'
p47
(dp48
g20
g35
(g39
S'N\xff\x01\xff\xd5O\xaa?'
p49
tp50
Rp51
sg10
g35
(g39
S'\x97\xacK^9H\xad?'
p52
tp53
Rp54
sg12
g35
(g39
S'\xb0wY.Gd\xa0?'
p55
tp56
Rp57
sg14
g35
(g39
S'cc\x1d:\xd14\xa1?'
p58
tp59
Rp60
sg16
g35
(g39
S'\xf73\\\x9dZ\x8e\xd4?'
p61
tp62
Rp63
sg18
g35
(g39
S'V;\x923\x88I\xb1?'
p64
tp65
Rp66
sg7
g35
(g39
S'\xc8\xd5\xd4\x01X\x1d\xc8?'
p67
tp68
Rp69
sg22
g35
(g39
S'\xd4\xb3H\xcc(\x1f\xb3?'
p70
tp71
Rp72
sg24
g35
(g39
S'x\x8f\xb2\xc0W,\xa3?'
p73
tp74
Rp75
sg29
g35
(g39
S'S\xb0\x95\x9en\xb7\xb2?'
p76
tp77
Rp78
sg27
g35
(g39
S'kb\x0fT\xf1\x8f\xa5?'
p79
tp80
Rp81
sg26
g35
(g39
S'QBO\xb2\xf2\xc4\xcd?'
p82
tp83
Rp84
ssS'paralog'
p85
(lp86
S'YNL049C'
p87
aS'YIL109C'
p88
asS'alignment_file'
p89
S'../MafftAlignment/YNL049C_YIL109C/YNL049C_YIL109C_input.fasta'
p90
sS'x_clock'
p91
NsS'x'
p92
cnumpy.core.multiarray
_reconstruct
p93
(cnumpy
ndarray
p94
(I0
tp95
S'b'
p96
tp97
Rp98
(I1
(I18
tp99
g39
I00
S'Y6\xc5[\xab~\xe7\xbfb\x15\xe2 \xf3d\xde\xbf\xab\x02\x02\x02\xeaI\xeb\xbf~AM^\x80\xda\xf4?i`\xbb\xe6\x1bR\xf9?i`\xbb\xe6\x1bR\xf9?\xea\xb2\xf5\x9f\x16\xbf\x07\xc0\x97\x8e>B:V\xf7\xbf\xbc\xce\xe1m\x17\xb5\xfa\xbfl7\x9d\xdd\xef+\xf2\xbf&\xe1\xa1\xc1J\x88\x0b\xc0+\xb5z\xca\xc9\x8f\x05\xc0\xaf/\x12\xf7\xcaV\t\xc0w\xbei\x07<\xc1\x04\xc0T\xe1\xc9Z\xf6$\x0b\xc0\xba\x1d\xe5\xf5\x18\xed\x04\xc0=\tp\x14\n\xe4\x06\xc0\xc8\xac\x0c\xb0JG\n\xc0'
p100
tp101
bsS'Model'
p102
S'HKY'
p103
sS'clock'
p104
I00
s.