(dp0
S'Force'
p1
(dp2
I5
F0.0
sI6
F0.0
ssS'ExpectedGeneconv'
p3
(dp4
(S'N1'
p5
S'N2'
p6
tp7
F0.0
s(S'N5'
p8
S'cerevisiae'
p9
tp10
F0.0
s(g6
S'N3'
p11
tp12
F0.0
s(S'N4'
p13
g8
tp14
F0.0
s(g5
S'castellii'
p15
tp16
F0.0
s(g6
S'bayanus'
p17
tp18
F0.0
s(S'N0'
p19
g5
tp20
F0.0
s(g11
S'kudriavzevii'
p21
tp22
F0.0
s(g8
S'paradoxus'
p23
tp24
F0.0
s(g19
S'kluyveri'
p25
tp26
F0.0
s(g11
g13
tp27
F0.0
s(g13
S'mikatae'
p28
tp29
F0.0
ssS'ExpectedDwellTime'
p30
(dp31
g7
F20.512835854590833
sg10
F44.35307155151858
sg12
F37.02171232112155
sg14
F41.23398874243043
sg16
F28.043824089192135
sg18
F44.40833237663417
sg20
F0.0013383395194561352
sg22
F48.22632155375395
sg24
F47.358036142873054
sg26
F0.0
sg27
F39.717742949711194
sg29
F51.18104471930123
ssS'newicktree'
p32
S'../PairsAlignemt/YeastTree.newick'
p33
sS'll'
p34
cnumpy.core.multiarray
scalar
p35
(cnumpy
dtype
p36
(S'f8'
p37
I0
I1
tp38
Rp39
(I3
S'<'
p40
NNNI-1
I-1
I0
tp41
bS'#\x0f\x1c8@\x91\x96\xc0'
p42
tp43
Rp44
sS'edge_list'
p45
(lp46
g20
ag26
ag7
ag16
ag12
ag18
ag27
ag22
ag14
ag29
ag10
ag24
asS'edge_to_blen'
p47
(dp48
g7
g35
(g39
S'u\xc7\x1dgFb\xb9?'
p49
tp50
Rp51
sg10
g35
(g39
S'\x11Pz\xb7\x01G\xad?'
p52
tp53
Rp54
sg12
g35
(g39
S')D\xe4|\xc4\xe7\x97?'
p55
tp56
Rp57
sg14
g35
(g39
S'\xc1L\x08\x06\xfa\x8c\x87?'
p58
tp59
Rp60
sg22
g35
(g39
S'c\x12K\x18\x8b\xfa\xbb?'
p61
tp62
Rp63
sg18
g35
(g39
S'\xbaCh\x0ea\xff\xb0?'
p64
tp65
Rp66
sg20
g35
(g39
S'5yA\x04\xc7\xdd\xd4>'
p67
tp68
Rp69
sg16
g35
(g39
S'\x0e\xfb7?\x11e\xc8?'
p70
tp71
Rp72
sg24
g35
(g39
S'\xe5J\xe1\xaa\x1c\xe5\x9e?'
p73
tp74
Rp75
sg26
g35
(g39
S'\x97\xbc|\xca{\xc7\xcf?'
p76
tp77
Rp78
sg27
g35
(g39
S'\x94\n=I\x9d\xa3w>'
p79
tp80
Rp81
sg29
g35
(g39
S'9\xc7v\xda3\x19\xbf?'
p82
tp83
Rp84
ssS'paralog'
p85
(lp86
S'YML026C'
p87
aS'YDR450W'
p88
asS'alignment_file'
p89
S'../MafftAlignment/YML026C_YDR450W/YML026C_YDR450W_input.fasta'
p90
sS'x_clock'
p91
NsS'x'
p92
cnumpy.core.multiarray
_reconstruct
p93
(cnumpy
ndarray
p94
(I0
tp95
S'b'
p96
tp97
Rp98
(I1
(I19
tp99
g39
I00
S"9o\xe5\x03\xfa\x02\xe7\xbf^\xd2X\n\xad\x88\xe0\xbf\x9cF\xb2u\xb2\xa0\xec\xbf\xe6</\xdb\x9dC\xf9?\x198#<\xba\xa3\x06\xc0i`\xbb\xe6\x1bR\xf9?i`\xbb\xe6\x1bR\xf9?d\xe3_\x85\x15l(\xc0)\x06|+\x9eJ\xf6\xbf\xd0?(\x85\x0e}\x02\xc0'U\xa7\x03\xc7\x85\xfa\xbf\xef\xb6\xed\xed\x17\x0f\x0e\xc0\xe6\xd1b\te\xb2\x05\xc0\x07\x16\xbc\x9d\xc6>0\xc0ov\xe8k\xba\xb5\x01\xc0oj+\x8f\xa2\xdc\x11\xc0\x87\xf71Z9\xdd\x00\xc07\xac5;_\xe4\x06\xc0\xf2@\x03\x91\xcc\x01\x0c\xc0"
p100
tp101
bsS'Model'
p102
S'MG94'
p103
sS'clock'
p104
I00
s.