(dp0
S'Force'
p1
(dp2
I4
F0.0
sI5
F0.0
ssS'ExpectedGeneconv'
p3
(dp4
(S'N1'
p5
S'N2'
p6
tp7
F0.0
s(S'N5'
p8
S'cerevisiae'
p9
tp10
F0.0
s(g6
S'N3'
p11
tp12
F0.0
s(S'N4'
p13
g8
tp14
F0.0
s(g5
S'castellii'
p15
tp16
F0.0
s(g6
S'bayanus'
p17
tp18
F0.0
s(S'N0'
p19
g5
tp20
F0.0
s(g11
S'kudriavzevii'
p21
tp22
F0.0
s(g8
S'paradoxus'
p23
tp24
F0.0
s(g19
S'kluyveri'
p25
tp26
F0.0
s(g11
g13
tp27
F0.0
s(g13
S'mikatae'
p28
tp29
F0.0
ssS'ExpectedDwellTime'
p30
(dp31
g7
F188.8663027325207
sg10
F374.6942408789495
sg12
F289.2867428140121
sg14
F349.72910788712437
sg16
F307.14111594024376
sg18
F337.2670225332724
sg20
F53.3273317800274
sg22
F356.1884758034347
sg24
F389.8913117677094
sg26
F0.0
sg27
F325.61907976237103
sg29
F377.3148505640894
ssS'newicktree'
p32
S'../PairsAlignemt/YeastTree.newick'
p33
sS'll'
p34
cnumpy.core.multiarray
scalar
p35
(cnumpy
dtype
p36
(S'f8'
p37
I0
I1
tp38
Rp39
(I3
S'<'
p40
NNNI-1
I-1
I0
tp41
bS'\xf0\xae\xaf\x82M\xd2\xba\xc0'
p42
tp43
Rp44
sS'edge_list'
p45
(lp46
g20
ag26
ag7
ag16
ag12
ag18
ag27
ag22
ag14
ag29
ag10
ag24
asS'edge_to_blen'
p47
(dp48
g20
g35
(g39
S'^>\xe4\xe3\x85\xa3\x98?'
p49
tp50
Rp51
sg10
g35
(g39
S'\x9b6\x0e\xa8\xb4\xf7\xa0?'
p52
tp53
Rp54
sg12
g35
(g39
S'b\x86\x9d2\xd1\xef\x99?'
p55
tp56
Rp57
sg14
g35
(g39
S'\xe5"0\x11\xd9i\x99?'
p58
tp59
Rp60
sg16
g35
(g39
S'\xfb5\xd9\xa75\xfa\xc2?'
p61
tp62
Rp63
sg18
g35
(g39
S'\x8f\xb6\xd6/\x88\xc4\xa9?'
p64
tp65
Rp66
sg7
g35
(g39
S'\x876\xc4\x01\x97\xa1\xa7?'
p67
tp68
Rp69
sg22
g35
(g39
S'\x07D\xf9\xd7\xc0J\xad?'
p70
tp71
Rp72
sg24
g35
(g39
S'\x92\xe0I\xc0\x96b\xa0?'
p73
tp74
Rp75
sg29
g35
(g39
S'SUu\x194\xe6\xae?'
p76
tp77
Rp78
sg27
g35
(g39
S'J\x95\n\xba\x05.\x9a?'
p79
tp80
Rp81
sg26
g35
(g39
S'\xba\x1d\xa4B8n\xba?'
p82
tp83
Rp84
ssS'paralog'
p85
(lp86
S'YDR502C'
p87
aS'YLR180W'
p88
asS'alignment_file'
p89
S'../MafftAlignment/YDR502C_YLR180W/YDR502C_YLR180W_input.fasta'
p90
sS'x_clock'
p91
NsS'x'
p92
cnumpy.core.multiarray
_reconstruct
p93
(cnumpy
ndarray
p94
(I0
tp95
S'b'
p96
tp97
Rp98
(I1
(I18
tp99
g39
I00
S'Bg\\\xc7\xef\x00\xeb\xbf\x9b=|9i\xcc\xe2\xbf)\x05U\x00\xc3Q\xeb\xbf\xf9O\x03p\xe3\x16\xff?i`\xbb\xe6\x1bR\xf9?i`\xbb\xe6\x1bR\xf9?a\x88\xa1\x804\xd1\r\xc0,\x98\x89?N*\x02\xc0aa\xe9\x1f&\x9b\x08\xc0$N\xfbx_\x8a\xfe\xbf\x18\xd72\xd5\x0eh\r\xc0x\xab\xea\x1f\xe3\xe9\x07\xc0\xc8H\xa9\xe6\xf5T\r\xc0V\xe7x7Y\xe3\x06\xc0w\xe7"b\xcd\x91\r\xc0\xb0M@w\xf3u\x06\xc0\xe9J<(\x93A\x0b\xc08c\xd2\xd8\x1d\x89\x0b\xc0'
p100
tp101
bsS'Model'
p102
S'HKY'
p103
sS'clock'
p104
I00
s.