(dp0
S'Force'
p1
NsS'ExpectedGeneconv'
p2
(dp3
(S'N1'
p4
S'N2'
p5
tp6
F18.270536216090203
s(S'N5'
p7
S'cerevisiae'
p8
tp9
F11.440668507565253
s(g5
S'N3'
p10
tp11
F0.006565389856192354
s(S'N4'
p12
g7
tp13
F3.353913086267698
s(g4
S'castellii'
p14
tp15
F40.104732045107156
s(g5
S'bayanus'
p16
tp17
F13.730286643644314
s(S'N0'
p18
g4
tp19
F42.668251839907505
s(g10
S'kudriavzevii'
p20
tp21
F13.32392849623768
s(g7
S'paradoxus'
p22
tp23
F4.157415635497743
s(g18
S'kluyveri'
p24
tp25
F0.0
s(g10
g12
tp26
F0.03671683386163107
s(g12
S'mikatae'
p27
tp28
F15.999901343630226
ssS'ExpectedDwellTime'
p29
(dp30
g6
F30.021018190502797
sg9
F23.507283096483093
sg11
F27.163676227950546
sg13
F25.172352805338356
sg15
F36.69019838388601
sg17
F22.80076565337504
sg19
F23.769840777569943
sg21
F39.01833327658121
sg23
F19.279136900177686
sg25
F0.0
sg26
F27.141319244576724
sg28
F25.18296366353227
ssS'newicktree'
p31
S'../PairsAlignemt/YeastTree.newick'
p32
sS'll'
p33
cnumpy.core.multiarray
scalar
p34
(cnumpy
dtype
p35
(S'f8'
p36
I0
I1
tp37
Rp38
(I3
S'<'
p39
NNNI-1
I-1
I0
tp40
bS'/\x12\xf1z\x97t\x94\xc0'
p41
tp42
Rp43
sS'edge_list'
p44
(lp45
g19
ag25
ag6
ag15
ag11
ag17
ag26
ag21
ag13
ag28
ag9
ag23
asS'edge_to_blen'
p46
(dp47
g19
g34
(g38
S'\x8a\x9c6[\x94\x8a\xb3?'
p48
tp49
Rp50
sg9
g34
(g38
S'}\xf6o+EY\x92?'
p51
tp52
Rp53
sg11
g34
(g38
S'\x90\xe7\xf0\xd7,=\xe2>'
p54
tp55
Rp56
sg13
g34
(g38
S'|\x91\x13\x84\xb2\xabk?'
p57
tp58
Rp59
sg15
g34
(g38
S'(\x1c[\x7fZ\xba\xab?'
p60
tp61
Rp62
sg17
g34
(g38
S'\xe8\x14*\x1d\xf4\xa7\x90?'
p63
tp64
Rp65
sg6
g34
(g38
S']\r\xe0\x9dK\xdb\x97?'
p66
tp67
Rp68
sg21
g34
(g38
S'\xbc\x0f\x1a\x0f\x97\x1e\x97?'
p69
tp70
Rp71
sg23
g34
(g38
S'Y\x9c\xf6D\xd0$q?'
p72
tp73
Rp74
sg28
g34
(g38
S'\x1f\xd84\x0e\xf6%\x94?'
p75
tp76
Rp77
sg26
g34
(g38
S'\x86\x80\xc2\xe1\x191\x03?'
p78
tp79
Rp80
sg25
g34
(g38
S'\xa3d\x13\x03Xi#?'
p81
tp82
Rp83
ssS'paralog'
p84
(lp85
S'YER074W'
p86
aS'YIL069C'
p87
asS'alignment_file'
p88
S'../MafftAlignment/YER074W_YIL069C/YER074W_YIL069C_input.fasta'
p89
sS'x_clock'
p90
NsS'x'
p91
cnumpy.core.multiarray
_reconstruct
p92
(cnumpy
ndarray
p93
(I0
tp94
S'b'
p95
tp96
Rp97
(I1
(I17
tp98
g38
I00
S"\x1aP\xd4~\xb5\r\xe7\xbf\xc7yF\x8d\xe6X\xe0\xbf\x04n\x00\xf3\xd7\xa8\xe9\xbfU\xb2\xdb\xde\xaf\xcb\x04@\xdfG\xbc\x18u`\t@z\x95Lc\xc7\x94\x04\xc0?\x045>\xa1\xa2!\xc0\x9b\xac<\x86E\x13\x0e\xc0\xd8\xd3\xba\xf4\xbaS\x07\xc0/\t\x1b{\x18N'\xc0\x12\xd2r\xc0\x8by\x10\xc0\xed'N\x8a=n$\xc0\xab\xa2\x01\xb4\x8cS\x0e\xc0\x98\xe5\xba\xca\x1c\xc3\x16\xc0\x16\x81\x0f Dm\x0f\xc0\x00\t\x047p\x16\x10\xc0\xe2\xc9[w\x8e\xe7\x15\xc0"
p99
tp100
bsS'Model'
p101
S'HKY'
p102
sS'clock'
p103
I00
s.