(dp0
S'Force'
p1
(dp2
I5
F0.0
ssS'ExpectedGeneconv'
p3
(dp4
(S'N1'
p5
S'N2'
p6
tp7
F0.0
s(S'N5'
p8
S'cerevisiae'
p9
tp10
F0.0
s(g6
S'N3'
p11
tp12
F0.0
s(S'N4'
p13
g8
tp14
F0.0
s(g5
S'castellii'
p15
tp16
F0.0
s(g6
S'bayanus'
p17
tp18
F0.0
s(S'N0'
p19
g5
tp20
F0.0
s(g11
S'kudriavzevii'
p21
tp22
F0.0
s(g8
S'paradoxus'
p23
tp24
F0.0
s(g19
S'kluyveri'
p25
tp26
F0.0
s(g11
g13
tp27
F0.0
s(g13
S'mikatae'
p28
tp29
F0.0
ssS'ExpectedDwellTime'
p30
(dp31
g7
F21.33838289718409
sg10
F49.67789601899218
sg12
F36.06568251744602
sg14
F47.24333022177265
sg16
F30.11840246241088
sg18
F31.458729445388137
sg20
F1.097975434961685
sg22
F50.73493660942679
sg24
F55.31176903835849
sg26
F0.0
sg27
F44.0493423175965
sg29
F63.84072876107285
ssS'newicktree'
p32
S'../PairsAlignemt/YeastTree.newick'
p33
sS'll'
p34
cnumpy.core.multiarray
scalar
p35
(cnumpy
dtype
p36
(S'f8'
p37
I0
I1
tp38
Rp39
(I3
S'<'
p40
NNNI-1
I-1
I0
tp41
bS'\xecjSx)\x1d\x96\xc0'
p42
tp43
Rp44
sS'edge_list'
p45
(lp46
g20
ag26
ag7
ag16
ag12
ag18
ag27
ag22
ag14
ag29
ag10
ag24
asS'edge_to_blen'
p47
(dp48
g7
g35
(g39
S'\xc1_\x18\xdaB\xbc\xc0?'
p49
tp50
Rp51
sg10
g35
(g39
S'j\xafIV\x86\x0b\xb0?'
p52
tp53
Rp54
sg12
g35
(g39
S'YN\xe4\xbcmk\xb0?'
p55
tp56
Rp57
sg14
g35
(g39
S'\xcb\xa6\xea\xbeg\xf5z?'
p58
tp59
Rp60
sg22
g35
(g39
S'\xf3\xb3E\xbe\xf3\xbb\xb4?'
p61
tp62
Rp63
sg18
g35
(g39
S'"O]\xc4^\xba\xaa?'
p64
tp65
Rp66
sg20
g35
(g39
S'\x11\xa8r\x18\xd6\xa6p?'
p67
tp68
Rp69
sg16
g35
(g39
S'\xa9\xd8\x08a3.\xc6?'
p70
tp71
Rp72
sg24
g35
(g39
S'"Q}\xfc\\G\xaa?'
p73
tp74
Rp75
sg26
g35
(g39
S'\x02\xd9\xf7yc\xc6\xcf?'
p76
tp77
Rp78
sg27
g35
(g39
S'1A+\xfc\x05X\x9f?'
p79
tp80
Rp81
sg29
g35
(g39
S'\xe3E\x01\x06\xbff\xba?'
p82
tp83
Rp84
ssS'paralog'
p85
(lp86
S'YBL087C'
p87
aS'YER117W'
p88
asS'alignment_file'
p89
S'../MafftAlignment/YBL087C_YER117W/YBL087C_YER117W_input.fasta'
p90
sS'x_clock'
p91
NsS'x'
p92
cnumpy.core.multiarray
_reconstruct
p93
(cnumpy
ndarray
p94
(I0
tp95
S'b'
p96
tp97
Rp98
(I1
(I18
tp99
g39
I00
S'$\x90Y&,"\xe7\xbfD\xcb\x9d\xe7\x99\x05\xe3\xbf\xb0\x8f\xa3\x12\xa46\xf0\xbfFUN\xe2=\xef\x00@dD\x1a\xb7\xed\xef\x07\xc0\xfa\x98\xee\xf9\x8a#\xf3?t\x82\xa62a\x05\x16\xc0W\xb3nO+K\xf6\xbf\'\'\xa53\xaaF\x00\xc0:\x88\xdd\xe9\x8a\x0b\xfc\xbf\xf5\x89\x93\\=\xf9\x05\xc0Y\x8a\xf2Z\xf3\x9e\x07\xc0t\xc8\x91\xffA\xe4\x0b\xc0+\xcf\xf3\x0en\x1b\x04\xc0\xe4\xf9 \xc2\x06\x18\x14\xc0*S\xbd\xaa\x91,\x02\xc0?p\x1e\xe6\x81(\x06\xc0r\x01w\x84\xaa\xc1\x07\xc0'
p100
tp101
bsS'Model'
p102
S'MG94'
p103
sS'clock'
p104
I00
s.