(dp0
S'Force'
p1
(dp2
I4
F0.0
sI5
F0.0
ssS'ExpectedGeneconv'
p3
(dp4
(S'N1'
p5
S'N2'
p6
tp7
F0.0
s(S'N5'
p8
S'cerevisiae'
p9
tp10
F0.0
s(g6
S'N3'
p11
tp12
F0.0
s(S'N4'
p13
g8
tp14
F0.0
s(g5
S'castellii'
p15
tp16
F0.0
s(g6
S'bayanus'
p17
tp18
F0.0
s(S'N0'
p19
g5
tp20
F0.0
s(g11
S'kudriavzevii'
p21
tp22
F0.0
s(g8
S'paradoxus'
p23
tp24
F0.0
s(g19
S'kluyveri'
p25
tp26
F0.0
s(g11
g13
tp27
F0.0
s(g13
S'mikatae'
p28
tp29
F0.0
ssS'ExpectedDwellTime'
p30
(dp31
g7
F22.16909985146088
sg10
F49.49025436953746
sg12
F35.78828107138007
sg14
F47.43093188976096
sg16
F30.841444613368083
sg18
F31.371311056540804
sg20
F2.0863072825554196
sg22
F51.020084526484915
sg24
F55.249681098865665
sg26
F0.0
sg27
F44.60229077645799
sg29
F64.85581639520846
ssS'newicktree'
p32
S'../PairsAlignemt/YeastTree.newick'
p33
sS'll'
p34
cnumpy.core.multiarray
scalar
p35
(cnumpy
dtype
p36
(S'f8'
p37
I0
I1
tp38
Rp39
(I3
S'<'
p40
NNNI-1
I-1
I0
tp41
bS'\x82\xa3\r\xcd\xad\xc2\x98\xc0'
p42
tp43
Rp44
sS'edge_list'
p45
(lp46
g20
ag26
ag7
ag16
ag12
ag18
ag27
ag22
ag14
ag29
ag10
ag24
asS'edge_to_blen'
p47
(dp48
g20
g35
(g39
S'!\xd6\xa3Yd4e?'
p49
tp50
Rp51
sg10
g35
(g39
S'\xfdSv\x03`\x10\x94?'
p52
tp53
Rp54
sg12
g35
(g39
S'h\x88<Q\x9a\xbd\x93?'
p55
tp56
Rp57
sg14
g35
(g39
S'7\x8b8`\xa6/e?'
p58
tp59
Rp60
sg16
g35
(g39
S'7:u\xd6\xc2\xef\xa9?'
p61
tp62
Rp63
sg18
g35
(g39
S'~Ag\xae\x11P\x92?'
p64
tp65
Rp66
sg7
g35
(g39
S'\xe2\xae\x1a\xb0K`\xa3?'
p67
tp68
Rp69
sg22
g35
(g39
S'=\x1f\xac\xda5/\x9a?'
p70
tp71
Rp72
sg24
g35
(g39
S'\xe3\xff\x02<\xfe^\x91?'
p73
tp74
Rp75
sg29
g35
(g39
S'\xd8`M\x92#L\xa0?'
p76
tp77
Rp78
sg27
g35
(g39
S'\x0e\x16\xfcf\xf1\xb5\x83?'
p79
tp80
Rp81
sg26
g35
(g39
S'\xab-4_rh\xb2?'
p82
tp83
Rp84
ssS'paralog'
p85
(lp86
S'YBL087C'
p87
aS'YER117W'
p88
asS'alignment_file'
p89
S'../MafftAlignment/YBL087C_YER117W/YBL087C_YER117W_input.fasta'
p90
sS'x_clock'
p91
NsS'x'
p92
cnumpy.core.multiarray
_reconstruct
p93
(cnumpy
ndarray
p94
(I0
tp95
S'b'
p96
tp97
Rp98
(I1
(I18
tp99
g39
I00
S'[\xce\x1a\xf4wD\xea\xbf\xc0\xf6\xec\xdc.c\xe5\xbf\x0b\xd6\x86R\xbc=\xed\xbf\xb0(rw5\xac\x04@i`\xbb\xe6\x1bR\xf9?i`\xbb\xe6\x1bR\xf9?\xf2\xde\xab6\xa7\xd3\x17\xc0\x95\xb3\xed\xb8#\x0f\x05\xc0~\r/x\xba1\n\xc0\x14YW\x83\x82\xdc\x07\xc0\xf1\x826\x8d \x97\x0f\xc0\xc8{f6r\x18\x10\xc0B\xfd\x97I\xe6\x92\x12\xc0\x93\x02c\xf9\x98T\r\xc0\x88e\xaaP\x8c\xd4\x17\xc0\x848\xb7n\x1b\x94\x0b\xc0\x9aT\xca\xe0\xdau\x0f\xc0\xa7\x86r{\x81N\x10\xc0'
p100
tp101
bsS'Model'
p102
S'HKY'
p103
sS'clock'
p104
I00
s.