(dp0
S'Force'
p1
(dp2
I5
F0.0
ssS'ExpectedGeneconv'
p3
(dp4
(S'N1'
p5
S'N2'
p6
tp7
F0.0
s(S'N5'
p8
S'cerevisiae'
p9
tp10
F0.0
s(g6
S'N3'
p11
tp12
F0.0
s(S'N4'
p13
g8
tp14
F0.0
s(g5
S'castellii'
p15
tp16
F0.0
s(g6
S'bayanus'
p17
tp18
F0.0
s(S'N0'
p19
g5
tp20
F0.0
s(g11
S'kudriavzevii'
p21
tp22
F0.0
s(g8
S'paradoxus'
p23
tp24
F0.0
s(g19
S'kluyveri'
p25
tp26
F0.0
s(g11
g13
tp27
F0.0
s(g13
S'mikatae'
p28
tp29
F0.0
ssS'ExpectedDwellTime'
p30
(dp31
g7
F344.19631321061996
sg10
F420.92206607654606
sg12
F418.36709072241877
sg14
F415.6024136467138
sg16
F349.7229940395402
sg18
F422.68602330442934
sg20
F44.4696224082935
sg22
F426.4226419521736
sg24
F423.5998244794892
sg26
F0.0
sg27
F415.2295533305808
sg29
F411.7328083780139
ssS'newicktree'
p32
S'../PairsAlignemt/YeastTree.newick'
p33
sS'll'
p34
cnumpy.core.multiarray
scalar
p35
(cnumpy
dtype
p36
(S'f8'
p37
I0
I1
tp38
Rp39
(I3
S'<'
p40
NNNI-1
I-1
I0
tp41
bS'c\x95\x91\xde.q\xba\xc0'
p42
tp43
Rp44
sS'edge_list'
p45
(lp46
g20
ag26
ag7
ag16
ag12
ag18
ag27
ag22
ag14
ag29
ag10
ag24
asS'edge_to_blen'
p47
(dp48
g7
g35
(g39
S'\xec\xfaI2\xb33\xfe?'
p49
tp50
Rp51
sg10
g35
(g39
S'2J:|\xe0\xe0\xc5?'
p52
tp53
Rp54
sg12
g35
(g39
S'p\xb0\xc6Am\x1e\xc0?'
p55
tp56
Rp57
sg14
g35
(g39
S'\xc4*J\xdcF\xf5\xc0?'
p58
tp59
Rp60
sg22
g35
(g39
S'\xa8U\x0b\xd1KH\xd3?'
p61
tp62
Rp63
sg18
g35
(g39
S'\x12!\xe9\xf1\x7f\xe5\xd6?'
p64
tp65
Rp66
sg20
g35
(g39
S'Jm\xc8\xd5]*\xb7?'
p67
tp68
Rp69
sg16
g35
(g39
S'[\x8b\x87\x9b\xb6\x0f\x02@'
p70
tp71
Rp72
sg24
g35
(g39
S'\xdc\x80J\x7f0G\xba?'
p73
tp74
Rp75
sg26
g35
(g39
S'\xc7\xfb\xf8T\x8a\x1e\xf9?'
p76
tp77
Rp78
sg27
g35
(g39
S'tX.\xdb\xe0K\xc4?'
p79
tp80
Rp81
sg29
g35
(g39
S'\xe7\xda]\xbc\xb3\xab\xd4?'
p82
tp83
Rp84
ssS'paralog'
p85
(lp86
S'YBR024W'
p87
aS'YBR037C'
p88
asS'alignment_file'
p89
S'../MafftAlignment/YBR024W_YBR037C/YBR024W_YBR037C_input.fasta'
p90
sS'x_clock'
p91
NsS'x'
p92
cnumpy.core.multiarray
_reconstruct
p93
(cnumpy
ndarray
p94
(I0
tp95
S'b'
p96
tp97
Rp98
(I1
(I18
tp99
g39
I00
S"u\xda\xd7\xf3\x1c\x12\xe5\xbf \xfa\x1bG\x0e\x95\xe2\xbf+l\x11j\x00\x95\xec\xbf\x89Dy\xf1\xd5\xb8\xeb?d^\xb2 \x8d/\x03\xc0\xfa\x98\xee\xf9\x8a#\xf3?\xbeY)\x0bY8\x03\xc0]\xb6\x1a\x1b\xf7\xdd\xdc?\xf9\xbd\xf4$\x86T\xe4?\x937\xce\x0f\x07\x0f\xea?\xe0\xb5C\x03\x8a\x93\x00\xc0\xd4\xa7\xf7\xffFr\xf0\xbfs\xefp\xa9#w\xfd\xbf\xd1\xec\xa3\x1a\xee1\xf3\xbf\xfes\xe6\xe8\x96+\x00\xc0N\xc3!5(\x15\xf2\xbfR\xbe8.\xb4C\xfc\xbf\x80\xc5\xf5O'6\x02\xc0"
p100
tp101
bsS'Model'
p102
S'MG94'
p103
sS'clock'
p104
I00
s.