(dp0
S'Force'
p1
(dp2
I5
F0.0
ssS'ExpectedGeneconv'
p3
(dp4
(S'N1'
p5
S'N2'
p6
tp7
F0.0
s(S'N5'
p8
S'cerevisiae'
p9
tp10
F0.0
s(g6
S'N3'
p11
tp12
F0.0
s(S'N4'
p13
g8
tp14
F0.0
s(g5
S'castellii'
p15
tp16
F0.0
s(g6
S'bayanus'
p17
tp18
F0.0
s(S'N0'
p19
g5
tp20
F0.0
s(g11
S'kudriavzevii'
p21
tp22
F0.0
s(g8
S'paradoxus'
p23
tp24
F0.0
s(g19
S'kluyveri'
p25
tp26
F0.0
s(g11
g13
tp27
F0.0
s(g13
S'mikatae'
p28
tp29
F0.0
ssS'ExpectedDwellTime'
p30
(dp31
g7
F414.1863007940478
sg10
F471.63333235147735
sg12
F473.6630778190674
sg14
F476.41438765759364
sg16
F419.38908033752267
sg18
F461.09586607614045
sg20
F141.04654753892822
sg22
F478.09063200429773
sg24
F478.91422259718826
sg26
F0.0
sg27
F477.23536596663524
sg29
F477.31896588653706
ssS'newicktree'
p32
S'../PairsAlignemt/YeastTree.newick'
p33
sS'll'
p34
cnumpy.core.multiarray
scalar
p35
(cnumpy
dtype
p36
(S'f8'
p37
I0
I1
tp38
Rp39
(I3
S'<'
p40
NNNI-1
I-1
I0
tp41
bS'\x85>(\xf0\x92.\xbc\xc0'
p42
tp43
Rp44
sS'edge_list'
p45
(lp46
g20
ag26
ag7
ag16
ag12
ag18
ag27
ag22
ag14
ag29
ag10
ag24
asS'edge_to_blen'
p47
(dp48
g7
g35
(g39
S'!c\xaaG%\xa8\x04@'
p49
tp50
Rp51
sg10
g35
(g39
S'.N\x15\r\x1e\r\xcf?'
p52
tp53
Rp54
sg12
g35
(g39
S'R\x97r%\xb7t\xc0?'
p55
tp56
Rp57
sg14
g35
(g39
S'\xfduv\x05\xf2\x03\xc1?'
p58
tp59
Rp60
sg22
g35
(g39
S'\xb5\x99\xefV\xb4B\xd1?'
p61
tp62
Rp63
sg18
g35
(g39
S'\xb4\xcd\xef\xfei\xae\xd2?'
p64
tp65
Rp66
sg20
g35
(g39
S'l\x04a\x12\xc3o\xd4?'
p67
tp68
Rp69
sg16
g35
(g39
S'\x11\x13h\xe1)\x05\t@'
p70
tp71
Rp72
sg24
g35
(g39
S'\xe82\xa1IT\xd3\xb2?'
p73
tp74
Rp75
sg26
g35
(g39
S'\x81z\xc1\x04\xc3A\x05@'
p76
tp77
Rp78
sg27
g35
(g39
S'9e\xf9\x0f\x03c\xb7?'
p79
tp80
Rp81
sg29
g35
(g39
S'\x8f\x1d\xf1l|H\xd3?'
p82
tp83
Rp84
ssS'paralog'
p85
(lp86
S'YPL087W'
p87
aS'YBR183W'
p88
asS'alignment_file'
p89
S'../MafftAlignment/YPL087W_YBR183W/YPL087W_YBR183W_input.fasta'
p90
sS'x_clock'
p91
NsS'x'
p92
cnumpy.core.multiarray
_reconstruct
p93
(cnumpy
ndarray
p94
(I0
tp95
S'b'
p96
tp97
Rp98
(I1
(I18
tp99
g39
I00
S"r\xd3\xe0\xa5\x01a\xe6\xbf\x1a\xbeC!![\xe1\xbf\xe3\xf7\r\xd5\x93,\xf1\xbf!\xefK\xccr\x10\xf0?\x95\x105\x92E\xbc\x05\xc0\xfa\x98\xee\xf9\x8a#\xf3?\xcc.sg\xd1C\xf2\xbfUr\x0c\x0f\x8bE\xef?\xa9\xab\x05\xa3\xf6Z\xee?d\xec\xf7\x1am>\xf2?Z\xf0\xf6\x90'i\x00\xc0OR5U\xa6\xb3\xf3\xbfz\xe0\x18\xf0\xe0$\x03\xc0\xf3Ea\x8c\xa3\xf7\xf4\xbf\xca\x1a}e\xae$\x00\xc0\x84\xf2=\xc5\xc51\xf3\xbf\xa7@\x88)\x8a\xa9\xf6\xbf]\xba\x8c@5\xe1\x04\xc0"
p100
tp101
bsS'Model'
p102
S'MG94'
p103
sS'clock'
p104
I00
s.