(dp0
S'Force'
p1
(dp2
I5
F0.0
ssS'ExpectedGeneconv'
p3
(dp4
(S'N1'
p5
S'N2'
p6
tp7
F0.0
s(S'N5'
p8
S'cerevisiae'
p9
tp10
F0.0
s(g6
S'N3'
p11
tp12
F0.0
s(S'N4'
p13
g8
tp14
F0.0
s(g5
S'castellii'
p15
tp16
F0.0
s(g6
S'bayanus'
p17
tp18
F0.0
s(S'N0'
p19
g5
tp20
F0.0
s(g11
S'kudriavzevii'
p21
tp22
F0.0
s(g8
S'paradoxus'
p23
tp24
F0.0
s(g19
S'kluyveri'
p25
tp26
F0.0
s(g11
g13
tp27
F0.0
s(g13
S'mikatae'
p28
tp29
F0.0
ssS'ExpectedDwellTime'
p30
(dp31
g7
F28.250189221684497
sg10
F46.11877990823059
sg12
F37.67121724731728
sg14
F37.15755384974319
sg16
F32.16756708138211
sg18
F43.73213302743531
sg20
F0.2378311359642976
sg22
F50.74961437274903
sg24
F41.95121036172742
sg26
F0.0
sg27
F36.127018850690234
sg29
F39.25337263444537
ssS'newicktree'
p32
S'../PairsAlignemt/YeastTree.newick'
p33
sS'll'
p34
cnumpy.core.multiarray
scalar
p35
(cnumpy
dtype
p36
(S'f8'
p37
I0
I1
tp38
Rp39
(I3
S'<'
p40
NNNI-1
I-1
I0
tp41
bS'\xea~\x19&\x96\xf5\x97\xc0'
p42
tp43
Rp44
sS'edge_list'
p45
(lp46
g20
ag26
ag7
ag16
ag12
ag18
ag27
ag22
ag14
ag29
ag10
ag24
asS'edge_to_blen'
p47
(dp48
g7
g35
(g39
S'}m\x05\xd2\xe7\xee\xc2?'
p49
tp50
Rp51
sg10
g35
(g39
S'\x07\xa1:\xb2\xb0{\xa0?'
p52
tp53
Rp54
sg12
g35
(g39
S'\x0e\xe6Mk\xe1[\xa1?'
p55
tp56
Rp57
sg14
g35
(g39
S'\x9fi3%\xa5\x02\x96?'
p58
tp59
Rp60
sg22
g35
(g39
S'\x9e\x17!M<V\xb9?'
p61
tp62
Rp63
sg18
g35
(g39
S'\x00\xb3\xc0\xf6\x81v\xa0?'
p64
tp65
Rp66
sg20
g35
(g39
S'\x11\xdf\x83\xfd3JH?'
p67
tp68
Rp69
sg16
g35
(g39
S'b\xce=O%\xaf\xc1?'
p70
tp71
Rp72
sg24
g35
(g39
S'L0\xcc\xc7y\xee\x94?'
p73
tp74
Rp75
sg26
g35
(g39
S'A0QfcF\xc2?'
p76
tp77
Rp78
sg27
g35
(g39
S'4\xa4\x85\xf81@\x9f?'
p79
tp80
Rp81
sg29
g35
(g39
S'R\xa8/\xba\x956\xb3?'
p82
tp83
Rp84
ssS'paralog'
p85
(lp86
S'YBR191W'
p87
aS'YPL079W'
p88
asS'alignment_file'
p89
S'../MafftAlignment/YBR191W_YPL079W/YBR191W_YPL079W_input.fasta'
p90
sS'x_clock'
p91
NsS'x'
p92
cnumpy.core.multiarray
_reconstruct
p93
(cnumpy
ndarray
p94
(I0
tp95
S'b'
p96
tp97
Rp98
(I1
(I18
tp99
g39
I00
S'\xd4?\xd2\xde-B\xe7\xbf\xd0\x95D\x06\xd5\x07\xde\xbfr\xd0\xac\xe5n\x1d\xec\xbfI\x92\xa3\xb4cU\x00@\xb9\x04EQ\x92\xc6\x04\xc0\xfa\x98\xee\xf9\x8a#\xf3?E\xb2w\xd7\x1e\xd4\x1c\xc0\x15})\xe3\xdb$\xff\xbf:qF"\xea\x93\xfe\xbfARQ2v\xab\xff\xbf\xb7\xf9RN\xe1\x12\x0b\xc0\xc8\x10\r\x0fj\x7f\x0b\xc0\xf1\xda1>Y\xea\x0b\xc0\x1c\x1a&\xc7\xda\x80\x02\xc0\x81a\xed\xd8<\xb8\x0e\xc0\xb8\xcc\x17\x10u\xb7\x04\xc0\xcd2\xec\xbd\xe5|\x0b\xc0r!\xde\xbc(\x1f\x0f\xc0'
p100
tp101
bsS'Model'
p102
S'MG94'
p103
sS'clock'
p104
I00
s.