(dp0
S'Force'
p1
(dp2
I5
F0.0
ssS'ExpectedGeneconv'
p3
(dp4
(S'N1'
p5
S'N2'
p6
tp7
F0.0
s(S'N5'
p8
S'cerevisiae'
p9
tp10
F0.0
s(g6
S'N3'
p11
tp12
F0.0
s(S'N4'
p13
g8
tp14
F0.0
s(g5
S'castellii'
p15
tp16
F0.0
s(g6
S'bayanus'
p17
tp18
F0.0
s(S'N0'
p19
g5
tp20
F0.0
s(g11
S'kudriavzevii'
p21
tp22
F0.0
s(g8
S'paradoxus'
p23
tp24
F0.0
s(g19
S'kluyveri'
p25
tp26
F0.0
s(g11
g13
tp27
F0.0
s(g13
S'mikatae'
p28
tp29
F0.0
ssS'ExpectedDwellTime'
p30
(dp31
g7
F20.102429537128
sg10
F24.982158031024387
sg12
F36.2442573960093
sg14
F33.33605955618712
sg16
F50.15932438900816
sg18
F47.7704831021709
sg20
F0.0004329742388967785
sg22
F71.69947408018588
sg24
F32.134517015748685
sg26
F0.0
sg27
F39.54183633342779
sg29
F52.12287924330204
ssS'newicktree'
p32
S'../PairsAlignemt/YeastTree.newick'
p33
sS'll'
p34
cnumpy.core.multiarray
scalar
p35
(cnumpy
dtype
p36
(S'f8'
p37
I0
I1
tp38
Rp39
(I3
S'<'
p40
NNNI-1
I-1
I0
tp41
bS'\x0e\x1d\x1f\x15Q)\xa1\xc0'
p42
tp43
Rp44
sS'edge_list'
p45
(lp46
g20
ag26
ag7
ag16
ag12
ag18
ag27
ag22
ag14
ag29
ag10
ag24
asS'edge_to_blen'
p47
(dp48
g7
g35
(g39
S'\x87\x8a\xca\xc7:%\xb4?'
p49
tp50
Rp51
sg10
g35
(g39
S'3y8?\x8c \x87?'
p52
tp53
Rp54
sg12
g35
(g39
S';\xcf\xeb\x05\x02\x8a\xa4?'
p55
tp56
Rp57
sg14
g35
(g39
S'\xdd{qCX\x99\xa0?'
p58
tp59
Rp60
sg22
g35
(g39
S'\xe2\xe7\xeeM\xf7[\xc2?'
p61
tp62
Rp63
sg18
g35
(g39
S'jKOVxq\xbb?'
p64
tp65
Rp66
sg20
g35
(g39
S'\xf0V\x87\x02\x9d\x1b\xb4>'
p67
tp68
Rp69
sg16
g35
(g39
S'\xf4\xefa\xcaQ\xdf\xce?'
p70
tp71
Rp72
sg24
g35
(g39
S'!4\xfd\x17?\x86\xa2?'
p73
tp74
Rp75
sg26
g35
(g39
S'\x9d\x91\xc7\x88\xe5\xa2\xcf?'
p76
tp77
Rp78
sg27
g35
(g39
S'c0\xc0\xe1H+\x94?'
p79
tp80
Rp81
sg29
g35
(g39
S'\xa9\x90\n#\xb6x\xac?'
p82
tp83
Rp84
ssS'paralog'
p85
(lp86
S'YER102W'
p87
aS'YBL072C'
p88
asS'alignment_file'
p89
S'../MafftAlignment/YER102W_YBL072C/YER102W_YBL072C_input.fasta'
p90
sS'x_clock'
p91
NsS'x'
p92
cnumpy.core.multiarray
_reconstruct
p93
(cnumpy
ndarray
p94
(I0
tp95
S'b'
p96
tp97
Rp98
(I1
(I18
tp99
g39
I00
S"\xa7\x17\xabo\xb7&\xe7\xbf\x07\x1e(\xb8\x81\xa3\xe0\xbf=\x92\xc3iL\xf1\xeb\xbf\n{\xdb)\x81\x15\xfc?\xbe\xef4\x98\xd9\r\x00\xc0\xfa\x98\xee\xf9\x8a#\xf3?\xb7\x1e3\xdf\xd2D+\xc0i/\x8dw\x14]\xf6\xbf\x148\xc0\xfdlV\x04\xc0\x1a8\xc6\xe04\xc1\xf6\xbfkKD[[\xba\t\xc0\x83[\xef=M\xdd\x01\xc0\xce\x8e'I'k\x0f\xc0\xfc\x9e]\xbe\x02\x12\xff\xbf\xaa\\\xee\x1b\x8en\x0b\xc0\xda`_=\x88\x1d\x07\xc0\xc7@\x1d\x078\xef\x11\xc0\xb0\x81\xdb\x83\xcb\x8d\n\xc0"
p100
tp101
bsS'Model'
p102
S'MG94'
p103
sS'clock'
p104
I00
s.