(dp0
S'Force'
p1
(dp2
I5
F0.0
ssS'ExpectedGeneconv'
p3
(dp4
(S'N1'
p5
S'N2'
p6
tp7
F0.0
s(S'N5'
p8
S'cerevisiae'
p9
tp10
F0.0
s(g6
S'N3'
p11
tp12
F0.0
s(S'N4'
p13
g8
tp14
F0.0
s(g5
S'castellii'
p15
tp16
F0.0
s(g6
S'bayanus'
p17
tp18
F0.0
s(S'N0'
p19
g5
tp20
F0.0
s(g11
S'kudriavzevii'
p21
tp22
F0.0
s(g8
S'paradoxus'
p23
tp24
F0.0
s(g19
S'kluyveri'
p25
tp26
F0.0
s(g11
g13
tp27
F0.0
s(g13
S'mikatae'
p28
tp29
F0.0
ssS'ExpectedDwellTime'
p30
(dp31
g7
F621.7132251589023
sg10
F896.0601540697912
sg12
F847.629863944449
sg14
F884.8408215095606
sg16
F676.7197272888191
sg18
F856.7953442505142
sg20
F57.733062093336365
sg22
F894.2932143146769
sg24
F914.7696503510329
sg26
F0.0
sg27
F865.1843486169793
sg29
F887.3239218093917
ssS'newicktree'
p32
S'../PairsAlignemt/YeastTree.newick'
p33
sS'll'
p34
cnumpy.core.multiarray
scalar
p35
(cnumpy
dtype
p36
(S'f8'
p37
I0
I1
tp38
Rp39
(I3
S'<'
p40
NNNI-1
I-1
I0
tp41
bS'<\xd6\x16\xc8\x1b5\xca\xc0'
p42
tp43
Rp44
sS'edge_list'
p45
(lp46
g20
ag26
ag7
ag16
ag12
ag18
ag27
ag22
ag14
ag29
ag10
ag24
asS'edge_to_blen'
p47
(dp48
g7
g35
(g39
S'\tc\\\xa9\x99m\xec?'
p49
tp50
Rp51
sg10
g35
(g39
S'\xab_\xb8\xb3#\xd1\xc3?'
p52
tp53
Rp54
sg12
g35
(g39
S'j~\x89\xe2\xdfN\xbb?'
p55
tp56
Rp57
sg14
g35
(g39
S'\x80\xad+v\x12\xde\xb1?'
p58
tp59
Rp60
sg22
g35
(g39
S'\xbf\xd7$u`@\xc9?'
p61
tp62
Rp63
sg18
g35
(g39
S'\xbeie\xbbM\xf0\xc8?'
p64
tp65
Rp66
sg20
g35
(g39
S',\xb9\xa7K1\xf9\xa6?'
p67
tp68
Rp69
sg16
g35
(g39
S'\x1f@ias\xb7\xf1?'
p70
tp71
Rp72
sg24
g35
(g39
S'\x84,\x9c\xdd\x03\x0f\xbe?'
p73
tp74
Rp75
sg26
g35
(g39
S'\xb1H\xcex\xc3\xcb\xe3?'
p76
tp77
Rp78
sg27
g35
(g39
S'\\\xd2\x83^ot\xba?'
p79
tp80
Rp81
sg29
g35
(g39
S'\xc32\x89\xfa\x88A\xce?'
p82
tp83
Rp84
ssS'paralog'
p85
(lp86
S'YBR117C'
p87
aS'YPR074C'
p88
asS'alignment_file'
p89
S'../MafftAlignment/YBR117C_YPR074C/YBR117C_YPR074C_input.fasta'
p90
sS'x_clock'
p91
NsS'x'
p92
cnumpy.core.multiarray
_reconstruct
p93
(cnumpy
ndarray
p94
(I0
tp95
S'b'
p96
tp97
Rp98
(I1
(I18
tp99
g39
I00
S' \xb8\xccn\\O\xe8\xbfm\xaf\xd61\xb0\xa2\xe0\xbf\x0fN\xb4\xb5\xec{\xeb\xbf#T\xc01\x12\xa3\xf0?\xbf\x0f\'Re\x8b\x03\xc0\xfa\x98\xee\xf9\x8a#\xf3?\x02\xff\x1eB\xf7\xd4\x08\xc0\xcb\xa6\xdb\xfa\x8d\xbc\xde\xbf\xa4%\xfd<\xa3L\xbe\xbfu\x02\xef\r\x02\x17\xba?E\xaf\xd9^i\xe7\x01\xc0\xf8\xeb<fu+\xfa\xbf8*M\xdfl(\x02\xc0\xb7\xd4G\xc0g\xf8\xf9\xbf70\xccH-L\x05\xc0\xe9\xe3l\xc7\xce\x13\xf7\xbf\xe7\x83y\xbf\x0e\xd9\xfd\xbfu\xc81\xfd\xde"\x01\xc0'
p100
tp101
bsS'Model'
p102
S'MG94'
p103
sS'clock'
p104
I00
s.