(dp0
S'Force'
p1
NsS'ExpectedGeneconv'
p2
(dp3
(S'N1'
p4
S'N2'
p5
tp6
F68.89173873411832
s(S'N5'
p7
S'cerevisiae'
p8
tp9
F14.609652059588965
s(g5
S'N3'
p10
tp11
F9.81482044485856
s(S'N4'
p12
g7
tp13
F4.285631324751517
s(g4
S'castellii'
p14
tp15
F90.30799456284825
s(g5
S'bayanus'
p16
tp17
F16.098734075699117
s(S'N0'
p18
g4
tp19
F1.4417064747408892
s(g10
S'kudriavzevii'
p20
tp21
F14.379921207018477
s(g7
S'paradoxus'
p22
tp23
F8.042214887734698
s(g18
S'kluyveri'
p24
tp25
F0.0
s(g10
g12
tp26
F8.472815315114914
s(g12
S'mikatae'
p27
tp28
F18.555907143716947
ssS'ExpectedDwellTime'
p29
(dp30
g6
F657.5891264571568
sg9
F897.2331964118508
sg11
F858.5257119476369
sg13
F891.2386425728016
sg15
F696.020557764644
sg17
F861.2632582301248
sg19
F114.99018729456392
sg21
F897.1449314595818
sg23
F916.7438082367642
sg25
F0.0
sg26
F873.7297178730369
sg28
F888.6448377796004
ssS'newicktree'
p31
S'../PairsAlignemt/YeastTree.newick'
p32
sS'll'
p33
cnumpy.core.multiarray
scalar
p34
(cnumpy
dtype
p35
(S'f8'
p36
I0
I1
tp37
Rp38
(I3
S'<'
p39
NNNI-1
I-1
I0
tp40
bS'\xd9.\xdb\x12\xf1+\xca\xc0'
p41
tp42
Rp43
sS'edge_list'
p44
(lp45
g19
ag25
ag6
ag15
ag11
ag17
ag26
ag21
ag13
ag28
ag9
ag23
asS'edge_to_blen'
p46
(dp47
g19
g34
(g38
S'&$\x91\xba\xff\\\xb8?'
p48
tp49
Rp50
sg9
g34
(g38
S'\xde\xdd\x1cK\xf9\x9c\xc2?'
p51
tp52
Rp53
sg11
g34
(g38
S'A/ZQ\xfe\x9f\xbb?'
p54
tp55
Rp56
sg13
g34
(g38
S'\x00S\xfc\xe8\x8c\x9e\xb0?'
p57
tp58
Rp59
sg15
g34
(g38
S'p\x87\xa3\x964\xa0\xf2?'
p60
tp61
Rp62
sg17
g34
(g38
S'\xe3\xe0\xaf\n\xc0\xe1\xc6?'
p63
tp64
Rp65
sg6
g34
(g38
S'JP\xban>1\xee?'
p66
tp67
Rp68
sg21
g34
(g38
S'l\x00\xad\xbdw\xd9\xc7?'
p69
tp70
Rp71
sg23
g34
(g38
S'\xf7\xb4\x1d\t\x8c)\xbc?'
p72
tp73
Rp74
sg25
g34
(g38
S'\x02\xb6\x02\xde3Q\xe2?'
p75
tp76
Rp77
sg26
g34
(g38
S'Z<,\x98\xe5?\xb9?'
p78
tp79
Rp80
sg28
g34
(g38
S'\xc7\x1e\x91W\r\x9e\xcc?'
p81
tp82
Rp83
ssS'paralog'
p84
(lp85
S'YBR117C'
p86
aS'YPR074C'
p87
asS'alignment_file'
p88
S'../MafftAlignment/YBR117C_YPR074C/YBR117C_YPR074C_input.fasta'
p89
sS'x_clock'
p90
NsS'x'
p91
cnumpy.core.multiarray
_reconstruct
p92
(cnumpy
ndarray
p93
(I0
tp94
S'b'
p95
tp96
Rp97
(I1
(I18
tp98
g38
I00
S"t\xde\xc8we4\xe8\xbfl![\xc8\x8e\xb3\xe0\xbf7\n6(\xc7h\xeb\xbf0R{\x07\x02\xac\xf0?'\xc2\xc83\xf0\xd8\x03\xc0\x04:a[!\xb4\xfc\xbfk\x18\xc3\x0e\x1a\xd1\x02\xc0~'\xc3\xb4G\xda\xe1\xbf7{\x08xr\xc5\xad\xbf\xaf\xb0\xe2\x87es\xc3?){\xba\xcc\xc8\xcf\x01\xc0\x00q\x81}\x07\x8c\xfb\xbfB\xb5\xf8\x8c\xeb\x87\x02\xc0 \xdd\xbad`\xe2\xfa\xbf\x9c]\xaby{\xe0\x05\xc0\x87\x99bB\xdf\xf7\xf7\xbfG=\x99\xb5\xbe\xd9\xfe\xbf\xdd\xbb:\x0fU\xa8\x01\xc0"
p99
tp100
bsS'Model'
p101
S'MG94'
p102
sS'clock'
p103
I00
s.