(dp0
S'Force'
p1
NsS'ExpectedGeneconv'
p2
(dp3
(S'N1'
p4
S'N2'
p5
tp6
F10.759197203011267
s(S'N5'
p7
S'cerevisiae'
p8
tp9
F9.964771256149408
s(g5
S'N3'
p10
tp11
F6.4806771552908125e-06
s(S'N4'
p12
g7
tp13
F2.011608954949532
s(g4
S'castellii'
p14
tp15
F27.142495027971307
s(g5
S'bayanus'
p16
tp17
F11.272403542535004
s(S'N0'
p18
g4
tp19
F3.7800240822145627e-20
s(g10
S'kudriavzevii'
p20
tp21
F11.258502373263733
s(g7
S'paradoxus'
p22
tp23
F3.2881741136258813
s(g18
S'kluyveri'
p24
tp25
F0.0
s(g10
g12
tp26
F1.2038160217642382e-06
s(g12
S'mikatae'
p27
tp28
F13.681035064222208
ssS'ExpectedDwellTime'
p29
(dp30
g6
F15.484997619542199
sg9
F22.794359351456443
sg11
F22.874843703239588
sg13
F21.96775567394587
sg15
F25.75656449840119
sg17
F21.066722673849142
sg19
F5.86837913410808e-11
sg21
F36.70064687578357
sg23
F18.299238503358556
sg25
F0.0
sg26
F22.87484582265717
sg28
F23.630768206039306
ssS'newicktree'
p31
S'../PairsAlignemt/YeastTree.newick'
p32
sS'll'
p33
cnumpy.core.multiarray
scalar
p34
(cnumpy
dtype
p35
(S'f8'
p36
I0
I1
tp37
Rp38
(I3
S'<'
p39
NNNI-1
I-1
I0
tp40
bS'\xec}cv\xda\x8f\x93\xc0'
p41
tp42
Rp43
sS'edge_list'
p44
(lp45
g19
ag25
ag6
ag15
ag11
ag17
ag26
ag21
ag13
ag28
ag9
ag23
asS'edge_to_blen'
p46
(dp47
g19
g34
(g38
S'>%\xcc0\xc5[\xc5='
p48
tp49
Rp50
sg9
g34
(g38
S'w\x1d|1\x82x\xab?'
p51
tp52
Rp53
sg11
g34
(g38
S'\x14\xaaN\x06jZl>'
p54
tp55
Rp56
sg13
g34
(g38
S')\xa3|X\x8f\xb1\x7f?'
p57
tp58
Rp59
sg15
g34
(g38
S'\xaa\xd0\xb6wr\x9e\xc9?'
p60
tp61
Rp62
sg17
g34
(g38
S'i\x894\x00J\x89\xa8?'
p63
tp64
Rp65
sg6
g34
(g38
S'_\x10\x9c\x9bN\xba\xb8?'
p66
tp67
Rp68
sg21
g34
(g38
S'\xda\xc5]\x98\x03\xf8\xb2?'
p69
tp70
Rp71
sg23
g34
(g38
S']\x93\n\xab8\xaa\x88?'
p72
tp73
Rp74
sg25
g34
(g38
S'\x83\n\x92t\xc2\x1d\xcb?'
p75
tp76
Rp77
sg26
g34
(g38
S'\xd2\xd7\x90\x1d\xb2\xd4C>'
p78
tp79
Rp80
sg28
g34
(g38
S'\x04;\x90\xa1\xdeB\xae?'
p81
tp82
Rp83
ssS'paralog'
p84
(lp85
S'YER074W'
p86
aS'YIL069C'
p87
asS'alignment_file'
p88
S'../MafftAlignment/YER074W_YIL069C/YER074W_YIL069C_input.fasta'
p89
sS'x_clock'
p90
NsS'x'
p91
cnumpy.core.multiarray
_reconstruct
p92
(cnumpy
ndarray
p93
(I0
tp94
S'b'
p95
tp96
Rp97
(I1
(I18
tp98
g38
I00
S'\xad\xe8\xd676\xd3\xe5\xbf<\x9a\xc9:\xa9/\xe0\xbfb\xcas\xf51\x0c\xeb\xbf\x7f\xce)S\x06\xa4\x01@I\xf2\xb9\xeb\xab\x07\x00\xc0\xcc\xac\xf4\x9d\x10\x16\x00@T6\xf8\x8b\xa6\xf87\xc0\x89ij\x19\x92\xd4\xf8\xbf\xc5Z\x00\x95\xb0\xb2\x02\xc0\x10\xd6}\xb6:\xbd\xf9\xbf.\xc0\xfb\xe2\xab\xc10\xc0l-\xd9\xe4,N\x08\xc0\xe2\x0ec>\x15\x802\xc0M\x8b[z\xad\xd1\x04\xc06\xf7>\xccTr\x13\xc0\xa2K\x0f\x8f\xae\xa0\x06\xc0\xd9\xc7R\xfe\xd0f\x07\xc0\xe50\xecbL\xad\x11\xc0'
p99
tp100
bsS'Model'
p101
S'MG94'
p102
sS'clock'
p103
I00
s.