(dp0
S'Force'
p1
NsS'ExpectedGeneconv'
p2
(dp3
(S'N1'
p4
S'N2'
p5
tp6
F10.088024969136802
s(S'N5'
p7
S'cerevisiae'
p8
tp9
F4.118949144824545
s(g5
S'N3'
p10
tp11
F1.799173773511851
s(S'N4'
p12
g7
tp13
F2.123841967217076
s(g4
S'castellii'
p14
tp15
F19.131464297656787
s(g5
S'bayanus'
p16
tp17
F3.4831869928294523
s(S'N0'
p18
g4
tp19
F3.084255694340984
s(g10
S'kudriavzevii'
p20
tp21
F4.231026672884556
s(g7
S'paradoxus'
p22
tp23
F2.1318862668480243
s(g18
S'kluyveri'
p24
tp25
F0.0
s(g10
g12
tp26
F1.5102154102828347
s(g12
S'mikatae'
p27
tp28
F4.986967873394664
ssS'ExpectedDwellTime'
p29
(dp30
g6
F372.23012299705596
sg9
F448.17982512335925
sg11
F437.87571094701667
sg13
F443.3868165945416
sg15
F405.1403386886903
sg17
F447.5380645104751
sg19
F164.41416500491042
sg21
F450.624937736166
sg23
F452.6547150997009
sg25
F0.0
sg26
F441.2633094772947
sg28
F450.6947770368244
ssS'newicktree'
p31
S'../PairsAlignemt/YeastTree.newick'
p32
sS'll'
p33
cnumpy.core.multiarray
scalar
p34
(cnumpy
dtype
p35
(S'f8'
p36
I0
I1
tp37
Rp38
(I3
S'<'
p39
NNNI-1
I-1
I0
tp40
bS'\x85\x1b!l\xbe{\xba\xc0'
p41
tp42
Rp43
sS'edge_list'
p44
(lp45
g19
ag25
ag6
ag15
ag11
ag17
ag26
ag21
ag13
ag28
ag9
ag23
asS'edge_to_blen'
p46
(dp47
g19
g34
(g38
S'l\x8d\xe2\x96w\xfe\xd5?'
p48
tp49
Rp50
sg9
g34
(g38
S'N\xbb\xc5aa\x87\xc4?'
p51
tp52
Rp53
sg11
g34
(g38
S'/\xb8.t2\xa0\xb9?'
p54
tp55
Rp56
sg13
g34
(g38
S'\xf0\xf92\xab`$\xb7?'
p57
tp58
Rp59
sg15
g34
(g38
S'\xabdf\x947\x9e\xee?'
p60
tp61
Rp62
sg17
g34
(g38
S'\xf5[42\xc8p\xc8?'
p63
tp64
Rp65
sg6
g34
(g38
S'<^|Y\xa2\x1e\xe2?'
p66
tp67
Rp68
sg21
g34
(g38
S'\xb8fU\xdf\xc9\xb6\xcd?'
p69
tp70
Rp71
sg23
g34
(g38
S'\ry\x8essp\xbe?'
p72
tp73
Rp74
sg25
g34
(g38
S'\x14S\xe9\xa7D\xbf\xde?'
p75
tp76
Rp77
sg26
g34
(g38
S'\xc4\x89l:f\x9d\xb3?'
p78
tp79
Rp80
sg28
g34
(g38
S't\x9dP\xea\xf4\x98\xcf?'
p81
tp82
Rp83
ssS'paralog'
p84
(lp85
S'YGR043C'
p86
aS'YLR354C'
p87
asS'alignment_file'
p88
S'../MafftAlignment/YGR043C_YLR354C/YGR043C_YLR354C_input.fasta'
p89
sS'x_clock'
p90
NsS'x'
p91
cnumpy.core.multiarray
_reconstruct
p92
(cnumpy
ndarray
p93
(I0
tp94
S'b'
p95
tp96
Rp97
(I1
(I18
tp98
g38
I00
S'>\xf2\xc5 \x14X\xe7\xbfIs\x9e\xd7\xcb\x99\xe0\xbf\x16Wf\xca\xdd \xeb\xbf?\x9aL\xe0`\'\xf1?\xcb\xffGE\x0c\xa0\x01\xc0\xff\xd7\xcf\xc0\xf1\x87\x04\xc0M%\x1d|\xfd\x16\xf1\xbf\x00\x8f>\xe4pu\xe7\xbf\xbda]@\x1a3\xe2\xbf\xaa\xfb4kd\x9a\xa6\xbf"\xac[;\xa2i\x02\xc0\x06\xaf\xc1\xe9\x19~\xfa\xbf\xb4\x1b\xb6\xb4\x16\x8d\x04\xc0\xffzVJ\xd8]\xf7\xbfX\x0c\xd3\xc6j:\x03\xc0O\xf5o1\x1cb\xf6\xbf\xb2lE\xd6\x7fH\xfd\xbf\xf2\xf6\x18\x06\x1a\t\x01\xc0'
p99
tp100
bsS'Model'
p101
S'MG94'
p102
sS'clock'
p103
I00
s.