(dp0
S'Force'
p1
NsS'ExpectedGeneconv'
p2
(dp3
(S'N1'
p4
S'N2'
p5
tp6
F16.44186283668005
s(S'N5'
p7
S'cerevisiae'
p8
tp9
F1.1323042910702734
s(g5
S'N3'
p10
tp11
F1.2703503445520967
s(S'N4'
p12
g7
tp13
F0.8715589074659605
s(g4
S'castellii'
p14
tp15
F19.770826193143403
s(g5
S'bayanus'
p16
tp17
F1.213186770123623
s(S'N0'
p18
g4
tp19
F0.21191184193376428
s(g10
S'kudriavzevii'
p20
tp21
F2.333740326925867
s(g7
S'paradoxus'
p22
tp23
F0.9557055407713271
s(g18
S'kluyveri'
p24
tp25
F0.0
s(g10
g12
tp26
F1.0626335360772445
s(g12
S'mikatae'
p27
tp28
F2.298779925893086
ssS'ExpectedDwellTime'
p29
(dp30
g6
F364.14742632656134
sg9
F441.8898221465469
sg11
F435.3846800651644
sg13
F435.7749200668346
sg15
F378.04862872095964
sg17
F440.4830400819104
sg19
F60.67728374952831
sg21
F434.95580723076125
sg23
F433.5007936298424
sg25
F0.0
sg26
F435.36412117528647
sg28
F438.54054537750204
ssS'newicktree'
p31
S'../PairsAlignemt/YeastTree.newick'
p32
sS'll'
p33
cnumpy.core.multiarray
scalar
p34
(cnumpy
dtype
p35
(S'f8'
p36
I0
I1
tp37
Rp38
(I3
S'<'
p39
NNNI-1
I-1
I0
tp40
bS'\xc6yZeh\xa4\xbc\xc0'
p41
tp42
Rp43
sS'edge_list'
p44
(lp45
g19
ag25
ag6
ag15
ag11
ag17
ag26
ag21
ag13
ag28
ag9
ag23
asS'edge_to_blen'
p46
(dp47
g19
g34
(g38
S'\x1a\x89\xc0\xd2K\xed\xc0?'
p48
tp49
Rp50
sg9
g34
(g38
S'&\x9e\xcc\xbb\x84\x81\xd1?'
p51
tp52
Rp53
sg11
g34
(g38
S'\xc7D\xb4l2\n\xcb?'
p54
tp55
Rp56
sg13
g34
(g38
S'\xc2\xf2\x83e\xdc\xdd\xc2?'
p57
tp58
Rp59
sg15
g34
(g38
S'\xe1\xcf6\x1f:\xd4\x08@'
p60
tp61
Rp62
sg17
g34
(g38
S'\xfd\x8f\x05\x92v\x85\xd1?'
p63
tp64
Rp65
sg6
g34
(g38
S'\xacc]\xa1\x9e\x04\x04@'
p66
tp67
Rp68
sg21
g34
(g38
S'<z\xe0\xa6\xb1\x1d\xd5?'
p69
tp70
Rp71
sg23
g34
(g38
S'g/\xb6q\xe1\xaf\xc6?'
p72
tp73
Rp74
sg25
g34
(g38
S'15\xf2g\xbc\xaf\t@'
p75
tp76
Rp77
sg26
g34
(g38
S'F0\xba\xe9\x92\x81\xc8?'
p78
tp79
Rp80
sg28
g34
(g38
S'\xd9\x8c\\\x10y\xd7\xda?'
p81
tp82
Rp83
ssS'paralog'
p84
(lp85
S'YLR284C'
p86
aS'YOR180C'
p87
asS'alignment_file'
p88
S'../MafftAlignment/YLR284C_YOR180C/YLR284C_YOR180C_input.fasta'
p89
sS'x_clock'
p90
NsS'x'
p91
cnumpy.core.multiarray
_reconstruct
p92
(cnumpy
ndarray
p93
(I0
tp94
S'b'
p95
tp96
Rp97
(I1
(I18
tp98
g38
I00
S'%yw\xb6\xa1\xf8\xe3\xbf\xaf0Q\x9d\x13\xfa\xe2\xbfx\xdb^\x8e\x9e0\xee\xbfl,\xb8%f\\\xec?\xbd|m]f\xfe\x02\xc0\xab~\xcc\xe5\xd64\x0b\xc0\xc8n\xcf\x99[/\x00\xc0;".\xcf\x13\xaa\xf2?\x0c&\xdcK\xa4Y\xed?\xdf-\xf7\n\x03\x1f\xf2?=\xae!E!\xe0\xf8\xbf\x04\xb4U\xec7\xba\xf4\xbf\xa9\xdc}\x87\x1fs\xfa\xbfk~\xb2\x07\xdc\xbd\xf1\xbf\xadE\xe6\rX\xa2\xfe\xbfB5\xd6\x82?\xce\xeb\xbf\xd7\xce\xd6{\xd2\xbd\xf4\xbf\xd2bP\xae\x0c\xaf\xfb\xbf'
p99
tp100
bsS'Model'
p101
S'MG94'
p102
sS'clock'
p103
I00
s.