(dp0
S'Force'
p1
NsS'ExpectedGeneconv'
p2
(dp3
(S'N1'
p4
S'N2'
p5
tp6
F15.772655402191004
s(S'N5'
p7
S'cerevisiae'
p8
tp9
F10.005981564574874
s(g5
S'N3'
p10
tp11
F5.318932871015895
s(S'N4'
p12
g7
tp13
F0.7418619984320779
s(g4
S'castellii'
p14
tp15
F14.78170258716857
s(g5
S'bayanus'
p16
tp17
F8.405305314142872
s(S'N0'
p18
g4
tp19
F0.1806120866383303
s(g10
S'kudriavzevii'
p20
tp21
F6.497212838020433
s(g7
S'paradoxus'
p22
tp23
F3.079883502882345
s(g18
S'kluyveri'
p24
tp25
F0.0
s(g10
g12
tp26
F3.049767597613707
s(g12
S'mikatae'
p27
tp28
F5.954103442281322
ssS'ExpectedDwellTime'
p29
(dp30
g6
F30.263254941883844
sg9
F53.30469201498934
sg11
F45.37545717650844
sg13
F57.38792521144246
sg15
F30.80135375108212
sg17
F35.7792185632077
sg19
F4.4413219883735975
sg21
F54.842530448935165
sg23
F59.531754807823354
sg25
F0.0
sg26
F54.31615144923148
sg28
F67.70452648948556
ssS'newicktree'
p31
S'../PairsAlignemt/YeastTree.newick'
p32
sS'll'
p33
cnumpy.core.multiarray
scalar
p34
(cnumpy
dtype
p35
(S'f8'
p36
I0
I1
tp37
Rp38
(I3
S'<'
p39
NNNI-1
I-1
I0
tp40
bS'\x00C\xbd\x98\xb7^\x95\xc0'
p41
tp42
Rp43
sS'edge_list'
p44
(lp45
g19
ag25
ag6
ag15
ag11
ag17
ag26
ag21
ag13
ag28
ag9
ag23
asS'edge_to_blen'
p46
(dp47
g19
g34
(g38
S'z Ff\x9a\xa7\x91?'
p48
tp49
Rp50
sg9
g34
(g38
S'KW\xe2\x01D\xdb\xaa?'
p51
tp52
Rp53
sg11
g34
(g38
S'J\xa5z\xf9[0\xaa?'
p54
tp55
Rp56
sg13
g34
(g38
S'\xa4\xa1;\xd7\xccbq?'
p57
tp58
Rp59
sg15
g34
(g38
S'\xe3\x93\x8c\xb6\xcf\xc0\xc4?'
p60
tp61
Rp62
sg17
g34
(g38
S'\xd1\x03\x05>\xf7\x02\xa9?'
p63
tp64
Rp65
sg6
g34
(g38
S'jC\xdak\xdd\x81\xc5?'
p66
tp67
Rp68
sg21
g34
(g38
S'S\xb9\xdf\x07\xb7\x1f\xab?'
p69
tp70
Rp71
sg23
g34
(g38
S'/\xd6"\x83)\xb5\x99?'
p72
tp73
Rp74
sg25
g34
(g38
S'\xe4\x10\xdd\x8d\xa5\xa5\xcb?'
p75
tp76
Rp77
sg26
g34
(g38
S'\x1e\xc1\r/l=\x9d?'
p78
tp79
Rp80
sg28
g34
(g38
S'\xd1\xc8d\xf0\x15\x96\xae?'
p81
tp82
Rp83
ssS'paralog'
p84
(lp85
S'YBL087C'
p86
aS'YER117W'
p87
asS'alignment_file'
p88
S'../MafftAlignment/YBL087C_YER117W/YBL087C_YER117W_input.fasta'
p89
sS'x_clock'
p90
NsS'x'
p91
cnumpy.core.multiarray
_reconstruct
p92
(cnumpy
ndarray
p93
(I0
tp94
S'b'
p95
tp96
Rp97
(I1
(I18
tp98
g38
I00
S"\x07J\xce\x17^\xe6\xe6\xbf1\xf8\x88\xad/A\xe3\xbfS\xc1+\r\n\x95\xef\xbf\x11W_\x0f\xd1\x10\x01@^\x8e\x80L$\x0e\x07\xc0\xcaf!$n\x88\xf0?o\x8b\xa0\xca\xeb=\x10\xc0\xdf\xd8\x977*\x85\xf8\xbf\x8d\xd0\xd7\x94\xc8\x89\xfc\xbf\xa3$\xec\x1e\xfb\x1b\xfd\xbf\xc83&_\xae\xc8\x07\xc0\x13D\r\xdf\xe1&\x08\xc0\x8d\xa5m\xd5\x8er\x0c\xc0e\xd7\xb9\xe2\xd6\x80\x07\xc0\x0cD\x18\xe81\xd9\x15\xc0\x89D\x1f\xbf\xcc\x8a\x06\xc0\x19\xc3'\xd2 \x95\x07\xc0\x84C\xe3\xe1:z\r\xc0"
p99
tp100
bsS'Model'
p101
S'MG94'
p102
sS'clock'
p103
I00
s.