(dp0
S'Force'
p1
NsS'ExpectedGeneconv'
p2
(dp3
(S'N1'
p4
S'N2'
p5
tp6
F85.12691715288663
s(S'N5'
p7
S'cerevisiae'
p8
tp9
F4.937341763257199
s(g5
S'N3'
p10
tp11
F4.876177612081342
s(S'N4'
p12
g7
tp13
F1.8837570914918924
s(g4
S'castellii'
p14
tp15
F137.0907028514778
s(g5
S'bayanus'
p16
tp17
F8.36480391195077
s(S'N0'
p18
g4
tp19
F10.357802412529573
s(g10
S'kudriavzevii'
p20
tp21
F7.066217511358111
s(g7
S'paradoxus'
p22
tp23
F3.967480318374344
s(g18
S'kluyveri'
p24
tp25
F0.0
s(g10
g12
tp26
F3.2722203124834857
s(g12
S'mikatae'
p27
tp28
F8.578393790050532
ssS'ExpectedDwellTime'
p29
(dp30
g6
F177.97571809762246
sg9
F226.5377510498066
sg11
F200.47402389640834
sg13
F218.10924942445803
sg15
F184.60193023944686
sg17
F200.84334430030336
sg19
F83.1924613817229
sg21
F203.38352568490924
sg23
F220.7894503262683
sg25
F0.0
sg26
F207.30731221040332
sg28
F211.6684119500967
ssS'newicktree'
p31
S'../PairsAlignemt/YeastTree.newick'
p32
sS'll'
p33
cnumpy.core.multiarray
scalar
p34
(cnumpy
dtype
p35
(S'f8'
p36
I0
I1
tp37
Rp38
(I3
S'<'
p39
NNNI-1
I-1
I0
tp40
bS'\x93h\x8b\xb5\x1d\xd7\xa9\xc0'
p41
tp42
Rp43
sS'edge_list'
p44
(lp45
g19
ag25
ag6
ag15
ag11
ag17
ag26
ag21
ag13
ag28
ag9
ag23
asS'edge_to_blen'
p46
(dp47
g19
g34
(g38
S'01\x18\x98\xe0\xea\xdf?'
p48
tp49
Rp50
sg9
g34
(g38
S'6\x13\xa9L\x88\x0f\xcc?'
p51
tp52
Rp53
sg11
g34
(g38
S'\xbcD:\x95\xab|\xc4?'
p54
tp55
Rp56
sg13
g34
(g38
S'\xb2j\x97\x04\x99"\xb8?'
p57
tp58
Rp59
sg15
g34
(g38
S'\x90\x93J\x86\xa5O\x10@'
p60
tp61
Rp62
sg17
g34
(g38
S';\xbf\x84\x00+\x9d\xd2?'
p63
tp64
Rp65
sg6
g34
(g38
S'\xb8\xc8\xe5*\xa4Y\x04@'
p66
tp67
Rp68
sg21
g34
(g38
S'\x08\x19\x1e/\xcd\x1d\xd0?'
p69
tp70
Rp71
sg23
g34
(g38
S'\xa8\x81\xf3o\x03\x87\xb8?'
p72
tp73
Rp74
sg25
g34
(g38
S'\xb0@\xebbz;\x14@'
p75
tp76
Rp77
sg26
g34
(g38
S'\x82@\xef\x85\xdbj\xc1?'
p78
tp79
Rp80
sg28
g34
(g38
S'{o\x9d\x01\xe2<\xd1?'
p81
tp82
Rp83
ssS'paralog'
p84
(lp85
S'YIL057C'
p86
aS'YER067W'
p87
asS'alignment_file'
p88
S'../MafftAlignment/YIL057C_YER067W/YIL057C_YER067W_input.fasta'
p89
sS'x_clock'
p90
NsS'x'
p91
cnumpy.core.multiarray
_reconstruct
p92
(cnumpy
ndarray
p93
(I0
tp94
S'b'
p95
tp96
Rp97
(I1
(I18
tp98
g38
I00
S'\x1d\x00\x85C\x84;\xe5\xbf\x8a\xd8\xd9b`&\xe3\xbf\xd5\x15BZ\xf1\x17\xea\xbfEt\xca\\1e\xe9?\xdc\x97\x12#x\x08\x0b\xc0\x1f\xe0\xfe\x1f\xbe\xb0\xf3\xbf\x8f\x82\xa0biC\xe6\xbf\x06n4\xde\x90\xef\xf9?\xe4E-Jp\xe0\xed?N\xc8\x11\xd1$}\xf6?\xf3\xaa\xf0\xf3\xdaP\xfd\xbf\xafm\x7f{r\xc2\xf3\xbf\xc6\xfb[\x99\xb7\xe9\xff\xbf\x1e\x81\x9en\x91\x10\xf6\xbf\xcf\xd5\x91r^\xe4\x02\xc06\xe9\x86\xf3\t\xfd\xf4\xbf\x8b~\xc0\x18WH\xf8\xbf\x10Qs\x1fZ\xc3\x02\xc0'
p99
tp100
bsS'Model'
p101
S'MG94'
p102
sS'clock'
p103
I00
s.