(dp0
S'Force'
p1
NsS'ExpectedGeneconv'
p2
(dp3
(S'N1'
p4
S'N2'
p5
tp6
F25.707901472026812
s(S'N5'
p7
S'cerevisiae'
p8
tp9
F8.410597485615048
s(g5
S'N3'
p10
tp11
F6.980512095474546
s(S'N4'
p12
g7
tp13
F4.574993301575677
s(g4
S'castellii'
p14
tp15
F24.644778844471062
s(g5
S'bayanus'
p16
tp17
F11.435301524191802
s(S'N0'
p18
g4
tp19
F0.9115071211264398
s(g10
S'kudriavzevii'
p20
tp21
F9.205662478478565
s(g7
S'paradoxus'
p22
tp23
F5.2803043196321955
s(g18
S'kluyveri'
p24
tp25
F0.0
s(g10
g12
tp26
F6.724828679161762
s(g12
S'mikatae'
p27
tp28
F11.10023325126968
ssS'ExpectedDwellTime'
p29
(dp30
g6
F261.94841207172493
sg9
F377.82738034550425
sg11
F351.83647999912205
sg13
F375.5098189647927
sg15
F251.71086755373517
sg17
F364.0435884916672
sg19
F58.101515325223644
sg21
F379.2974509291282
sg23
F390.230327600849
sg25
F0.0
sg26
F362.44592441317275
sg28
F383.29683125802177
ssS'newicktree'
p31
S'../PairsAlignemt/YeastTree.newick'
p32
sS'll'
p33
cnumpy.core.multiarray
scalar
p34
(cnumpy
dtype
p35
(S'f8'
p36
I0
I1
tp37
Rp38
(I3
S'<'
p39
NNNI-1
I-1
I0
tp40
bS'\x06\xf5;\xcdL\xa2\xb6\xc0'
p41
tp42
Rp43
sS'edge_list'
p44
(lp45
g19
ag25
ag6
ag15
ag11
ag17
ag26
ag21
ag13
ag28
ag9
ag23
asS'edge_to_blen'
p46
(dp47
g19
g34
(g38
S'\xb1\xa4v\xe8\x05\xfe\xb9?'
p48
tp49
Rp50
sg9
g34
(g38
S'=\xfc3\xbe\xf5\x9c\xc0?'
p51
tp52
Rp53
sg11
g34
(g38
S'\xe5\x94@\x1b\x7f\x19\xc1?'
p54
tp55
Rp56
sg13
g34
(g38
S'>\x0em\x11)\xb0\xbb?'
p57
tp58
Rp59
sg15
g34
(g38
S'\xdb\xecV\xeb\x9e\xc7\xe1?'
p60
tp61
Rp62
sg17
g34
(g38
S'Q\xc0\xde;\xafz\xcf?'
p63
tp64
Rp65
sg6
g34
(g38
S'\x1cs~\x9c\xfbl\xe3?'
p66
tp67
Rp68
sg21
g34
(g38
S'\x12\x1c"{5#\xcd?'
p69
tp70
Rp71
sg23
g34
(g38
S'\xe2\xc9\xf8u\x1f\xfc\xbc?'
p72
tp73
Rp74
sg25
g34
(g38
S'[\x1a}d\x89\xb3\xe1?'
p75
tp76
Rp77
sg26
g34
(g38
S'\x98om\xd7\x15\x9b\xc1?'
p78
tp79
Rp80
sg28
g34
(g38
S'p\x06\xee\x0bX{\xcd?'
p81
tp82
Rp83
ssS'paralog'
p84
(lp85
S'YHR106W'
p86
aS'YDR353W'
p87
asS'alignment_file'
p88
S'../MafftAlignment/YHR106W_YDR353W/YHR106W_YDR353W_input.fasta'
p89
sS'x_clock'
p90
NsS'x'
p91
cnumpy.core.multiarray
_reconstruct
p92
(cnumpy
ndarray
p93
(I0
tp94
S'b'
p95
tp96
Rp97
(I1
(I18
tp98
g38
I00
S'oOu\xc6s\x03\xe6\xbf\xb5\x08\xaf\xbdV\xb9\xe1\xbf\x8d\x8d-\xcd\xda\xda\xeb\xbfm\xcd\xbc\x13U\xe0\xf4?1\x90\x0bGag\x06\xc0\xb9\xd5\xb4\xb8\x8aC\xfb\xbf\xc8<i\xd1\x8cL\x02\xc0\xe6j\x94Su\xf2\xe2\xbfQS\xcb\x7f\xe1\xf1\xdf\xbf\xef\tg#;\xce\xe2\xbf\xedTJ\xde\x92\x1a\x00\xc0\xfd\x13\x80\xc1wq\xf6\xbf\xc5\xcc\xe6\xe8\xa6\xbd\xff\xbf\x02\x93\xa5\xb1\x17\xae\xf7\xbf\xa0MH\x9d\x1b\xcb\x01\xc0$=\x89\xc3\xfa}\xf7\xbf\x1fy|\xc2\xaeU\x00\xc0\xed\xa6B\x12_m\x01\xc0'
p99
tp100
bsS'Model'
p101
S'MG94'
p102
sS'clock'
p103
I00
s.