(dp0
S'Force'
p1
NsS'ExpectedGeneconv'
p2
(dp3
(S'N1'
p4
S'N2'
p5
tp6
F27.98988710224499
s(S'N5'
p7
S'cerevisiae'
p8
tp9
F3.3972259814484977
s(g5
S'N3'
p10
tp11
F2.019502077188994
s(S'N4'
p12
g7
tp13
F1.7722158663816066
s(g4
S'castellii'
p14
tp15
F46.83097063852699
s(g5
S'bayanus'
p16
tp17
F5.905283287665063
s(S'N0'
p18
g4
tp19
F3.4124840697328466e-06
s(g10
S'kudriavzevii'
p20
tp21
F5.112761027346736
s(g7
S'paradoxus'
p22
tp23
F2.5033356632840484
s(g18
S'kluyveri'
p24
tp25
F0.0
s(g10
g12
tp26
F2.191546950293778
s(g12
S'mikatae'
p27
tp28
F4.622487143978906
ssS'ExpectedDwellTime'
p29
(dp30
g6
F435.3748426675421
sg9
F575.401194592017
sg11
F575.1385125546856
sg13
F576.94784913324
sg15
F498.43860165823753
sg17
F571.9053456604194
sg19
F0.23588774403178395
sg21
F580.627961597252
sg23
F588.3544822257968
sg25
F0.0
sg26
F576.6158394000878
sg28
F570.2259806648086
ssS'newicktree'
p31
S'../PairsAlignemt/YeastTree.newick'
p32
sS'll'
p33
cnumpy.core.multiarray
scalar
p34
(cnumpy
dtype
p35
(S'f8'
p36
I0
I1
tp37
Rp38
(I3
S'<'
p39
NNNI-1
I-1
I0
tp40
bS'\x11\xc2\xa1\x86\\v\xc2\xc0'
p41
tp42
Rp43
sS'edge_list'
p44
(lp45
g19
ag25
ag6
ag15
ag11
ag17
ag26
ag21
ag13
ag28
ag9
ag23
asS'edge_to_blen'
p46
(dp47
g19
g34
(g38
S'\xdd\\\xb9Hq14?'
p48
tp49
Rp50
sg9
g34
(g38
S'.\x87O\xa4\xc5\x85\xca?'
p51
tp52
Rp53
sg11
g34
(g38
S'\xf8|\xe1\xffV\x02\xc3?'
p54
tp55
Rp56
sg13
g34
(g38
S'\xd3=\x04SK\xfc\xbb?'
p57
tp58
Rp59
sg15
g34
(g38
S'\x9a\x92EO\xd3\xd7\x07@'
p60
tp61
Rp62
sg17
g34
(g38
S'\x1a~;\x7fX\x96\xd3?'
p63
tp64
Rp65
sg6
g34
(g38
S'b\xf8\x13\x8f\xe1p\xfc?'
p66
tp67
Rp68
sg21
g34
(g38
S'\x96O\xd8\xe1\x8d\xb6\xd3?'
p69
tp70
Rp71
sg23
g34
(g38
S't\xa2F\x19\x125\xc3?'
p72
tp73
Rp74
sg25
g34
(g38
S',XO\xf7i\xba\x03@'
p75
tp76
Rp77
sg26
g34
(g38
S'Ag,\xe5\xb0\x9e\xbd?'
p78
tp79
Rp80
sg28
g34
(g38
S'\xe2\xf7h<I\xdd\xd3?'
p81
tp82
Rp83
ssS'paralog'
p84
(lp85
S'YPR157W'
p86
aS'YGR141W'
p87
asS'alignment_file'
p88
S'../MafftAlignment/YPR157W_YGR141W/YPR157W_YGR141W_input.fasta'
p89
sS'x_clock'
p90
NsS'x'
p91
cnumpy.core.multiarray
_reconstruct
p92
(cnumpy
ndarray
p93
(I0
tp94
S'b'
p95
tp96
Rp97
(I1
(I18
tp98
g38
I00
S"x\x0c\x04~\xfd\x08\xe5\xbfY-\xe9\x9e!%\xe1\xbf\x19[\xbb\xf9\xbc\xf0\xee\xbfi\xbd>\xb7n8\xee?\xf8\xfb\x06\xf0I9\x05\xc0\x18o\x8b\xc2\xce(\x07\xc0i})\xb8\x86+ \xc0A\xe8T\x06'\xe2\xec?\x9f0\x19\xce_h\xe2?b\x7f\x10\x81\x0by\xf1?@\xb0\xbe#\x86\x83\xfe\xbf\x8e\x87\xfcf\xac\xf1\xf2\xbf\x080\x8al\xfc@\x01\xc0\xdb\xc5x\xa5r\xd7\xf2\xbf\xed\xb9)F:\xb5\x01\xc0r\xe47\xa5!\xb8\xf2\xbf\x84N\x81c?/\xf9\xbf-d\x9az\x0bY\xfe\xbf"
p99
tp100
bsS'Model'
p101
S'MG94'
p102
sS'clock'
p103
I00
s.