(dp0
S'Force'
p1
NsS'ExpectedGeneconv'
p2
(dp3
(S'N1'
p4
S'N2'
p5
tp6
F17.93017368295033
s(S'N5'
p7
S'cerevisiae'
p8
tp9
F6.859161659940247
s(g5
S'N3'
p10
tp11
F0.565726935106925
s(S'N4'
p12
g7
tp13
F9.322811497871276
s(g4
S'castellii'
p14
tp15
F40.538898257180406
s(g5
S'bayanus'
p16
tp17
F16.55694365930038
s(S'N0'
p18
g4
tp19
F5.50056315468238
s(g10
S'kudriavzevii'
p20
tp21
F25.63343449969238
s(g7
S'paradoxus'
p22
tp23
F4.3864909594943535
s(g18
S'kluyveri'
p24
tp25
F0.0
s(g10
g12
tp26
F5.7529894376548
s(g12
S'mikatae'
p27
tp28
F15.429249631471066
ssS'ExpectedDwellTime'
p29
(dp30
g6
F50.9776910950214
sg9
F68.83110526654198
sg11
F61.47877048943669
sg13
F60.65745683951258
sg15
F49.07925321471054
sg17
F53.76326932448636
sg19
F21.168957138633363
sg21
F58.738599489525406
sg23
F57.190392018474746
sg25
F0.0
sg26
F62.37194304562946
sg28
F72.59762604795925
ssS'newicktree'
p31
S'../PairsAlignemt/YeastTree.newick'
p32
sS'll'
p33
cnumpy.core.multiarray
scalar
p34
(cnumpy
dtype
p35
(S'f8'
p36
I0
I1
tp37
Rp38
(I3
S'<'
p39
NNNI-1
I-1
I0
tp40
bS'\x08\xff|\xfc\x19\x0c\xa0\xc0'
p41
tp42
Rp43
sS'edge_list'
p44
(lp45
g19
ag25
ag6
ag15
ag11
ag17
ag26
ag21
ag13
ag28
ag9
ag23
asS'edge_to_blen'
p46
(dp47
g19
g34
(g38
S'\x08U9\x96)m\xb1?'
p48
tp49
Rp50
sg9
g34
(g38
S'\xbf\x18\x1b\xb1O\xf7\xa1?'
p51
tp52
Rp53
sg11
g34
(g38
S'>M\x1f\xe7\x81\x83]?'
p54
tp55
Rp56
sg13
g34
(g38
S'\x1c\xe5%c\x198\x9b?'
p57
tp58
Rp59
sg15
g34
(g38
S'\xc8\x93^\x96\xf5\x98\xc6?'
p60
tp61
Rp62
sg17
g34
(g38
S'\x91\xed\x02\xe4m\x01\xa7?'
p63
tp64
Rp65
sg6
g34
(g38
S'H\x87_\xafLx\xb6?'
p66
tp67
Rp68
sg21
g34
(g38
S'%\x86\x9b:\x9f\xf3\xb3?'
p69
tp70
Rp71
sg23
g34
(g38
S'\xde\xb8;\x92iX\x8d?'
p72
tp73
Rp74
sg25
g34
(g38
S'Y\xa2\xc47\xa2\xb3\xc2?'
p75
tp76
Rp77
sg26
g34
(g38
S'\x87\x84\x8b\xbbk\x90\x93?'
p78
tp79
Rp80
sg28
g34
(g38
S'q\xe5c(\xf0\xcb\xad?'
p81
tp82
Rp83
ssS'paralog'
p84
(lp85
S'YMR142C'
p86
aS'YDL082W'
p87
asS'alignment_file'
p88
S'../MafftAlignment/YMR142C_YDL082W/YMR142C_YDL082W_input.fasta'
p89
sS'x_clock'
p90
NsS'x'
p91
cnumpy.core.multiarray
_reconstruct
p92
(cnumpy
ndarray
p93
(I0
tp94
S'b'
p95
tp96
Rp97
(I1
(I18
tp98
g38
I00
S'\x82qy\xd6\xee\x85\xe5\xbf!\x14BCuj\xde\xbfHf\x10\xb5\x11\xd9\xe9\xbf\xf3\xecN\x85:\xcd\xff?\xe3UjOl\xed\xf7\xbf,\xe2PN\xd5\xdc\xfb?[\t\x9d\x98]\x7f\x05\xc0h\xb0\xec\x04P\xc6\xfe\xbf~\x19\x93\xa8\xc8v\x03\xc0D\xbc\xa9*?\xbf\xfb\xbfj\xc6\xa8\xeb\xddF\x19\xc0\xa9\xe5\xa7\x7f\x19\xd2\x08\xc0\x10\x90\x7f\r\x85\xa9\x0f\xc0\xb8\xfb\x85\x8d8j\x04\xc0\xa5\x9fy\xb89\x05\r\xc0\xfb\xdc\xe6\xf5]\xc0\x06\xc0P\xab\x04\x07y\xcc\n\xc0\xe8\x9a\xdeJ`\xfb\x10\xc0'
p99
tp100
bsS'Model'
p101
S'MG94'
p102
sS'clock'
p103
I00
s.