(dp0
S'Force'
p1
NsS'ExpectedGeneconv'
p2
(dp3
(S'N1'
p4
S'N2'
p5
tp6
F16.249136810429626
s(S'N5'
p7
S'cerevisiae'
p8
tp9
F8.789765611106667
s(g5
S'N3'
p10
tp11
F3.2921053676647642
s(S'N4'
p12
g7
tp13
F3.9432689271672134
s(g4
S'castellii'
p14
tp15
F9.411218095355038
s(g5
S'bayanus'
p16
tp17
F2.9689765717642076
s(S'N0'
p18
g4
tp19
F0.13935197855807
s(g10
S'kudriavzevii'
p20
tp21
F9.127554328811348
s(g7
S'paradoxus'
p22
tp23
F2.315645516489275
s(g18
S'kluyveri'
p24
tp25
F0.0
s(g10
g12
tp26
F3.595523684551796
s(g12
S'mikatae'
p27
tp28
F5.654917488807956
ssS'ExpectedDwellTime'
p29
(dp30
g6
F53.483057517903475
sg9
F80.83140096258717
sg11
F80.74705182219196
sg13
F84.02281308570842
sg15
F51.40640132213079
sg17
F81.74467849172105
sg19
F6.348805927798205
sg21
F88.12865956795049
sg23
F84.27919124241399
sg25
F0.0
sg26
F82.70220608842008
sg28
F87.7915779864218
ssS'newicktree'
p31
S'../PairsAlignemt/YeastTree.newick'
p32
sS'll'
p33
cnumpy.core.multiarray
scalar
p34
(cnumpy
dtype
p35
(S'f8'
p36
I0
I1
tp37
Rp38
(I3
S'<'
p39
NNNI-1
I-1
I0
tp40
bS'6e\n\x84\xb4,\x9b\xc0'
p41
tp42
Rp43
sS'edge_list'
p44
(lp45
g19
ag25
ag6
ag15
ag11
ag17
ag26
ag21
ag13
ag28
ag9
ag23
asS'edge_to_blen'
p46
(dp47
g19
g34
(g38
S'frc\xa3\xfd"\x94?'
p48
tp49
Rp50
sg9
g34
(g38
S'I9\x00ur\xc6\xad?'
p51
tp52
Rp53
sg11
g34
(g38
S'EG\xdc\x97;V\x9a?'
p54
tp55
Rp56
sg13
g34
(g38
S'\xc2\xb7\xcb\nr\x8a\x99?'
p57
tp58
Rp59
sg15
g34
(g38
S'\x05\x13\xd3\xd6\xef\xfa\xc5?'
p60
tp61
Rp62
sg17
g34
(g38
S'moP\xff\xdfD\x9b?'
p63
tp64
Rp65
sg6
g34
(g38
S'K\n\xad\xf7\xa6\xc9\xca?'
p66
tp67
Rp68
sg21
g34
(g38
S'oq\x91f\xad\xd8\xb5?'
p69
tp70
Rp71
sg23
g34
(g38
S'\xb1\x03\x83;\xb1d\x96?'
p72
tp73
Rp74
sg25
g34
(g38
S'\xc2\x8a\x83\xbec\x9a\xcb?'
p75
tp76
Rp77
sg26
g34
(g38
S'\x02I\xcd\x89\xf6t\xa0?'
p78
tp79
Rp80
sg28
g34
(g38
S'H\x17\x80\x8b`\x02\xad?'
p81
tp82
Rp83
ssS'paralog'
p84
(lp85
S'YDR418W'
p86
aS'YEL054C'
p87
asS'alignment_file'
p88
S'../MafftAlignment/YDR418W_YEL054C/YDR418W_YEL054C_input.fasta'
p89
sS'x_clock'
p90
NsS'x'
p91
cnumpy.core.multiarray
_reconstruct
p92
(cnumpy
ndarray
p93
(I0
tp94
S'b'
p95
tp96
Rp97
(I1
(I18
tp98
g38
I00
S'<\xf6"\xda\xf9\x1e\xe7\xbf\x18\xae$\xf6=(\xdf\xbf\x19\n\xa4\x87\xb9\xbd\xec\xbf\x80\xc8\x89$\xfa\x07\x01@\xc2\x16.\x80\xd4\x98\x04\xc01y\x9f\xf4\xef\xf6\xd5?s\x96\xf9#rn\x0f\xc0\xfd\x1b\xdaP\xaf\x8b\xf8\xbf\xad\xfe\x91d\x80\x06\xf9\xbf\xc1\x13\x0f\xa4\xb00\xfc\xbf\xd0:\xcc\xb4\xb5H\r\xc0\x17\x19=Uy\x01\r\xc0\xc4\xc0P?*\x80\x0b\xc0E\xeeZ\xf2j\xb0\x03\xc0\x92x8\xff\x90\x87\r\xc0cJ\xe9\x186\xf7\x06\xc0\xce,(\x82\xd7\xc1\x06\xc0m\'\xe3J\xe8\x94\x0e\xc0'
p99
tp100
bsS'Model'
p101
S'MG94'
p102
sS'clock'
p103
I00
s.