(dp0
S'Force'
p1
NsS'ExpectedGeneconv'
p2
(dp3
(S'N1'
p4
S'N2'
p5
tp6
F12.086236164272437
s(S'N5'
p7
S'cerevisiae'
p8
tp9
F7.733830000527719
s(g5
S'N3'
p10
tp11
F0.018236920043612048
s(S'N4'
p12
g7
tp13
F1.3511533468668702
s(g4
S'castellii'
p14
tp15
F19.916910912965054
s(g5
S'bayanus'
p16
tp17
F10.876016798791829
s(S'N0'
p18
g4
tp19
F0.7979166396981794
s(g10
S'kudriavzevii'
p20
tp21
F14.095103419064205
s(g7
S'paradoxus'
p22
tp23
F3.183739318156562
s(g18
S'kluyveri'
p24
tp25
F0.0
s(g10
g12
tp26
F0.0004407948866703932
s(g12
S'mikatae'
p27
tp28
F12.586160509617118
ssS'ExpectedDwellTime'
p29
(dp30
g6
F34.89014902790152
sg9
F47.69561359260275
sg11
F50.18616721995161
sg13
F50.619232423506915
sg15
F32.268159731144316
sg17
F50.74420121347817
sg19
F8.409152786146683
sg21
F51.18998691975238
sg23
F51.28530410805293
sg25
F0.0
sg26
F50.207480620834545
sg28
F53.41235894720891
ssS'newicktree'
p31
S'../PairsAlignemt/YeastTree.newick'
p32
sS'll'
p33
cnumpy.core.multiarray
scalar
p34
(cnumpy
dtype
p35
(S'f8'
p36
I0
I1
tp37
Rp38
(I3
S'<'
p39
NNNI-1
I-1
I0
tp40
bS'-\xb6H\x97\xfc\x84\x95\xc0'
p41
tp42
Rp43
sS'edge_list'
p44
(lp45
g19
ag25
ag6
ag15
ag11
ag17
ag26
ag21
ag13
ag28
ag9
ag23
asS'edge_to_blen'
p46
(dp47
g6
g34
(g38
S'\xd3!\xbc\x82`\x8d\xbd?'
p48
tp49
Rp50
sg9
g34
(g38
S'\xcb\xd1 /\xa8\x1a\xa3?'
p51
tp52
Rp53
sg11
g34
(g38
S'z\xab\r\x01\xd4\t"?'
p54
tp55
Rp56
sg13
g34
(g38
S'\xb7^\xd0\xe0)D\x80?'
p57
tp58
Rp59
sg21
g34
(g38
S'#\xb8\xed\xf1vn\xb4?'
p60
tp61
Rp62
sg17
g34
(g38
S'\xad\xe9!\xf4\x894\xad?'
p63
tp64
Rp65
sg19
g34
(g38
S'\x86S\xfc\x8d\xfdt\xa0?'
p66
tp67
Rp68
sg15
g34
(g38
S'\xce\xdc4\xbd\x13\xde\xc3?'
p69
tp70
Rp71
sg23
g34
(g38
S'd\x89"=6\x1a\x94?'
p72
tp73
Rp74
sg25
g34
(g38
S'b\x14\x15?\x0f\xaf\xca?'
p75
tp76
Rp77
sg26
g34
(g38
S'\x1f[G\xf5\xd2)\xde>'
p78
tp79
Rp80
sg28
g34
(g38
S'\xf1\xff\x7f?k/\xb3?'
p81
tp82
Rp83
ssS'paralog'
p84
(lp85
S'YML026C'
p86
aS'YDR450W'
p87
asS'alignment_file'
p88
S'../MafftAlignment/YML026C_YDR450W/YML026C_YDR450W_input.fasta'
p89
sS'x_clock'
p90
NsS'x'
p91
cnumpy.core.multiarray
_reconstruct
p92
(cnumpy
ndarray
p93
(I0
tp94
S'b'
p95
tp96
Rp97
(I1
(I18
tp98
g38
I00
S"T\x8cK\x1a\xeb\x18\xe6\xbf\x82\xa0\xae\x07&\xaa\xe0\xbf\xbaug\x8e\xe0\xbb\xeb\xbf'\xc6\xfb\x13\xe7M\xfb?\xcc\xf8\x8b\x91\x85\xdb\x04\xc0F\xc2\xbdO\xa6\xb0\xf4?\xef\xe9(\xd6&\x80\x0b\xc0\tLQyj\x16\xf9\xbf\xb3\x12'\xee\xaaE\x01\xc0{\xe85\x0c\xa0\xce\xfd\xbf\x96F.\x1e1\xc8!\xc0\x13\xcc\x18\xael\xe9\x06\xc0\xd4R\x03\x84j\xaf'\xc0\xa6\xe4\x98:\x8c9\x04\xc0\xdcE\xa0\r\x94W\x13\xc0o\xd7\xccuq\xba\x04\xc0A\xe6\xc78\xafN\n\xc0\x8d\x9ao\xc2\xefq\x0f\xc0"
p99
tp100
bsS'Model'
p101
S'MG94'
p102
sS'clock'
p103
I00
s.