(dp0
S'Force'
p1
NsS'ExpectedGeneconv'
p2
(dp3
(S'N1'
p4
S'N2'
p5
tp6
F32.057023319554354
s(S'N5'
p7
S'cerevisiae'
p8
tp9
F14.886698252343749
s(g5
S'N3'
p10
tp11
F13.146277028771946
s(S'N4'
p12
g7
tp13
F11.22385464840999
s(g4
S'castellii'
p14
tp15
F85.63052739095428
s(g5
S'bayanus'
p16
tp17
F15.831352741323688
s(S'N0'
p18
g4
tp19
F11.724757189214092
s(g10
S'kudriavzevii'
p20
tp21
F27.49871241754929
s(g7
S'paradoxus'
p22
tp23
F12.048019107543617
s(g18
S'kluyveri'
p24
tp25
F0.0
s(g10
g12
tp26
F12.679234549278666
s(g12
S'mikatae'
p27
tp28
F26.723207274148518
ssS'ExpectedDwellTime'
p29
(dp30
g6
F247.78945133415024
sg9
F319.1841049176717
sg11
F296.54843338139597
sg13
F314.72392129212443
sg15
F304.3591472212736
sg17
F312.0896766931895
sg19
F116.6430032805749
sg21
F313.72216858154854
sg23
F333.1498025774496
sg25
F0.0
sg26
F307.71609589235896
sg28
F326.81412266960257
ssS'newicktree'
p31
S'../PairsAlignemt/YeastTree.newick'
p32
sS'll'
p33
cnumpy.core.multiarray
scalar
p34
(cnumpy
dtype
p35
(S'f8'
p36
I0
I1
tp37
Rp38
(I3
S'<'
p39
NNNI-1
I-1
I0
tp40
bS'\xd0\xb1\x96\xbb\xa6{\xb6\xc0'
p41
tp42
Rp43
sS'edge_list'
p44
(lp45
g19
ag25
ag6
ag15
ag11
ag17
ag26
ag21
ag13
ag28
ag9
ag23
asS'edge_to_blen'
p46
(dp47
g19
g34
(g38
S'\x01yG\xff\xf6>\xca?'
p48
tp49
Rp50
sg9
g34
(g38
S'R\xb4]\x14\xc8\x95\xb7?'
p51
tp52
Rp53
sg11
g34
(g38
S'\xc1\x1d\x1fn\xf9\x08\xb7?'
p54
tp55
Rp56
sg13
g34
(g38
S"\xa0Ga'\xbe\xb8\xb2?"
p57
tp58
Rp59
sg15
g34
(g38
S'Pa\x8f\x1c\xec\x14\xe3?'
p60
tp61
Rp62
sg17
g34
(g38
S'\x9c\xeb\xb3\xf3g)\xc0?'
p63
tp64
Rp65
sg6
g34
(g38
S'i\xf5\xbb\xb1l\x00\xcd?'
p66
tp67
Rp68
sg21
g34
(g38
S'\x91\xab\x8f]\x1c\x0c\xc6?'
p69
tp70
Rp71
sg23
g34
(g38
S'\x9fZ\x01\xfd\xca\x07\xb7?'
p72
tp73
Rp74
sg25
g34
(g38
S'o\xaa\xf1\xdev\xef\xcd?'
p75
tp76
Rp77
sg26
g34
(g38
S'@\x8bl\x8dr\xd7\xb5?'
p78
tp79
Rp80
sg28
g34
(g38
S'\x04\x04]\x8ao%\xc8?'
p81
tp82
Rp83
ssS'paralog'
p84
(lp85
S'YDR502C'
p86
aS'YLR180W'
p87
asS'alignment_file'
p88
S'../MafftAlignment/YDR502C_YLR180W/YDR502C_YLR180W_input.fasta'
p89
sS'x_clock'
p90
NsS'x'
p91
cnumpy.core.multiarray
_reconstruct
p92
(cnumpy
ndarray
p93
(I0
tp94
S'b'
p95
tp96
Rp97
(I1
(I18
tp98
g38
I00
S'\xb5\x91xdkU\xe8\xbf\x80\xdb\x8d\x96\xe2\xfb\xe1\xbf\x05<\xcd\xb3,\xb4\xeb\xbf\xb4[W\xc9K\x88\xf5?xk \xeb s\t\xc0_\xcc\xb1r8)\xe1\xbfW^Q\xe4/Z\xf9\xbf_\\\xa7\xa4p?\xf7\xbfI\x1b\x1f\xed<\xc1\xf7\xbf\xdd\x12\x94iM\x8b\xe0\xbf.\xb1\xb4\x80\xe9C\x03\xc0\xd1B\\\xe1\x18\x8e\x00\xc0C\x9b/A\xde\xb0\x03\xc0\x00\xf9\xfe)5$\xfc\xbf\xe3\xc9\x14\x90\x89\xec\x04\xc0\xb6K\x17\xdf\xb9\xaf\xfa\xbfSfT\xbe\x95\x13\x03\xc0\xb8\x04\xe4\x8cRD\x03\xc0'
p99
tp100
bsS'Model'
p101
S'MG94'
p102
sS'clock'
p103
I00
s.