(dp0
S'Force'
p1
NsS'ExpectedGeneconv'
p2
(dp3
(S'N1'
p4
S'N2'
p5
tp6
F178.563331731761
s(S'N5'
p7
S'cerevisiae'
p8
tp9
F16.69696546567071
s(g5
S'N3'
p10
tp11
F6.038864916624755
s(S'N4'
p12
g7
tp13
F10.311866458070103
s(g4
S'castellii'
p14
tp15
F309.75160801328076
s(g5
S'bayanus'
p16
tp17
F34.852724169679846
s(S'N0'
p18
g4
tp19
F39.17474011568639
s(g10
S'kudriavzevii'
p20
tp21
F21.87069714606446
s(g7
S'paradoxus'
p22
tp23
F12.088420798632573
s(g18
S'kluyveri'
p24
tp25
F0.0
s(g10
g12
tp26
F13.631004852358354
s(g12
S'mikatae'
p27
tp28
F24.161932739316807
ssS'ExpectedDwellTime'
p29
(dp30
g6
F1049.615774520845
sg9
F1236.040373366265
sg11
F1172.0258863941444
sg13
F1211.6698069907063
sg15
F1121.702661330568
sg17
F1162.1495048589115
sg19
F521.3036067568447
sg21
F1200.4139175668859
sg23
F1227.396499864032
sg25
F0.0
sg26
F1187.7346305142178
sg28
F1199.5646702089766
ssS'newicktree'
p31
S'../PairsAlignemt/YeastTree.newick'
p32
sS'll'
p33
cnumpy.core.multiarray
scalar
p34
(cnumpy
dtype
p35
(S'f8'
p36
I0
I1
tp37
Rp38
(I3
S'<'
p39
NNNI-1
I-1
I0
tp40
bS'\x00`\x85\x83\xeci\xd2\xc0'
p41
tp42
Rp43
sS'edge_list'
p44
(lp45
g19
ag25
ag6
ag15
ag11
ag17
ag26
ag21
ag13
ag28
ag9
ag23
asS'edge_to_blen'
p46
(dp47
g19
g34
(g38
S'\x00e\x95\xb8\xb7X\xe0?'
p48
tp49
Rp50
sg9
g34
(g38
S'^)\xfb\xb3\x1d;\xc7?'
p51
tp52
Rp53
sg11
g34
(g38
S'_\x8eB>\x1f\x7f\xad?'
p54
tp55
Rp56
sg13
g34
(g38
S'\xbd\x89\xf1@{y\xbb?'
p57
tp58
Rp59
sg15
g34
(g38
S'\x8f\xbe\x00\xd0j\xf6\x05@'
p60
tp61
Rp62
sg17
g34
(g38
S'EV\xc1\x1b\xe65\xd1?'
p63
tp64
Rp65
sg6
g34
(g38
S'\x19\x83\x99:\xd4\x00\xf7?'
p66
tp67
Rp68
sg21
g34
(g38
S'F?`\x06\xd8\xfd\xcf?'
p69
tp70
Rp71
sg23
g34
(g38
S'%\xb4\xbdF}V\xbc?'
p72
tp73
Rp74
sg25
g34
(g38
S'\xc91((\xfa,\xf5?'
p75
tp76
Rp77
sg26
g34
(g38
S'J\xea\xb6\xad\xa5\xd4\xc1?'
p78
tp79
Rp80
sg28
g34
(g38
S'\xc8\x1c\xe9O\xa9\xdb\xce?'
p81
tp82
Rp83
ssS'paralog'
p84
(lp85
S'YNL049C'
p86
aS'YIL109C'
p87
asS'alignment_file'
p88
S'../MafftAlignment/YNL049C_YIL109C/YNL049C_YIL109C_input.fasta'
p89
sS'x_clock'
p90
NsS'x'
p91
cnumpy.core.multiarray
_reconstruct
p92
(cnumpy
ndarray
p93
(I0
tp94
S'b'
p95
tp96
Rp97
(I1
(I18
tp98
g38
I00
S'\x07\r\xa8\x1ca\x9d\xe6\xbf\xee\xd9\x98\xa4\xd2\xff\xdc\xbfW;3\xf4\x00\xa7\xef\xbf\xbcK\xae\x80\x0b?\xf1?\xa2u\x81s\x00\x12\x05\xc0\xb5\xa6\xce\x97\xda\xb9\xfa\xbf\xbbI\x94}\xb8~\xe5\xbf({Nu\xdd\xef\xd1?\x13\x05\xe4x&<\xd7?,\xd6\x19\xc8\x8a(\xf0?z\xe8?~\x18\xd5\x06\xc0Wj\x00\xc7\x86\x03\xf5\xbf\xc2\x94h\xe7\xab\x89\xff\xbf@\xce\x16\x05W/\xf6\xbf\x1c\x02\xe6\xb7\xf7\xda\x01\xc0\t\t-U\x1a\xc3\xf6\xbf_\x8c`5\x03N\xfb\xbfZ9\x99\xef\x9a\x9b\x01\xc0'
p99
tp100
bsS'Model'
p101
S'MG94'
p102
sS'clock'
p103
I00
s.