(dp0
S'Force'
p1
NsS'ExpectedGeneconv'
p2
(dp3
(S'N1'
p4
S'N2'
p5
tp6
F7.371029903641294
s(S'N5'
p7
S'cerevisiae'
p8
tp9
F6.484162867084736
s(g5
S'N3'
p10
tp11
F2.05294239899046
s(S'N4'
p12
g7
tp13
F0.6947630017750694
s(g4
S'castellii'
p14
tp15
F8.644782857237763
s(g5
S'bayanus'
p16
tp17
F3.5302697350006973
s(S'N0'
p18
g4
tp19
F0.4772583352446454
s(g10
S'kudriavzevii'
p20
tp21
F2.6030864731776817
s(g7
S'paradoxus'
p22
tp23
F1.8186260140224046
s(g18
S'kluyveri'
p24
tp25
F0.0
s(g10
g12
tp26
F2.134925054758988
s(g12
S'mikatae'
p27
tp28
F5.66321631056073
ssS'ExpectedDwellTime'
p29
(dp30
g6
F36.389568199692135
sg9
F57.070439301289824
sg11
F50.756231404367476
sg13
F60.02390163550668
sg15
F45.866492191690455
sg17
F52.222291783279594
sg19
F9.753220507585239
sg21
F57.435873600371224
sg23
F66.12244138840677
sg25
F0.0
sg26
F56.6959924984851
sg28
F62.2665016979657
ssS'newicktree'
p31
S'../PairsAlignemt/YeastTree.newick'
p32
sS'll'
p33
cnumpy.core.multiarray
scalar
p34
(cnumpy
dtype
p35
(S'f8'
p36
I0
I1
tp37
Rp38
(I3
S'<'
p39
NNNI-1
I-1
I0
tp40
bS'\xf5\x8c7+\xbd\xd4\x92\xc0'
p41
tp42
Rp43
sS'edge_list'
p44
(lp45
g19
ag25
ag6
ag15
ag11
ag17
ag26
ag21
ag13
ag28
ag9
ag23
asS'edge_to_blen'
p46
(dp47
g19
g34
(g38
S'\xbf\xb1\xab\xfb\x0f\xa0\xa6?'
p48
tp49
Rp50
sg9
g34
(g38
S'\xc5\xb0\x98\xeeW\xda\xaa?'
p51
tp52
Rp53
sg11
g34
(g38
S'"\x13\xda\xb7\xf3\xf0\xa1?'
p54
tp55
Rp56
sg13
g34
(g38
S'\xf2\xa0\xd7\xf22\x90\x85?'
p57
tp58
Rp59
sg15
g34
(g38
S'\xa7\xf5\xf1\xef,;\xc7?'
p60
tp61
Rp62
sg17
g34
(g38
S"'$\x95nC\x05\xae?"
p63
tp64
Rp65
sg6
g34
(g38
S'\xbbt>\xcc\xda\x13\xc1?'
p66
tp67
Rp68
sg21
g34
(g38
S'\x0e_\x98\xf7\xa2z\xa7?'
p69
tp70
Rp71
sg23
g34
(g38
S'\xa8\xb2\x81\xfbAF\xa4?'
p72
tp73
Rp74
sg25
g34
(g38
S'\x1d\xbe\xab\xdf\x132\xbd?'
p75
tp76
Rp77
sg26
g34
(g38
S'\xcaK\x12/k\xb9\xa1?'
p78
tp79
Rp80
sg28
g34
(g38
S'\xa8\xc2\xf2\xe2\xee_\xb0?'
p81
tp82
Rp83
ssS'paralog'
p84
(lp85
S'YER131W'
p86
aS'YGL189C'
p87
asS'alignment_file'
p88
S'../MafftAlignment/YER131W_YGL189C/YER131W_YGL189C_input.fasta'
p89
sS'x_clock'
p90
NsS'x'
p91
cnumpy.core.multiarray
_reconstruct
p92
(cnumpy
ndarray
p93
(I0
tp94
S'b'
p95
tp96
Rp97
(I1
(I18
tp98
g38
I00
S'\x92YW\xda\xfar\xe5\xbf9\xd2P\xa5\x008\xdc\xbf\xc8bg\xee\xfb\xad\xe6\xbfb2\xacd\xbf5\xfe?\x99\xb9\xeej4>\x07\xc0\xe5\xc2\x8f\xbd\n\x8f\xd3?B=\x9c\xb9=\xf4\x08\xc0\xee\xc5\x9e\x8d\x88^\x01\xc0\x91/"\x057\x1d\x00\xc0\xde\x1cW\xb7\xf8M\xfb\xbfJ\xf2\x92pN\xcf\n\xc0\x02ex\x93\x08\xb1\x06\xc0A\x1a_<8\xe8\n\xc0\x14Q\x99\xed`\xa8\x08\xc0=(\x06\x0f\xea6\x12\xc0\xf6`K%\xd9\xfe\x05\xc0\x108\xca%g\x95\x07\xc0|\xe9\xc3\xc7\xea\xd4\t\xc0'
p99
tp100
bsS'Model'
p101
S'MG94'
p102
sS'clock'
p103
I00
s.