(dp0
S'Force'
p1
NsS'ExpectedGeneconv'
p2
(dp3
(S'N1'
p4
S'N2'
p5
tp6
F47.93722030028386
s(S'N5'
p7
S'cerevisiae'
p8
tp9
F3.7424806311061496
s(g5
S'N3'
p10
tp11
F3.6973143197745655
s(S'N4'
p12
g7
tp13
F2.0861297624957196
s(g4
S'castellii'
p14
tp15
F53.92815767336375
s(g5
S'bayanus'
p16
tp17
F6.8196445162405315
s(S'N0'
p18
g4
tp19
F1.2241964415636548
s(g10
S'kudriavzevii'
p20
tp21
F6.54204101049072
s(g7
S'paradoxus'
p22
tp23
F1.3862411855422418
s(g18
S'kluyveri'
p24
tp25
F0.0
s(g10
g12
tp26
F3.860280383603711
s(g12
S'mikatae'
p27
tp28
F7.261457130096994
ssS'ExpectedDwellTime'
p29
(dp30
g6
F346.3774598582435
sg9
F421.02256116098556
sg11
F416.18138702287774
sg13
F416.1615269044497
sg15
F349.7466759632326
sg17
F420.1242313083545
sg19
F77.22613116201329
sg21
F425.1405293690722
sg23
F423.9395334340521
sg25
F0.0
sg26
F414.7325214007615
sg28
F411.0244514713666
ssS'newicktree'
p31
S'../PairsAlignemt/YeastTree.newick'
p32
sS'll'
p33
cnumpy.core.multiarray
scalar
p34
(cnumpy
dtype
p35
(S'f8'
p36
I0
I1
tp37
Rp38
(I3
S'<'
p39
NNNI-1
I-1
I0
tp40
bS'\xb1\x9c\x95\xdb\x1ci\xba\xc0'
p41
tp42
Rp43
sS'edge_list'
p44
(lp45
g19
ag25
ag6
ag15
ag11
ag17
ag26
ag21
ag13
ag28
ag9
ag23
asS'edge_to_blen'
p46
(dp47
g19
g34
(g38
S'y=\xf0+\x07\xd8\xc5?'
p48
tp49
Rp50
sg9
g34
(g38
S'\xb7@\xc0M\x12\xe5\xc4?'
p51
tp52
Rp53
sg11
g34
(g38
S'\xdf\x8a\xe3\x03\xb6{\xc1?'
p54
tp55
Rp56
sg13
g34
(g38
S'\x86O\x02\xbf\xa9\xac\xbf?'
p57
tp58
Rp59
sg15
g34
(g38
S'\xb8\xb9\xf8=\x11E\x02@'
p60
tp61
Rp62
sg17
g34
(g38
S'j\xdf.\xb0\x11+\xd5?'
p63
tp64
Rp65
sg6
g34
(g38
S'\xaaP\x97\xc2\xf1\xbc\xfe?'
p66
tp67
Rp68
sg21
g34
(g38
S'\xd3I\x9d\x12+\xf6\xd2?'
p69
tp70
Rp71
sg23
g34
(g38
S'\x1ceH\xd7\xddY\xb9?'
p72
tp73
Rp74
sg25
g34
(g38
S'\xef\xb3\r>\xf3\xbf\xf7?'
p75
tp76
Rp77
sg26
g34
(g38
S'&\x9d\xc3W\x10\xa6\xc2?'
p78
tp79
Rp80
sg28
g34
(g38
S'\xce\xa5g3Y6\xd4?'
p81
tp82
Rp83
ssS'paralog'
p84
(lp85
S'YBR024W'
p86
aS'YBR037C'
p87
asS'alignment_file'
p88
S'../MafftAlignment/YBR024W_YBR037C/YBR024W_YBR037C_input.fasta'
p89
sS'x_clock'
p90
NsS'x'
p91
cnumpy.core.multiarray
_reconstruct
p92
(cnumpy
ndarray
p93
(I0
tp94
S'b'
p95
tp96
Rp97
(I1
(I18
tp98
g38
I00
S'\xd0\x90\x99\x05K\x00\xe5\xbfS@H!ls\xe2\xbf\xb6T\x97\x15\xca\x9e\xec\xbf\xc8o>\x9a)\xd5\xeb?\xc6\xe6J%AN\x03\xc0Pp\xc6\xe19&\x01\xc0\x1b\xf3t%.J\xfc\xbfS\x16:\xbbqG\xd9?,\x0bx\xdf\xa9\xe4\xe4?\xc1\x0fa\x00\x04m\xea?\xaa\x88\x11\xb0C\xda\xff\xbf\x89\xa8r\xc6\xbc\xb3\xf1\xbf\xf7\xd2\xf3D\xf0\xd1\xfe\xbfy\xde\x8d\x9a\xa6v\xf3\xbf\x00\xf0\xfc\x1f\xa3\xb7\x00\xc0$\xc1\x8a\x1f\x04q\xf2\xbft=r\xdd\x1e\x00\xfd\xbfyP\xae\\\xb5\x7f\x02\xc0'
p99
tp100
bsS'Model'
p101
S'MG94'
p102
sS'clock'
p103
I00
s.