(dp0
S'Force'
p1
NsS'ExpectedGeneconv'
p2
(dp3
(S'N1'
p4
S'N2'
p5
tp6
F14.579453477718276
s(S'N5'
p7
S'cerevisiae'
p8
tp9
F3.510960078854878
s(g5
S'N3'
p10
tp11
F3.098907615066725
s(S'N4'
p12
g7
tp13
F2.3488625843539617
s(g4
S'castellii'
p14
tp15
F11.921644696887638
s(g5
S'bayanus'
p16
tp17
F4.542606110389544
s(S'N0'
p18
g4
tp19
F6.05193791316095e-09
s(g10
S'kudriavzevii'
p20
tp21
F4.217940739141955
s(g7
S'paradoxus'
p22
tp23
F5.860599253651829
s(g18
S'kluyveri'
p24
tp25
F0.0
s(g10
g12
tp26
F3.1533226348575587
s(g12
S'mikatae'
p27
tp28
F6.6953153745649105
ssS'ExpectedDwellTime'
p29
(dp30
g6
F43.149454886671286
sg9
F80.17684858317668
sg11
F74.9708523835272
sg13
F78.73250138466766
sg15
F46.84802193310091
sg17
F66.98237321106745
sg19
F0.0012076540792760036
sg21
F93.66289428104574
sg23
F76.65046249414489
sg25
F0.0
sg26
F80.50678407994081
sg28
F82.8379958039652
ssS'newicktree'
p31
S'../PairsAlignemt/YeastTree.newick'
p32
sS'll'
p33
cnumpy.core.multiarray
scalar
p34
(cnumpy
dtype
p35
(S'f8'
p36
I0
I1
tp37
Rp38
(I3
S'<'
p39
NNNI-1
I-1
I0
tp40
bS'vG\x97\x82;\xb4\x9c\xc0'
p41
tp42
Rp43
sS'edge_list'
p44
(lp45
g19
ag25
ag6
ag15
ag11
ag17
ag26
ag21
ag13
ag28
ag9
ag23
asS'edge_to_blen'
p46
(dp47
g19
g34
(g38
S'\x19\x19w\x1a\xeb\x86\xcc>'
p48
tp49
Rp50
sg9
g34
(g38
S'\x1bV\xc8\xd8T7\x9b?'
p51
tp52
Rp53
sg11
g34
(g38
S'\x8c\x9e\xac\xc6\x80\x94\x9f?'
p54
tp55
Rp56
sg13
g34
(g38
S']\x11\x86G\x02[\x82?'
p57
tp58
Rp59
sg15
g34
(g38
S'\xd7\x0fT\x8cl\x0f\xc7?'
p60
tp61
Rp62
sg17
g34
(g38
S'iA\xbdX\x81\xcd\x9b?'
p63
tp64
Rp65
sg6
g34
(g38
S'\xd3\xd3\x8c\xf0\x04\x18\xc7?'
p66
tp67
Rp68
sg21
g34
(g38
S'6c\x08\xaaT\xfe\xab?'
p69
tp70
Rp71
sg23
g34
(g38
S',\xf7\x80\xfa\xf0\x85\xa3?'
p72
tp73
Rp74
sg25
g34
(g38
S'\x198\xb1{C\xa8\xcc?'
p75
tp76
Rp77
sg26
g34
(g38
S'-\x95\x07\xc9\xb4V\x94?'
p78
tp79
Rp80
sg28
g34
(g38
S'\xa9\xab\xa5\xce\x83\xc4\xa5?'
p81
tp82
Rp83
ssS'paralog'
p84
(lp85
S'YJL177W'
p86
aS'YKL180W'
p87
asS'alignment_file'
p88
S'../MafftAlignment/YJL177W_YKL180W/YJL177W_YKL180W_input.fasta'
p89
sS'x_clock'
p90
NsS'x'
p91
cnumpy.core.multiarray
_reconstruct
p92
(cnumpy
ndarray
p93
(I0
tp94
S'b'
p95
tp96
Rp97
(I1
(I18
tp98
g38
I00
S'\x8b\xdb\xd4\xcfe\x01\xe7\xbf\x08\x1d\x91\x0b\x13\x0b\xdd\xbf\xd5\xc9cln\x0b\xea\xbf\x7f\xa3\xfe,\xe5\x9a\xfd?\x10\x7f\xa1ZA\xd0\x02\xc0c\x0e\xe9\xaeh/\xe2?\xf0t\xfcr\xdd.)\xc0I\xc4\x8b\xb5*\xf2\xf7\xbfI\x1aS\xaeAf\xfb\xbf\x81\x13FG7l\xfb\xbf]*\xbf\x16\xe1\xd4\x0b\xc0\xfbA/\r\xc7\xd9\x0c\xc0c\xca\x9a\xa2\x00Z\x0f\xc0\xa0wP\x036@\x07\xc0\xbf\x99\xeb\x92\xd7\xdb\x12\xc0PlF@aC\t\xc0_d:}s\x05\r\xc00\xc7&v>"\n\xc0'
p99
tp100
bsS'Model'
p101
S'MG94'
p102
sS'clock'
p103
I00
s.