(dp0
S'Force'
p1
NsS'ExpectedGeneconv'
p2
(dp3
(S'N1'
p4
S'N2'
p5
tp6
F19.744596708297
s(S'N5'
p7
S'cerevisiae'
p8
tp9
F4.015874448025128
s(g5
S'N3'
p10
tp11
F4.366827717725773
s(S'N4'
p12
g7
tp13
F2.627942227816083
s(g4
S'castellii'
p14
tp15
F25.706319120653482
s(g5
S'bayanus'
p16
tp17
F12.208744336641875
s(S'N0'
p18
g4
tp19
F4.500559301998916
s(g10
S'kudriavzevii'
p20
tp21
F8.367255569512919
s(g7
S'paradoxus'
p22
tp23
F1.140183492852952
s(g18
S'kluyveri'
p24
tp25
F0.0
s(g10
g12
tp26
F1.0405401726272656
s(g12
S'mikatae'
p27
tp28
F5.954834300089664
ssS'ExpectedDwellTime'
p29
(dp30
g6
F98.01720738493216
sg9
F133.24368412607728
sg11
F119.34041480040123
sg13
F122.39406072565437
sg15
F94.90169278707877
sg17
F123.89349961250825
sg19
F39.37540728942448
sg21
F129.90890980595532
sg23
F125.55524669952852
sg25
F0.0
sg26
F119.89897774127144
sg28
F130.1869505715134
ssS'newicktree'
p31
S'../PairsAlignemt/YeastTree.newick'
p32
sS'll'
p33
cnumpy.core.multiarray
scalar
p34
(cnumpy
dtype
p35
(S'f8'
p36
I0
I1
tp37
Rp38
(I3
S'<'
p39
NNNI-1
I-1
I0
tp40
bS'||\x99o\xa8%\xa2\xc0'
p41
tp42
Rp43
sS'edge_list'
p44
(lp45
g19
ag25
ag6
ag15
ag11
ag17
ag26
ag21
ag13
ag28
ag9
ag23
asS'edge_to_blen'
p46
(dp47
g19
g34
(g38
S'\x06\xba\xa9\xf1\xbe\xc0\xbd?'
p48
tp49
Rp50
sg9
g34
(g38
S'\xba\x87\xde\xea\x82\x97\xa4?'
p51
tp52
Rp53
sg11
g34
(g38
S'\x15\xb6\xfeS\x95\xb7\x99?'
p54
tp55
Rp56
sg13
g34
(g38
S'\x80\xaf% C\xe2\x95?'
p57
tp58
Rp59
sg15
g34
(g38
S'\x00PU\x81\n5\xc9?'
p60
tp61
Rp62
sg17
g34
(g38
S'\xbd\xa9\xeb\x9c\xff\xef\xb3?'
p63
tp64
Rp65
sg6
g34
(g38
S'<h\xfd`\x10\xea\xc6?'
p66
tp67
Rp68
sg21
g34
(g38
S'~\x9c\xe3h\x05\xdf\xb4?'
p69
tp70
Rp71
sg23
g34
(g38
S'!9\x01[P\x04\x85?'
p72
tp73
Rp74
sg25
g34
(g38
S'\x06\xc4\xa4\xbbE\xcb\xc0?'
p75
tp76
Rp77
sg26
g34
(g38
S'\x1dyk\xd7i%w?'
p78
tp79
Rp80
sg28
g34
(g38
S'0\x0eju\n\xd8\xb0?'
p81
tp82
Rp83
ssS'paralog'
p84
(lp85
S'YNL069C'
p86
aS'YIL133C'
p87
asS'alignment_file'
p88
S'../MafftAlignment/YNL069C_YIL133C/YNL069C_YIL133C_input.fasta'
p89
sS'x_clock'
p90
NsS'x'
p91
cnumpy.core.multiarray
_reconstruct
p92
(cnumpy
ndarray
p93
(I0
tp94
S'b'
p95
tp96
Rp97
(I1
(I18
tp98
g38
I00
S'e\xa3\xdd0\x0f7\xe7\xbf\xbaYv4C9\xe1\xbf5B\xe2\x15\x93\xf0\xed\xbfPxgB\t\x15\xfb?9\x8c\x81\xcaE\x1d\xfc\xbf&\xf7\xeb\xa8\xe2i\xd8?\xfb\x8b\\\x0c\xcf7\x01\xc0IN\xa6g\x80?\x00\xc0zr3Q8\x86\xfb\xbf\x97\x19q\x1e\x98\xff\xf9\xbf1k]\tzy\r\xc0\xe9\x02c\xa1\xack\x04\xc0\x08\xb0w\x0e)\xb4\x14\xc0\xb1H\xe0\x8a\xf1\r\x04\xc0\x0085\xad\n\xc4\x0e\xc0slW_\xfe\xc4\x05\xc0\xfd\xf9H\x9e\x1a\xb5\t\xc0\x142~\x8f2Q\x12\xc0'
p99
tp100
bsS'Model'
p101
S'MG94'
p102
sS'clock'
p103
I00
s.