(dp0
S'Force'
p1
NsS'ExpectedGeneconv'
p2
(dp3
(S'N1'
p4
S'N2'
p5
tp6
F33.618070497954996
s(S'N5'
p7
S'cerevisiae'
p8
tp9
F1.6498886469661382
s(g5
S'N3'
p10
tp11
F1.408267194175392
s(S'N4'
p12
g7
tp13
F1.0559923745687965
s(g4
S'castellii'
p14
tp15
F27.896539573215662
s(g5
S'bayanus'
p16
tp17
F4.262488371186659
s(S'N0'
p18
g4
tp19
F15.800839791391375
s(g10
S'kudriavzevii'
p20
tp21
F2.0051556343677888
s(g7
S'paradoxus'
p22
tp23
F1.4029896364428072
s(g18
S'kluyveri'
p24
tp25
F0.0
s(g10
g12
tp26
F1.2139608587157886
s(g12
S'mikatae'
p27
tp28
F2.5282737776228883
ssS'ExpectedDwellTime'
p29
(dp30
g6
F514.0940577301382
sg9
F559.1319681659814
sg11
F539.491309338118
sg13
F548.5189396259977
sg15
F497.15087061172125
sg17
F540.1991493073542
sg19
F328.9945659750447
sg21
F544.9809718744525
sg23
F555.2330369001915
sg25
F0.0
sg26
F542.9544805564058
sg28
F542.3553918478069
ssS'newicktree'
p31
S'../PairsAlignemt/YeastTree.newick'
p32
sS'll'
p33
cnumpy.core.multiarray
scalar
p34
(cnumpy
dtype
p35
(S'f8'
p36
I0
I1
tp37
Rp38
(I3
S'<'
p39
NNNI-1
I-1
I0
tp40
bS'LI=I\x00p\xc0\xc0'
p41
tp42
Rp43
sS'edge_list'
p44
(lp45
g19
ag25
ag6
ag15
ag11
ag17
ag26
ag21
ag13
ag28
ag9
ag23
asS'edge_to_blen'
p46
(dp47
g19
g34
(g38
S'\x08\x13\xd9x\x97z\xf2?'
p48
tp49
Rp50
sg9
g34
(g38
S'\xea\x1e\xe0B{\xfa\xcc?'
p51
tp52
Rp53
sg11
g34
(g38
S'\xe2\x91\x01\xcd~F\xc0?'
p54
tp55
Rp56
sg13
g34
(g38
S'\xf3^\xc7\x1c\xed\x06\xbe?'
p57
tp58
Rp59
sg15
g34
(g38
S'\x1c\xcb\xd04\x96Q\xfb?'
p60
tp61
Rp62
sg17
g34
(g38
S'\x87\x04\xa3$\x87\xfb\xd6?'
p63
tp64
Rp65
sg6
g34
(g38
S'\xcb\x03gC\xc2\x19\x01@'
p66
tp67
Rp68
sg21
g34
(g38
S'p\x05\xbf\xbf\x0e=\xcd?'
p69
tp70
Rp71
sg23
g34
(g38
S'\xc84I\xd4}\xe2\xbf?'
p72
tp73
Rp74
sg25
g34
(g38
S'O7&A\x0f\xa9\xf0?'
p75
tp76
Rp77
sg26
g34
(g38
S'\xd3\xe9p\xe6\r\x1c\xc2?'
p78
tp79
Rp80
sg28
g34
(g38
S'\xf4\xfce\xd6\x0b\xc9\xcf?'
p81
tp82
Rp83
ssS'paralog'
p84
(lp85
S'YDR438W'
p86
aS'YML018C'
p87
asS'alignment_file'
p88
S'../MafftAlignment/YDR438W_YML018C/YDR438W_YML018C_input.fasta'
p89
sS'x_clock'
p90
NsS'x'
p91
cnumpy.core.multiarray
_reconstruct
p92
(cnumpy
ndarray
p93
(I0
tp94
S'b'
p95
tp96
Rp97
(I1
(I18
tp98
g38
I00
S'\x80\x13x\x03\xfb\xcd\xe6\xbf;\xc3\xde<\xb8\xa8\xe2\xbf\xc7\xcbP\x03_w\xee\xbf\xbe\x08\xd1.\x91\xb2\xf0?Y\xd7V}\xec\xfa\x01\xc0x\xb6n\xbb\x8b=\x06\xc0\x038\x12\x0f\xe2o\xc2?\xaaFW\xe0=\xb5\xa4?\x13Z\xfd.>O\xe8?_\t\x93\xf5\x93\x1e\xe1?\x8e8\xe9\x9d\xbf\x7f\x00\xc0~\xfc\xd6\xba\xe9b\xf0\xbf\x90\xa8\x17y\x17J\xff\xbf \xc6GM\xec\x9f\xf7\xbfg\xcc\xfbf\x06%\x01\xc0\xa6\xe0\xc1\xc6\xd4I\xf6\xbfH\x9a.\xa0\x84\xc4\xf7\xbf\xd26\x023\x16\xaa\x00\xc0'
p99
tp100
bsS'Model'
p101
S'MG94'
p102
sS'clock'
p103
I00
s.