(dp0
S'Force'
p1
NsS'ExpectedGeneconv'
p2
(dp3
(S'N1'
p4
S'N2'
p5
tp6
F29.684156586539917
s(S'N5'
p7
S'cerevisiae'
p8
tp9
F4.686780588538267
s(g5
S'N3'
p10
tp11
F3.171578644846024
s(S'N4'
p12
g7
tp13
F2.414482680516684
s(g4
S'castellii'
p14
tp15
F36.69531217622311
s(g5
S'bayanus'
p16
tp17
F5.290213544543566
s(S'N0'
p18
g4
tp19
F9.093935853546865
s(g10
S'kudriavzevii'
p20
tp21
F5.373011874537338
s(g7
S'paradoxus'
p22
tp23
F2.7803775083387494
s(g18
S'kluyveri'
p24
tp25
F0.0
s(g10
g12
tp26
F3.2957154530090778
s(g12
S'mikatae'
p27
tp28
F6.893461292963727
ssS'ExpectedDwellTime'
p29
(dp30
g6
F1465.4058757353748
sg9
F1664.0387878874299
sg11
F1619.205525899677
sg13
F1648.219723336234
sg15
F1457.1203320746772
sg17
F1624.340066016654
sg19
F762.8031863752215
sg21
F1646.0369108714588
sg23
F1666.0046753163922
sg25
F0.0
sg26
F1636.5431151771706
sg28
F1642.3879057983456
ssS'newicktree'
p31
S'../PairsAlignemt/YeastTree.newick'
p32
sS'll'
p33
cnumpy.core.multiarray
scalar
p34
(cnumpy
dtype
p35
(S'f8'
p36
I0
I1
tp37
Rp38
(I3
S'<'
p39
NNNI-1
I-1
I0
tp40
bS'\xbd\xc46^\xd8\x99\xdb\xc0'
p41
tp42
Rp43
sS'edge_list'
p44
(lp45
g19
ag25
ag6
ag15
ag11
ag17
ag26
ag21
ag13
ag28
ag9
ag23
asS'edge_to_blen'
p46
(dp47
g19
g34
(g38
S'\xa9\x1b\xefp{:\xe6?'
p48
tp49
Rp50
sg9
g34
(g38
S'\xe19\xea[\xbf\xab\xd4?'
p51
tp52
Rp53
sg11
g34
(g38
S'm\xfc\x19\xc2R\xb7\xc8?'
p54
tp55
Rp56
sg13
g34
(g38
S'\x1b\xf8\xb4\xae\xea\x02\xc2?'
p57
tp58
Rp59
sg15
g34
(g38
S'XPMEqZ\xfd?'
p60
tp61
Rp62
sg17
g34
(g38
S'5\x04S\x0e\xe7\xe2\xd9?'
p63
tp64
Rp65
sg6
g34
(g38
S'\xead\x01Z\x81\xca\xf8?'
p66
tp67
Rp68
sg21
g34
(g38
S'\xcc\xf4s\xb8n\x1a\xdb?'
p69
tp70
Rp71
sg23
g34
(g38
S'\xf1;nS\xe7d\xc8?'
p72
tp73
Rp74
sg25
g34
(g38
S'\xa9\xd4\x13[\xf1\x13\xf6?'
p75
tp76
Rp77
sg26
g34
(g38
S'\xf0\xaf\x8e9\x84\x05\xc8?'
p78
tp79
Rp80
sg28
g34
(g38
S'\xa6\x8e;\xb5%\xc2\xdb?'
p81
tp82
Rp83
ssS'paralog'
p84
(lp85
S'YGL133W'
p86
aS'YPL216W'
p87
asS'alignment_file'
p88
S'../MafftAlignment/YGL133W_YPL216W/YGL133W_YPL216W_input.fasta'
p89
sS'x_clock'
p90
NsS'x'
p91
cnumpy.core.multiarray
_reconstruct
p92
(cnumpy
ndarray
p93
(I0
tp94
S'b'
p95
tp96
Rp97
(I1
(I18
tp98
g38
I00
S'\xf3O\xdd\t\xf9c\xe3\xbfq\xf5fe&\x89\xdb\xbf{\xb4\x02\xe7\xebF\xf0\xbfzO`\xe6U\x05\xf0?\xc72\xd7\xe3\xdd\xa9\xfa\xbf\x1d\x9a\xae\xb8\xef\xad\x0c\xc0\x07\x90\x1b\x86\xb9Q\xd7\xbfR\x94\x10xu\x9b\xd4?P\xbe\xce#r\x06\xdc?s\x90\xb1D\tk\xe3?\xd8#I\x07.P\xfa\xbf\xdb\x07\x8cU"\xf7\xec\xbf\x0f\x1f\xb6s\xee\xc4\xfa\xbf\x16\xc4S\x94\xce~\xeb\xbf\xce\xd4\x97\x85\\`\xff\xbf\xd1\x04S|%\xbb\xea\xbfq4\xf15\x1f\x15\xf2\xbfXU|\x82\xe2\x85\xfa\xbf'
p99
tp100
bsS'Model'
p101
S'MG94'
p102
sS'clock'
p103
I00
s.