(dp0
S'Force'
p1
NsS'ExpectedGeneconv'
p2
(dp3
(S'N1'
p4
S'N2'
p5
tp6
F16.655299827376528
s(S'N5'
p7
S'cerevisiae'
p8
tp9
F5.175634892230604
s(g5
S'N3'
p10
tp11
F2.9378283331309394
s(S'N4'
p12
g7
tp13
F2.5303172485217567
s(g4
S'castellii'
p14
tp15
F16.93737724452015
s(g5
S'bayanus'
p16
tp17
F4.13339159616566
s(S'N0'
p18
g4
tp19
F0.09880357951331507
s(g10
S'kudriavzevii'
p20
tp21
F6.597067251386552
s(g7
S'paradoxus'
p22
tp23
F3.296339705642267
s(g18
S'kluyveri'
p24
tp25
F0.0
s(g10
g12
tp26
F1.1653956383691628
s(g12
S'mikatae'
p27
tp28
F6.699249072453901
ssS'ExpectedDwellTime'
p29
(dp30
g6
F79.11625666096778
sg9
F120.25823026175338
sg11
F115.75096994259144
sg13
F121.04794499602608
sg15
F73.70784551307644
sg17
F115.15446557203526
sg19
F8.044025935368861
sg21
F126.93355947783357
sg23
F123.37648770642613
sg25
F0.0
sg26
F121.01391854066064
sg28
F128.07400996563123
ssS'newicktree'
p31
S'../PairsAlignemt/YeastTree.newick'
p32
sS'll'
p33
cnumpy.core.multiarray
scalar
p34
(cnumpy
dtype
p35
(S'f8'
p36
I0
I1
tp37
Rp38
(I3
S'<'
p39
NNNI-1
I-1
I0
tp40
bS'\x03\x87\x0b \x8bL\x9d\xc0'
p41
tp42
Rp43
sS'edge_list'
p44
(lp45
g19
ag25
ag6
ag15
ag11
ag17
ag26
ag21
ag13
ag28
ag9
ag23
asS'edge_to_blen'
p46
(dp47
g19
g34
(g38
S'@;\x03r\x18\xe3\xa4?'
p48
tp49
Rp50
sg9
g34
(g38
S'\xfa\xd8\xc2\xc3%\x8d\xc3?'
p51
tp52
Rp53
sg11
g34
(g38
S'b\xb9F\xf2\x99^\xbc?'
p54
tp55
Rp56
sg13
g34
(g38
S'\xc7\x0f\x02J\x15=\xb2?'
p57
tp58
Rp59
sg15
g34
(g38
S'\xa8f\xcb\x9c\xbc\xd1\xe4?'
p60
tp61
Rp62
sg17
g34
(g38
S'\x11"*\xfb\x1fW\xc1?'
p63
tp64
Rp65
sg6
g34
(g38
S"\x97l!\x00\xbc'\xe5?"
p66
tp67
Rp68
sg21
g34
(g38
S'}\xc5<u\x1a\xa8\xcc?'
p69
tp70
Rp71
sg23
g34
(g38
S'S7\\2n\xe0\xbb?'
p72
tp73
Rp74
sg25
g34
(g38
S'j\x87-\x8d_\x0b\xe1?'
p75
tp76
Rp77
sg26
g34
(g38
S'\x9fB\xd89\xd0\x8a\x9e?'
p78
tp79
Rp80
sg28
g34
(g38
S'{i\xe6\x98\xb1\xae\xc7?'
p81
tp82
Rp83
ssS'paralog'
p84
(lp85
S'YJR048W'
p86
aS'YEL039C'
p87
asS'alignment_file'
p88
S'../MafftAlignment/YJR048W_YEL039C/YJR048W_YEL039C_input.fasta'
p89
sS'x_clock'
p90
NsS'x'
p91
cnumpy.core.multiarray
_reconstruct
p92
(cnumpy
ndarray
p93
(I0
tp94
S'b'
p95
tp96
Rp97
(I1
(I18
tp98
g38
I00
S'\xd6\xbav\xed\xf9r\xe4\xbf\xfc\xff~\xa3\x94\xa1\xe1\xbf\xc8R\xb5\rs\x9a\xeb\xbfP\xa1%\xc2o\xa7\xf0?j@\x81\xfb\x06\xfb\x05\xc0Am<\xa2\xd0\xb9\xee\xbfO\x06\xf6\xa4\xf2\x97\t\xc0.\x9e\xcc\x87>(\xe4\xbf\x13\xbf\xc3\xf0\x82|\xda\xbf`R\xe5\xa7\xc3\x82\xdb\xbf\x93\xf0\xc4\x00Q\x99\x01\xc0\xa4\xb5\x9bY\xe2\xfb\xff\xbf\xfa\xa2\x12\xd0P\x19\x0c\xc0\xea\x89]\x9dA\xf2\xf7\xbfG\x16\xa1\x84\x12"\x05\xc0\xe5\xa82j,\xff\xfa\xbfV\x1b\x06%S\x10\xfe\xbf\x04:\x1dW5\xbd\x01\xc0'
p99
tp100
bsS'Model'
p101
S'MG94'
p102
sS'clock'
p103
I00
s.