(dp0
S'Force'
p1
NsS'ExpectedGeneconv'
p2
(dp3
(S'N1'
p4
S'N2'
p5
tp6
F7.36113770745029
s(S'N5'
p7
S'cerevisiae'
p8
tp9
F2.830848360413882
s(g5
S'N3'
p10
tp11
F1.1086183640548692
s(S'N4'
p12
g7
tp13
F0.38399746873709634
s(g4
S'castellii'
p14
tp15
F6.824782769959792
s(g5
S'bayanus'
p16
tp17
F3.997386113771013
s(S'N0'
p18
g4
tp19
F0.44501474438137506
s(g10
S'kudriavzevii'
p20
tp21
F2.064705283758451
s(g7
S'paradoxus'
p22
tp23
F3.251133131375511
s(g18
S'kluyveri'
p24
tp25
F0.0
s(g10
g12
tp26
F1.0055547488520244
s(g12
S'mikatae'
p27
tp28
F7.517609875177476
ssS'ExpectedDwellTime'
p29
(dp30
g6
F26.62341741014796
sg9
F50.26266565725343
sg11
F36.587276681275526
sg13
F45.9012840788561
sg15
F29.327338207505512
sg17
F39.174754447378135
sg19
F8.176246422453294
sg21
F54.465455752962164
sg23
F47.91597550529026
sg25
F0.0
sg26
F43.640560721467345
sg28
F50.87695929053208
ssS'newicktree'
p31
S'../PairsAlignemt/YeastTree.newick'
p32
sS'll'
p33
cnumpy.core.multiarray
scalar
p34
(cnumpy
dtype
p35
(S'f8'
p36
I0
I1
tp37
Rp38
(I3
S'<'
p39
NNNI-1
I-1
I0
tp40
bS'\x14\x89hyeh\x92\xc0'
p41
tp42
Rp43
sS'edge_list'
p44
(lp45
g19
ag25
ag6
ag15
ag11
ag17
ag26
ag21
ag13
ag28
ag9
ag23
asS'edge_to_blen'
p46
(dp47
g19
g34
(g38
S'\x89\t\x9f\xe8\xbf\xc9\xa4?'
p48
tp49
Rp50
sg9
g34
(g38
S'\xcbb\x8d!\x0eT\xa5?'
p51
tp52
Rp53
sg11
g34
(g38
S'\xc4%\x9buj\x99\x9b?'
p54
tp55
Rp56
sg13
g34
(g38
S'\x9b\xba\x14\xd5!\xf2m?'
p57
tp58
Rp59
sg15
g34
(g38
S'\x9d\xfdd>q\xf3\xbd?'
p60
tp61
Rp62
sg17
g34
(g38
S'\xefg\xe0\x07\xed\x1e\xb3?'
p63
tp64
Rp65
sg6
g34
(g38
S'\n\x99\xf4j\xc7\xe9\xbb?'
p66
tp67
Rp68
sg21
g34
(g38
S'!X\xff\xc1\xf1\x03\xaf?'
p69
tp70
Rp71
sg23
g34
(g38
S'\x9e\x02\xe1d5;\xa3?'
p72
tp73
Rp74
sg25
g34
(g38
S'cC7(\xebZ\xce?'
p75
tp76
Rp77
sg26
g34
(g38
S'7C;9`\x9c\x94?'
p78
tp79
Rp80
sg28
g34
(g38
S'\xd3\xe1M\xceT\xf5\xb6?'
p81
tp82
Rp83
ssS'paralog'
p84
(lp85
S'YLR406C'
p86
aS'YDL075W'
p87
asS'alignment_file'
p88
S'../MafftAlignment/YLR406C_YDL075W/YLR406C_YDL075W_input.fasta'
p89
sS'x_clock'
p90
NsS'x'
p91
cnumpy.core.multiarray
_reconstruct
p92
(cnumpy
ndarray
p93
(I0
tp94
S'b'
p95
tp96
Rp97
(I1
(I18
tp98
g38
I00
S'l\xc5\x80\xaaG\x9d\xe4\xbfT\xa9~\xf0\t\xd9\xde\xbfU\xe1\xbd\xbb\xb2\xc6\xed\xbfFF\xc9\xb7\x82p\xfd?<e\n\x89n\xa9\x03\xc0T\xd5\x99\xf41\x10\xe0?~j\x07\xbd\xad\xa1\t\xc0\xac\xd1\x91\x06h\x06\xf7\xbfd\xe0\xc9\xfc\x86\xba\x01\xc0Cm8\xfd8*\x01\xc0``\x85(\xd2\xe8\x0c\xc0\xef\xd0\xd5\x08U\xc1\x04\xc0\x8e\xf1\xe5\xc8\xc7>\x0f\xc0KE\x8b\xf0Cn\x06\xc0\xe1\xf6h*3r\x16\xc0e8\xc1\xd7\xbeJ\x03\xc0\x7fE\xaa3"m\t\xc0\x14\xf030\x19A\n\xc0'
p99
tp100
bsS'Model'
p101
S'MG94'
p102
sS'clock'
p103
I00
s.