(dp0
S'Force'
p1
NsS'ExpectedGeneconv'
p2
(dp3
(S'N1'
p4
S'N2'
p5
tp6
F15.863524829805487
s(S'N5'
p7
S'cerevisiae'
p8
tp9
F2.426074628974073
s(g5
S'N3'
p10
tp11
F0.7919760286074297
s(S'N4'
p12
g7
tp13
F1.2906723793748869
s(g4
S'castellii'
p14
tp15
F4.719185890425947
s(g5
S'bayanus'
p16
tp17
F2.693364736680085
s(S'N0'
p18
g4
tp19
F0.09861235974591016
s(g10
S'kudriavzevii'
p20
tp21
F1.8713119367220357
s(g7
S'paradoxus'
p22
tp23
F1.8156399732210373
s(g18
S'kluyveri'
p24
tp25
F0.0
s(g10
g12
tp26
F1.0816985714486675
s(g12
S'mikatae'
p27
tp28
F3.2513515092640044
ssS'ExpectedDwellTime'
p29
(dp30
g6
F156.41103991889315
sg9
F209.67340693075383
sg11
F209.57912252490092
sg13
F208.69986074639368
sg15
F91.89307413180298
sg17
F219.0449110135846
sg19
F15.189732732572319
sg21
F210.8218124419411
sg23
F212.6257856398222
sg25
F0.0
sg26
F207.84051681700703
sg28
F205.2935584248796
ssS'newicktree'
p31
S'../PairsAlignemt/YeastTree.newick'
p32
sS'll'
p33
cnumpy.core.multiarray
scalar
p34
(cnumpy
dtype
p35
(S'f8'
p36
I0
I1
tp37
Rp38
(I3
S'<'
p39
NNNI-1
I-1
I0
tp40
bS'v\x0e\xa2\t\xe2\xca\xa6\xc0'
p41
tp42
Rp43
sS'edge_list'
p44
(lp45
g19
ag25
ag6
ag15
ag11
ag17
ag26
ag21
ag13
ag28
ag9
ag23
asS'edge_to_blen'
p46
(dp47
g19
g34
(g38
S'O\x85\xbe|\x069\xad?'
p48
tp49
Rp50
sg9
g34
(g38
S'\xbb\x12\xe2<\x95\x1a\xc3?'
p51
tp52
Rp53
sg11
g34
(g38
S'\xccRd\x17t\x1e\xa6?'
p54
tp55
Rp56
sg13
g34
(g38
S'g\xe2h\xc4<\xd4\xbd?'
p57
tp58
Rp59
sg15
g34
(g38
S'\xd7A\xed0\xddx\xda?'
p60
tp61
Rp62
sg17
g34
(g38
S'kR,\x9a\x9bU\xce?'
p63
tp64
Rp65
sg6
g34
(g38
S"\x86\xf9'wg\xea\xf3?"
p66
tp67
Rp68
sg21
g34
(g38
S'\xcck\xd1N\xfd\x96\xc9?'
p69
tp70
Rp71
sg23
g34
(g38
S'\xf2X\x12W\xbb\xc8\xbb?'
p72
tp73
Rp74
sg25
g34
(g38
S'\x84\x96T\xf5\x9f\x0e\xe2?'
p75
tp76
Rp77
sg26
g34
(g38
S'c\n\xfb\xfb\x99\xe6\xa7?'
p78
tp79
Rp80
sg28
g34
(g38
S'\r\xe3L\xe9W\xdf\xcd?'
p81
tp82
Rp83
ssS'paralog'
p84
(lp85
S'YPL037C'
p86
aS'YDR252W'
p87
asS'alignment_file'
p88
S'../MafftAlignment/YPL037C_YDR252W/YPL037C_YDR252W_input.fasta'
p89
sS'x_clock'
p90
NsS'x'
p91
cnumpy.core.multiarray
_reconstruct
p92
(cnumpy
ndarray
p93
(I0
tp94
S'b'
p95
tp96
Rp97
(I1
(I18
tp98
g38
I00
S'!\xec\xba\xa4\xec\xc4\xe5\xbf\xe3~\x88\xe4o6\xdc\xbf#\x9f\xd1:\xa3\xd1\xe8\xbf\x16jq\x8e\xde7\xf0?\xa5\xe5\xa6\xe0\xc17\xfe\xbf\x1f\xcf\xa1\x13\x85,\xfe\xbf2T\xfd)2\xe8\x06\xc0G&h\xaelO\xe2\xbfy@\xc8Sv\x05\xcc?.\x9a\xbfv\xd2?\xec\xbf\xea1P\xf8\x96"\t\xc0\xae\xdf\x0f\xe24\t\xf7\xbf\x1c\x8b\xc9\x15\xeb\x83\x08\xc0l\xf2\xf7\xbb\xe3\xc1\xf9\xbflS\x9d\x17\x932\x01\xc0;\xdc\xc6\xc2\x10H\xf7\xbf\x89\xfa\xc4P+o\xfe\xbf\x1b\x14\rK\x05\xc4\x01\xc0'
p99
tp100
bsS'Model'
p101
S'MG94'
p102
sS'clock'
p103
I00
s.