(dp0
S'Force'
p1
NsS'ExpectedGeneconv'
p2
(dp3
(S'N1'
p4
S'N2'
p5
tp6
F244.1870834041235
s(S'N5'
p7
S'cerevisiae'
p8
tp9
F11.52485099500691
s(g5
S'N3'
p10
tp11
F13.897537490153935
s(S'N4'
p12
g7
tp13
F6.791898582697277
s(g4
S'castellii'
p14
tp15
F266.4967475531417
s(g5
S'bayanus'
p16
tp17
F18.364059987181165
s(S'N0'
p18
g4
tp19
F36.239903874408796
s(g10
S'kudriavzevii'
p20
tp21
F15.202103632968644
s(g7
S'paradoxus'
p22
tp23
F8.173765941383543
s(g18
S'kluyveri'
p24
tp25
F0.0
s(g10
g12
tp26
F5.966190904741197
s(g12
S'mikatae'
p27
tp28
F17.643581759335866
ssS'ExpectedDwellTime'
p29
(dp30
g6
F1200.3592322029558
sg9
F1315.0339169827387
sg11
F1302.3369999294903
sg13
F1314.462590055936
sg15
F1223.721236739651
sg17
F1303.9471585428382
sg19
F583.3843057253787
sg21
F1308.7780731641851
sg23
F1325.3703003263026
sg25
F0.0
sg26
F1307.0847872507593
sg28
F1327.4355317375152
ssS'newicktree'
p31
S'../PairsAlignemt/YeastTree.newick'
p32
sS'll'
p33
cnumpy.core.multiarray
scalar
p34
(cnumpy
dtype
p35
(S'f8'
p36
I0
I1
tp37
Rp38
(I3
S'<'
p39
NNNI-1
I-1
I0
tp40
bS'B\xb1\x14\xdf\xa39\xd5\xc0'
p41
tp42
Rp43
sS'edge_list'
p44
(lp45
g19
ag25
ag6
ag15
ag11
ag17
ag26
ag21
ag13
ag28
ag9
ag23
asS'edge_to_blen'
p46
(dp47
g19
g34
(g38
S'\x8b\xf3:\x88p-\xe3?'
p48
tp49
Rp50
sg9
g34
(g38
S'\x08"=~\xbe\xea\xc8?'
p51
tp52
Rp53
sg11
g34
(g38
S'!\xc4k\xd8\xb0\xa9\xc9?'
p54
tp55
Rp56
sg13
g34
(g38
S'\x07\xd0\xdf\x9c:J\xc0?'
p57
tp58
Rp59
sg15
g34
(g38
S':FJ\xb0Z\xf2\n@'
p60
tp61
Rp62
sg17
g34
(g38
S'\xe7q\xba\x97\x1f\x99\xd1?'
p63
tp64
Rp65
sg6
g34
(g38
S'\xb4\xedt\xea8\x1f\x07@'
p66
tp67
Rp68
sg21
g34
(g38
S'5\xcdNE/\xa9\xd0?'
p69
tp70
Rp71
sg23
g34
(g38
S'\x9b\x08\x0c \xd4B\xc2?'
p72
tp73
Rp74
sg25
g34
(g38
S'\xf2&\xf7\x8b\x1b)\x07@'
p75
tp76
Rp77
sg26
g34
(g38
S'\x1f\x19\xf3\xd9\xa5\xb0\xbc?'
p78
tp79
Rp80
sg28
g34
(g38
S'\xc6\r\xa7\x82\xc9|\xd4?'
p81
tp82
Rp83
ssS'paralog'
p84
(lp85
S'YIR033W'
p86
aS'YKL020C'
p87
asS'alignment_file'
p88
S'../MafftAlignment/YIR033W_YKL020C/YIR033W_YKL020C_input.fasta'
p89
sS'x_clock'
p90
NsS'x'
p91
cnumpy.core.multiarray
_reconstruct
p92
(cnumpy
ndarray
p93
(I0
tp94
S'b'
p95
tp96
Rp97
(I1
(I18
tp98
g38
I00
S'w\x9b\x05\t>\x12\xe5\xbf\x1e\xb4$\xb6a\xa3\xdd\xbf\xc2\xd0H\x9d\xbd8\xee\xbf\xb3\xec\x1a\xb2\xd5E\xef?\xc3"\x1a\xee\xa8\xb0\x03\xc0\xa5\x1fM\xd3\xd0g\xff\xbf\x15H\x1a3Jb\xe0\xbf\x9c\x92\xc0\xc7\x16\x02\xf1?]\x0b~\x16A\xfb\xf0?\xf7\x00|\xc9Bn\xf3?c\xear\x986\xb6\xf9\xbf\xdb\xb5T\xf3M\xa8\xf4\xbf\xa0@VCO\x82\x01\xc0F"\xcePz\x88\xf5\xbf\x14R\xd7\x01\xea}\x00\xc0#\xad\x12\x15\xa29\xf2\xbf.\xa5\xd6\xe8\x06/\xfa\xbf\xff\xbb\x93\x06\xfa\'\xff\xbf'
p99
tp100
bsS'Model'
p101
S'MG94'
p102
sS'clock'
p103
I00
s.