(dp0
S'Force'
p1
NsS'ExpectedGeneconv'
p2
(dp3
(S'N1'
p4
S'N2'
p5
tp6
F17.811142511295976
s(S'N5'
p7
S'cerevisiae'
p8
tp9
F5.347019756639527
s(g5
S'N3'
p10
tp11
F2.4556901243079143
s(S'N4'
p12
g7
tp13
F0.4377766779797821
s(g4
S'castellii'
p14
tp15
F9.6367334130824
s(g5
S'bayanus'
p16
tp17
F8.531272406378966
s(S'N0'
p18
g4
tp19
F1.9649462212185327e-06
s(g10
S'kudriavzevii'
p20
tp21
F9.003396141313553
s(g7
S'paradoxus'
p22
tp23
F6.656129399540482
s(g18
S'kluyveri'
p24
tp25
F0.0
s(g10
g12
tp26
F1.3392788551771255
s(g12
S'mikatae'
p27
tp28
F7.739385546197249
ssS'ExpectedDwellTime'
p29
(dp30
g6
F26.906929651847324
sg9
F51.63040530697755
sg11
F43.857628953928796
sg13
F50.95964653020412
sg15
F25.624249070523348
sg17
F35.76655651288425
sg19
F0.013764915777961961
sg21
F57.56865964360621
sg23
F48.05748082738674
sg25
F0.0
sg26
F50.05750744273803
sg28
F54.470931403215005
ssS'newicktree'
p31
S'../PairsAlignemt/YeastTree.newick'
p32
sS'll'
p33
cnumpy.core.multiarray
scalar
p34
(cnumpy
dtype
p35
(S'f8'
p36
I0
I1
tp37
Rp38
(I3
S'<'
p39
NNNI-1
I-1
I0
tp40
bS'f\xf0[\x00\x00\xe7\x92\xc0'
p41
tp42
Rp43
sS'edge_list'
p44
(lp45
g19
ag25
ag6
ag15
ag11
ag17
ag26
ag21
ag13
ag28
ag9
ag23
asS'edge_to_blen'
p46
(dp47
g19
g34
(g38
S'\x94,$\xf1\x0fV\t?'
p48
tp49
Rp50
sg9
g34
(g38
S'\xe3p$\xecy\xf1\x9d?'
p51
tp52
Rp53
sg11
g34
(g38
S'\x8e\x1a+\xc2\xe2l\x9d?'
p54
tp55
Rp56
sg13
g34
(g38
S'\x9e[L\xbb\x8f\x9ao?'
p57
tp58
Rp59
sg15
g34
(g38
S'm\xf3\xf2Y\x89\xd6\xc0?'
p60
tp61
Rp62
sg17
g34
(g38
S'b\xa3!\x86\xe8\x95\xa9?'
p63
tp64
Rp65
sg6
g34
(g38
S'S]\x13\xfa\xde\x9d\xc6?'
p66
tp67
Rp68
sg21
g34
(g38
S'\xec\xb4\x9e,\xee\x89\xb3?'
p69
tp70
Rp71
sg23
g34
(g38
S'\x18\xfa\xa5\xf6z\x17\xa1?'
p72
tp73
Rp74
sg25
g34
(g38
S'\xfc\xe2x\\\x1f\x19\xb2?'
p75
tp76
Rp77
sg26
g34
(g38
S'\xcf\x7ft \xaaG\x81?'
p78
tp79
Rp80
sg28
g34
(g38
S'\xa6\x11*\xb9\xb0\xa1\xab?'
p81
tp82
Rp83
ssS'paralog'
p84
(lp85
S'YMR143W'
p86
aS'YDL083C'
p87
asS'alignment_file'
p88
S'../MafftAlignment/YMR143W_YDL083C/YMR143W_YDL083C_input.fasta'
p89
sS'x_clock'
p90
NsS'x'
p91
cnumpy.core.multiarray
_reconstruct
p92
(cnumpy
ndarray
p93
(I0
tp94
S'b'
p95
tp96
Rp97
(I1
(I18
tp98
g38
I00
S"J\x92\xd5u\x15\xf5\xe6\xbfn\x88\x1a\x84\xb3!\xdf\xbf!{\xd1\xc3\xc7\x84\xee\xbf6'\xe5\x98\xe6z\x03@1\xa2p\xed\xe9\xba\r\xc0\xba\x19.\x83$k\xf2?\xcb0\x7fA\x08\xe0#\xc0I\x98\n%\xe81\x05\xc0\xdb\xc50B\xc5\xbb\xfb\xbf\xf0\xdd\xcb\x8f$:\x00\xc0\xddgU\xf3\x9ce\x0c\xc0\xfb\xe4\xd6\xe6i\xf8\x07\xc0\xbe\xeaS\xa9\xac\x19\x13\xc0T\xea\xe3l\x0b\x95\x04\xc0\xb2\x19SK\x05;\x16\xc0\xd1(T\xc3\xdbZ\x07\xc0\x16\xd4v\xf1\xe0A\x0c\xc0\x9a^\xe7\xe5\xa52\x0b\xc0"
p99
tp100
bsS'Model'
p101
S'MG94'
p102
sS'clock'
p103
I00
s.