(dp0
S'Force'
p1
NsS'ExpectedGeneconv'
p2
(dp3
(S'N1'
p4
S'N2'
p5
tp6
F78.34997838988203
s(S'N5'
p7
S'cerevisiae'
p8
tp9
F12.022272290372618
s(g5
S'N3'
p10
tp11
F7.556731021685934
s(S'N4'
p12
g7
tp13
F3.7181064296604918
s(g4
S'castellii'
p14
tp15
F161.60401552887882
s(g5
S'bayanus'
p16
tp17
F13.728299970891547
s(S'N0'
p18
g4
tp19
F22.861300942327595
s(g10
S'kudriavzevii'
p20
tp21
F10.756208210528891
s(g7
S'paradoxus'
p22
tp23
F3.2063083434195963
s(g18
S'kluyveri'
p24
tp25
F0.0
s(g10
g12
tp26
F4.70920441189651
s(g12
S'mikatae'
p27
tp28
F11.006109174686571
ssS'ExpectedDwellTime'
p29
(dp30
g6
F330.65657606421024
sg9
F374.50892106796414
sg11
F358.5068205207635
sg13
F367.7316756927143
sg15
F343.81477865709496
sg17
F370.23477115004323
sg19
F178.05680004684825
sg21
F368.12231135069527
sg23
F374.62635828572843
sg25
F0.0
sg26
F361.6049105660333
sg28
F378.5354938226521
ssS'newicktree'
p31
S'../PairsAlignemt/YeastTree.newick'
p32
sS'll'
p33
cnumpy.core.multiarray
scalar
p34
(cnumpy
dtype
p35
(S'f8'
p36
I0
I1
tp37
Rp38
(I3
S'<'
p39
NNNI-1
I-1
I0
tp40
bS'\x13\xd7\xa7\r\xd8\x8f\xb6\xc0'
p41
tp42
Rp43
sS'edge_list'
p44
(lp45
g19
ag25
ag6
ag15
ag11
ag17
ag26
ag21
ag13
ag28
ag9
ag23
asS'edge_to_blen'
p46
(dp47
g19
g34
(g38
S'mR\x9f\xf5s\x0b\xe2?'
p48
tp49
Rp50
sg9
g34
(g38
S'o7^\x94 e\xc9?'
p51
tp52
Rp53
sg11
g34
(g38
S'\x88x\xd3\x83e\xa9\xbf?'
p54
tp55
Rp56
sg13
g34
(g38
S'\xde\xd9:\xb3H\xd6\xb4?'
p57
tp58
Rp59
sg15
g34
(g38
S'}\x02S \t\xff\x04@'
p60
tp61
Rp62
sg17
g34
(g38
S'\x97\xa6\xc2T\xa7\x9d\xce?'
p63
tp64
Rp65
sg6
g34
(g38
S'\x1d\xc1\xfc%\xdcu\xf3?'
p66
tp67
Rp68
sg21
g34
(g38
S'\\- /\xb0u\xc8?'
p69
tp70
Rp71
sg23
g34
(g38
S'e0\xdenH\x90\xb0?'
p72
tp73
Rp74
sg25
g34
(g38
S'\x9eM\xb3\xe2\xbbJ\x00@'
p75
tp76
Rp77
sg26
g34
(g38
S'\x1b\xb8\xea\x94\x02<\xb8?'
p78
tp79
Rp80
sg28
g34
(g38
S'\x06-\xc5ok\x02\xcf?'
p81
tp82
Rp83
ssS'paralog'
p84
(lp85
S'YPL232W'
p86
aS'YMR183C'
p87
asS'alignment_file'
p88
S'../MafftAlignment/YPL232W_YMR183C/YPL232W_YMR183C_input.fasta'
p89
sS'x_clock'
p90
NsS'x'
p91
cnumpy.core.multiarray
_reconstruct
p92
(cnumpy
ndarray
p93
(I0
tp94
S'b'
p95
tp96
Rp97
(I1
(I18
tp98
g38
I00
S'\x07\x01\x0c\x98$\xdd\xe3\xbf\x8evw\x0fg\xab\xe0\xbf\x90\xa1\x93\t\x87\xb9\xe9\xbf9K8\xc9\xa0\x04\xf2?d\x8d\xd1\x89\xfbq\x08\xc0\x17\\\r\xf3[\xb0\xf4\xbfw\x89c)\x0cU\xe2\xbf\x98\xb9#\xe2a\xc2\xe6?\xc3\xee\xff\xd8\xb9\x0f\xc9?z\x03\xe8\x1by\xe0\xee?\xdb\xbd\xb7_v\xb8\x00\xc0=\xa27\x84a\xe3\xf6\xbf\x80_\xd8}\xf6\xdb\x02\xc0\x81\xb2\xd5\x00\xe4z\xfa\xbf\xe2RY\x95K\x11\x04\xc0\xc4\xee3B\x0e\xaf\xf6\xbf.\xc9\xbde/\xe1\xf9\xbfJ\x11\x94\x9c\\\xe7\x05\xc0'
p99
tp100
bsS'Model'
p101
S'MG94'
p102
sS'clock'
p103
I00
s.