(dp0
S'Force'
p1
NsS'ExpectedGeneconv'
p2
(dp3
(S'N1'
p4
S'N2'
p5
tp6
F19.301134453357353
s(S'N5'
p7
S'cerevisiae'
p8
tp9
F2.0750188680233954
s(g5
S'N3'
p10
tp11
F5.359970797297744
s(S'N4'
p12
g7
tp13
F2.8881895886726254
s(g4
S'castellii'
p14
tp15
F11.805654268513381
s(g5
S'bayanus'
p16
tp17
F2.983532652990618
s(S'N0'
p18
g4
tp19
F1.1131777241065024
s(g10
S'kudriavzevii'
p20
tp21
F10.29850629129988
s(g7
S'paradoxus'
p22
tp23
F4.1132109785486834
s(g18
S'kluyveri'
p24
tp25
F0.0
s(g10
g12
tp26
F4.722791941211542
s(g12
S'mikatae'
p27
tp28
F11.829590266367644
ssS'ExpectedDwellTime'
p29
(dp30
g6
F38.62705274662819
sg9
F48.6884537482354
sg11
F45.796107628359366
sg13
F44.56388748639439
sg15
F38.34203182971046
sg17
F47.014548073422326
sg19
F10.334223618036392
sg21
F53.497476352961755
sg23
F44.6571234029188
sg25
F0.0
sg26
F45.02848658670363
sg28
F42.005833843139214
ssS'newicktree'
p31
S'../PairsAlignemt/YeastTree.newick'
p32
sS'll'
p33
cnumpy.core.multiarray
scalar
p34
(cnumpy
dtype
p35
(S'f8'
p36
I0
I1
tp37
Rp38
(I3
S'<'
p39
NNNI-1
I-1
I0
tp40
bS'\x87\xf8\x87h-\xed\x96\xc0'
p41
tp42
Rp43
sS'edge_list'
p44
(lp45
g19
ag25
ag6
ag15
ag11
ag17
ag26
ag21
ag13
ag28
ag9
ag23
asS'edge_to_blen'
p46
(dp47
g19
g34
(g38
S'\x96\xe5\xc4ok.\xa2?'
p48
tp49
Rp50
sg9
g34
(g38
S'Br\xda\xc3LX\x91?'
p51
tp52
Rp53
sg11
g34
(g38
S'\xdb\xf1l7\x96\x8e\x9c?'
p54
tp55
Rp56
sg13
g34
(g38
S'\x1b\xe2\xc4\x08^\xc7\x92?'
p57
tp58
Rp59
sg15
g34
(g38
S's\xf2\xd3XL$\xba?'
p60
tp61
Rp62
sg17
g34
(g38
S'4~\x015\xcfG\x91?'
p63
tp64
Rp65
sg6
g34
(g38
S'\xb2c\xba7\xa2\xa6\xc1?'
p66
tp67
Rp68
sg21
g34
(g38
S'\xa33\xe4\x15\xa0\x84\xb2?'
p69
tp70
Rp71
sg23
g34
(g38
S'\xc9\x8b\\{1\xa8\x93?'
p72
tp73
Rp74
sg25
g34
(g38
S'\xfc\xff\xca\x96\xbd\x88\xbe?'
p75
tp76
Rp77
sg26
g34
(g38
S'8G\x8f\xafx6\x95?'
p78
tp79
Rp80
sg28
g34
(g38
S'\xa8\x1aC\xfeL3\xac?'
p81
tp82
Rp83
ssS'paralog'
p84
(lp85
S'YBR191W'
p86
aS'YPL079W'
p87
asS'alignment_file'
p88
S'../MafftAlignment/YBR191W_YPL079W/YBR191W_YPL079W_input.fasta'
p89
sS'x_clock'
p90
NsS'x'
p91
cnumpy.core.multiarray
_reconstruct
p92
(cnumpy
ndarray
p93
(I0
tp94
S'b'
p95
tp96
Rp97
(I1
(I18
tp98
g38
I00
S'\xcf\xaf\xa4(\xd0\xa9\xe6\xbf+Q\xf5&\r\xa7\xdf\xbf\xb4jM\x00\xb4\xa4\xeb\xbf\x18\xb9(\xcf\x00\xcd\x00@f\xe6\xd5\xb6\xee\x04\x03\xc0A\xbf\xaf\xb4P~\xf5?\xc9\xd5\x10i\x14\xb4\n\xc0A\x00\xfdR\xba\x02\x01\xc0\xbeJ\xf1\x9d+\xb3\xff\xbfhj\x99\xa8\xcd@\x02\xc0\x97\xfa:\xd2\xf5\xa2\x0c\xc0\x9e["\xb4\xdbS\x10\xc0j\xee\x9da\xd3\x03\x0f\xc0\xf6~\xf8\x05\xee\x02\x05\xc0\x87S]\xb0m\xfd\x0f\xc0\xe9&\x90\xfb 1\x07\xc0u\x93&V\x0cP\x10\xc0\x99\'\x80h\xd2\x9f\x0f\xc0'
p99
tp100
bsS'Model'
p101
S'MG94'
p102
sS'clock'
p103
I00
s.