(dp0
S'Force'
p1
NsS'ExpectedGeneconv'
p2
(dp3
(S'N1'
p4
S'N2'
p5
tp6
F66.21760877892142
s(S'N5'
p7
S'cerevisiae'
p8
tp9
F5.255864321509985
s(g5
S'N3'
p10
tp11
F5.944862586274407
s(S'N4'
p12
g7
tp13
F2.842052699852414
s(g4
S'castellii'
p14
tp15
F87.74613384329515
s(g5
S'bayanus'
p16
tp17
F8.462010941472373
s(S'N0'
p18
g4
tp19
F3.809554645014067
s(g10
S'kudriavzevii'
p20
tp21
F6.921252906346497
s(g7
S'paradoxus'
p22
tp23
F9.122456720719113
s(g18
S'kluyveri'
p24
tp25
F0.0
s(g10
g12
tp26
F2.0656663800021797
s(g12
S'mikatae'
p27
tp28
F5.9920783541658365
ssS'ExpectedDwellTime'
p29
(dp30
g6
F912.9655840172178
sg9
F1073.8479735300446
sg11
F1058.3223843101446
sg13
F1074.8315684171964
sg15
F940.4380625931796
sg17
F1058.425650978422
sg19
F276.9168497470532
sg21
F1073.959282465711
sg23
F1097.281622475676
sg25
F0.0
sg26
F1067.527422927692
sg28
F1079.0220667188103
ssS'newicktree'
p31
S'../PairsAlignemt/YeastTree.newick'
p32
sS'll'
p33
cnumpy.core.multiarray
scalar
p34
(cnumpy
dtype
p35
(S'f8'
p36
I0
I1
tp37
Rp38
(I3
S'<'
p39
NNNI-1
I-1
I0
tp40
bS'\x07A\x82\xb0\x1e\x17\xd2\xc0'
p41
tp42
Rp43
sS'edge_list'
p44
(lp45
g19
ag25
ag6
ag15
ag11
ag17
ag26
ag21
ag13
ag28
ag9
ag23
asS'edge_to_blen'
p46
(dp47
g19
g34
(g38
S'\x1cM]:\x96t\xd1?'
p48
tp49
Rp50
sg9
g34
(g38
S'\xf2\x01\xfd(\xf7n\xc8?'
p51
tp52
Rp53
sg11
g34
(g38
S'\xb5\x9bY{\xa1\xf1\xcc?'
p54
tp55
Rp56
sg13
g34
(g38
S'+\xc0\x96z#\xfd\xbe?'
p57
tp58
Rp59
sg15
g34
(g38
S'\xa5?i\x08\xdb\x8f\x06@'
p60
tp61
Rp62
sg17
g34
(g38
S'\xd4\x9c\xcb\x15\x85u\xd5?'
p63
tp64
Rp65
sg6
g34
(g38
S'<\xf0\xe9\xddU"\x01@'
p66
tp67
Rp68
sg21
g34
(g38
S'\xfd\xdf\xb9\xba&\xba\xd5?'
p69
tp70
Rp71
sg23
g34
(g38
S'O\x8f\xa8\xc5\xae\r\xd6?'
p72
tp73
Rp74
sg25
g34
(g38
S'\x8c\xe9T\xc4\xd5\x14\r@'
p75
tp76
Rp77
sg26
g34
(g38
S'\xb63Zz\x8b\x97\xbb?'
p78
tp79
Rp80
sg28
g34
(g38
S'\xa9]\x12MJ\x15\xd2?'
p81
tp82
Rp83
ssS'paralog'
p84
(lp85
S'YAL056W'
p86
aS'YOR371C'
p87
asS'alignment_file'
p88
S'../MafftAlignment/YAL056W_YOR371C/YAL056W_YOR371C_input.fasta'
p89
sS'x_clock'
p90
NsS'x'
p91
cnumpy.core.multiarray
_reconstruct
p92
(cnumpy
ndarray
p93
(I0
tp94
S'b'
p95
tp96
Rp97
(I1
(I18
tp98
g38
I00
S'q\x06\xdb\x9f\r\r\xe4\xbf\x11\\\x97x#\xb0\xdd\xbfk\xc2\xef\x1fV\x01\xf0\xbfn?\xd9\x88\xb5z\xed?(4\xc5\xa6\x04\xd4\x00\xc0\x8e\xb3r5\xbfa\x05\xc0zH|\x94\xa8\xc9\xf4\xbf\x1cU\x99\xbe\x87\xa6\xf4?\xb3\xfe5\xbfF_\xe8?\xdd\x08\x8cd\xd3\x96\xf0?\x99\xfd>ch\xc9\xf7\xbfR{\xf8\xcd\xd8{\xf1\xbf\xeajz\x84;\xd2\x01\xc0\x84\xe6\x92\xee\xfdH\xf1\xbfr\xd2\xc4\xc7t\xe4\x00\xc0\xe7\xf9&\xfa\xf08\xf4\xbf\xa0\xdc\x98dJ\x7f\xfa\xbf`\xe2\xe0\xac\xef\x0b\xf1\xbf'
p99
tp100
bsS'Model'
p101
S'MG94'
p102
sS'clock'
p103
I00
s.