(dp0
S'Force'
p1
NsS'ExpectedGeneconv'
p2
(dp3
(S'N1'
p4
S'N2'
p5
tp6
F265.1047157200746
s(S'N5'
p7
S'cerevisiae'
p8
tp9
F115.8782953669992
s(g5
S'N3'
p10
tp11
F68.67713141080523
s(S'N4'
p12
g7
tp13
F57.281179163410144
s(g4
S'castellii'
p14
tp15
F439.7715776797505
s(g5
S'bayanus'
p16
tp17
F160.10351174513633
s(S'N0'
p18
g4
tp19
F30.782698057968407
s(g10
S'kudriavzevii'
p20
tp21
F142.22226401130553
s(g7
S'paradoxus'
p22
tp23
F60.63543776104637
s(g18
S'kluyveri'
p24
tp25
F0.0
s(g10
g12
tp26
F77.0481180971107
s(g12
S'mikatae'
p27
tp28
F142.6655004786472
ssS'ExpectedDwellTime'
p29
(dp30
g6
F665.4780341049081
sg9
F846.3943685092754
sg11
F794.2437168496322
sg13
F860.6555158440177
sg15
F788.199497938175
sg17
F791.2244642216119
sg19
F242.8692177433765
sg21
F875.9490308243729
sg23
F899.5803322132911
sg25
F0.0
sg26
F834.4036886821145
sg28
F892.8978730464896
ssS'newicktree'
p31
S'../PairsAlignemt/YeastTree.newick'
p32
sS'll'
p33
cnumpy.core.multiarray
scalar
p34
(cnumpy
dtype
p35
(S'f8'
p36
I0
I1
tp37
Rp38
(I3
S'<'
p39
NNNI-1
I-1
I0
tp40
bS'\xd3[YFOl\xd2\xc0'
p41
tp42
Rp43
sS'edge_list'
p44
(lp45
g19
ag25
ag6
ag15
ag11
ag17
ag26
ag21
ag13
ag28
ag9
ag23
asS'edge_to_blen'
p46
(dp47
g19
g34
(g38
S'\xe8\xc4C\xfeYB\xc1?'
p48
tp49
Rp50
sg9
g34
(g38
S"'\x81mp\x94f\xc1?"
p51
tp52
Rp53
sg11
g34
(g38
S'@\x1f\x1ag\xad\xfd\xb7?'
p54
tp55
Rp56
sg13
g34
(g38
S'\x90{^\x05\x01]\xb3?'
p57
tp58
Rp59
sg15
g34
(g38
S'\x17\x1b\xd6\x8dH\x15\xe6?'
p60
tp61
Rp62
sg17
g34
(g38
S"\x0e'v@[\x03\xca?"
p63
tp64
Rp65
sg6
g34
(g38
S'\xdc65\xd8\xc5@\xd9?'
p66
tp67
Rp68
sg21
g34
(g38
S'Gz\xf0@\xf3\xc9\xc9?'
p69
tp70
Rp71
sg23
g34
(g38
S'\xa0f\x85cr\xef\xb7?'
p72
tp73
Rp74
sg25
g34
(g38
S'"\x8c\x82>\xb9%\xe9?'
p75
tp76
Rp77
sg26
g34
(g38
S'e\x1cM\xfcJb\xba?'
p78
tp79
Rp80
sg28
g34
(g38
S'm5\x1dK\x08\x9b\xc9?'
p81
tp82
Rp83
ssS'paralog'
p84
(lp85
S'YGL062W'
p86
aS'YBR218C'
p87
asS'alignment_file'
p88
S'../MafftAlignment/YGL062W_YBR218C/YGL062W_YBR218C_input.fasta'
p89
sS'x_clock'
p90
NsS'x'
p91
cnumpy.core.multiarray
_reconstruct
p92
(cnumpy
ndarray
p93
(I0
tp94
S'b'
p95
tp96
Rp97
(I1
(I18
tp98
g38
I00
S'9\xd9\\\x98Y\x84\xe7\xbfRN\x1d\xc5\xa8\xe3\xe0\xbf\xfc\xc0\x9fw\xa0\xc9\xed\xbf?<\x17\xa52\'\xf4?\x9cM"J\xf8d\x08\xc0\xc5Q\xf2\x17\xf8E\xb5?NA#f\x8c\x07\x00\xc0\x0fV\x9c|\x88\xd8\xce\xbf1M\xf6\x06\x0c\xc2\xed\xbf\xac\xfe\xd0\xc4-\xbd\xd7\xbfN^\xf1\xbd\xa4\xf0\x02\xc0\xba\x11u\x03\xb0~\xf9\xbf!:\xa9:\xeb-\x02\xc0\xde\xa2\rU&\xa2\xf9\xbf\x87-O\xc1\x85\xa7\x04\xc0\xc8vd\xcf\\\xbf\xf9\xbfJS\x8e\x0c\xa6\xed\xff\xbfZ\xba\xe0\xf2d\xf5\x02\xc0'
p99
tp100
bsS'Model'
p101
S'MG94'
p102
sS'clock'
p103
I00
s.