(dp0
S'Force'
p1
NsS'ExpectedGeneconv'
p2
(dp3
(S'N1'
p4
S'N2'
p5
tp6
F17.911003138355678
s(S'N5'
p7
S'cerevisiae'
p8
tp9
F4.029393243515314
s(g5
S'N3'
p10
tp11
F6.621075474192011
s(S'N4'
p12
g7
tp13
F12.85272836173312
s(g4
S'castellii'
p14
tp15
F40.866230368167635
s(g5
S'bayanus'
p16
tp17
F21.10101715675333
s(S'N0'
p18
g4
tp19
F3.0979743209243362
s(g10
S'kudriavzevii'
p20
tp21
F14.582574535182513
s(g7
S'paradoxus'
p22
tp23
F5.492259038627951
s(g18
S'kluyveri'
p24
tp25
F0.0
s(g10
g12
tp26
F6.192871556187107
s(g12
S'mikatae'
p27
tp28
F6.447688727258338
ssS'ExpectedDwellTime'
p29
(dp30
g6
F46.87179905286872
sg9
F26.084009051926966
sg11
F56.68694775589837
sg13
F39.97703962215807
sg15
F55.023696823516964
sg17
F55.56026123325598
sg19
F17.50931232640779
sg21
F74.92001337465952
sg23
F32.64012513857461
sg25
F0.0
sg26
F54.76773184320494
sg28
F56.91647238868923
ssS'newicktree'
p31
S'../PairsAlignemt/YeastTree.newick'
p32
sS'll'
p33
cnumpy.core.multiarray
scalar
p34
(cnumpy
dtype
p35
(S'f8'
p36
I0
I1
tp37
Rp38
(I3
S'<'
p39
NNNI-1
I-1
I0
tp40
bS'=\x99\x92\x9a\xe9\x15\xa0\xc0'
p41
tp42
Rp43
sS'edge_list'
p44
(lp45
g19
ag25
ag6
ag15
ag11
ag17
ag26
ag21
ag13
ag28
ag9
ag23
asS'edge_to_blen'
p46
(dp47
g19
g34
(g38
S'\xaa\xc3;w\xbd\x90\xaa?'
p48
tp49
Rp50
sg9
g34
(g38
S'7o\x9e\xe4i\xdb\x85?'
p51
tp52
Rp53
sg11
g34
(g38
S'Vt+\xc9\xdd\xc0\x9a?'
p54
tp55
Rp56
sg13
g34
(g38
S'\xe2K\x11\x94f9\x9f?'
p57
tp58
Rp59
sg15
g34
(g38
S'\xb39\xdc\xfb\xbf\x8d\xc9?'
p60
tp61
Rp62
sg17
g34
(g38
S'\xb7\x07\x1a\xa5\x05C\xb2?'
p63
tp64
Rp65
sg6
g34
(g38
S'\xe5\xa2\x95\xebb\x19\xb7?'
p66
tp67
Rp68
sg21
g34
(g38
S'\x81\x19f\xea\x83m\xb5?'
p69
tp70
Rp71
sg23
g34
(g38
S'\t\x0e\xc0O\xa0<\x9c?'
p72
tp73
Rp74
sg25
g34
(g38
S'\xc7N\x8bjTf\xc7?'
p75
tp76
Rp77
sg26
g34
(g38
S'\x9a\xb5]\xcf^\xd1\x91?'
p78
tp79
Rp80
sg28
g34
(g38
S'y\xc5\xf0h\x84\xb2\x9e?'
p81
tp82
Rp83
ssS'paralog'
p84
(lp85
S'YER102W'
p86
aS'YBL072C'
p87
asS'alignment_file'
p88
S'../MafftAlignment/YER102W_YBL072C/YER102W_YBL072C_input.fasta'
p89
sS'x_clock'
p90
NsS'x'
p91
cnumpy.core.multiarray
_reconstruct
p92
(cnumpy
ndarray
p93
(I0
tp94
S'b'
p95
tp96
Rp97
(I1
(I18
tp98
g38
I00
S'\x05\xe8&x\xbfO\xe6\xbfn\xedM\xf0\xbb\xf4\xe0\xbf\x1b\xddy\x13\x92U\xeb\xbfG\x8a\xec\xf82l\xff?jh\xe2d\x1e\xa0\xfa\xbf\xa7\xd6\xe0\xe7\x1bR\xf9?wQ\x88\xf3r\xab\x07\xc0\nw\x90t[0\xfb\xbf;z\x9d]8>\x03\xc0.\xb6\xde\xb1\xab\xc7\xf9\xbf\xc2\x7fl\x94\x92(\r\xc0\xd7\xf6q\x11x\x1f\x05\xc0\x8b\xdaOZ\x804\x10\xc0\xd3M\xc8d\n\xd8\x03\xc0\xf6\xa5\xaa\xb4\x16\xec\x0b\xc0\x14r\xa38\xf1\x0e\x0c\xc0,\x19\xd7^\x0e)\x12\xc0\x91n\xbb\xec\x0c\xba\x0c\xc0'
p99
tp100
bsS'Model'
p101
S'MG94'
p102
sS'clock'
p103
I00
s.