(dp0
(S'N0'
p1
S'N1'
p2
tp3
cnumpy.core.multiarray
scalar
p4
(cnumpy
dtype
p5
(S'f8'
p6
I0
I1
tp7
Rp8
(I3
S'<'
p9
NNNI-1
I-1
I0
tp10
bS'\x8cmUa\xb0\x19\xa9?'
p11
tp12
Rp13
s(S'N5'
p14
S'cerevisiae'
p15
tp16
g4
(g8
S'\x8f\xf8\xb3\x17\xf6\xc4\xb0?'
p17
tp18
Rp19
s(S'N2'
p20
S'N3'
p21
tp22
g4
(g8
S'\xa9\xa0!\x1e_\x9e\xa9?'
p23
tp24
Rp25
s(S'N4'
p26
g14
tp27
g4
(g8
S'\x9cB\xc8\xc8\x97\x13\xa9?'
p28
tp29
Rp30
s(g21
S'kudriavzevii'
p31
tp32
g4
(g8
S'\x88[\xe2>5#\xbd?'
p33
tp34
Rp35
s(g20
S'bayanus'
p36
tp37
g4
(g8
S'w\xc0\x85\xc0\xc7\x10\xba?'
p38
tp39
Rp40
s(g2
g20
tp41
g4
(g8
S'\xda\x9a\xe9L\xf9\xe4\xb7?'
p42
tp43
Rp44
s(g2
S'castellii'
p45
tp46
g4
(g8
S'{\xfc\x1a\xac?\xf4\xd2?'
p47
tp48
Rp49
s(g14
S'paradoxus'
p50
tp51
g4
(g8
S'\xe8\xf41l\xd10\xb0?'
p52
tp53
Rp54
s(g26
S'mikatae'
p55
tp56
g4
(g8
S'E:\xa7\x153\x1a\xbf?'
p57
tp58
Rp59
s(g21
g26
tp60
g4
(g8
S's\xe3\x98\xe4\x1e\xed\xa9?'
p61
tp62
Rp63
s(g1
S'kluyveri'
p64
tp65
g4
(g8
S'G\x13\x07bS\xb1\xbb?'
p66
tp67
Rp68
s.