(dp0
(S'N0'
p1
S'N1'
p2
tp3
cnumpy.core.multiarray
scalar
p4
(cnumpy
dtype
p5
(S'f8'
p6
I0
I1
tp7
Rp8
(I3
S'<'
p9
NNNI-1
I-1
I0
tp10
bS'bC9}\xb0\xd8\xc5?'
p11
tp12
Rp13
s(S'N5'
p14
S'cerevisiae'
p15
tp16
g4
(g8
S'\xc4\xa3c\xc9\xe3\xe2\xbc?'
p17
tp18
Rp19
s(S'N2'
p20
S'N3'
p21
tp22
g4
(g8
S'6y\xfc\xa7SJ\x97?'
p23
tp24
Rp25
s(S'root'
p26
S'kluyveri'
p27
tp28
g4
(g8
S'\xadS\xd8\xdc\xab\xd3\xd1?'
p29
tp30
Rp31
s(S'N4'
p32
g14
tp33
g4
(g8
S'\x16\xb8\xf8\x9fD\x03\xb2?'
p34
tp35
Rp36
s(g2
S'castellii'
p37
tp38
g4
(g8
S'~]n\x82\x99\xba\xe4?'
p39
tp40
Rp41
s(g20
S'bayanus'
p42
tp43
g4
(g8
S'\xe6\xa9:\x17\xe9\x7f\xd0?'
p44
tp45
Rp46
s(g2
g20
tp47
g4
(g8
S'\x95C\xef\x0c\xd2t\xd6?'
p48
tp49
Rp50
s(g21
S'kudriavzevii'
p51
tp52
g4
(g8
S'\xa0V\x0c\xae\xbdJ\xc4?'
p53
tp54
Rp55
s(g14
S'paradoxus'
p56
tp57
g4
(g8
S'9Y\x1d\xca\xa3\xf9\xb8?'
p58
tp59
Rp60
s(g32
S'mikatae'
p61
tp62
g4
(g8
S'i%\xfd\xf6\x0c\xa6\xc4?'
p63
tp64
Rp65
s(g21
g32
tp66
g4
(g8
S'\xbdVFE\xb29\xaf?'
p67
tp68
Rp69
s(g26
S'N0'
p70
tp71
g4
(g8
S'\x00\x00\x00\x00\x00\x00\x00\x00'
p72
tp73
Rp74
s.