(iCodonBased2Repeats
Codon2RepeatsPhy
p0
(dp1
S'nbranch'
p2
I12
sS'Tao'
p3
cnumpy.core.multiarray
scalar
p4
(cnumpy
dtype
p5
(S'f8'
p6
I0
I1
tp7
Rp8
(I3
S'<'
p9
NNNI-1
I-1
I0
tp10
bS'\x0e\x96F]\xc4\xa5&@'
p11
tp12
Rp13
sS'SpecAfterDupli_node'
p14
S'N1'
p15
sS'tree_phy'
p16
ccopy_reg
_reconstructor
p17
(cBio.Phylo.PhyloXML
Phylogeny
p18
c__builtin__
object
p19
Ntp20
Rp21
(dp22
S'confidences'
p23
(lp24
sS'rerootable'
p25
NsS'clade_relations'
p26
(lp27
sS'rooted'
p28
S'True'
p29
sS'type'
p30
NsS'description'
p31
NsS'properties'
p32
(lp33
sS'branch_length_unit'
p34
NsS'other'
p35
(lp36
sS'date'
p37
NsS'sequence_relations'
p38
(lp39
sS'root'
p40
g17
(cBio.Phylo.PhyloXML
Clade
p41
g19
Ntp42
Rp43
(dp44
g23
(lp45
sS'branch_length'
p46
F1.0
sS'taxonomies'
p47
(lp48
sS'name'
p49
S'N0'
p50
sS'clades'
p51
(lp52
g17
(g41
g19
Ntp53
Rp54
(dp55
g23
(lp56
sg46
F1.0
sg47
(lp57
sg49
S'N1'
p58
sg51
(lp59
g17
(g41
g19
Ntp60
Rp61
(dp62
g23
(lp63
sg46
F1.0
sg47
(lp64
sg49
S'N2'
p65
sg51
(lp66
g17
(g41
g19
Ntp67
Rp68
(dp69
g23
(lp70
sg46
F1.0
sg47
(lp71
sg49
S'N3'
p72
sg51
(lp73
g17
(g41
g19
Ntp74
Rp75
(dp76
g23
(lp77
sg46
F1.0
sg47
(lp78
sg49
S'N4'
p79
sg51
(lp80
g17
(g41
g19
Ntp81
Rp82
(dp83
g23
(lp84
sg46
F1.0
sg47
(lp85
sg49
S'N5'
p86
sg51
(lp87
g17
(g41
g19
Ntp88
Rp89
(dp90
g23
(lp91
sg46
F1.0
sg47
(lp92
sg49
S'cerevisiae'
p93
sg51
(lp94
sg32
(lp95
sS'id_source'
p96
NsS'width'
p97
NsS'node_id'
p98
NsS'references'
p99
(lp100
sS'_color'
p101
NsS'sequences'
p102
(lp103
S'ATGCCTCCAAAGCAACAATTGTCTAAAGCTGCCAAAGCCGCTGCCGCTCTTGCTGGTGGTAAGAAGTCCAAGAAGAAGTGGTCCAAAAAGTCCATGAAGGACAGAGCTCAACACGCTGTTATTTTGGATCAAGAAAAATACGACAGAATCTTGAAGGAGGTTCCAACTTACAGATACGTCTCTGTTTCCGTTTTGGTTGATAGATTAAAGATTGGTGGTTCTCTTGCCAGAATTGCTTTGAGGCACTTGGAAAAGGAAGGTATCATCAAGCCAATCTCGAAGCATTCCAAGCAAGCTATCTATACCAGAGCTGCTGCTTCCGAA'
p104
aS'ATGCCTCCAAAGCAACAATTATCTAAAGCTGCCAAAGCCGCTGCTGCCCTTGCTGGTGGTAAGAAGTCTAAGAAGAAGTGGTCCAAAAAGTCCATGAAAGACAGAGCTCAACACGCTGTCATTTTAGACCAAGAGAAGTACGACAGAATCTTGAAGGAAGTTCCAACTTACAGATACGTTTCTGTCTCTGTTTTGGTCGACAGATTAAAGATTGGTGGTTCTTTAGCTAGAATTGCTTTGAGACACTTGGAAAAGGAAGGTATCATCAAGCCAATCTCCAAGCACTCCAAGCAAGCTATCTACACCAGAGCTACTGCTTCTGAA'
p105
asg37
Nsg35
(lp106
sS'binary_characters'
p107
NsS'distributions'
p108
(lp109
sS'events'
p110
Nsbag17
(g41
g19
Ntp111
Rp112
(dp113
g23
(lp114
sg46
F1.0
sg47
(lp115
sg49
S'paradoxus'
p116
sg51
(lp117
sg32
(lp118
sg96
Nsg97
Nsg98
Nsg99
(lp119
sg101
Nsg102
(lp120
S'ATGCCTCCAAAGCAACAATTGTCCAAAGCTGCCAAAGCCGCTGCCGCTCTTGCTGGTGGTAAGAAGTCCAAGAAGAAGTGGTCAAAAAAGTCCATGAAGGACAGAGCTCAACATGCCGTTATTTTGGATCAAGAAAAATACGACAGAATCTTGAAAGAGGTTCCAACTTACAGATACGTCTCTGTCTCCGTTTTGGTCGATAGATTAAAGATTGGTGGTTCTCTAGCCAGAATCGCTTTGAGGCATTTGGAAAAGGAAGGTATCATCAAGCCAATCTCGAAGCATTCTAAGCAAGCTATCTACACCAGAGCTGGTGCTTCCGAA'
p121
aS'ATGCCTCCAAAGCAACAATTATCTAAAGCTGCCAAAGCCGCTGCCGCCCTTGCTGGTGGTAAGAAGTCTAAGAAGAAGTGGTCCAAAAAGTCCATGAAAGACAGAGCTCAACACGCTGTCATCTTAGACCAAGAAAAATACGACAGGATCTTGAAGGAGGTCCCAACTTACAGATACGTCTCTGTCTCTGTTTTGGTCGATAGATTAAAGATCGGTGGTTCTTTAGCTAGAATTGCTTTGAGACACTTGGAAAAAGAAGGTATCATCAAGCCAATCTCCAAGCACTCCAAGCAAGCTATCTACACCAGAGCTACTGCTTCTGAA'
p122
asg37
Nsg35
(lp123
sg107
Nsg108
(lp124
sg110
Nsbasg32
(lp125
sg96
Nsg97
Nsg98
Nsg99
(lp126
sg101
Nsg102
(lp127
sg37
Nsg35
(lp128
sg107
Nsg108
(lp129
sg110
Nsbag17
(g41
g19
Ntp130
Rp131
(dp132
g23
(lp133
sg46
F1.0
sg47
(lp134
sg49
S'mikatae'
p135
sg51
(lp136
sg32
(lp137
sg96
Nsg97
Nsg98
Nsg99
(lp138
sg101
Nsg102
(lp139
S'ATGCCTCCAAAGCAACAATTGTCCAAAGCTGCTAAAGCTGCTGCCGCTCTTGCTGGTGGTAAGAAGTCTAAGAAGAAGTGGTCCAAAAAGTCCATGAAAGACAGAGCTCAACATGCTGTTATTTTGGACCAAGAAAAGTACGATAGAATCTTGAAGGAAGTTCCAACTTACAGATACGTCTCTGTCTCCGTTTTGGTCGATAGATTAAAGATTGGTGGTTCTTTAGCCAGAATTGCTTTGAGACACTTGGAAAAGGAGGGTATCATCAAGCCAATCTCCAAGCATTCCAAGCAAGCTATCTACACCAGAGCTGCTGCTACTGAA'
p140
aS'ATGCCTCCAAAGCAACAATTATCTAAAGCTGCCAAAGCCGCTGCTGCCCTTGCTGGTGGTAAGAAATCTAAGAAGAAGTGGTCCAAAAAGTCCATGAAAGACAGAGCTCAACATGCTGTCATCTTAGACCAAGAAAAATACGACAGGATCTTGAAGGAAGTTCCAACTTACAGATATGTCTCTGTCTCTGTTTTGGTCGATAGATTAAAGATCGGTGGTTCTTTGGCTAGAATTGCTTTGAGACACTTGGAAAAGGAAGGTATCATTAAGCCAATCTCCAAGCACTCTAAGCAAGCTATCTACACCAGAGCTACTGCTTCTGAA'
p141
asg37
Nsg35
(lp142
sg107
Nsg108
(lp143
sg110
Nsbasg32
(lp144
sg96
Nsg97
Nsg98
Nsg99
(lp145
sg101
Nsg102
(lp146
sg37
Nsg35
(lp147
sg107
Nsg108
(lp148
sg110
Nsbag17
(g41
g19
Ntp149
Rp150
(dp151
g23
(lp152
sg46
F1.0
sg47
(lp153
sg49
S'kudriavzevii'
p154
sg51
(lp155
sg32
(lp156
sg96
Nsg97
Nsg98
Nsg99
(lp157
sg101
Nsg102
(lp158
S'ATGCCTCCAAAGCAACAATTGTCCAAAGCTGCCAAAGCCGCTGCCGCTCTTGCTGGTGGTAAGAAGTCTAAAAAGAAGTGGTCCAAGAAGTCCATGAAAGACAGAGCTCAACATGCTGTCATCTTGGATCAAGAAAAATACGACAGAATCTTGAAGGAAGTCCCAACTTATAGATATGTTTCTGTCTCCGTTTTGGTCGACAGATTAAAGATTGGTGGTTCTCTAGCTAGAATTGCCTTGAGACACTTGGAAAAAGAAGGTATCATCAAGCCAATCTCCAAACACTCCAAGCAAGCTATCTACACCAGAGCTGCTGCTTCTGAA'
p159
aS'ATGCCTCCAAAGCAACAATTATCTAAAGCTGCCAAAGCCGCTGCCGCCCTTGCTGGTGGTAAGAAATCTAAGAAGAAGTGGTCCAAAAAGTCCATGAAGGACAGAGCTCAACACGCTGTCATCTTAGACCAAGAAAAATACGACAGAATCTTGAAAGAAGTTCCAACTTACAGATACGTCTCTGTCTCTGTTTTGGTCGATAGATTAAAGATCGGTGGTTCTTTAGCTAGAATTGCTTTGAGACATTTGGAAAAGGAAGGTATCATCAAGCCAATCTCCAAGCACTCCAAGCAAGCTATCTACACTAGAGCTACTGCTTCTGAA'
p160
asg37
Nsg35
(lp161
sg107
Nsg108
(lp162
sg110
Nsbasg32
(lp163
sg96
Nsg97
Nsg98
Nsg99
(lp164
sg101
Nsg102
(lp165
sg37
Nsg35
(lp166
sg107
Nsg108
(lp167
sg110
Nsbag17
(g41
g19
Ntp168
Rp169
(dp170
g23
(lp171
sg46
F1.0
sg47
(lp172
sg49
S'bayanus'
p173
sg51
(lp174
sg32
(lp175
sg96
Nsg97
Nsg98
Nsg99
(lp176
sg101
Nsg102
(lp177
S'ATGCCTCCAAAGCAACAATTGTCCAAAGCTGCCAAAGCCGCTGCCGCTCTTGCTGGTGGTAAGAAGTCTAAGAAGAAGTGGTCCAAGAAGTCCATGAAAGACAGAGCTCAACACGCTGTCATCTTAGACCAAGAAAAATACGACAGAATCTTGAAGGAAGTCCCAACTTACAGATACGTCTCTGTCTCCGTTTTAGTCGATAGATTAAAGATCGGTGGTTCTTTAGCTAGAATTGCTTTGAGACACTTGGAAAAGGAAGGCATTATCAAGCCAATCTCCAAGCACTCCAAGCAGGCTATCTACACCAGAGCTGTTGCCTCTGAA'
p178
aS'ATGCCTCCAAAGCAACAATTATCTAAAGCTGCCAAAGCCGCTGCCGCTCTTGCTGGTGGTAAGAAGTCTAAGAAGAAGTGGTCCAAGAAGTCCATGAAAGACAGAGCTCAACACGCTGTCATCTTAGACCAAGAAAAATACGACAGAATCTTGAAGGAAGTCCCAACTTACAGATACGTCTCTGTCTCTGTTTTGGTCGATAGATTAAAGATTGGTGGTTCTTTAGCTAGAATTGCTTTGAGACACTTGGAAAAGGAAGGTATCATCAAGCCAATCTCCAAGCACTCCAAGCAAGCTATCTACACCAGAGCTACTGCTTCTGAA'
p179
asg37
Nsg35
(lp180
sg107
Nsg108
(lp181
sg110
Nsbasg32
(lp182
sg96
Nsg97
Nsg98
Nsg99
(lp183
sg101
Nsg102
(lp184
sg37
Nsg35
(lp185
sg107
Nsg108
(lp186
sg110
Nsbag17
(g41
g19
Ntp187
Rp188
(dp189
g23
(lp190
sg46
F1.0
sg47
(lp191
sg49
S'castellii'
p192
sg51
(lp193
sg32
(lp194
sg96
Nsg97
Nsg98
Nsg99
(lp195
sg101
Nsg102
(lp196
S'ATGCCTCCAAAGCAACAATTATCTAAAGCTGCCAAAGCTGCTGCCGCCATGGCTGGTGGTAAGAAGTCTAAGAAGAAGTGGTCCAAGAACAACCACAAGGACAAGGCTGCTCACGCCGTCATCTTAGACCAAGAAAAATTGGACAGAATCATGAAGGAAGTTCCAACTTACAGATATGTTTCCGTCTCTGTTTTGGTTGATAGATTAAAGATTGGTGGTTCTATGGCTAGAGTTGCTTTGAGAGATTTGGAAAAGCAAGGTATCATTGTCCCTGTTTCCAAGCACTCTAAGCAAGCTATCTACACTAGAGCTGTTAACACTGAA'
p197
aS'ATGCCTCCAAAGCAACAATTATCCAAAGCTGCCAAGGCCGCTGCCGCTATGGCTGGTGGTAAGAAGTCCAAGAAGAAGTGGTCCAAGAACAACCATAAGGACAAGGCTGCTCACGCTGTCATCTTAGACCAAGAAAAGTTGGACAGAATCATGAAGGAAGTCCCAACTTACAGATACGTCTCCGTTTCCGTTTTGGTTGACAGATTAAAGATTGGTGGTTCCATGGCCAGAGTTGCTCTAAGAGATTTGGAAAAGCAAGGTATCATTGTACCTGTCTCCAAGCACTCCAAGCAAGCCATTTACACTAGAGCTGTCTCTTCTGAT'
p198
asg37
Nsg35
(lp199
sg107
Nsg108
(lp200
sg110
Nsbasg32
(lp201
sg96
Nsg97
Nsg98
Nsg99
(lp202
sg101
Nsg102
(lp203
sg37
Nsg35
(lp204
sg107
Nsg108
(lp205
sg110
Nsbag17
(g41
g19
Ntp206
Rp207
(dp208
g23
(lp209
sg46
F1.0
sg47
(lp210
sg49
S'kluyveri'
p211
sg51
(lp212
sg32
(lp213
sg96
Nsg97
Nsg98
Nsg99
(lp214
sg101
Nsg102
(lp215
S'ATGCCACCAAAACAACAATTGTCTAAAGCCGCTAAAGCCGCTGCTGCCCTTGCCGGTGGTAAGAAGTCCAAGAAGAAGTGGTCCAAGAAGTCCCACAAGGACAAGGCCCAACACGCCGTTGTTTTGGAACAAGAAAAGTTGGACAGAATCTACAAGGAAGTCCCAACCTACAGATACGTTTCTGTCTCCGTTTTGGTTGACAGATTAAAGATCGGTGGTTCCATGGCCAGAGTTGCTTTGAGACAATTGGAAAGAGATGGTATTATCAAGCCAGTCAGTAAGCACTCTAAGCAAGCTATCTACACCAGAGCTACTGCTTCTGAA'
p216
asg37
Nsg35
(lp217
sg107
Nsg108
(lp218
sg110
Nsbasg32
(lp219
sg96
Nsg97
Nsg98
Nsg99
(lp220
sg101
Nsg102
(lp221
sg37
Nsg35
(lp222
sg107
Nsg108
(lp223
sg110
NsbsS'id'
p224
Nsg49
NsbsS'para'
p225
cnumpy.core.multiarray
_reconstruct
p226
(cnumpy
ndarray
p227
(I0
tp228
S'b'
p229
tp230
Rp231
(I1
(I4
tp232
g8
I00
S'D\x87)\xd3\x1f\xa8\xde?\xbb\x07\x98\xf7\x1fD\xe3?\x9f\xfcA\xa9\x97"\xdd?\x1b\x82\x03%\xcd\xfd\x1d@'
p233
tp234
bsS'err'
p235
F1e-10
sS'newicktree'
p236
S'../YeastTree.newick'
p237
sS'models'
p238
(dp239
S'HKY'
p240
I3
sS'F81'
p241
I2
sS'Codon'
p242
I6
sS'GTR'
p243
I4
sS'Codon_corrected'
p244
I7
sS'K80'
p245
I1
sS'Jukes-Cantor'
p246
I0
ssS'data'
p247
(dp248
(g135
S'YLR333C'
p249
tp250
g140
s(g173
g249
tp251
g178
s(g135
S'YGR027C'
p252
tp253
g141
s(g154
g249
tp254
g159
s(g154
g252
tp255
g160
s(g93
g252
tp256
g105
s(g192
g249
tp257
g197
s(g93
g249
tp258
g104
s(g211
g249
tp259
g216
s(g192
g252
tp260
g198
s(g116
g252
tp261
g122
s(g211
g252
tp262
g216
s(g116
g249
tp263
g121
s(g173
g252
tp264
g179
ssS'duplication_node'
p265
S'N0'
p266
sS'nsites'
p267
I324
sS'root_branch'
p268
(g40
S'kluyveri'
p269
tp270
sS'nleaf'
p271
I7
sS'modelnum'
p272
I3
sS'paralog'
p273
(lp274
g249
ag252
asS'treetopo'
p275
g17
(cnetworkx.classes.digraph
DiGraph
p276
g19
Ntp277
Rp278
(dp279
S'node'
p280
(dp281
g40
(dp282
sg192
(dp283
sg135
(dp284
sg93
(dp285
sg211
(dp286
sg116
(dp287
sg154
(dp288
sg173
(dp289
sg50
(dp290
sg58
(dp291
sg65
(dp292
sg72
(dp293
sg79
(dp294
sg86
(dp295
ssS'graph'
p296
(dp297
sS'succ'
p298
(dp299
g40
(dp300
g266
(dp301
sg269
(dp302
ssg192
(dp303
sg135
(dp304
sg93
(dp305
sg211
(dp306
sg116
(dp307
sg154
(dp308
sg173
(dp309
sg50
(dp310
g58
(dp311
ssg58
(dp312
g65
(dp313
sg192
(dp314
ssg65
(dp315
g72
(dp316
sg173
(dp317
ssg72
(dp318
g79
(dp319
sg154
(dp320
ssg79
(dp321
g86
(dp322
sg135
(dp323
ssg86
(dp324
g93
(dp325
sg116
(dp326
sssS'edge'
p327
g299
sS'pred'
p328
(dp329
g40
(dp330
sg192
(dp331
g58
g314
ssg135
(dp332
g79
g323
ssg93
(dp333
g86
g325
ssg211
(dp334
g40
g302
ssg116
(dp335
g86
g326
ssg154
(dp336
g72
g320
ssg173
(dp337
g65
g317
ssg50
(dp338
g40
g301
ssg58
(dp339
g50
g311
ssg65
(dp340
g58
g313
ssg72
(dp341
g65
g316
ssg79
(dp342
g72
g319
ssg86
(dp343
g79
g322
sssS'adj'
p344
g299
sbsS'seqloc'
p345
S'./YLR333C_YGR027C_input.fasta'
p346
sS'blen'
p347
g226
(g227
(I0
tp348
g229
tp349
Rp350
(I1
(I12
tp351
g8
I00
S'\x00\x00\x00\x00\x00\x00\x00@\x00\x00\x00\x00\x00\x00\x00@\x00\x00\x00\x00\x00\x00\x00@\x00\x00\x00\x00\x00\x00\x00@\x00\x00\x00\x00\x00\x00\x00@\x00\x00\x00\x00\x00\x00\x00@\x00\x00\x00\x00\x00\x00\x00@\x00\x00\x00\x00\x00\x00\x00@\x00\x00\x00\x00\x00\x00\x00@\x00\x00\x00\x00\x00\x00\x00@\x00\x00\x00\x00\x00\x00\x00@\x00\x00\x00\x00\x00\x00\x00@'
p352
tp353
bsg40
g40
sS'edge_to_blen'
p354
(dp355
(g50
g58
tp356
g4
(g8
S'V4\t;\x08\x15\xad?'
p357
tp358
Rp359
s(g86
g93
tp360
g4
(g8
S'\xd9k`\x97\xcb=\x83?'
p361
tp362
Rp363
s(g65
g72
tp364
g4
(g8
S'\x00\x00\x00\x00\x00\x00\x00\x00'
p365
tp366
Rp367
s(g40
g269
tp368
g4
(g8
S'\t\xbdy\xc7\xeb\xfa\xb6?'
p369
tp370
Rp371
s(g79
g86
tp372
g4
(g8
S'|/\x978\xdes\x7f?'
p373
tp374
Rp375
s(g58
g192
tp376
g4
(g8
S'\t\xbdy\xc7\xeb\xfa\xb6?'
p377
tp378
Rp379
s(g65
g173
tp380
g4
(g8
S'\xbdE\xeaS\xcf\xe0\xa0?'
p381
tp382
Rp383
s(g58
g65
tp384
g4
(g8
S'\x1b\x96\xcc\xc7\x92u\xa8?'
p385
tp386
Rp387
s(g72
g154
tp388
g4
(g8
S'(\x9c\xc1\x95g\x95\x8f?'
p389
tp390
Rp391
s(g86
g116
tp392
g4
(g8
S'\xd9k`\x97\xcb=\x83?'
p393
tp394
Rp395
s(g72
g79
tp396
g4
(g8
S'\x9d`\xc2\xfc7\xafx?'
p397
tp398
Rp399
s(g79
g135
tp400
g4
(g8
S'(\x9c\xc1\x95g\x95\x8f?'
p401
tp402
Rp403
s(g40
g266
tp404
g4
(g8
S'\x00\x00\x00\x00\x00\x00\x00\x00'
p405
tp406
Rp407
ssb.