(iCodonBased2Repeats
Codon2RepeatsPhy
p0
(dp1
S'nbranch'
p2
I12
sS'Tao'
p3
F0.0
sS'SpecAfterDupli_node'
p4
S'N1'
p5
sS'tree_phy'
p6
ccopy_reg
_reconstructor
p7
(cBio.Phylo.PhyloXML
Phylogeny
p8
c__builtin__
object
p9
Ntp10
Rp11
(dp12
S'confidences'
p13
(lp14
sS'rerootable'
p15
NsS'clade_relations'
p16
(lp17
sS'rooted'
p18
S'True'
p19
sS'type'
p20
NsS'description'
p21
NsS'properties'
p22
(lp23
sS'branch_length_unit'
p24
NsS'other'
p25
(lp26
sS'date'
p27
NsS'sequence_relations'
p28
(lp29
sS'root'
p30
g7
(cBio.Phylo.PhyloXML
Clade
p31
g9
Ntp32
Rp33
(dp34
g13
(lp35
sS'branch_length'
p36
F1.0
sS'taxonomies'
p37
(lp38
sS'name'
p39
S'N0'
p40
sS'clades'
p41
(lp42
g7
(g31
g9
Ntp43
Rp44
(dp45
g13
(lp46
sg36
cnumpy.core.multiarray
scalar
p47
(cnumpy
dtype
p48
(S'f8'
p49
I0
I1
tp50
Rp51
(I3
S'<'
p52
NNNI-1
I-1
I0
tp53
bS'\xb4\xf1\x94-\xcb\xadv?'
p54
tp55
Rp56
sg37
(lp57
sg39
S'N1'
p58
sg41
(lp59
g7
(g31
g9
Ntp60
Rp61
(dp62
g13
(lp63
sg36
g47
(g51
S"\x08'\x15|\xe55\xa2?"
p64
tp65
Rp66
sg37
(lp67
sg39
S'N2'
p68
sg41
(lp69
g7
(g31
g9
Ntp70
Rp71
(dp72
g13
(lp73
sg36
g47
(g51
S'\x0b\x03\xf2\x99\xe9\xd6\x90?'
p74
tp75
Rp76
sg37
(lp77
sg39
S'N3'
p78
sg41
(lp79
g7
(g31
g9
Ntp80
Rp81
(dp82
g13
(lp83
sg36
g47
(g51
S'_\x11\xaey\x852\x89?'
p84
tp85
Rp86
sg37
(lp87
sg39
S'N4'
p88
sg41
(lp89
g7
(g31
g9
Ntp90
Rp91
(dp92
g13
(lp93
sg36
g47
(g51
S'\x12awLzGt?'
p94
tp95
Rp96
sg37
(lp97
sg39
S'N5'
p98
sg41
(lp99
g7
(g31
g9
Ntp100
Rp101
(dp102
g13
(lp103
sg36
g47
(g51
S'\xb1J!n\x89\xc3\x94?'
p104
tp105
Rp106
sg37
(lp107
sg39
S'cerevisiae'
p108
sg41
(lp109
sg22
(lp110
sS'id_source'
p111
NsS'width'
p112
NsS'node_id'
p113
NsS'references'
p114
(lp115
sS'_color'
p116
NsS'sequences'
p117
(lp118
S'ATGCCAAAAAAGAGAGCTTCCAACGGTAGAAACAAGAAGGGTAGAGGTCACGTCAAGCCAGTGAGATGTGTTAACTGTTCCAAGTCCATTCCAAAGGATAAGGCTATCAAGAGAATGGCTATTAGAAACATTGTTGAAGCTGCTGCCGTCAGAGATTTGTCCGAAGCTTCTGTCTACCCAGAATACGCCTTGCCAAAGACTTACAACAAGTTGCACTACTGTGTCTCCTGTGCTATTCACGCCAGAATTGTTAGAGTTAGATCCAGAGAAGACAGAAAGAACAGAGCTCCTCCACAAAGACCAAGATTTAACAGGGATAACAAAGTTTCTCCAGCAGCTGCCGCAAAGAAAGCTTTG'
p119
aS'ATGCCAAAGAAGAGAGCTTCCAACGGTAGAAACAAGAAAGGTAGAGGTCACGTCAAACCAGTCAGATGTGTCAACTGTTCCAAGTCTATTCCAAAGGATAAGGCTATCAAGAGAATGGCTATCAGAAACATTGTTGAAGCCGCTGCCGTCAGAGATTTGTCCGAAGCTTCTGTCTACCCTGAATACGCTTTGCCAAAGACTTACAACAAGTTACACTACTGTGTTTCTTGTGCTATTCACGCCAGAATTGTCAGAGTCAGATCCAGAGAAGACAGAAAGAACAGAGCTCCACCTCAAAGACCAAGATTCAACAGAGAAAACAAGGTTTCCCCTGCTGATGCCGCCAAGAAGGCTTTA'
p120
asg27
Nsg25
(lp121
sS'binary_characters'
p122
NsS'distributions'
p123
(lp124
sS'events'
p125
Nsbag7
(g31
g9
Ntp126
Rp127
(dp128
g13
(lp129
sg36
g47
(g51
S"\x9e5\xd4O'\xe8\x92?"
p130
tp131
Rp132
sg37
(lp133
sg39
S'paradoxus'
p134
sg41
(lp135
sg22
(lp136
sg111
Nsg112
Nsg113
Nsg114
(lp137
sg116
Nsg117
(lp138
S'ATGCCAAAAAAGAGAGCTTCCAACGGTAGAAACAAGAAGGGTAGAGGTCACGTCAAGCCAGTGAGATGTGTTAACTGTTCCAAGTCCATTCCAAAGGACAAAGCTATCAAGAGAATGGCTATAAGAAACATTGTTGAAGCTGCCGCCGTCAGAGATTTGTCTGAAGCCTCTGTTTACCCAGAATACGCTCTACCAAAAACCTATAATAAGTTGCACTACTGTGTTTCTTGTGCTATTCACGCTAGAATTGTTAGAGTTAGATCCAGAGAAGACAGAAAGAACAGAGCTCCTCCACAAAGACCAAGATTCAACAGGGATAACAAAGTTTCTCCAGCAGCAGCCGCAAAGAAAGCTTTG'
p139
aS'ATGCCAAAGAAGAGAGCTTCCAACGGTAGAAACAAGAAAGGTAGAGGTCACGTCAAGCCAGTCAGATGTGTCAACTGTTCCAAGTCTATTCCAAAGGATAAGGCTATCAAGAGAATGGCTATCAGAAACATTGTTGAAGCCGCTGCTGTCAGAGATTTGTCCGAAGCTTCTGTCTACCCTGAATACGCTTTGCCAAAGACCTACAACAAGTTGCACTACTGTGTTTCTTGTGCTATTCACGCCAGAATCGTCAGGGTCAGATCCAGAGAAGACAGAAAAAACAGAGCTCCACCTCAAAGACCAAGATTCAACAGAGAAAACAAGGTTTCCCCTGCTGATGCCGCCAAGAAGGCTTTA'
p140
asg27
Nsg25
(lp141
sg122
Nsg123
(lp142
sg125
Nsbasg22
(lp143
sg111
Nsg112
Nsg113
Nsg114
(lp144
sg116
Nsg117
(lp145
sg27
Nsg25
(lp146
sg122
Nsg123
(lp147
sg125
Nsbag7
(g31
g9
Ntp148
Rp149
(dp150
g13
(lp151
sg36
g47
(g51
S'\x81L\xaf*\xbd\xde\x9a?'
p152
tp153
Rp154
sg37
(lp155
sg39
S'mikatae'
p156
sg41
(lp157
sg22
(lp158
sg111
Nsg112
Nsg113
Nsg114
(lp159
sg116
Nsg117
(lp160
S'ATGCCAAAAAAGAGAGCTTCCAACGGTAGAAACAAGAAGGGTAGAGGTCACGTCAAACCAGTGAGATGTGTTAACTGTTCTAAGTCTATCCCAAAGGACAAGGCTATCAAGAGAATGGCTATCAGAAACATCGTTGAAGCTGCTGCCGTCAGAGATTTGTCTGAAGCCTCTGTCTACCCAGAATACGCTCTACCAAAAACCTATAATAAGTTACACTACTGTGTTTCTTGCGCTATTCACGCCAGAATCGTTAGAGTTAGATCCAGAGAGGACAGAAAGAACAGAGCTCCTCCACAAAGACCAAGATTCAACAGGGATAACAAGGTTTCTCCAGCCGCTGCTGCAAAGAAAGCTTTG'
p161
aS'ATGCCAAAGAAGAGAGCTTCCAACGGTAGAAACAAGAAAGGTAGAGGTCACGTCAAACCAGTCAGATGTGTCAACTGTTCCAAGTCTATTCCAAAGGATAAGGCTATCAAGAGAATGGCTATCAGAAACATCGTTGAAGCTGCTGCCGTCAGAGATTTGTCCGAAGCTTCTGTCTACCCTGAATACGCTTTGCCAAAGACTTACAACAAGTTGCACTACTGTGTTTCCTGTGCTATTCACGCCAGAATTGTCAGAGTCAGATCTAGAGAAGACAGAAAGAACAGAGCTCCACCTCAAAGACCAAGATTCAACAGAGAAAACAAGGTTTCTCCTGCTGATGCTGCCAAGAAGGCTTTA'
p162
asg27
Nsg25
(lp163
sg122
Nsg123
(lp164
sg125
Nsbasg22
(lp165
sg111
Nsg112
Nsg113
Nsg114
(lp166
sg116
Nsg117
(lp167
sg27
Nsg25
(lp168
sg122
Nsg123
(lp169
sg125
Nsbag7
(g31
g9
Ntp170
Rp171
(dp172
g13
(lp173
sg36
g47
(g51
S'\xb1\x9c\xa3\xb2h\xe5\x91?'
p174
tp175
Rp176
sg37
(lp177
sg39
S'kudriavzevii'
p178
sg41
(lp179
sg22
(lp180
sg111
Nsg112
Nsg113
Nsg114
(lp181
sg116
Nsg117
(lp182
S'ATGCCAAAAAAGAGAGCTTCCAACGGTAGAAACAAGAAGGGTAGAGGTCACGTCAAACCGGTGAGATGTGTAAACTGTTCCAAGTCCATTCCAAAGGACAAGGCTATCAAGAGAATGGCTATCAGAAATATTGTTGAAGCCGCTGCTGTCAGAGATATGTCTGAAGCTTCTGTTTACCCTGAATACGCTTTACCAAAGACCTACAATAAGTTGCACTACTGCGTTTCTTGTGCTATTCACGCCAGAATTGTTAGAGTTAGATCTAGAGAAGACAGAAAGAACAGAGCTCCTCCACAAAGACCAAGATTCAACAGGGATAACAAAGTTTCTCCAGTCGCTGCTGCCAAGAAAGCTTTG'
p183
aS'ATGCCAAAGAAGAGAGCTTCCAACGGTAGAAACAAGAAAGGTAGAGGTCACGTCAAACCGGTCAGATGTGTCAACTGTTCCAAGTCTATTCCAAAGGATAAGGCTATCAAGAGAATGGCTATCAGAAACATTGTTGAAGCTGCTGCTGTCAGAGATTTGTCTGAAGCTTCTGTCTACCCTGAATACGCTTTGCCAAAGACTTACAACAAGTTGCACTACTGTGTCTCTTGTGCTATTCATGCCAGAATTGTCAGAGTCAGATCCAGAGAAGACAGAAAGAACAGAGCTCCACCCCAAAGACCAAGATTCAACAGAGAAAACAAGGTTTCCCCTGCTGATGCCGCCAAGAAGGCTTTA'
p184
asg27
Nsg25
(lp185
sg122
Nsg123
(lp186
sg125
Nsbasg22
(lp187
sg111
Nsg112
Nsg113
Nsg114
(lp188
sg116
Nsg117
(lp189
sg27
Nsg25
(lp190
sg122
Nsg123
(lp191
sg125
Nsbag7
(g31
g9
Ntp192
Rp193
(dp194
g13
(lp195
sg36
g47
(g51
S'BR\xe9hY\xab\x93?'
p196
tp197
Rp198
sg37
(lp199
sg39
S'bayanus'
p200
sg41
(lp201
sg22
(lp202
sg111
Nsg112
Nsg113
Nsg114
(lp203
sg116
Nsg117
(lp204
S'ATGCCAAAAAAGAGAGCTTCCAGCGGTAGAAACAAGAAGGGTAGAGGTCACGTCAAGCCAGTCAGATGTGTCAACTGTTCCAAGTCCATTCCAAAGGACAAGGCCATCAAGAGAATGGCTATCAGAAACATCGTTGAAGCTGCTGCTGTCAGAGATTTGTCTGAAGCTTCCGTTTACCCTGAATACGCTCTACCAAAGACCTACAACAAGTTGCACTACTGTGTCTCTTGTGCTATTCACGCCAGAATTGTCAGAGTTAGATCTAGAGAAGACAGAAAAAACAGAGCTCCTCCACAAAGACCAAGATTCAACAGGGATGCCAAGGTTACTCCAGTTGCCGCTGCTAAGAAGGCTTTG'
p205
aS'ATGCCAAAGAAGAGAGCTTCCAACGGTAGAAATAAGAAAGGTAGAGGTCACGTCAAGCCAGTCAGATGTGTCAACTGTTCCAAGTCTATTCCAAAGGATAAGGCTATCAAGAGAATGGCTATCAGAAACATTGTCGAAGCTGCTGCTGTCAGAGATTTGTCTGAAGCTTCTGTCTACCCTGAATACGCTCTACCAAAGACTTACAACAAGTTGCACTACTGTGTCTCTTGTGCCATTCACGCCAGAATTGTCAGAGTCAGATCCAGAGAAAACAGAAAGAACAGAGCTCCACCTCAAAGACCAAGATTCAACAGAGAAAACAAGGTTTCCCCTGCTGATGCCGCCAAGAAGGCTTTA'
p206
asg27
Nsg25
(lp207
sg122
Nsg123
(lp208
sg125
Nsbasg22
(lp209
sg111
Nsg112
Nsg113
Nsg114
(lp210
sg116
Nsg117
(lp211
sg27
Nsg25
(lp212
sg122
Nsg123
(lp213
sg125
Nsbag7
(g31
g9
Ntp214
Rp215
(dp216
g13
(lp217
sg36
g47
(g51
S'H\x0f\xb5\xa5oT\xae?'
p218
tp219
Rp220
sg37
(lp221
sg39
S'castellii'
p222
sg41
(lp223
sg22
(lp224
sg111
Nsg112
Nsg113
Nsg114
(lp225
sg116
Nsg117
(lp226
S'ATGCCAAAGAAGAGAGCTTCCAACGGGAGAAACAAGAAGGGTAGAGGCCACGTCAAGCCAGTCAGATGCGTCAACTGTTCCAAATCCATTCCAAAGGACAAAGCCATTAAGAGAATGGCCATCAGAAACATCGTGGAAGCCGCCGCAGTGAGAGATTTATCTGAAGCCTCCGTCTACGCTGAATACGCCCTGCCAAAGACTTACAACAAGTTGCATTACTGTGTCTCTTGTGCCATTCACGCTAGAATCGTTAGAGTCAGATCAAGAGAAAACAGAAAGATTAGAGCTCCACCACAAAGACCAAGATTCAACAGGGAAAACAAGGTTTCCCCAGCTGATGCCGCTAAGAAGGCCTTA'
p227
aS'ATGCCAAAGAAGAGAGCTTCCAACGGTAGAAACAAGAAGGGTAGAGGTCACGTCAAGCCAGTTAGATGTGTTAACTGTTCCAAGTCTATTCCAAAGGATAAGGCTATCAAGAGAATGGCTATCAGAAACATTGTCGAAGCTGCCGCTGTTAGAGATTTGTCTGAAGCTTCCGTCTACGCTGAATACGCTCTACCAAAGACCTACAACAAGTTGCACTACTGTGTCTCTTGTGCTATTCACGCTAGAATTGTCAGAGTTAGATCTAGAGAAAACAGAAAGATCAGAGCTCCTCCACAAAGACCAAGATTCAACAGAGATAACAAGGTTTCTCCAGCTGATGCTGCTAAGAAGGCTTTA'
p228
asg27
Nsg25
(lp229
sg122
Nsg123
(lp230
sg125
Nsbasg22
(lp231
sg111
Nsg112
Nsg113
Nsg114
(lp232
sg116
Nsg117
(lp233
sg27
Nsg25
(lp234
sg122
Nsg123
(lp235
sg125
Nsbag7
(g31
g9
Ntp236
Rp237
(dp238
g13
(lp239
sg36
g47
(g51
S'\xffi\x07\xab;\xd8\xa9?'
p240
tp241
Rp242
sg37
(lp243
sg39
S'kluyveri'
p244
sg41
(lp245
sg22
(lp246
sg111
Nsg112
Nsg113
Nsg114
(lp247
sg116
Nsg117
(lp248
S'ATGCCAAAGAAGAGAGCTTCCAACGGTAGAAACAAGAAGGGTAGAGGTCACGTTAAGCCAGTTAGATGTGTCAACTGTTCCAAGTCTGTTCCAAAGGACAAGGCTATTAAGAGAATGGCTATCAGAAACATTGTCGAAGCTGCTGCTGTTAGAGATTTGTCTGAAGCCTCTGTTTACGCTGAATACGCCTTGCCAAAGACCTACAACAAGTTGCACTACTGTGTCTCTTGCGCTATTCACGCTAGAATTGTCAGAGTCAGATCTAGAGAAGACAGAAGAATCAGAGCTCCTCCTCAAAGACCAAGATTCAACAGAGAAAACAGAGTTTCTCCAGCTGATGCTGCCAAGAAAGCTTTG'
p249
asg27
Nsg25
(lp250
sg122
Nsg123
(lp251
sg125
Nsbasg22
(lp252
sg111
Nsg112
Nsg113
Nsg114
(lp253
sg116
Nsg117
(lp254
sg27
Nsg25
(lp255
sg122
Nsg123
(lp256
sg125
NsbsS'id'
p257
Nsg39
NsbsS'para'
p258
cnumpy.core.multiarray
_reconstruct
p259
(cnumpy
ndarray
p260
(I0
tp261
S'b'
p262
tp263
Rp264
(I1
(I4
tp265
g51
I00
S'Y\x93\x1f\x18[\x1f\xde?\x98\x95[$\xf6b\xe4?\x81\x89\x9cq\xeb\x98\xe0?\xd6N\x04\x10\xb59(@'
p266
tp267
bsS'err'
p268
F1e-10
sS'newicktree'
p269
S'../YeastTree.newick'
p270
sS'models'
p271
(dp272
S'HKY'
p273
I3
sS'F81'
p274
I2
sS'Codon'
p275
I6
sS'GTR'
p276
I4
sS'Codon_corrected'
p277
I7
sS'K80'
p278
I1
sS'Jukes-Cantor'
p279
I0
ssS'data'
p280
(dp281
(g156
S'YGL189C'
p282
tp283
g162
s(g178
S'YER131W'
p284
tp285
g183
s(g200
g282
tp286
g206
s(g178
g282
tp287
g184
s(g156
g284
tp288
g161
s(g134
g284
tp289
g139
s(g200
g284
tp290
g205
s(g222
g282
tp291
g228
s(g108
g282
tp292
g120
s(g244
g282
tp293
g249
s(g244
g284
tp294
g249
s(g108
g284
tp295
g119
s(g222
g284
tp296
g227
s(g134
g282
tp297
g140
ssS'duplication_node'
p298
S'N0'
p299
sS'nsites'
p300
I357
sS'root_branch'
p301
(g299
S'kluyveri'
p302
tp303
sS'nleaf'
p304
I7
sS'modelnum'
p305
I3
sS'paralog'
p306
(lp307
g284
ag282
asS'treetopo'
p308
g7
(cnetworkx.classes.digraph
DiGraph
p309
g9
Ntp310
Rp311
(dp312
S'node'
p313
(dp314
g222
(dp315
sg156
(dp316
sg88
(dp317
sg244
(dp318
sg134
(dp319
sg178
(dp320
sg200
(dp321
sg40
(dp322
sg58
(dp323
sg68
(dp324
sg78
(dp325
sg108
(dp326
sg98
(dp327
ssS'graph'
p328
(dp329
sS'succ'
p330
(dp331
g222
(dp332
sg156
(dp333
sg88
(dp334
g98
(dp335
sg156
(dp336
ssg244
(dp337
sg134
(dp338
sg178
(dp339
sg200
(dp340
sg40
(dp341
g58
(dp342
sg244
(dp343
ssg58
(dp344
g68
(dp345
sg222
(dp346
ssg68
(dp347
g78
(dp348
sg200
(dp349
ssg78
(dp350
g88
(dp351
sg178
(dp352
ssg108
(dp353
sg98
(dp354
g108
(dp355
sg134
(dp356
sssS'edge'
p357
g331
sS'pred'
p358
(dp359
g222
(dp360
g58
g346
ssg156
(dp361
g88
g336
ssg88
(dp362
g78
g351
ssg244
(dp363
g40
g343
ssg134
(dp364
g98
g356
ssg178
(dp365
g78
g352
ssg200
(dp366
g68
g349
ssg40
(dp367
sg58
(dp368
g40
g342
ssg68
(dp369
g58
g345
ssg78
(dp370
g68
g348
ssg108
(dp371
g98
g355
ssg98
(dp372
g88
g335
sssS'adj'
p373
g331
sbsS'seqloc'
p374
S'./YER131W_YGL189C_input.fasta'
p375
sS'blen'
p376
g259
(g260
(I0
tp377
g262
tp378
Rp379
(I1
(I12
tp380
g51
I00
S'\x00\x00\x00\x00\x00\x00\x00@\x00\x00\x00\x00\x00\x00\x00@\x00\x00\x00\x00\x00\x00\x00@\x00\x00\x00\x00\x00\x00\x00@\x00\x00\x00\x00\x00\x00\x00@\x00\x00\x00\x00\x00\x00\x00@\x00\x00\x00\x00\x00\x00\x00@\x00\x00\x00\x00\x00\x00\x00@\x00\x00\x00\x00\x00\x00\x00@\x00\x00\x00\x00\x00\x00\x00@\x00\x00\x00\x00\x00\x00\x00@\x00\x00\x00\x00\x00\x00\x00@'
p381
tp382
bsg30
g40
sS'edge_to_blen'
p383
(dp384
(g40
g58
tp385
g47
(g51
S'\xb5\xf1\x94-\xcb\xadv?'
p386
tp387
Rp388
s(g98
g108
tp389
g47
(g51
S'\xb2J!n\x89\xc3\x94?'
p390
tp391
Rp392
s(g68
g78
tp393
g47
(g51
S'\x0c\x03\xf2\x99\xe9\xd6\x90?'
p394
tp395
Rp396
s(g88
g98
tp397
g47
(g51
S'\x13awLzGt?'
p398
tp399
Rp400
s(g78
g178
tp401
g47
(g51
S'\xb2\x9c\xa3\xb2h\xe5\x91?'
p402
tp403
Rp404
s(g68
g200
tp405
g47
(g51
S'CR\xe9hY\xab\x93?'
p406
tp407
Rp408
s(g58
g68
tp409
g47
(g51
S"\t'\x15|\xe55\xa2?"
p410
tp411
Rp412
s(g58
g222
tp413
g47
(g51
S'I\x0f\xb5\xa5oT\xae?'
p414
tp415
Rp416
s(g98
g134
tp417
g47
(g51
S"\x9f5\xd4O'\xe8\x92?"
p418
tp419
Rp420
s(g88
g156
tp421
g47
(g51
S'\x82L\xaf*\xbd\xde\x9a?'
p422
tp423
Rp424
s(g78
g88
tp425
g47
(g51
S'`\x11\xaey\x852\x89?'
p426
tp427
Rp428
s(g40
g244
tp429
g47
(g51
S'\xffi\x07\xab;\xd8\xa9?'
p430
tp431
Rp432
ssb.