(dp0
S'Force'
p1
(dp2
I5
F0.0
ssS'ExpectedGeneconv'
p3
(dp4
(S'N0'
p5
S'N1'
p6
tp7
F3.0604004510645684
s(S'N5'
p8
S'cerevisiae'
p9
tp10
F4.211234902275577
s(S'N2'
p11
S'N3'
p12
tp13
F7.072018790487974
s(S'N4'
p14
g8
tp15
F4.8583468207328595
s(g12
S'kudriavzevii'
p16
tp17
F15.260140588848207
s(g11
S'bayanus'
p18
tp19
F11.52778852166548
s(g6
g11
tp20
F7.936523229108412
s(g6
S'castellii'
p21
tp22
F12.370077111608301
s(g8
S'paradoxus'
p23
tp24
F14.361038318577965
s(g14
S'mikatae'
p25
tp26
F11.616160715671384
s(g12
g14
tp27
F2.50777466357265
s(g5
S'kluyveri'
p28
tp29
F0.0
ssS'newicktree'
p30
S'../PairsAlignemt/YeastTree.newick'
p31
sS'll'
p32
cnumpy.core.multiarray
scalar
p33
(cnumpy
dtype
p34
(S'f8'
p35
I0
I1
tp36
Rp37
(I3
S'<'
p38
NNNI-1
I-1
I0
tp39
bS'\xb8\xe3\xf4u;\x9f\x9a\xc0'
p40
tp41
Rp42
sS'clock'
p43
I01
sS'edge_to_blen'
p44
(dp45
g20
g33
(g37
S'\x81\xb7\xbd<V,\x84?'
p46
tp47
Rp48
sg10
g33
(g37
S'2;\x05e\xfb\xf5y?'
p49
tp50
Rp51
sg13
g33
(g37
S'+\x96\xba\x81\x8bh\xa1?'
p52
tp53
Rp54
sg15
g33
(g37
S'\xb5\x85\xb2\\Pp\x96?'
p55
tp56
Rp57
sg17
g33
(g37
S'\xb2d\xc5c\xd7\x18\xb5?'
p58
tp59
Rp60
sg19
g33
(g37
S'\n\x04\xea\x10\xa1s\xa6?'
p61
tp62
Rp63
sg7
g33
(g37
S'Y\xc5\xa0\xb6\r\xbe\xa3?'
p64
tp65
Rp66
sg22
g33
(g37
S'K_\x056\x1f\x8dw?'
p67
tp68
Rp69
sg24
g33
(g37
S'\xad.\xb9\xa3\xc6\xb4\xc1?'
p70
tp71
Rp72
sg26
g33
(g37
S'\x86\xdd3*\x98S\x9c?'
p73
tp74
Rp75
sg27
g33
(g37
S'\xba\x9f\xe9\xd3\xb9\t\x96?'
p76
tp77
Rp78
sg29
g33
(g37
S'\xb5\x85\xb2\\Pp\x96?'
p79
tp80
Rp81
ssS'paralog'
p82
(lp83
S'YML026C'
p84
aS'YDR450W'
p85
asS'alignment_file'
p86
S'../PairsAlignemt/YML026C_YDR450W/YML026C_YDR450W_input.fasta'
p87
sS'x_clock'
p88
(lp89
F-0.64430238
aF-0.48627304
aF-0.93852343
aF1.76793238
aF-2.45061608
aF1.23836258
aF-2.11088631
aF-0.15313429
aF-0.23202426
aF-0.63091448
aF-0.25441366
aF-0.20629961
aF-0.23301088
asS'x'
p90
(lp91
F-0.64430238
aF-0.48627304000000043
aF-0.93852343
aF1.76793238
aF-2.45061608
aF1.23836258
aF-3.2555561825110937
aF-3.820683490000012
aF-4.620264447582487
aF-5.158586950979176
aF-3.3813730000000106
aF-3.1269593400000093
aF-3.8387039435718986
aF-2.496044860000006
aF-3.820683490000012
aF-3.5876726100000114
aF-5.061175869149375
aF-1.978117888258582
asS'Model'
p92
S'MG94'
p93
s.