(dp0
(S'N0'
p1
S'N1'
p2
tp3
cnumpy.core.multiarray
scalar
p4
(cnumpy
dtype
p5
(S'f8'
p6
I0
I1
tp7
Rp8
(I3
S'<'
p9
NNNI-1
I-1
I0
tp10
bS'\x1d\xaf\xd4\xf60~\xc0?'
p11
tp12
Rp13
s(S'N5'
p14
S'cerevisiae'
p15
tp16
g4
(g8
S"0M\xdf'\x0f\xb2\xb6?"
p17
tp18
Rp19
s(S'N2'
p20
S'N3'
p21
tp22
g4
(g8
S'\xdc:m\xd1\x9e\xb9\xb0?'
p23
tp24
Rp25
s(S'N4'
p26
g14
tp27
g4
(g8
S'Ow\xc2\x86\xdde\xae?'
p28
tp29
Rp30
s(g21
S'kudriavzevii'
p31
tp32
g4
(g8
S'\xae\xa7\x0f\xa6\xf8y\xc0?'
p33
tp34
Rp35
s(g20
S'bayanus'
p36
tp37
g4
(g8
S"\nM\xa7'>A\xc5?"
p38
tp39
Rp40
s(g2
g20
tp41
g4
(g8
S'\xa9<\xad#\xe9!\xe7?'
p42
tp43
Rp44
s(g2
S'castellii'
p45
tp46
g4
(g8
S'\xc5\xfb\x88t\xf8?\xe7?'
p47
tp48
Rp49
s(g14
S'paradoxus'
p50
tp51
g4
(g8
S'\x11I\x13\x11"\x0f\xb4?'
p52
tp53
Rp54
s(g26
S'mikatae'
p55
tp56
g4
(g8
S'\xc7\xc4\x0b\x86D\xc1\xc1?'
p57
tp58
Rp59
s(g21
g26
tp60
g4
(g8
S'\x10\x12\x7fj\xbcU\xb2?'
p61
tp62
Rp63
s(g1
S'kluyveri'
p64
tp65
g4
(g8
S'\xe2\x84\x83n\x0b\xa3\xce?'
p66
tp67
Rp68
s.