(dp0
(S'N0'
p1
S'N1'
p2
tp3
cnumpy.core.multiarray
scalar
p4
(cnumpy
dtype
p5
(S'f8'
p6
I0
I1
tp7
Rp8
(I3
S'<'
p9
NNNI-1
I-1
I0
tp10
bS'\xd0\x8cSW\xac\x06b?'
p11
tp12
Rp13
s(S'N5'
p14
S'cerevisiae'
p15
tp16
g4
(g8
S'f\x11\xbd\x92\xa0\xb7\x8b?'
p17
tp18
Rp19
s(S'N2'
p20
S'N3'
p21
tp22
g4
(g8
S'h\x94\x04\xa7+\xcby?'
p23
tp24
Rp25
s(S'N4'
p26
g14
tp27
g4
(g8
S'\x8d\xb6\x95]b\xe6\x80?'
p28
tp29
Rp30
s(g21
S'kudriavzevii'
p31
tp32
g4
(g8
S'\xdc\xfd\xfd[\xb4\x86\x93?'
p33
tp34
Rp35
s(g20
S'bayanus'
p36
tp37
g4
(g8
S'j8-\x14IT\x94?'
p38
tp39
Rp40
s(g2
g20
tp41
g4
(g8
S'u\xec.\xd6\xf7\x16\xae?'
p42
tp43
Rp44
s(g2
S'castellii'
p45
tp46
g4
(g8
S'y$\x11\x8f\xdd\x03\xb2?'
p47
tp48
Rp49
s(g14
S'paradoxus'
p50
tp51
g4
(g8
S'\xf3\x02sm\xde:\x85?'
p52
tp53
Rp54
s(g26
S'mikatae'
p55
tp56
g4
(g8
S'#\xd4Z\xe5\x89\xba\x92?'
p57
tp58
Rp59
s(g21
g26
tp60
g4
(g8
S'\xe2\xb2\xa0@EX\x86?'
p61
tp62
Rp63
s(g1
S'kluyveri'
p64
tp65
g4
(g8
S'\x00\x00\x00\x00\x00\x00\x00\x00'
p66
tp67
Rp68
s.