(dp0
(S'N0'
p1
S'N1'
p2
tp3
cnumpy.core.multiarray
scalar
p4
(cnumpy
dtype
p5
(S'f8'
p6
I0
I1
tp7
Rp8
(I3
S'<'
p9
NNNI-1
I-1
I0
tp10
bS')\x08\x0e\xa5W]\xc8?'
p11
tp12
Rp13
s(S'N5'
p14
S'cerevisiae'
p15
tp16
g4
(g8
S'"\xb3^\x89\xf8\xf0\xb8?'
p17
tp18
Rp19
s(S'N2'
p20
S'N3'
p21
tp22
g4
(g8
S'\x0c\x08u[ \xe5\x8b?'
p23
tp24
Rp25
s(S'root'
p26
S'kluyveri'
p27
tp28
g4
(g8
S'Dx\x91\x84\x99\x17\xd3?'
p29
tp30
Rp31
s(S'N4'
p32
g14
tp33
g4
(g8
S'\xce.[\xb7\x07+\xb2?'
p34
tp35
Rp36
s(g2
S'castellii'
p37
tp38
g4
(g8
S'\xfa\x07\xff^?\xcf\xe5?'
p39
tp40
Rp41
s(g20
S'bayanus'
p42
tp43
g4
(g8
S'n\xe0|\x87j$\xd3?'
p44
tp45
Rp46
s(g2
g20
tp47
g4
(g8
S'\xec\x05$\xd8\xfd\x13\xe1?'
p48
tp49
Rp50
s(g21
S'kudriavzevii'
p51
tp52
g4
(g8
S'\x1d\x90,%\xd5\x92\xc3?'
p53
tp54
Rp55
s(g14
S'paradoxus'
p56
tp57
g4
(g8
S'(\x1b\x88\xe7\t*\xb7?'
p58
tp59
Rp60
s(g32
S'mikatae'
p61
tp62
g4
(g8
S'\x9b]\xebt\x01\xac\xc3?'
p63
tp64
Rp65
s(g21
g32
tp66
g4
(g8
S'\xe42\n>l\x0b\xb1?'
p67
tp68
Rp69
s(g26
S'N0'
p70
tp71
g4
(g8
S'\x00\x00\x00\x00\x00\x00\x00\x00'
p72
tp73
Rp74
s.