(dp0
S'ExpectedGeneconv'
p1
(dp2
(S'N0'
p3
S'N1'
p4
tp5
F3.7292716798813137
s(S'N5'
p6
S'cerevisiae'
p7
tp8
F4.244291995741821
s(S'N2'
p9
S'N3'
p10
tp11
F1.5151375686099289
s(S'N4'
p12
g6
tp13
F2.166145911412703
s(g4
S'castellii'
p14
tp15
F17.83970080982691
s(g9
S'bayanus'
p16
tp17
F10.21769654100123
s(g4
g9
tp18
F9.932837305137754
s(g10
S'kudriavzevii'
p19
tp20
F4.907828022467158
s(g6
S'paradoxus'
p21
tp22
F5.781851605662783
s(g12
S'mikatae'
p23
tp24
F10.328463611420446
s(g10
g12
tp25
F1.1631063916880802
s(g3
S'kluyveri'
p26
tp27
F0.0
ssS'newicktree'
p28
S'/Users/xji3/Genconv/PairsAlignemt/YeastTree.newick'
p29
sS'll'
p30
F-1289.1002058107583
sS'clock'
p31
I01
sS'edge_to_blen'
p32
(dp33
g18
cnumpy.core.multiarray
scalar
p34
(cnumpy
dtype
p35
(S'f8'
p36
I0
I1
tp37
Rp38
(I3
S'<'
p39
NNNI-1
I-1
I0
tp40
bS'\xbf\xda\xb1\xd1S\x8b\x7f?'
p41
tp42
Rp43
sg8
g34
(g38
S'\x94Ig+4kq?'
p44
tp45
Rp46
sg11
g34
(g38
S'0Z\x0b"\xf60a?'
p47
tp48
Rp49
sg13
g34
(g38
S'l/\xa9\xceuIU?'
p50
tp51
Rp52
sg15
g34
(g38
S'\x06\x1fTk\xcc\xee\x90?'
p53
tp54
Rp55
sg17
g34
(g38
S'\xabP\xcf\xed\xee\x17\x82?'
p56
tp57
Rp58
sg5
g34
(g38
S'.T$\x8eR\xce\x84?'
p59
tp60
Rp61
sg20
g34
(g38
S'B\xf4\x98\xcab\x97{?'
p62
tp63
Rp64
sg22
g34
(g38
S'\x94Ig+4kq?'
p65
tp66
Rp67
sg24
g34
(g38
S'n\x95\x11\x9f\x91\xbdv?'
p68
tp69
Rp70
sg25
g34
(g38
S'L{\x1d\xaeDgS?'
p71
tp72
Rp73
sg27
g34
(g38
S'\x1fIf\xb2\xf5U\x9b?'
p74
tp75
Rp76
ssS'paralog'
p77
(lp78
S'YLR406C'
p79
aS'YDL075W'
p80
asS'alignment_file'
p81
S'/Users/xji3/Genconv/PairsAlignemt/YLR406C_YDL075W/YLR406C_YDL075W_input.fasta'
p82
sS'x'
p83
cnumpy.core.multiarray
_reconstruct
p84
(cnumpy
ndarray
p85
(I0
tp86
S'b'
p87
tp88
Rp89
(I1
(I17
tp90
g38
I00
S"\xc4\xf2$\xe0\xba&\xe6\xbfY\xd3\xdb9\x84R\xe0\xbf\xc07\x96\x0f`t\xec\xbf\xea#\xe3$\x9e\x0e\x02@Q\xaa\xc4\xe3.\xb2\x08@\xc4&v\xfc*w\x13\xc0,\xa0:jC\xd7\x15\xc0y\x8f\x8f?\x82\xaa\x18\xc0\xf0\x88\xb8%x\x95\x1a\xc0\xf9\xdbN\x0e\xach\x10\xc0m\xc6@}\x90\xea\x12\xc0\xb1\xa7'v\x86[\x12\xc0=\xb5\xb6'E\x00\x14\xc0,\xa0:jC\xd7\x15\xc0+\x92\xca\xf0C\xc6\x14\xc0:\xf9\x98\xdfV\xf4\x1a\xc0ao|\xc6w\xfc\x0c\xc0"
p91
tp92
bsS'Model'
p93
S'HKY'
p94
s.